   1              		.file	"main.cpp"
   2              		.option nopic
   3              		.attribute arch, "rv32i2p0_m2p0_a2p0_f2p0_c2p0_xw"
   4              		.attribute unaligned_access, 0
   5              		.attribute stack_align, 16
   6              		.text
   7              	.Ltext0:
   8              		.file 0 "C:\\Users\\localhost\\Documents\\turbomoskal-repo\\qqexpert\\firmware\\MasterController\\
   9              		.section	.rodata.main.str1.4,"aMS",@progbits,1
  10              		.align	2
  11              	.LC0:
  12 0000 53797374 		.string	"SystemClk:%d\r\n"
  12      656D436C 
  12      6B3A2564 
  12      0D0A00
  13 000f 00       		.align	2
  14              	.LC1:
  15 0010 43686970 		.string	"ChipID:%08x\r\n"
  15      49443A25 
  15      3038780D 
  15      0A00
  16 001e 0000     		.align	2
  17              	.LC2:
  18 0020 54686973 		.string	"This is printf example\r"
  18      20697320 
  18      7072696E 
  18      74662065 
  18      78616D70 
  19              		.align	2
  20              	.LC3:
  21 0038 756E7375 		.string	"unsuccesful"
  21      63636573 
  21      66756C00 
  22              		.align	2
  23              	.LC4:
  24 0044 48656C6C 		.string	"Hello, World!\n"
  24      6F2C2057 
  24      6F726C64 
  24      210A00
  25              		.section	.text.startup.main,"ax",@progbits
  26              		.align	1
  27              		.globl	main
  29              	main:
  30              	.LFB2522:
  31              		.file 1 "../User/main.cpp"
   1:../User/main.cpp **** /********************************** (C) COPYRIGHT *******************************
   2:../User/main.cpp **** * File Name          : main.c
   3:../User/main.cpp **** * Author             : WCH
   4:../User/main.cpp **** * Version            : V1.0.0
   5:../User/main.cpp **** * Date               : 2021/06/06
   6:../User/main.cpp **** * Description        : Main program body.
   7:../User/main.cpp **** *********************************************************************************
   8:../User/main.cpp **** * Copyright (c) 2021 Nanjing Qinheng Microelectronics Co., Ltd.
   9:../User/main.cpp **** * Attention: This software (modified or not) and binary are used for 
  10:../User/main.cpp **** * microcontroller manufactured by Nanjing Qinheng Microelectronics.
  11:../User/main.cpp **** *******************************************************************************/
  12:../User/main.cpp **** 
  13:../User/main.cpp **** /*
  14:../User/main.cpp ****  *@Note
  15:../User/main.cpp ****  USART Print debugging routine:
  16:../User/main.cpp ****  USART1_Tx(PA9).
  17:../User/main.cpp ****  This example demonstrates using USART1(PA9) as a print debug port output.
  18:../User/main.cpp **** 
  19:../User/main.cpp **** */
  20:../User/main.cpp **** 
  21:../User/main.cpp **** #include "debug.h"
  22:../User/main.cpp **** #include <iostream>
  23:../User/main.cpp **** #include <string>
  24:../User/main.cpp **** #include <cmath>
  25:../User/main.cpp **** 
  26:../User/main.cpp **** /* Global typedef */
  27:../User/main.cpp **** 
  28:../User/main.cpp **** /* Global define */
  29:../User/main.cpp **** 
  30:../User/main.cpp **** /* Global Variable */
  31:../User/main.cpp **** 
  32:../User/main.cpp **** 
  33:../User/main.cpp **** /*********************************************************************
  34:../User/main.cpp ****  * @fn      main
  35:../User/main.cpp ****  *
  36:../User/main.cpp ****  * @brief   Main program.
  37:../User/main.cpp ****  *
  38:../User/main.cpp ****  * @return  none
  39:../User/main.cpp ****  */
  40:../User/main.cpp **** int main(void)
  41:../User/main.cpp **** {
  32              		.loc 1 41 1
  33              		.cfi_startproc
  34              		.cfi_personality 0x9b,DW.ref.__gxx_personality_v0
  35              		.cfi_lsda 0x1b,.LLSDA2522
  36 0000 17030000 		call	t0,__riscv_save_2
  36      E7020300 
  37              		.cfi_offset 9, -12
  38              		.cfi_offset 8, -8
  39              		.cfi_offset 1, -4
  40              		.cfi_def_cfa_offset 16
  42:../User/main.cpp **** 	NVIC_PriorityGroupConfig(NVIC_PriorityGroup_2);
  41              		.loc 1 42 2
  41:../User/main.cpp **** 	NVIC_PriorityGroupConfig(NVIC_PriorityGroup_2);
  42              		.loc 1 41 1 is_stmt 0
  43 0008 0111     		addi	sp,sp,-32
  44              		.cfi_def_cfa_offset 48
  45              		.loc 1 42 26
  46 000a 0945     		li	a0,2
  47              	.LEHB0:
  48 000c 97000000 		call	NVIC_PriorityGroupConfig
  48      E7800000 
  49              	.LVL0:
  43:../User/main.cpp **** 	SystemCoreClockUpdate();
  50              		.loc 1 43 2 is_stmt 1
  51              		.loc 1 43 23 is_stmt 0
  52 0014 97000000 		call	SystemCoreClockUpdate
  52      E7800000 
  53              	.LVL1:
  44:../User/main.cpp **** 	Delay_Init();
  54              		.loc 1 44 2 is_stmt 1
  55              		.loc 1 44 12 is_stmt 0
  56 001c 97000000 		call	Delay_Init
  56      E7800000 
  57              	.LVL2:
  45:../User/main.cpp **** 	USART_Printf_Init(115200);	
  58              		.loc 1 45 2 is_stmt 1
  59              		.loc 1 45 19 is_stmt 0
  60 0024 7165     		li	a0,114688
  61 0026 13050520 		addi	a0,a0,512
  62 002a 97000000 		call	USART_Printf_Init
  62      E7800000 
  63              	.LVL3:
  46:../User/main.cpp **** 	printf("SystemClk:%d\r\n",SystemCoreClock);
  64              		.loc 1 46 2 is_stmt 1
  65              		.loc 1 46 8 is_stmt 0
  66 0032 97050000 		lw	a1,SystemCoreClock
  66      83A50500 
  67 003a 17050000 		lla	a0,.LC0
  67      13050500 
  68 0042 97000000 		call	printf
  68      E7800000 
  69              	.LVL4:
  47:../User/main.cpp **** 	printf( "ChipID:%08x\r\n", DBGMCU_GetCHIPID() );
  70              		.loc 1 47 2 is_stmt 1
  71              		.loc 1 47 8 is_stmt 0
  72 004a 97000000 		call	DBGMCU_GetCHIPID
  72      E7800000 
  73              	.LVL5:
  74 0052 AA85     		mv	a1,a0
  75 0054 17050000 		lla	a0,.LC1
  75      13050500 
  76 005c 97000000 		call	printf
  76      E7800000 
  77              	.LVL6:
  48:../User/main.cpp **** 	printf("This is printf example\r\n");
  78              		.loc 1 48 2 is_stmt 1
  79              		.loc 1 48 8 is_stmt 0
  80 0064 17050000 		lla	a0,.LC2
  80      13050500 
  81 006c 97000000 		call	puts
  81      E7800000 
  82              	.LVL7:
  83              	.LEHE0:
  49:../User/main.cpp **** 
  50:../User/main.cpp **** 	const float pi = 3.1415f;
  84              		.loc 1 50 2 is_stmt 1
  51:../User/main.cpp **** 	std::string input = "unsuccesful";
  85              		.loc 1 51 2
  86              	.LBB326:
  87              	.LBB327:
  88              	.LBB328:
  89              	.LBB329:
  90              	.LBB330:
  91              	.LBB331:
  92              		.file 2 "d:\\software\\mounriver_studio\\toolchain\\risc-v embedded gcc12\\riscv-none-elf\\include
   1:d:\software\mounriver_studio\toolchain\risc-v embedded gcc12\riscv-none-elf\include\c++\12.2.0\bits\basic_string.h **** // Components for manipulating sequences of characters -*- C++ -*-
   2:d:\software\mounriver_studio\toolchain\risc-v embedded gcc12\riscv-none-elf\include\c++\12.2.0\bits\basic_string.h **** 
   3:d:\software\mounriver_studio\toolchain\risc-v embedded gcc12\riscv-none-elf\include\c++\12.2.0\bits\basic_string.h **** // Copyright (C) 1997-2022 Free Software Foundation, Inc.
   4:d:\software\mounriver_studio\toolchain\risc-v embedded gcc12\riscv-none-elf\include\c++\12.2.0\bits\basic_string.h **** //
   5:d:\software\mounriver_studio\toolchain\risc-v embedded gcc12\riscv-none-elf\include\c++\12.2.0\bits\basic_string.h **** // This file is part of the GNU ISO C++ Library.  This library is free
   6:d:\software\mounriver_studio\toolchain\risc-v embedded gcc12\riscv-none-elf\include\c++\12.2.0\bits\basic_string.h **** // software; you can redistribute it and/or modify it under the
   7:d:\software\mounriver_studio\toolchain\risc-v embedded gcc12\riscv-none-elf\include\c++\12.2.0\bits\basic_string.h **** // terms of the GNU General Public License as published by the
   8:d:\software\mounriver_studio\toolchain\risc-v embedded gcc12\riscv-none-elf\include\c++\12.2.0\bits\basic_string.h **** // Free Software Foundation; either version 3, or (at your option)
   9:d:\software\mounriver_studio\toolchain\risc-v embedded gcc12\riscv-none-elf\include\c++\12.2.0\bits\basic_string.h **** // any later version.
  10:d:\software\mounriver_studio\toolchain\risc-v embedded gcc12\riscv-none-elf\include\c++\12.2.0\bits\basic_string.h **** 
  11:d:\software\mounriver_studio\toolchain\risc-v embedded gcc12\riscv-none-elf\include\c++\12.2.0\bits\basic_string.h **** // This library is distributed in the hope that it will be useful,
  12:d:\software\mounriver_studio\toolchain\risc-v embedded gcc12\riscv-none-elf\include\c++\12.2.0\bits\basic_string.h **** // but WITHOUT ANY WARRANTY; without even the implied warranty of
  13:d:\software\mounriver_studio\toolchain\risc-v embedded gcc12\riscv-none-elf\include\c++\12.2.0\bits\basic_string.h **** // MERCHANTABILITY or FITNESS FOR A PARTICULAR PURPOSE.  See the
  14:d:\software\mounriver_studio\toolchain\risc-v embedded gcc12\riscv-none-elf\include\c++\12.2.0\bits\basic_string.h **** // GNU General Public License for more details.
  15:d:\software\mounriver_studio\toolchain\risc-v embedded gcc12\riscv-none-elf\include\c++\12.2.0\bits\basic_string.h **** 
  16:d:\software\mounriver_studio\toolchain\risc-v embedded gcc12\riscv-none-elf\include\c++\12.2.0\bits\basic_string.h **** // Under Section 7 of GPL version 3, you are granted additional
  17:d:\software\mounriver_studio\toolchain\risc-v embedded gcc12\riscv-none-elf\include\c++\12.2.0\bits\basic_string.h **** // permissions described in the GCC Runtime Library Exception, version
  18:d:\software\mounriver_studio\toolchain\risc-v embedded gcc12\riscv-none-elf\include\c++\12.2.0\bits\basic_string.h **** // 3.1, as published by the Free Software Foundation.
  19:d:\software\mounriver_studio\toolchain\risc-v embedded gcc12\riscv-none-elf\include\c++\12.2.0\bits\basic_string.h **** 
  20:d:\software\mounriver_studio\toolchain\risc-v embedded gcc12\riscv-none-elf\include\c++\12.2.0\bits\basic_string.h **** // You should have received a copy of the GNU General Public License and
  21:d:\software\mounriver_studio\toolchain\risc-v embedded gcc12\riscv-none-elf\include\c++\12.2.0\bits\basic_string.h **** // a copy of the GCC Runtime Library Exception along with this program;
  22:d:\software\mounriver_studio\toolchain\risc-v embedded gcc12\riscv-none-elf\include\c++\12.2.0\bits\basic_string.h **** // see the files COPYING3 and COPYING.RUNTIME respectively.  If not, see
  23:d:\software\mounriver_studio\toolchain\risc-v embedded gcc12\riscv-none-elf\include\c++\12.2.0\bits\basic_string.h **** // <http://www.gnu.org/licenses/>.
  24:d:\software\mounriver_studio\toolchain\risc-v embedded gcc12\riscv-none-elf\include\c++\12.2.0\bits\basic_string.h **** 
  25:d:\software\mounriver_studio\toolchain\risc-v embedded gcc12\riscv-none-elf\include\c++\12.2.0\bits\basic_string.h **** /** @file bits/basic_string.h
  26:d:\software\mounriver_studio\toolchain\risc-v embedded gcc12\riscv-none-elf\include\c++\12.2.0\bits\basic_string.h ****  *  This is an internal header file, included by other library headers.
  27:d:\software\mounriver_studio\toolchain\risc-v embedded gcc12\riscv-none-elf\include\c++\12.2.0\bits\basic_string.h ****  *  Do not attempt to use it directly. @headername{string}
  28:d:\software\mounriver_studio\toolchain\risc-v embedded gcc12\riscv-none-elf\include\c++\12.2.0\bits\basic_string.h ****  */
  29:d:\software\mounriver_studio\toolchain\risc-v embedded gcc12\riscv-none-elf\include\c++\12.2.0\bits\basic_string.h **** 
  30:d:\software\mounriver_studio\toolchain\risc-v embedded gcc12\riscv-none-elf\include\c++\12.2.0\bits\basic_string.h **** //
  31:d:\software\mounriver_studio\toolchain\risc-v embedded gcc12\riscv-none-elf\include\c++\12.2.0\bits\basic_string.h **** // ISO C++ 14882: 21 Strings library
  32:d:\software\mounriver_studio\toolchain\risc-v embedded gcc12\riscv-none-elf\include\c++\12.2.0\bits\basic_string.h **** //
  33:d:\software\mounriver_studio\toolchain\risc-v embedded gcc12\riscv-none-elf\include\c++\12.2.0\bits\basic_string.h **** 
  34:d:\software\mounriver_studio\toolchain\risc-v embedded gcc12\riscv-none-elf\include\c++\12.2.0\bits\basic_string.h **** #ifndef _BASIC_STRING_H
  35:d:\software\mounriver_studio\toolchain\risc-v embedded gcc12\riscv-none-elf\include\c++\12.2.0\bits\basic_string.h **** #define _BASIC_STRING_H 1
  36:d:\software\mounriver_studio\toolchain\risc-v embedded gcc12\riscv-none-elf\include\c++\12.2.0\bits\basic_string.h **** 
  37:d:\software\mounriver_studio\toolchain\risc-v embedded gcc12\riscv-none-elf\include\c++\12.2.0\bits\basic_string.h **** #pragma GCC system_header
  38:d:\software\mounriver_studio\toolchain\risc-v embedded gcc12\riscv-none-elf\include\c++\12.2.0\bits\basic_string.h **** 
  39:d:\software\mounriver_studio\toolchain\risc-v embedded gcc12\riscv-none-elf\include\c++\12.2.0\bits\basic_string.h **** #include <ext/alloc_traits.h>
  40:d:\software\mounriver_studio\toolchain\risc-v embedded gcc12\riscv-none-elf\include\c++\12.2.0\bits\basic_string.h **** #include <debug/debug.h>
  41:d:\software\mounriver_studio\toolchain\risc-v embedded gcc12\riscv-none-elf\include\c++\12.2.0\bits\basic_string.h **** 
  42:d:\software\mounriver_studio\toolchain\risc-v embedded gcc12\riscv-none-elf\include\c++\12.2.0\bits\basic_string.h **** #if __cplusplus >= 201103L
  43:d:\software\mounriver_studio\toolchain\risc-v embedded gcc12\riscv-none-elf\include\c++\12.2.0\bits\basic_string.h **** #include <initializer_list>
  44:d:\software\mounriver_studio\toolchain\risc-v embedded gcc12\riscv-none-elf\include\c++\12.2.0\bits\basic_string.h **** #endif
  45:d:\software\mounriver_studio\toolchain\risc-v embedded gcc12\riscv-none-elf\include\c++\12.2.0\bits\basic_string.h **** 
  46:d:\software\mounriver_studio\toolchain\risc-v embedded gcc12\riscv-none-elf\include\c++\12.2.0\bits\basic_string.h **** #if __cplusplus >= 201703L
  47:d:\software\mounriver_studio\toolchain\risc-v embedded gcc12\riscv-none-elf\include\c++\12.2.0\bits\basic_string.h **** # include <string_view>
  48:d:\software\mounriver_studio\toolchain\risc-v embedded gcc12\riscv-none-elf\include\c++\12.2.0\bits\basic_string.h **** #endif
  49:d:\software\mounriver_studio\toolchain\risc-v embedded gcc12\riscv-none-elf\include\c++\12.2.0\bits\basic_string.h **** 
  50:d:\software\mounriver_studio\toolchain\risc-v embedded gcc12\riscv-none-elf\include\c++\12.2.0\bits\basic_string.h **** #if ! _GLIBCXX_USE_CXX11_ABI
  51:d:\software\mounriver_studio\toolchain\risc-v embedded gcc12\riscv-none-elf\include\c++\12.2.0\bits\basic_string.h **** # include "cow_string.h"
  52:d:\software\mounriver_studio\toolchain\risc-v embedded gcc12\riscv-none-elf\include\c++\12.2.0\bits\basic_string.h **** #else
  53:d:\software\mounriver_studio\toolchain\risc-v embedded gcc12\riscv-none-elf\include\c++\12.2.0\bits\basic_string.h **** namespace std _GLIBCXX_VISIBILITY(default)
  54:d:\software\mounriver_studio\toolchain\risc-v embedded gcc12\riscv-none-elf\include\c++\12.2.0\bits\basic_string.h **** {
  55:d:\software\mounriver_studio\toolchain\risc-v embedded gcc12\riscv-none-elf\include\c++\12.2.0\bits\basic_string.h **** _GLIBCXX_BEGIN_NAMESPACE_VERSION
  56:d:\software\mounriver_studio\toolchain\risc-v embedded gcc12\riscv-none-elf\include\c++\12.2.0\bits\basic_string.h **** _GLIBCXX_BEGIN_NAMESPACE_CXX11
  57:d:\software\mounriver_studio\toolchain\risc-v embedded gcc12\riscv-none-elf\include\c++\12.2.0\bits\basic_string.h **** 
  58:d:\software\mounriver_studio\toolchain\risc-v embedded gcc12\riscv-none-elf\include\c++\12.2.0\bits\basic_string.h **** #ifdef __cpp_lib_is_constant_evaluated
  59:d:\software\mounriver_studio\toolchain\risc-v embedded gcc12\riscv-none-elf\include\c++\12.2.0\bits\basic_string.h **** // Support P0980R1 in C++20.
  60:d:\software\mounriver_studio\toolchain\risc-v embedded gcc12\riscv-none-elf\include\c++\12.2.0\bits\basic_string.h **** # define __cpp_lib_constexpr_string 201907L
  61:d:\software\mounriver_studio\toolchain\risc-v embedded gcc12\riscv-none-elf\include\c++\12.2.0\bits\basic_string.h **** #elif __cplusplus >= 201703L && _GLIBCXX_HAVE_IS_CONSTANT_EVALUATED
  62:d:\software\mounriver_studio\toolchain\risc-v embedded gcc12\riscv-none-elf\include\c++\12.2.0\bits\basic_string.h **** // Support P0426R1 changes to char_traits in C++17.
  63:d:\software\mounriver_studio\toolchain\risc-v embedded gcc12\riscv-none-elf\include\c++\12.2.0\bits\basic_string.h **** # define __cpp_lib_constexpr_string 201611L
  64:d:\software\mounriver_studio\toolchain\risc-v embedded gcc12\riscv-none-elf\include\c++\12.2.0\bits\basic_string.h **** #endif
  65:d:\software\mounriver_studio\toolchain\risc-v embedded gcc12\riscv-none-elf\include\c++\12.2.0\bits\basic_string.h **** 
  66:d:\software\mounriver_studio\toolchain\risc-v embedded gcc12\riscv-none-elf\include\c++\12.2.0\bits\basic_string.h ****   /**
  67:d:\software\mounriver_studio\toolchain\risc-v embedded gcc12\riscv-none-elf\include\c++\12.2.0\bits\basic_string.h ****    *  @class basic_string basic_string.h <string>
  68:d:\software\mounriver_studio\toolchain\risc-v embedded gcc12\riscv-none-elf\include\c++\12.2.0\bits\basic_string.h ****    *  @brief  Managing sequences of characters and character-like objects.
  69:d:\software\mounriver_studio\toolchain\risc-v embedded gcc12\riscv-none-elf\include\c++\12.2.0\bits\basic_string.h ****    *
  70:d:\software\mounriver_studio\toolchain\risc-v embedded gcc12\riscv-none-elf\include\c++\12.2.0\bits\basic_string.h ****    *  @ingroup strings
  71:d:\software\mounriver_studio\toolchain\risc-v embedded gcc12\riscv-none-elf\include\c++\12.2.0\bits\basic_string.h ****    *  @ingroup sequences
  72:d:\software\mounriver_studio\toolchain\risc-v embedded gcc12\riscv-none-elf\include\c++\12.2.0\bits\basic_string.h ****    *
  73:d:\software\mounriver_studio\toolchain\risc-v embedded gcc12\riscv-none-elf\include\c++\12.2.0\bits\basic_string.h ****    *  @tparam _CharT  Type of character
  74:d:\software\mounriver_studio\toolchain\risc-v embedded gcc12\riscv-none-elf\include\c++\12.2.0\bits\basic_string.h ****    *  @tparam _Traits  Traits for character type, defaults to
  75:d:\software\mounriver_studio\toolchain\risc-v embedded gcc12\riscv-none-elf\include\c++\12.2.0\bits\basic_string.h ****    *                   char_traits<_CharT>.
  76:d:\software\mounriver_studio\toolchain\risc-v embedded gcc12\riscv-none-elf\include\c++\12.2.0\bits\basic_string.h ****    *  @tparam _Alloc  Allocator type, defaults to allocator<_CharT>.
  77:d:\software\mounriver_studio\toolchain\risc-v embedded gcc12\riscv-none-elf\include\c++\12.2.0\bits\basic_string.h ****    *
  78:d:\software\mounriver_studio\toolchain\risc-v embedded gcc12\riscv-none-elf\include\c++\12.2.0\bits\basic_string.h ****    *  Meets the requirements of a <a href="tables.html#65">container</a>, a
  79:d:\software\mounriver_studio\toolchain\risc-v embedded gcc12\riscv-none-elf\include\c++\12.2.0\bits\basic_string.h ****    *  <a href="tables.html#66">reversible container</a>, and a
  80:d:\software\mounriver_studio\toolchain\risc-v embedded gcc12\riscv-none-elf\include\c++\12.2.0\bits\basic_string.h ****    *  <a href="tables.html#67">sequence</a>.  Of the
  81:d:\software\mounriver_studio\toolchain\risc-v embedded gcc12\riscv-none-elf\include\c++\12.2.0\bits\basic_string.h ****    *  <a href="tables.html#68">optional sequence requirements</a>, only
  82:d:\software\mounriver_studio\toolchain\risc-v embedded gcc12\riscv-none-elf\include\c++\12.2.0\bits\basic_string.h ****    *  @c push_back, @c at, and @c %array access are supported.
  83:d:\software\mounriver_studio\toolchain\risc-v embedded gcc12\riscv-none-elf\include\c++\12.2.0\bits\basic_string.h ****    */
  84:d:\software\mounriver_studio\toolchain\risc-v embedded gcc12\riscv-none-elf\include\c++\12.2.0\bits\basic_string.h ****   template<typename _CharT, typename _Traits, typename _Alloc>
  85:d:\software\mounriver_studio\toolchain\risc-v embedded gcc12\riscv-none-elf\include\c++\12.2.0\bits\basic_string.h ****     class basic_string
  86:d:\software\mounriver_studio\toolchain\risc-v embedded gcc12\riscv-none-elf\include\c++\12.2.0\bits\basic_string.h ****     {
  87:d:\software\mounriver_studio\toolchain\risc-v embedded gcc12\riscv-none-elf\include\c++\12.2.0\bits\basic_string.h ****       typedef typename __gnu_cxx::__alloc_traits<_Alloc>::template
  88:d:\software\mounriver_studio\toolchain\risc-v embedded gcc12\riscv-none-elf\include\c++\12.2.0\bits\basic_string.h **** 	rebind<_CharT>::other _Char_alloc_type;
  89:d:\software\mounriver_studio\toolchain\risc-v embedded gcc12\riscv-none-elf\include\c++\12.2.0\bits\basic_string.h **** 
  90:d:\software\mounriver_studio\toolchain\risc-v embedded gcc12\riscv-none-elf\include\c++\12.2.0\bits\basic_string.h **** #if __cpp_lib_constexpr_string < 201907L
  91:d:\software\mounriver_studio\toolchain\risc-v embedded gcc12\riscv-none-elf\include\c++\12.2.0\bits\basic_string.h ****       typedef __gnu_cxx::__alloc_traits<_Char_alloc_type> _Alloc_traits;
  92:d:\software\mounriver_studio\toolchain\risc-v embedded gcc12\riscv-none-elf\include\c++\12.2.0\bits\basic_string.h **** #else
  93:d:\software\mounriver_studio\toolchain\risc-v embedded gcc12\riscv-none-elf\include\c++\12.2.0\bits\basic_string.h ****       template<typename _Traits2, typename _Dummy_for_PR85282>
  94:d:\software\mounriver_studio\toolchain\risc-v embedded gcc12\riscv-none-elf\include\c++\12.2.0\bits\basic_string.h **** 	struct _Alloc_traits_impl : __gnu_cxx::__alloc_traits<_Char_alloc_type>
  95:d:\software\mounriver_studio\toolchain\risc-v embedded gcc12\riscv-none-elf\include\c++\12.2.0\bits\basic_string.h **** 	{
  96:d:\software\mounriver_studio\toolchain\risc-v embedded gcc12\riscv-none-elf\include\c++\12.2.0\bits\basic_string.h **** 	  typedef __gnu_cxx::__alloc_traits<_Char_alloc_type> _Base;
  97:d:\software\mounriver_studio\toolchain\risc-v embedded gcc12\riscv-none-elf\include\c++\12.2.0\bits\basic_string.h **** 
  98:d:\software\mounriver_studio\toolchain\risc-v embedded gcc12\riscv-none-elf\include\c++\12.2.0\bits\basic_string.h **** 	  [[__gnu__::__always_inline__]]
  99:d:\software\mounriver_studio\toolchain\risc-v embedded gcc12\riscv-none-elf\include\c++\12.2.0\bits\basic_string.h **** 	  static constexpr typename _Base::pointer
 100:d:\software\mounriver_studio\toolchain\risc-v embedded gcc12\riscv-none-elf\include\c++\12.2.0\bits\basic_string.h **** 	  allocate(_Char_alloc_type& __a, typename _Base::size_type __n)
 101:d:\software\mounriver_studio\toolchain\risc-v embedded gcc12\riscv-none-elf\include\c++\12.2.0\bits\basic_string.h **** 	  {
 102:d:\software\mounriver_studio\toolchain\risc-v embedded gcc12\riscv-none-elf\include\c++\12.2.0\bits\basic_string.h **** 	    pointer __p = _Base::allocate(__a, __n);
 103:d:\software\mounriver_studio\toolchain\risc-v embedded gcc12\riscv-none-elf\include\c++\12.2.0\bits\basic_string.h **** 	    if (std::is_constant_evaluated())
 104:d:\software\mounriver_studio\toolchain\risc-v embedded gcc12\riscv-none-elf\include\c++\12.2.0\bits\basic_string.h **** 	      // Begin the lifetime of characters in allocated storage.
 105:d:\software\mounriver_studio\toolchain\risc-v embedded gcc12\riscv-none-elf\include\c++\12.2.0\bits\basic_string.h **** 	      for (size_type __i = 0; __i < __n; ++__i)
 106:d:\software\mounriver_studio\toolchain\risc-v embedded gcc12\riscv-none-elf\include\c++\12.2.0\bits\basic_string.h **** 		std::construct_at(__builtin_addressof(__p[__i]));
 107:d:\software\mounriver_studio\toolchain\risc-v embedded gcc12\riscv-none-elf\include\c++\12.2.0\bits\basic_string.h **** 	    return __p;
 108:d:\software\mounriver_studio\toolchain\risc-v embedded gcc12\riscv-none-elf\include\c++\12.2.0\bits\basic_string.h **** 	  }
 109:d:\software\mounriver_studio\toolchain\risc-v embedded gcc12\riscv-none-elf\include\c++\12.2.0\bits\basic_string.h **** 	};
 110:d:\software\mounriver_studio\toolchain\risc-v embedded gcc12\riscv-none-elf\include\c++\12.2.0\bits\basic_string.h **** 
 111:d:\software\mounriver_studio\toolchain\risc-v embedded gcc12\riscv-none-elf\include\c++\12.2.0\bits\basic_string.h ****       template<typename _Dummy_for_PR85282>
 112:d:\software\mounriver_studio\toolchain\risc-v embedded gcc12\riscv-none-elf\include\c++\12.2.0\bits\basic_string.h **** 	struct _Alloc_traits_impl<char_traits<_CharT>, _Dummy_for_PR85282>
 113:d:\software\mounriver_studio\toolchain\risc-v embedded gcc12\riscv-none-elf\include\c++\12.2.0\bits\basic_string.h **** 	: __gnu_cxx::__alloc_traits<_Char_alloc_type>
 114:d:\software\mounriver_studio\toolchain\risc-v embedded gcc12\riscv-none-elf\include\c++\12.2.0\bits\basic_string.h **** 	{
 115:d:\software\mounriver_studio\toolchain\risc-v embedded gcc12\riscv-none-elf\include\c++\12.2.0\bits\basic_string.h **** 	  // std::char_traits begins the lifetime of characters.
 116:d:\software\mounriver_studio\toolchain\risc-v embedded gcc12\riscv-none-elf\include\c++\12.2.0\bits\basic_string.h **** 	};
 117:d:\software\mounriver_studio\toolchain\risc-v embedded gcc12\riscv-none-elf\include\c++\12.2.0\bits\basic_string.h **** 
 118:d:\software\mounriver_studio\toolchain\risc-v embedded gcc12\riscv-none-elf\include\c++\12.2.0\bits\basic_string.h ****       using _Alloc_traits = _Alloc_traits_impl<_Traits, void>;
 119:d:\software\mounriver_studio\toolchain\risc-v embedded gcc12\riscv-none-elf\include\c++\12.2.0\bits\basic_string.h **** #endif
 120:d:\software\mounriver_studio\toolchain\risc-v embedded gcc12\riscv-none-elf\include\c++\12.2.0\bits\basic_string.h **** 
 121:d:\software\mounriver_studio\toolchain\risc-v embedded gcc12\riscv-none-elf\include\c++\12.2.0\bits\basic_string.h ****       // Types:
 122:d:\software\mounriver_studio\toolchain\risc-v embedded gcc12\riscv-none-elf\include\c++\12.2.0\bits\basic_string.h ****     public:
 123:d:\software\mounriver_studio\toolchain\risc-v embedded gcc12\riscv-none-elf\include\c++\12.2.0\bits\basic_string.h ****       typedef _Traits					traits_type;
 124:d:\software\mounriver_studio\toolchain\risc-v embedded gcc12\riscv-none-elf\include\c++\12.2.0\bits\basic_string.h ****       typedef typename _Traits::char_type		value_type;
 125:d:\software\mounriver_studio\toolchain\risc-v embedded gcc12\riscv-none-elf\include\c++\12.2.0\bits\basic_string.h ****       typedef _Char_alloc_type				allocator_type;
 126:d:\software\mounriver_studio\toolchain\risc-v embedded gcc12\riscv-none-elf\include\c++\12.2.0\bits\basic_string.h ****       typedef typename _Alloc_traits::size_type		size_type;
 127:d:\software\mounriver_studio\toolchain\risc-v embedded gcc12\riscv-none-elf\include\c++\12.2.0\bits\basic_string.h ****       typedef typename _Alloc_traits::difference_type	difference_type;
 128:d:\software\mounriver_studio\toolchain\risc-v embedded gcc12\riscv-none-elf\include\c++\12.2.0\bits\basic_string.h ****       typedef typename _Alloc_traits::reference		reference;
 129:d:\software\mounriver_studio\toolchain\risc-v embedded gcc12\riscv-none-elf\include\c++\12.2.0\bits\basic_string.h ****       typedef typename _Alloc_traits::const_reference	const_reference;
 130:d:\software\mounriver_studio\toolchain\risc-v embedded gcc12\riscv-none-elf\include\c++\12.2.0\bits\basic_string.h ****       typedef typename _Alloc_traits::pointer		pointer;
 131:d:\software\mounriver_studio\toolchain\risc-v embedded gcc12\riscv-none-elf\include\c++\12.2.0\bits\basic_string.h ****       typedef typename _Alloc_traits::const_pointer	const_pointer;
 132:d:\software\mounriver_studio\toolchain\risc-v embedded gcc12\riscv-none-elf\include\c++\12.2.0\bits\basic_string.h ****       typedef __gnu_cxx::__normal_iterator<pointer, basic_string>  iterator;
 133:d:\software\mounriver_studio\toolchain\risc-v embedded gcc12\riscv-none-elf\include\c++\12.2.0\bits\basic_string.h ****       typedef __gnu_cxx::__normal_iterator<const_pointer, basic_string>
 134:d:\software\mounriver_studio\toolchain\risc-v embedded gcc12\riscv-none-elf\include\c++\12.2.0\bits\basic_string.h **** 							const_iterator;
 135:d:\software\mounriver_studio\toolchain\risc-v embedded gcc12\riscv-none-elf\include\c++\12.2.0\bits\basic_string.h ****       typedef std::reverse_iterator<const_iterator>	const_reverse_iterator;
 136:d:\software\mounriver_studio\toolchain\risc-v embedded gcc12\riscv-none-elf\include\c++\12.2.0\bits\basic_string.h ****       typedef std::reverse_iterator<iterator>		reverse_iterator;
 137:d:\software\mounriver_studio\toolchain\risc-v embedded gcc12\riscv-none-elf\include\c++\12.2.0\bits\basic_string.h **** 
 138:d:\software\mounriver_studio\toolchain\risc-v embedded gcc12\riscv-none-elf\include\c++\12.2.0\bits\basic_string.h ****       ///  Value returned by various member functions when they fail.
 139:d:\software\mounriver_studio\toolchain\risc-v embedded gcc12\riscv-none-elf\include\c++\12.2.0\bits\basic_string.h ****       static const size_type	npos = static_cast<size_type>(-1);
 140:d:\software\mounriver_studio\toolchain\risc-v embedded gcc12\riscv-none-elf\include\c++\12.2.0\bits\basic_string.h **** 
 141:d:\software\mounriver_studio\toolchain\risc-v embedded gcc12\riscv-none-elf\include\c++\12.2.0\bits\basic_string.h ****     protected:
 142:d:\software\mounriver_studio\toolchain\risc-v embedded gcc12\riscv-none-elf\include\c++\12.2.0\bits\basic_string.h ****       // type used for positions in insert, erase etc.
 143:d:\software\mounriver_studio\toolchain\risc-v embedded gcc12\riscv-none-elf\include\c++\12.2.0\bits\basic_string.h **** #if __cplusplus < 201103L
 144:d:\software\mounriver_studio\toolchain\risc-v embedded gcc12\riscv-none-elf\include\c++\12.2.0\bits\basic_string.h ****       typedef iterator __const_iterator;
 145:d:\software\mounriver_studio\toolchain\risc-v embedded gcc12\riscv-none-elf\include\c++\12.2.0\bits\basic_string.h **** #else
 146:d:\software\mounriver_studio\toolchain\risc-v embedded gcc12\riscv-none-elf\include\c++\12.2.0\bits\basic_string.h ****       typedef const_iterator __const_iterator;
 147:d:\software\mounriver_studio\toolchain\risc-v embedded gcc12\riscv-none-elf\include\c++\12.2.0\bits\basic_string.h **** #endif
 148:d:\software\mounriver_studio\toolchain\risc-v embedded gcc12\riscv-none-elf\include\c++\12.2.0\bits\basic_string.h **** 
 149:d:\software\mounriver_studio\toolchain\risc-v embedded gcc12\riscv-none-elf\include\c++\12.2.0\bits\basic_string.h ****     private:
 150:d:\software\mounriver_studio\toolchain\risc-v embedded gcc12\riscv-none-elf\include\c++\12.2.0\bits\basic_string.h **** #if __cplusplus >= 201703L
 151:d:\software\mounriver_studio\toolchain\risc-v embedded gcc12\riscv-none-elf\include\c++\12.2.0\bits\basic_string.h ****       // A helper type for avoiding boiler-plate.
 152:d:\software\mounriver_studio\toolchain\risc-v embedded gcc12\riscv-none-elf\include\c++\12.2.0\bits\basic_string.h ****       typedef basic_string_view<_CharT, _Traits> __sv_type;
 153:d:\software\mounriver_studio\toolchain\risc-v embedded gcc12\riscv-none-elf\include\c++\12.2.0\bits\basic_string.h **** 
 154:d:\software\mounriver_studio\toolchain\risc-v embedded gcc12\riscv-none-elf\include\c++\12.2.0\bits\basic_string.h ****       template<typename _Tp, typename _Res>
 155:d:\software\mounriver_studio\toolchain\risc-v embedded gcc12\riscv-none-elf\include\c++\12.2.0\bits\basic_string.h **** 	using _If_sv = enable_if_t<
 156:d:\software\mounriver_studio\toolchain\risc-v embedded gcc12\riscv-none-elf\include\c++\12.2.0\bits\basic_string.h **** 	  __and_<is_convertible<const _Tp&, __sv_type>,
 157:d:\software\mounriver_studio\toolchain\risc-v embedded gcc12\riscv-none-elf\include\c++\12.2.0\bits\basic_string.h **** 		 __not_<is_convertible<const _Tp*, const basic_string*>>,
 158:d:\software\mounriver_studio\toolchain\risc-v embedded gcc12\riscv-none-elf\include\c++\12.2.0\bits\basic_string.h **** 		 __not_<is_convertible<const _Tp&, const _CharT*>>>::value,
 159:d:\software\mounriver_studio\toolchain\risc-v embedded gcc12\riscv-none-elf\include\c++\12.2.0\bits\basic_string.h **** 	  _Res>;
 160:d:\software\mounriver_studio\toolchain\risc-v embedded gcc12\riscv-none-elf\include\c++\12.2.0\bits\basic_string.h **** 
 161:d:\software\mounriver_studio\toolchain\risc-v embedded gcc12\riscv-none-elf\include\c++\12.2.0\bits\basic_string.h ****       // Allows an implicit conversion to __sv_type.
 162:d:\software\mounriver_studio\toolchain\risc-v embedded gcc12\riscv-none-elf\include\c++\12.2.0\bits\basic_string.h ****       _GLIBCXX20_CONSTEXPR
 163:d:\software\mounriver_studio\toolchain\risc-v embedded gcc12\riscv-none-elf\include\c++\12.2.0\bits\basic_string.h ****       static __sv_type
 164:d:\software\mounriver_studio\toolchain\risc-v embedded gcc12\riscv-none-elf\include\c++\12.2.0\bits\basic_string.h ****       _S_to_string_view(__sv_type __svt) noexcept
 165:d:\software\mounriver_studio\toolchain\risc-v embedded gcc12\riscv-none-elf\include\c++\12.2.0\bits\basic_string.h ****       { return __svt; }
 166:d:\software\mounriver_studio\toolchain\risc-v embedded gcc12\riscv-none-elf\include\c++\12.2.0\bits\basic_string.h **** 
 167:d:\software\mounriver_studio\toolchain\risc-v embedded gcc12\riscv-none-elf\include\c++\12.2.0\bits\basic_string.h ****       // Wraps a string_view by explicit conversion and thus
 168:d:\software\mounriver_studio\toolchain\risc-v embedded gcc12\riscv-none-elf\include\c++\12.2.0\bits\basic_string.h ****       // allows to add an internal constructor that does not
 169:d:\software\mounriver_studio\toolchain\risc-v embedded gcc12\riscv-none-elf\include\c++\12.2.0\bits\basic_string.h ****       // participate in overload resolution when a string_view
 170:d:\software\mounriver_studio\toolchain\risc-v embedded gcc12\riscv-none-elf\include\c++\12.2.0\bits\basic_string.h ****       // is provided.
 171:d:\software\mounriver_studio\toolchain\risc-v embedded gcc12\riscv-none-elf\include\c++\12.2.0\bits\basic_string.h ****       struct __sv_wrapper
 172:d:\software\mounriver_studio\toolchain\risc-v embedded gcc12\riscv-none-elf\include\c++\12.2.0\bits\basic_string.h ****       {
 173:d:\software\mounriver_studio\toolchain\risc-v embedded gcc12\riscv-none-elf\include\c++\12.2.0\bits\basic_string.h **** 	_GLIBCXX20_CONSTEXPR explicit
 174:d:\software\mounriver_studio\toolchain\risc-v embedded gcc12\riscv-none-elf\include\c++\12.2.0\bits\basic_string.h **** 	__sv_wrapper(__sv_type __sv) noexcept : _M_sv(__sv) { }
 175:d:\software\mounriver_studio\toolchain\risc-v embedded gcc12\riscv-none-elf\include\c++\12.2.0\bits\basic_string.h **** 
 176:d:\software\mounriver_studio\toolchain\risc-v embedded gcc12\riscv-none-elf\include\c++\12.2.0\bits\basic_string.h **** 	__sv_type _M_sv;
 177:d:\software\mounriver_studio\toolchain\risc-v embedded gcc12\riscv-none-elf\include\c++\12.2.0\bits\basic_string.h ****       };
 178:d:\software\mounriver_studio\toolchain\risc-v embedded gcc12\riscv-none-elf\include\c++\12.2.0\bits\basic_string.h **** 
 179:d:\software\mounriver_studio\toolchain\risc-v embedded gcc12\riscv-none-elf\include\c++\12.2.0\bits\basic_string.h ****       /**
 180:d:\software\mounriver_studio\toolchain\risc-v embedded gcc12\riscv-none-elf\include\c++\12.2.0\bits\basic_string.h ****        *  @brief  Only internally used: Construct string from a string view
 181:d:\software\mounriver_studio\toolchain\risc-v embedded gcc12\riscv-none-elf\include\c++\12.2.0\bits\basic_string.h ****        *          wrapper.
 182:d:\software\mounriver_studio\toolchain\risc-v embedded gcc12\riscv-none-elf\include\c++\12.2.0\bits\basic_string.h ****        *  @param  __svw  string view wrapper.
 183:d:\software\mounriver_studio\toolchain\risc-v embedded gcc12\riscv-none-elf\include\c++\12.2.0\bits\basic_string.h ****        *  @param  __a  Allocator to use.
 184:d:\software\mounriver_studio\toolchain\risc-v embedded gcc12\riscv-none-elf\include\c++\12.2.0\bits\basic_string.h ****        */
 185:d:\software\mounriver_studio\toolchain\risc-v embedded gcc12\riscv-none-elf\include\c++\12.2.0\bits\basic_string.h ****       _GLIBCXX20_CONSTEXPR
 186:d:\software\mounriver_studio\toolchain\risc-v embedded gcc12\riscv-none-elf\include\c++\12.2.0\bits\basic_string.h ****       explicit
 187:d:\software\mounriver_studio\toolchain\risc-v embedded gcc12\riscv-none-elf\include\c++\12.2.0\bits\basic_string.h ****       basic_string(__sv_wrapper __svw, const _Alloc& __a)
 188:d:\software\mounriver_studio\toolchain\risc-v embedded gcc12\riscv-none-elf\include\c++\12.2.0\bits\basic_string.h ****       : basic_string(__svw._M_sv.data(), __svw._M_sv.size(), __a) { }
 189:d:\software\mounriver_studio\toolchain\risc-v embedded gcc12\riscv-none-elf\include\c++\12.2.0\bits\basic_string.h **** #endif
 190:d:\software\mounriver_studio\toolchain\risc-v embedded gcc12\riscv-none-elf\include\c++\12.2.0\bits\basic_string.h **** 
 191:d:\software\mounriver_studio\toolchain\risc-v embedded gcc12\riscv-none-elf\include\c++\12.2.0\bits\basic_string.h ****       // Use empty-base optimization: http://www.cantrip.org/emptyopt.html
 192:d:\software\mounriver_studio\toolchain\risc-v embedded gcc12\riscv-none-elf\include\c++\12.2.0\bits\basic_string.h ****       struct _Alloc_hider : allocator_type // TODO check __is_final
 193:d:\software\mounriver_studio\toolchain\risc-v embedded gcc12\riscv-none-elf\include\c++\12.2.0\bits\basic_string.h ****       {
 194:d:\software\mounriver_studio\toolchain\risc-v embedded gcc12\riscv-none-elf\include\c++\12.2.0\bits\basic_string.h **** #if __cplusplus < 201103L
 195:d:\software\mounriver_studio\toolchain\risc-v embedded gcc12\riscv-none-elf\include\c++\12.2.0\bits\basic_string.h **** 	_Alloc_hider(pointer __dat, const _Alloc& __a = _Alloc())
 196:d:\software\mounriver_studio\toolchain\risc-v embedded gcc12\riscv-none-elf\include\c++\12.2.0\bits\basic_string.h **** 	: allocator_type(__a), _M_p(__dat) { }
 197:d:\software\mounriver_studio\toolchain\risc-v embedded gcc12\riscv-none-elf\include\c++\12.2.0\bits\basic_string.h **** #else
 198:d:\software\mounriver_studio\toolchain\risc-v embedded gcc12\riscv-none-elf\include\c++\12.2.0\bits\basic_string.h **** 	_GLIBCXX20_CONSTEXPR
 199:d:\software\mounriver_studio\toolchain\risc-v embedded gcc12\riscv-none-elf\include\c++\12.2.0\bits\basic_string.h **** 	_Alloc_hider(pointer __dat, const _Alloc& __a)
 200:d:\software\mounriver_studio\toolchain\risc-v embedded gcc12\riscv-none-elf\include\c++\12.2.0\bits\basic_string.h **** 	: allocator_type(__a), _M_p(__dat) { }
  93              		.loc 2 200 25 is_stmt 0
  94 0074 0408     		addi	s1,sp,16
  95              	.LVL8:
  96              	.LBE331:
  97              	.LBE330:
  98              	.LBE329:
  99              	.LBB334:
 100              	.LBB335:
 101              	.LBB336:
 102              	.LBB337:
 103              	.LBB338:
 104              	.LBB339:
 105              	.LBB340:
 106              		.file 3 "d:\\software\\mounriver_studio\\toolchain\\risc-v embedded gcc12\\riscv-none-elf\\include
   1:d:\software\mounriver_studio\toolchain\risc-v embedded gcc12\riscv-none-elf\include\c++\12.2.0\bits\char_traits.h **** // Character Traits for use by standard string and iostream -*- C++ -*-
   2:d:\software\mounriver_studio\toolchain\risc-v embedded gcc12\riscv-none-elf\include\c++\12.2.0\bits\char_traits.h **** 
   3:d:\software\mounriver_studio\toolchain\risc-v embedded gcc12\riscv-none-elf\include\c++\12.2.0\bits\char_traits.h **** // Copyright (C) 1997-2022 Free Software Foundation, Inc.
   4:d:\software\mounriver_studio\toolchain\risc-v embedded gcc12\riscv-none-elf\include\c++\12.2.0\bits\char_traits.h **** //
   5:d:\software\mounriver_studio\toolchain\risc-v embedded gcc12\riscv-none-elf\include\c++\12.2.0\bits\char_traits.h **** // This file is part of the GNU ISO C++ Library.  This library is free
   6:d:\software\mounriver_studio\toolchain\risc-v embedded gcc12\riscv-none-elf\include\c++\12.2.0\bits\char_traits.h **** // software; you can redistribute it and/or modify it under the
   7:d:\software\mounriver_studio\toolchain\risc-v embedded gcc12\riscv-none-elf\include\c++\12.2.0\bits\char_traits.h **** // terms of the GNU General Public License as published by the
   8:d:\software\mounriver_studio\toolchain\risc-v embedded gcc12\riscv-none-elf\include\c++\12.2.0\bits\char_traits.h **** // Free Software Foundation; either version 3, or (at your option)
   9:d:\software\mounriver_studio\toolchain\risc-v embedded gcc12\riscv-none-elf\include\c++\12.2.0\bits\char_traits.h **** // any later version.
  10:d:\software\mounriver_studio\toolchain\risc-v embedded gcc12\riscv-none-elf\include\c++\12.2.0\bits\char_traits.h **** 
  11:d:\software\mounriver_studio\toolchain\risc-v embedded gcc12\riscv-none-elf\include\c++\12.2.0\bits\char_traits.h **** // This library is distributed in the hope that it will be useful,
  12:d:\software\mounriver_studio\toolchain\risc-v embedded gcc12\riscv-none-elf\include\c++\12.2.0\bits\char_traits.h **** // but WITHOUT ANY WARRANTY; without even the implied warranty of
  13:d:\software\mounriver_studio\toolchain\risc-v embedded gcc12\riscv-none-elf\include\c++\12.2.0\bits\char_traits.h **** // MERCHANTABILITY or FITNESS FOR A PARTICULAR PURPOSE.  See the
  14:d:\software\mounriver_studio\toolchain\risc-v embedded gcc12\riscv-none-elf\include\c++\12.2.0\bits\char_traits.h **** // GNU General Public License for more details.
  15:d:\software\mounriver_studio\toolchain\risc-v embedded gcc12\riscv-none-elf\include\c++\12.2.0\bits\char_traits.h **** 
  16:d:\software\mounriver_studio\toolchain\risc-v embedded gcc12\riscv-none-elf\include\c++\12.2.0\bits\char_traits.h **** // Under Section 7 of GPL version 3, you are granted additional
  17:d:\software\mounriver_studio\toolchain\risc-v embedded gcc12\riscv-none-elf\include\c++\12.2.0\bits\char_traits.h **** // permissions described in the GCC Runtime Library Exception, version
  18:d:\software\mounriver_studio\toolchain\risc-v embedded gcc12\riscv-none-elf\include\c++\12.2.0\bits\char_traits.h **** // 3.1, as published by the Free Software Foundation.
  19:d:\software\mounriver_studio\toolchain\risc-v embedded gcc12\riscv-none-elf\include\c++\12.2.0\bits\char_traits.h **** 
  20:d:\software\mounriver_studio\toolchain\risc-v embedded gcc12\riscv-none-elf\include\c++\12.2.0\bits\char_traits.h **** // You should have received a copy of the GNU General Public License and
  21:d:\software\mounriver_studio\toolchain\risc-v embedded gcc12\riscv-none-elf\include\c++\12.2.0\bits\char_traits.h **** // a copy of the GCC Runtime Library Exception along with this program;
  22:d:\software\mounriver_studio\toolchain\risc-v embedded gcc12\riscv-none-elf\include\c++\12.2.0\bits\char_traits.h **** // see the files COPYING3 and COPYING.RUNTIME respectively.  If not, see
  23:d:\software\mounriver_studio\toolchain\risc-v embedded gcc12\riscv-none-elf\include\c++\12.2.0\bits\char_traits.h **** // <http://www.gnu.org/licenses/>.
  24:d:\software\mounriver_studio\toolchain\risc-v embedded gcc12\riscv-none-elf\include\c++\12.2.0\bits\char_traits.h **** 
  25:d:\software\mounriver_studio\toolchain\risc-v embedded gcc12\riscv-none-elf\include\c++\12.2.0\bits\char_traits.h **** /** @file bits/char_traits.h
  26:d:\software\mounriver_studio\toolchain\risc-v embedded gcc12\riscv-none-elf\include\c++\12.2.0\bits\char_traits.h ****  *  This is an internal header file, included by other library headers.
  27:d:\software\mounriver_studio\toolchain\risc-v embedded gcc12\riscv-none-elf\include\c++\12.2.0\bits\char_traits.h ****  *  Do not attempt to use it directly. @headername{string}
  28:d:\software\mounriver_studio\toolchain\risc-v embedded gcc12\riscv-none-elf\include\c++\12.2.0\bits\char_traits.h ****  */
  29:d:\software\mounriver_studio\toolchain\risc-v embedded gcc12\riscv-none-elf\include\c++\12.2.0\bits\char_traits.h **** 
  30:d:\software\mounriver_studio\toolchain\risc-v embedded gcc12\riscv-none-elf\include\c++\12.2.0\bits\char_traits.h **** //
  31:d:\software\mounriver_studio\toolchain\risc-v embedded gcc12\riscv-none-elf\include\c++\12.2.0\bits\char_traits.h **** // ISO C++ 14882: 21  Strings library
  32:d:\software\mounriver_studio\toolchain\risc-v embedded gcc12\riscv-none-elf\include\c++\12.2.0\bits\char_traits.h **** //
  33:d:\software\mounriver_studio\toolchain\risc-v embedded gcc12\riscv-none-elf\include\c++\12.2.0\bits\char_traits.h **** 
  34:d:\software\mounriver_studio\toolchain\risc-v embedded gcc12\riscv-none-elf\include\c++\12.2.0\bits\char_traits.h **** #ifndef _CHAR_TRAITS_H
  35:d:\software\mounriver_studio\toolchain\risc-v embedded gcc12\riscv-none-elf\include\c++\12.2.0\bits\char_traits.h **** #define _CHAR_TRAITS_H 1
  36:d:\software\mounriver_studio\toolchain\risc-v embedded gcc12\riscv-none-elf\include\c++\12.2.0\bits\char_traits.h **** 
  37:d:\software\mounriver_studio\toolchain\risc-v embedded gcc12\riscv-none-elf\include\c++\12.2.0\bits\char_traits.h **** #pragma GCC system_header
  38:d:\software\mounriver_studio\toolchain\risc-v embedded gcc12\riscv-none-elf\include\c++\12.2.0\bits\char_traits.h **** 
  39:d:\software\mounriver_studio\toolchain\risc-v embedded gcc12\riscv-none-elf\include\c++\12.2.0\bits\char_traits.h **** #include <bits/postypes.h>      // For streampos
  40:d:\software\mounriver_studio\toolchain\risc-v embedded gcc12\riscv-none-elf\include\c++\12.2.0\bits\char_traits.h **** #include <cwchar>               // For WEOF, wmemmove, wmemset, etc.
  41:d:\software\mounriver_studio\toolchain\risc-v embedded gcc12\riscv-none-elf\include\c++\12.2.0\bits\char_traits.h **** #if __cplusplus >= 201103L
  42:d:\software\mounriver_studio\toolchain\risc-v embedded gcc12\riscv-none-elf\include\c++\12.2.0\bits\char_traits.h **** # include <type_traits>
  43:d:\software\mounriver_studio\toolchain\risc-v embedded gcc12\riscv-none-elf\include\c++\12.2.0\bits\char_traits.h **** #endif
  44:d:\software\mounriver_studio\toolchain\risc-v embedded gcc12\riscv-none-elf\include\c++\12.2.0\bits\char_traits.h **** #if __cplusplus >= 202002L
  45:d:\software\mounriver_studio\toolchain\risc-v embedded gcc12\riscv-none-elf\include\c++\12.2.0\bits\char_traits.h **** # include <compare>
  46:d:\software\mounriver_studio\toolchain\risc-v embedded gcc12\riscv-none-elf\include\c++\12.2.0\bits\char_traits.h **** # include <bits/stl_construct.h>
  47:d:\software\mounriver_studio\toolchain\risc-v embedded gcc12\riscv-none-elf\include\c++\12.2.0\bits\char_traits.h **** #endif
  48:d:\software\mounriver_studio\toolchain\risc-v embedded gcc12\riscv-none-elf\include\c++\12.2.0\bits\char_traits.h **** 
  49:d:\software\mounriver_studio\toolchain\risc-v embedded gcc12\riscv-none-elf\include\c++\12.2.0\bits\char_traits.h **** #ifndef _GLIBCXX_ALWAYS_INLINE
  50:d:\software\mounriver_studio\toolchain\risc-v embedded gcc12\riscv-none-elf\include\c++\12.2.0\bits\char_traits.h **** # define _GLIBCXX_ALWAYS_INLINE inline __attribute__((__always_inline__))
  51:d:\software\mounriver_studio\toolchain\risc-v embedded gcc12\riscv-none-elf\include\c++\12.2.0\bits\char_traits.h **** #endif
  52:d:\software\mounriver_studio\toolchain\risc-v embedded gcc12\riscv-none-elf\include\c++\12.2.0\bits\char_traits.h **** 
  53:d:\software\mounriver_studio\toolchain\risc-v embedded gcc12\riscv-none-elf\include\c++\12.2.0\bits\char_traits.h **** namespace __gnu_cxx _GLIBCXX_VISIBILITY(default)
  54:d:\software\mounriver_studio\toolchain\risc-v embedded gcc12\riscv-none-elf\include\c++\12.2.0\bits\char_traits.h **** {
  55:d:\software\mounriver_studio\toolchain\risc-v embedded gcc12\riscv-none-elf\include\c++\12.2.0\bits\char_traits.h **** _GLIBCXX_BEGIN_NAMESPACE_VERSION
  56:d:\software\mounriver_studio\toolchain\risc-v embedded gcc12\riscv-none-elf\include\c++\12.2.0\bits\char_traits.h **** 
  57:d:\software\mounriver_studio\toolchain\risc-v embedded gcc12\riscv-none-elf\include\c++\12.2.0\bits\char_traits.h **** #pragma GCC diagnostic push
  58:d:\software\mounriver_studio\toolchain\risc-v embedded gcc12\riscv-none-elf\include\c++\12.2.0\bits\char_traits.h **** #pragma GCC diagnostic ignored "-Wstringop-overflow"
  59:d:\software\mounriver_studio\toolchain\risc-v embedded gcc12\riscv-none-elf\include\c++\12.2.0\bits\char_traits.h **** #pragma GCC diagnostic ignored "-Wstringop-overread"
  60:d:\software\mounriver_studio\toolchain\risc-v embedded gcc12\riscv-none-elf\include\c++\12.2.0\bits\char_traits.h **** #pragma GCC diagnostic ignored "-Warray-bounds"
  61:d:\software\mounriver_studio\toolchain\risc-v embedded gcc12\riscv-none-elf\include\c++\12.2.0\bits\char_traits.h **** 
  62:d:\software\mounriver_studio\toolchain\risc-v embedded gcc12\riscv-none-elf\include\c++\12.2.0\bits\char_traits.h ****   /**
  63:d:\software\mounriver_studio\toolchain\risc-v embedded gcc12\riscv-none-elf\include\c++\12.2.0\bits\char_traits.h ****    *  @brief  Mapping from character type to associated types.
  64:d:\software\mounriver_studio\toolchain\risc-v embedded gcc12\riscv-none-elf\include\c++\12.2.0\bits\char_traits.h ****    *
  65:d:\software\mounriver_studio\toolchain\risc-v embedded gcc12\riscv-none-elf\include\c++\12.2.0\bits\char_traits.h ****    *  @note This is an implementation class for the generic version
  66:d:\software\mounriver_studio\toolchain\risc-v embedded gcc12\riscv-none-elf\include\c++\12.2.0\bits\char_traits.h ****    *  of char_traits.  It defines int_type, off_type, pos_type, and
  67:d:\software\mounriver_studio\toolchain\risc-v embedded gcc12\riscv-none-elf\include\c++\12.2.0\bits\char_traits.h ****    *  state_type.  By default these are unsigned long, streamoff,
  68:d:\software\mounriver_studio\toolchain\risc-v embedded gcc12\riscv-none-elf\include\c++\12.2.0\bits\char_traits.h ****    *  streampos, and mbstate_t.  Users who need a different set of
  69:d:\software\mounriver_studio\toolchain\risc-v embedded gcc12\riscv-none-elf\include\c++\12.2.0\bits\char_traits.h ****    *  types, but who don't need to change the definitions of any function
  70:d:\software\mounriver_studio\toolchain\risc-v embedded gcc12\riscv-none-elf\include\c++\12.2.0\bits\char_traits.h ****    *  defined in char_traits, can specialize __gnu_cxx::_Char_types
  71:d:\software\mounriver_studio\toolchain\risc-v embedded gcc12\riscv-none-elf\include\c++\12.2.0\bits\char_traits.h ****    *  while leaving __gnu_cxx::char_traits alone. */
  72:d:\software\mounriver_studio\toolchain\risc-v embedded gcc12\riscv-none-elf\include\c++\12.2.0\bits\char_traits.h ****   template<typename _CharT>
  73:d:\software\mounriver_studio\toolchain\risc-v embedded gcc12\riscv-none-elf\include\c++\12.2.0\bits\char_traits.h ****     struct _Char_types
  74:d:\software\mounriver_studio\toolchain\risc-v embedded gcc12\riscv-none-elf\include\c++\12.2.0\bits\char_traits.h ****     {
  75:d:\software\mounriver_studio\toolchain\risc-v embedded gcc12\riscv-none-elf\include\c++\12.2.0\bits\char_traits.h ****       typedef unsigned long   int_type;
  76:d:\software\mounriver_studio\toolchain\risc-v embedded gcc12\riscv-none-elf\include\c++\12.2.0\bits\char_traits.h ****       typedef std::streampos  pos_type;
  77:d:\software\mounriver_studio\toolchain\risc-v embedded gcc12\riscv-none-elf\include\c++\12.2.0\bits\char_traits.h ****       typedef std::streamoff  off_type;
  78:d:\software\mounriver_studio\toolchain\risc-v embedded gcc12\riscv-none-elf\include\c++\12.2.0\bits\char_traits.h ****       typedef std::mbstate_t  state_type;
  79:d:\software\mounriver_studio\toolchain\risc-v embedded gcc12\riscv-none-elf\include\c++\12.2.0\bits\char_traits.h ****     };
  80:d:\software\mounriver_studio\toolchain\risc-v embedded gcc12\riscv-none-elf\include\c++\12.2.0\bits\char_traits.h **** 
  81:d:\software\mounriver_studio\toolchain\risc-v embedded gcc12\riscv-none-elf\include\c++\12.2.0\bits\char_traits.h **** 
  82:d:\software\mounriver_studio\toolchain\risc-v embedded gcc12\riscv-none-elf\include\c++\12.2.0\bits\char_traits.h ****   /**
  83:d:\software\mounriver_studio\toolchain\risc-v embedded gcc12\riscv-none-elf\include\c++\12.2.0\bits\char_traits.h ****    *  @brief  Base class used to implement std::char_traits.
  84:d:\software\mounriver_studio\toolchain\risc-v embedded gcc12\riscv-none-elf\include\c++\12.2.0\bits\char_traits.h ****    *
  85:d:\software\mounriver_studio\toolchain\risc-v embedded gcc12\riscv-none-elf\include\c++\12.2.0\bits\char_traits.h ****    *  @note For any given actual character type, this definition is
  86:d:\software\mounriver_studio\toolchain\risc-v embedded gcc12\riscv-none-elf\include\c++\12.2.0\bits\char_traits.h ****    *  probably wrong.  (Most of the member functions are likely to be
  87:d:\software\mounriver_studio\toolchain\risc-v embedded gcc12\riscv-none-elf\include\c++\12.2.0\bits\char_traits.h ****    *  right, but the int_type and state_type typedefs, and the eof()
  88:d:\software\mounriver_studio\toolchain\risc-v embedded gcc12\riscv-none-elf\include\c++\12.2.0\bits\char_traits.h ****    *  member function, are likely to be wrong.)  The reason this class
  89:d:\software\mounriver_studio\toolchain\risc-v embedded gcc12\riscv-none-elf\include\c++\12.2.0\bits\char_traits.h ****    *  exists is so users can specialize it.  Classes in namespace std
  90:d:\software\mounriver_studio\toolchain\risc-v embedded gcc12\riscv-none-elf\include\c++\12.2.0\bits\char_traits.h ****    *  may not be specialized for fundamental types, but classes in
  91:d:\software\mounriver_studio\toolchain\risc-v embedded gcc12\riscv-none-elf\include\c++\12.2.0\bits\char_traits.h ****    *  namespace __gnu_cxx may be.
  92:d:\software\mounriver_studio\toolchain\risc-v embedded gcc12\riscv-none-elf\include\c++\12.2.0\bits\char_traits.h ****    *
  93:d:\software\mounriver_studio\toolchain\risc-v embedded gcc12\riscv-none-elf\include\c++\12.2.0\bits\char_traits.h ****    *  See https://gcc.gnu.org/onlinedocs/libstdc++/manual/strings.html#strings.string.character_typ
  94:d:\software\mounriver_studio\toolchain\risc-v embedded gcc12\riscv-none-elf\include\c++\12.2.0\bits\char_traits.h ****    *  for advice on how to make use of this class for @a unusual character
  95:d:\software\mounriver_studio\toolchain\risc-v embedded gcc12\riscv-none-elf\include\c++\12.2.0\bits\char_traits.h ****    *  types. Also, check out include/ext/pod_char_traits.h.  
  96:d:\software\mounriver_studio\toolchain\risc-v embedded gcc12\riscv-none-elf\include\c++\12.2.0\bits\char_traits.h ****    */
  97:d:\software\mounriver_studio\toolchain\risc-v embedded gcc12\riscv-none-elf\include\c++\12.2.0\bits\char_traits.h ****   template<typename _CharT>
  98:d:\software\mounriver_studio\toolchain\risc-v embedded gcc12\riscv-none-elf\include\c++\12.2.0\bits\char_traits.h ****     struct char_traits
  99:d:\software\mounriver_studio\toolchain\risc-v embedded gcc12\riscv-none-elf\include\c++\12.2.0\bits\char_traits.h ****     {
 100:d:\software\mounriver_studio\toolchain\risc-v embedded gcc12\riscv-none-elf\include\c++\12.2.0\bits\char_traits.h ****       typedef _CharT                                    char_type;
 101:d:\software\mounriver_studio\toolchain\risc-v embedded gcc12\riscv-none-elf\include\c++\12.2.0\bits\char_traits.h ****       typedef typename _Char_types<_CharT>::int_type    int_type;
 102:d:\software\mounriver_studio\toolchain\risc-v embedded gcc12\riscv-none-elf\include\c++\12.2.0\bits\char_traits.h ****       typedef typename _Char_types<_CharT>::pos_type    pos_type;
 103:d:\software\mounriver_studio\toolchain\risc-v embedded gcc12\riscv-none-elf\include\c++\12.2.0\bits\char_traits.h ****       typedef typename _Char_types<_CharT>::off_type    off_type;
 104:d:\software\mounriver_studio\toolchain\risc-v embedded gcc12\riscv-none-elf\include\c++\12.2.0\bits\char_traits.h ****       typedef typename _Char_types<_CharT>::state_type  state_type;
 105:d:\software\mounriver_studio\toolchain\risc-v embedded gcc12\riscv-none-elf\include\c++\12.2.0\bits\char_traits.h **** #if __cpp_lib_three_way_comparison
 106:d:\software\mounriver_studio\toolchain\risc-v embedded gcc12\riscv-none-elf\include\c++\12.2.0\bits\char_traits.h ****       using comparison_category = std::strong_ordering;
 107:d:\software\mounriver_studio\toolchain\risc-v embedded gcc12\riscv-none-elf\include\c++\12.2.0\bits\char_traits.h **** #endif
 108:d:\software\mounriver_studio\toolchain\risc-v embedded gcc12\riscv-none-elf\include\c++\12.2.0\bits\char_traits.h **** 
 109:d:\software\mounriver_studio\toolchain\risc-v embedded gcc12\riscv-none-elf\include\c++\12.2.0\bits\char_traits.h ****       static _GLIBCXX14_CONSTEXPR void
 110:d:\software\mounriver_studio\toolchain\risc-v embedded gcc12\riscv-none-elf\include\c++\12.2.0\bits\char_traits.h ****       assign(char_type& __c1, const char_type& __c2)
 111:d:\software\mounriver_studio\toolchain\risc-v embedded gcc12\riscv-none-elf\include\c++\12.2.0\bits\char_traits.h ****       {
 112:d:\software\mounriver_studio\toolchain\risc-v embedded gcc12\riscv-none-elf\include\c++\12.2.0\bits\char_traits.h **** #if __cpp_constexpr_dynamic_alloc
 113:d:\software\mounriver_studio\toolchain\risc-v embedded gcc12\riscv-none-elf\include\c++\12.2.0\bits\char_traits.h **** 	if (std::__is_constant_evaluated())
 114:d:\software\mounriver_studio\toolchain\risc-v embedded gcc12\riscv-none-elf\include\c++\12.2.0\bits\char_traits.h **** 	  std::construct_at(__builtin_addressof(__c1), __c2);
 115:d:\software\mounriver_studio\toolchain\risc-v embedded gcc12\riscv-none-elf\include\c++\12.2.0\bits\char_traits.h **** 	else
 116:d:\software\mounriver_studio\toolchain\risc-v embedded gcc12\riscv-none-elf\include\c++\12.2.0\bits\char_traits.h **** #endif
 117:d:\software\mounriver_studio\toolchain\risc-v embedded gcc12\riscv-none-elf\include\c++\12.2.0\bits\char_traits.h **** 	__c1 = __c2;
 118:d:\software\mounriver_studio\toolchain\risc-v embedded gcc12\riscv-none-elf\include\c++\12.2.0\bits\char_traits.h ****       }
 119:d:\software\mounriver_studio\toolchain\risc-v embedded gcc12\riscv-none-elf\include\c++\12.2.0\bits\char_traits.h **** 
 120:d:\software\mounriver_studio\toolchain\risc-v embedded gcc12\riscv-none-elf\include\c++\12.2.0\bits\char_traits.h ****       static _GLIBCXX_CONSTEXPR bool
 121:d:\software\mounriver_studio\toolchain\risc-v embedded gcc12\riscv-none-elf\include\c++\12.2.0\bits\char_traits.h ****       eq(const char_type& __c1, const char_type& __c2)
 122:d:\software\mounriver_studio\toolchain\risc-v embedded gcc12\riscv-none-elf\include\c++\12.2.0\bits\char_traits.h ****       { return __c1 == __c2; }
 123:d:\software\mounriver_studio\toolchain\risc-v embedded gcc12\riscv-none-elf\include\c++\12.2.0\bits\char_traits.h **** 
 124:d:\software\mounriver_studio\toolchain\risc-v embedded gcc12\riscv-none-elf\include\c++\12.2.0\bits\char_traits.h ****       static _GLIBCXX_CONSTEXPR bool
 125:d:\software\mounriver_studio\toolchain\risc-v embedded gcc12\riscv-none-elf\include\c++\12.2.0\bits\char_traits.h ****       lt(const char_type& __c1, const char_type& __c2)
 126:d:\software\mounriver_studio\toolchain\risc-v embedded gcc12\riscv-none-elf\include\c++\12.2.0\bits\char_traits.h ****       { return __c1 < __c2; }
 127:d:\software\mounriver_studio\toolchain\risc-v embedded gcc12\riscv-none-elf\include\c++\12.2.0\bits\char_traits.h **** 
 128:d:\software\mounriver_studio\toolchain\risc-v embedded gcc12\riscv-none-elf\include\c++\12.2.0\bits\char_traits.h ****       static _GLIBCXX14_CONSTEXPR int
 129:d:\software\mounriver_studio\toolchain\risc-v embedded gcc12\riscv-none-elf\include\c++\12.2.0\bits\char_traits.h ****       compare(const char_type* __s1, const char_type* __s2, std::size_t __n);
 130:d:\software\mounriver_studio\toolchain\risc-v embedded gcc12\riscv-none-elf\include\c++\12.2.0\bits\char_traits.h **** 
 131:d:\software\mounriver_studio\toolchain\risc-v embedded gcc12\riscv-none-elf\include\c++\12.2.0\bits\char_traits.h ****       static _GLIBCXX14_CONSTEXPR std::size_t
 132:d:\software\mounriver_studio\toolchain\risc-v embedded gcc12\riscv-none-elf\include\c++\12.2.0\bits\char_traits.h ****       length(const char_type* __s);
 133:d:\software\mounriver_studio\toolchain\risc-v embedded gcc12\riscv-none-elf\include\c++\12.2.0\bits\char_traits.h **** 
 134:d:\software\mounriver_studio\toolchain\risc-v embedded gcc12\riscv-none-elf\include\c++\12.2.0\bits\char_traits.h ****       static _GLIBCXX14_CONSTEXPR const char_type*
 135:d:\software\mounriver_studio\toolchain\risc-v embedded gcc12\riscv-none-elf\include\c++\12.2.0\bits\char_traits.h ****       find(const char_type* __s, std::size_t __n, const char_type& __a);
 136:d:\software\mounriver_studio\toolchain\risc-v embedded gcc12\riscv-none-elf\include\c++\12.2.0\bits\char_traits.h **** 
 137:d:\software\mounriver_studio\toolchain\risc-v embedded gcc12\riscv-none-elf\include\c++\12.2.0\bits\char_traits.h ****       static _GLIBCXX20_CONSTEXPR char_type*
 138:d:\software\mounriver_studio\toolchain\risc-v embedded gcc12\riscv-none-elf\include\c++\12.2.0\bits\char_traits.h ****       move(char_type* __s1, const char_type* __s2, std::size_t __n);
 139:d:\software\mounriver_studio\toolchain\risc-v embedded gcc12\riscv-none-elf\include\c++\12.2.0\bits\char_traits.h **** 
 140:d:\software\mounriver_studio\toolchain\risc-v embedded gcc12\riscv-none-elf\include\c++\12.2.0\bits\char_traits.h ****       static _GLIBCXX20_CONSTEXPR char_type*
 141:d:\software\mounriver_studio\toolchain\risc-v embedded gcc12\riscv-none-elf\include\c++\12.2.0\bits\char_traits.h ****       copy(char_type* __s1, const char_type* __s2, std::size_t __n);
 142:d:\software\mounriver_studio\toolchain\risc-v embedded gcc12\riscv-none-elf\include\c++\12.2.0\bits\char_traits.h **** 
 143:d:\software\mounriver_studio\toolchain\risc-v embedded gcc12\riscv-none-elf\include\c++\12.2.0\bits\char_traits.h ****       static _GLIBCXX20_CONSTEXPR char_type*
 144:d:\software\mounriver_studio\toolchain\risc-v embedded gcc12\riscv-none-elf\include\c++\12.2.0\bits\char_traits.h ****       assign(char_type* __s, std::size_t __n, char_type __a);
 145:d:\software\mounriver_studio\toolchain\risc-v embedded gcc12\riscv-none-elf\include\c++\12.2.0\bits\char_traits.h **** 
 146:d:\software\mounriver_studio\toolchain\risc-v embedded gcc12\riscv-none-elf\include\c++\12.2.0\bits\char_traits.h ****       static _GLIBCXX_CONSTEXPR char_type
 147:d:\software\mounriver_studio\toolchain\risc-v embedded gcc12\riscv-none-elf\include\c++\12.2.0\bits\char_traits.h ****       to_char_type(const int_type& __c)
 148:d:\software\mounriver_studio\toolchain\risc-v embedded gcc12\riscv-none-elf\include\c++\12.2.0\bits\char_traits.h ****       { return static_cast<char_type>(__c); }
 149:d:\software\mounriver_studio\toolchain\risc-v embedded gcc12\riscv-none-elf\include\c++\12.2.0\bits\char_traits.h **** 
 150:d:\software\mounriver_studio\toolchain\risc-v embedded gcc12\riscv-none-elf\include\c++\12.2.0\bits\char_traits.h ****       static _GLIBCXX_CONSTEXPR int_type
 151:d:\software\mounriver_studio\toolchain\risc-v embedded gcc12\riscv-none-elf\include\c++\12.2.0\bits\char_traits.h ****       to_int_type(const char_type& __c)
 152:d:\software\mounriver_studio\toolchain\risc-v embedded gcc12\riscv-none-elf\include\c++\12.2.0\bits\char_traits.h ****       { return static_cast<int_type>(__c); }
 153:d:\software\mounriver_studio\toolchain\risc-v embedded gcc12\riscv-none-elf\include\c++\12.2.0\bits\char_traits.h **** 
 154:d:\software\mounriver_studio\toolchain\risc-v embedded gcc12\riscv-none-elf\include\c++\12.2.0\bits\char_traits.h ****       static _GLIBCXX_CONSTEXPR bool
 155:d:\software\mounriver_studio\toolchain\risc-v embedded gcc12\riscv-none-elf\include\c++\12.2.0\bits\char_traits.h ****       eq_int_type(const int_type& __c1, const int_type& __c2)
 156:d:\software\mounriver_studio\toolchain\risc-v embedded gcc12\riscv-none-elf\include\c++\12.2.0\bits\char_traits.h ****       { return __c1 == __c2; }
 157:d:\software\mounriver_studio\toolchain\risc-v embedded gcc12\riscv-none-elf\include\c++\12.2.0\bits\char_traits.h **** 
 158:d:\software\mounriver_studio\toolchain\risc-v embedded gcc12\riscv-none-elf\include\c++\12.2.0\bits\char_traits.h ****       static _GLIBCXX_CONSTEXPR int_type
 159:d:\software\mounriver_studio\toolchain\risc-v embedded gcc12\riscv-none-elf\include\c++\12.2.0\bits\char_traits.h ****       eof()
 160:d:\software\mounriver_studio\toolchain\risc-v embedded gcc12\riscv-none-elf\include\c++\12.2.0\bits\char_traits.h ****       { return static_cast<int_type>(_GLIBCXX_STDIO_EOF); }
 161:d:\software\mounriver_studio\toolchain\risc-v embedded gcc12\riscv-none-elf\include\c++\12.2.0\bits\char_traits.h **** 
 162:d:\software\mounriver_studio\toolchain\risc-v embedded gcc12\riscv-none-elf\include\c++\12.2.0\bits\char_traits.h ****       static _GLIBCXX_CONSTEXPR int_type
 163:d:\software\mounriver_studio\toolchain\risc-v embedded gcc12\riscv-none-elf\include\c++\12.2.0\bits\char_traits.h ****       not_eof(const int_type& __c)
 164:d:\software\mounriver_studio\toolchain\risc-v embedded gcc12\riscv-none-elf\include\c++\12.2.0\bits\char_traits.h ****       { return !eq_int_type(__c, eof()) ? __c : to_int_type(char_type()); }
 165:d:\software\mounriver_studio\toolchain\risc-v embedded gcc12\riscv-none-elf\include\c++\12.2.0\bits\char_traits.h ****     };
 166:d:\software\mounriver_studio\toolchain\risc-v embedded gcc12\riscv-none-elf\include\c++\12.2.0\bits\char_traits.h **** 
 167:d:\software\mounriver_studio\toolchain\risc-v embedded gcc12\riscv-none-elf\include\c++\12.2.0\bits\char_traits.h ****   template<typename _CharT>
 168:d:\software\mounriver_studio\toolchain\risc-v embedded gcc12\riscv-none-elf\include\c++\12.2.0\bits\char_traits.h ****     _GLIBCXX14_CONSTEXPR int
 169:d:\software\mounriver_studio\toolchain\risc-v embedded gcc12\riscv-none-elf\include\c++\12.2.0\bits\char_traits.h ****     char_traits<_CharT>::
 170:d:\software\mounriver_studio\toolchain\risc-v embedded gcc12\riscv-none-elf\include\c++\12.2.0\bits\char_traits.h ****     compare(const char_type* __s1, const char_type* __s2, std::size_t __n)
 171:d:\software\mounriver_studio\toolchain\risc-v embedded gcc12\riscv-none-elf\include\c++\12.2.0\bits\char_traits.h ****     {
 172:d:\software\mounriver_studio\toolchain\risc-v embedded gcc12\riscv-none-elf\include\c++\12.2.0\bits\char_traits.h ****       for (std::size_t __i = 0; __i < __n; ++__i)
 173:d:\software\mounriver_studio\toolchain\risc-v embedded gcc12\riscv-none-elf\include\c++\12.2.0\bits\char_traits.h **** 	if (lt(__s1[__i], __s2[__i]))
 174:d:\software\mounriver_studio\toolchain\risc-v embedded gcc12\riscv-none-elf\include\c++\12.2.0\bits\char_traits.h **** 	  return -1;
 175:d:\software\mounriver_studio\toolchain\risc-v embedded gcc12\riscv-none-elf\include\c++\12.2.0\bits\char_traits.h **** 	else if (lt(__s2[__i], __s1[__i]))
 176:d:\software\mounriver_studio\toolchain\risc-v embedded gcc12\riscv-none-elf\include\c++\12.2.0\bits\char_traits.h **** 	  return 1;
 177:d:\software\mounriver_studio\toolchain\risc-v embedded gcc12\riscv-none-elf\include\c++\12.2.0\bits\char_traits.h ****       return 0;
 178:d:\software\mounriver_studio\toolchain\risc-v embedded gcc12\riscv-none-elf\include\c++\12.2.0\bits\char_traits.h ****     }
 179:d:\software\mounriver_studio\toolchain\risc-v embedded gcc12\riscv-none-elf\include\c++\12.2.0\bits\char_traits.h **** 
 180:d:\software\mounriver_studio\toolchain\risc-v embedded gcc12\riscv-none-elf\include\c++\12.2.0\bits\char_traits.h ****   template<typename _CharT>
 181:d:\software\mounriver_studio\toolchain\risc-v embedded gcc12\riscv-none-elf\include\c++\12.2.0\bits\char_traits.h ****     _GLIBCXX14_CONSTEXPR std::size_t
 182:d:\software\mounriver_studio\toolchain\risc-v embedded gcc12\riscv-none-elf\include\c++\12.2.0\bits\char_traits.h ****     char_traits<_CharT>::
 183:d:\software\mounriver_studio\toolchain\risc-v embedded gcc12\riscv-none-elf\include\c++\12.2.0\bits\char_traits.h ****     length(const char_type* __p)
 184:d:\software\mounriver_studio\toolchain\risc-v embedded gcc12\riscv-none-elf\include\c++\12.2.0\bits\char_traits.h ****     {
 185:d:\software\mounriver_studio\toolchain\risc-v embedded gcc12\riscv-none-elf\include\c++\12.2.0\bits\char_traits.h ****       std::size_t __i = 0;
 186:d:\software\mounriver_studio\toolchain\risc-v embedded gcc12\riscv-none-elf\include\c++\12.2.0\bits\char_traits.h ****       while (!eq(__p[__i], char_type()))
 187:d:\software\mounriver_studio\toolchain\risc-v embedded gcc12\riscv-none-elf\include\c++\12.2.0\bits\char_traits.h ****         ++__i;
 188:d:\software\mounriver_studio\toolchain\risc-v embedded gcc12\riscv-none-elf\include\c++\12.2.0\bits\char_traits.h ****       return __i;
 189:d:\software\mounriver_studio\toolchain\risc-v embedded gcc12\riscv-none-elf\include\c++\12.2.0\bits\char_traits.h ****     }
 190:d:\software\mounriver_studio\toolchain\risc-v embedded gcc12\riscv-none-elf\include\c++\12.2.0\bits\char_traits.h **** 
 191:d:\software\mounriver_studio\toolchain\risc-v embedded gcc12\riscv-none-elf\include\c++\12.2.0\bits\char_traits.h ****   template<typename _CharT>
 192:d:\software\mounriver_studio\toolchain\risc-v embedded gcc12\riscv-none-elf\include\c++\12.2.0\bits\char_traits.h ****     _GLIBCXX14_CONSTEXPR const typename char_traits<_CharT>::char_type*
 193:d:\software\mounriver_studio\toolchain\risc-v embedded gcc12\riscv-none-elf\include\c++\12.2.0\bits\char_traits.h ****     char_traits<_CharT>::
 194:d:\software\mounriver_studio\toolchain\risc-v embedded gcc12\riscv-none-elf\include\c++\12.2.0\bits\char_traits.h ****     find(const char_type* __s, std::size_t __n, const char_type& __a)
 195:d:\software\mounriver_studio\toolchain\risc-v embedded gcc12\riscv-none-elf\include\c++\12.2.0\bits\char_traits.h ****     {
 196:d:\software\mounriver_studio\toolchain\risc-v embedded gcc12\riscv-none-elf\include\c++\12.2.0\bits\char_traits.h ****       for (std::size_t __i = 0; __i < __n; ++__i)
 197:d:\software\mounriver_studio\toolchain\risc-v embedded gcc12\riscv-none-elf\include\c++\12.2.0\bits\char_traits.h ****         if (eq(__s[__i], __a))
 198:d:\software\mounriver_studio\toolchain\risc-v embedded gcc12\riscv-none-elf\include\c++\12.2.0\bits\char_traits.h ****           return __s + __i;
 199:d:\software\mounriver_studio\toolchain\risc-v embedded gcc12\riscv-none-elf\include\c++\12.2.0\bits\char_traits.h ****       return 0;
 200:d:\software\mounriver_studio\toolchain\risc-v embedded gcc12\riscv-none-elf\include\c++\12.2.0\bits\char_traits.h ****     }
 201:d:\software\mounriver_studio\toolchain\risc-v embedded gcc12\riscv-none-elf\include\c++\12.2.0\bits\char_traits.h **** 
 202:d:\software\mounriver_studio\toolchain\risc-v embedded gcc12\riscv-none-elf\include\c++\12.2.0\bits\char_traits.h ****   template<typename _CharT>
 203:d:\software\mounriver_studio\toolchain\risc-v embedded gcc12\riscv-none-elf\include\c++\12.2.0\bits\char_traits.h ****     _GLIBCXX20_CONSTEXPR
 204:d:\software\mounriver_studio\toolchain\risc-v embedded gcc12\riscv-none-elf\include\c++\12.2.0\bits\char_traits.h ****     typename char_traits<_CharT>::char_type*
 205:d:\software\mounriver_studio\toolchain\risc-v embedded gcc12\riscv-none-elf\include\c++\12.2.0\bits\char_traits.h ****     char_traits<_CharT>::
 206:d:\software\mounriver_studio\toolchain\risc-v embedded gcc12\riscv-none-elf\include\c++\12.2.0\bits\char_traits.h ****     move(char_type* __s1, const char_type* __s2, std::size_t __n)
 207:d:\software\mounriver_studio\toolchain\risc-v embedded gcc12\riscv-none-elf\include\c++\12.2.0\bits\char_traits.h ****     {
 208:d:\software\mounriver_studio\toolchain\risc-v embedded gcc12\riscv-none-elf\include\c++\12.2.0\bits\char_traits.h ****       if (__n == 0)
 209:d:\software\mounriver_studio\toolchain\risc-v embedded gcc12\riscv-none-elf\include\c++\12.2.0\bits\char_traits.h **** 	return __s1;
 210:d:\software\mounriver_studio\toolchain\risc-v embedded gcc12\riscv-none-elf\include\c++\12.2.0\bits\char_traits.h **** #if __cplusplus >= 202002L
 211:d:\software\mounriver_studio\toolchain\risc-v embedded gcc12\riscv-none-elf\include\c++\12.2.0\bits\char_traits.h ****       if (std::__is_constant_evaluated())
 212:d:\software\mounriver_studio\toolchain\risc-v embedded gcc12\riscv-none-elf\include\c++\12.2.0\bits\char_traits.h **** 	{
 213:d:\software\mounriver_studio\toolchain\risc-v embedded gcc12\riscv-none-elf\include\c++\12.2.0\bits\char_traits.h **** 	  if (__s1 == __s2) // unlikely, but saves a lot of work
 214:d:\software\mounriver_studio\toolchain\risc-v embedded gcc12\riscv-none-elf\include\c++\12.2.0\bits\char_traits.h **** 	    return __s1;
 215:d:\software\mounriver_studio\toolchain\risc-v embedded gcc12\riscv-none-elf\include\c++\12.2.0\bits\char_traits.h **** #if __cpp_constexpr_dynamic_alloc
 216:d:\software\mounriver_studio\toolchain\risc-v embedded gcc12\riscv-none-elf\include\c++\12.2.0\bits\char_traits.h **** 	  // The overlap detection below fails due to PR c++/89074,
 217:d:\software\mounriver_studio\toolchain\risc-v embedded gcc12\riscv-none-elf\include\c++\12.2.0\bits\char_traits.h **** 	  // so use a temporary buffer instead.
 218:d:\software\mounriver_studio\toolchain\risc-v embedded gcc12\riscv-none-elf\include\c++\12.2.0\bits\char_traits.h **** 	  char_type* __tmp = new char_type[__n];
 219:d:\software\mounriver_studio\toolchain\risc-v embedded gcc12\riscv-none-elf\include\c++\12.2.0\bits\char_traits.h **** 	  copy(__tmp, __s2, __n);
 220:d:\software\mounriver_studio\toolchain\risc-v embedded gcc12\riscv-none-elf\include\c++\12.2.0\bits\char_traits.h **** 	  copy(__s1, __tmp, __n);
 221:d:\software\mounriver_studio\toolchain\risc-v embedded gcc12\riscv-none-elf\include\c++\12.2.0\bits\char_traits.h **** 	  delete[] __tmp;
 222:d:\software\mounriver_studio\toolchain\risc-v embedded gcc12\riscv-none-elf\include\c++\12.2.0\bits\char_traits.h **** #else
 223:d:\software\mounriver_studio\toolchain\risc-v embedded gcc12\riscv-none-elf\include\c++\12.2.0\bits\char_traits.h **** 	  const auto __end = __s2 + __n - 1;
 224:d:\software\mounriver_studio\toolchain\risc-v embedded gcc12\riscv-none-elf\include\c++\12.2.0\bits\char_traits.h **** 	  bool __overlap = false;
 225:d:\software\mounriver_studio\toolchain\risc-v embedded gcc12\riscv-none-elf\include\c++\12.2.0\bits\char_traits.h **** 	  for (std::size_t __i = 0; __i < __n - 1; ++__i)
 226:d:\software\mounriver_studio\toolchain\risc-v embedded gcc12\riscv-none-elf\include\c++\12.2.0\bits\char_traits.h **** 	    {
 227:d:\software\mounriver_studio\toolchain\risc-v embedded gcc12\riscv-none-elf\include\c++\12.2.0\bits\char_traits.h **** 	      if (__s1 + __i == __end)
 228:d:\software\mounriver_studio\toolchain\risc-v embedded gcc12\riscv-none-elf\include\c++\12.2.0\bits\char_traits.h **** 		{
 229:d:\software\mounriver_studio\toolchain\risc-v embedded gcc12\riscv-none-elf\include\c++\12.2.0\bits\char_traits.h **** 		  __overlap = true;
 230:d:\software\mounriver_studio\toolchain\risc-v embedded gcc12\riscv-none-elf\include\c++\12.2.0\bits\char_traits.h **** 		  break;
 231:d:\software\mounriver_studio\toolchain\risc-v embedded gcc12\riscv-none-elf\include\c++\12.2.0\bits\char_traits.h **** 		}
 232:d:\software\mounriver_studio\toolchain\risc-v embedded gcc12\riscv-none-elf\include\c++\12.2.0\bits\char_traits.h **** 	    }
 233:d:\software\mounriver_studio\toolchain\risc-v embedded gcc12\riscv-none-elf\include\c++\12.2.0\bits\char_traits.h **** 	  if (__overlap)
 234:d:\software\mounriver_studio\toolchain\risc-v embedded gcc12\riscv-none-elf\include\c++\12.2.0\bits\char_traits.h **** 	    {
 235:d:\software\mounriver_studio\toolchain\risc-v embedded gcc12\riscv-none-elf\include\c++\12.2.0\bits\char_traits.h **** 	      do
 236:d:\software\mounriver_studio\toolchain\risc-v embedded gcc12\riscv-none-elf\include\c++\12.2.0\bits\char_traits.h **** 		{
 237:d:\software\mounriver_studio\toolchain\risc-v embedded gcc12\riscv-none-elf\include\c++\12.2.0\bits\char_traits.h **** 		  --__n;
 238:d:\software\mounriver_studio\toolchain\risc-v embedded gcc12\riscv-none-elf\include\c++\12.2.0\bits\char_traits.h **** 		  assign(__s1[__n], __s2[__n]);
 239:d:\software\mounriver_studio\toolchain\risc-v embedded gcc12\riscv-none-elf\include\c++\12.2.0\bits\char_traits.h **** 		}
 240:d:\software\mounriver_studio\toolchain\risc-v embedded gcc12\riscv-none-elf\include\c++\12.2.0\bits\char_traits.h **** 	      while (__n > 0);
 241:d:\software\mounriver_studio\toolchain\risc-v embedded gcc12\riscv-none-elf\include\c++\12.2.0\bits\char_traits.h **** 	    }
 242:d:\software\mounriver_studio\toolchain\risc-v embedded gcc12\riscv-none-elf\include\c++\12.2.0\bits\char_traits.h **** 	  else
 243:d:\software\mounriver_studio\toolchain\risc-v embedded gcc12\riscv-none-elf\include\c++\12.2.0\bits\char_traits.h **** 	    copy(__s1, __s2, __n);
 244:d:\software\mounriver_studio\toolchain\risc-v embedded gcc12\riscv-none-elf\include\c++\12.2.0\bits\char_traits.h **** #endif
 245:d:\software\mounriver_studio\toolchain\risc-v embedded gcc12\riscv-none-elf\include\c++\12.2.0\bits\char_traits.h **** 	  return __s1;
 246:d:\software\mounriver_studio\toolchain\risc-v embedded gcc12\riscv-none-elf\include\c++\12.2.0\bits\char_traits.h **** 	}
 247:d:\software\mounriver_studio\toolchain\risc-v embedded gcc12\riscv-none-elf\include\c++\12.2.0\bits\char_traits.h **** #endif
 248:d:\software\mounriver_studio\toolchain\risc-v embedded gcc12\riscv-none-elf\include\c++\12.2.0\bits\char_traits.h ****       __builtin_memmove(__s1, __s2, __n * sizeof(char_type));
 249:d:\software\mounriver_studio\toolchain\risc-v embedded gcc12\riscv-none-elf\include\c++\12.2.0\bits\char_traits.h ****       return __s1;
 250:d:\software\mounriver_studio\toolchain\risc-v embedded gcc12\riscv-none-elf\include\c++\12.2.0\bits\char_traits.h ****     }
 251:d:\software\mounriver_studio\toolchain\risc-v embedded gcc12\riscv-none-elf\include\c++\12.2.0\bits\char_traits.h **** 
 252:d:\software\mounriver_studio\toolchain\risc-v embedded gcc12\riscv-none-elf\include\c++\12.2.0\bits\char_traits.h ****   template<typename _CharT>
 253:d:\software\mounriver_studio\toolchain\risc-v embedded gcc12\riscv-none-elf\include\c++\12.2.0\bits\char_traits.h ****     _GLIBCXX20_CONSTEXPR
 254:d:\software\mounriver_studio\toolchain\risc-v embedded gcc12\riscv-none-elf\include\c++\12.2.0\bits\char_traits.h ****     typename char_traits<_CharT>::char_type*
 255:d:\software\mounriver_studio\toolchain\risc-v embedded gcc12\riscv-none-elf\include\c++\12.2.0\bits\char_traits.h ****     char_traits<_CharT>::
 256:d:\software\mounriver_studio\toolchain\risc-v embedded gcc12\riscv-none-elf\include\c++\12.2.0\bits\char_traits.h ****     copy(char_type* __s1, const char_type* __s2, std::size_t __n)
 257:d:\software\mounriver_studio\toolchain\risc-v embedded gcc12\riscv-none-elf\include\c++\12.2.0\bits\char_traits.h ****     {
 258:d:\software\mounriver_studio\toolchain\risc-v embedded gcc12\riscv-none-elf\include\c++\12.2.0\bits\char_traits.h **** #if __cplusplus >= 202002L
 259:d:\software\mounriver_studio\toolchain\risc-v embedded gcc12\riscv-none-elf\include\c++\12.2.0\bits\char_traits.h ****       if (std::__is_constant_evaluated())
 260:d:\software\mounriver_studio\toolchain\risc-v embedded gcc12\riscv-none-elf\include\c++\12.2.0\bits\char_traits.h **** 	{
 261:d:\software\mounriver_studio\toolchain\risc-v embedded gcc12\riscv-none-elf\include\c++\12.2.0\bits\char_traits.h **** 	  for (std::size_t __i = 0; __i < __n; ++__i)
 262:d:\software\mounriver_studio\toolchain\risc-v embedded gcc12\riscv-none-elf\include\c++\12.2.0\bits\char_traits.h **** 	    std::construct_at(__s1 + __i, __s2[__i]);
 263:d:\software\mounriver_studio\toolchain\risc-v embedded gcc12\riscv-none-elf\include\c++\12.2.0\bits\char_traits.h **** 	  return __s1;
 264:d:\software\mounriver_studio\toolchain\risc-v embedded gcc12\riscv-none-elf\include\c++\12.2.0\bits\char_traits.h **** 	}
 265:d:\software\mounriver_studio\toolchain\risc-v embedded gcc12\riscv-none-elf\include\c++\12.2.0\bits\char_traits.h **** #endif
 266:d:\software\mounriver_studio\toolchain\risc-v embedded gcc12\riscv-none-elf\include\c++\12.2.0\bits\char_traits.h **** 
 267:d:\software\mounriver_studio\toolchain\risc-v embedded gcc12\riscv-none-elf\include\c++\12.2.0\bits\char_traits.h ****       __builtin_memcpy(__s1, __s2, __n * sizeof(char_type));
 268:d:\software\mounriver_studio\toolchain\risc-v embedded gcc12\riscv-none-elf\include\c++\12.2.0\bits\char_traits.h ****       return __s1;
 269:d:\software\mounriver_studio\toolchain\risc-v embedded gcc12\riscv-none-elf\include\c++\12.2.0\bits\char_traits.h ****     }
 270:d:\software\mounriver_studio\toolchain\risc-v embedded gcc12\riscv-none-elf\include\c++\12.2.0\bits\char_traits.h **** 
 271:d:\software\mounriver_studio\toolchain\risc-v embedded gcc12\riscv-none-elf\include\c++\12.2.0\bits\char_traits.h ****   template<typename _CharT>
 272:d:\software\mounriver_studio\toolchain\risc-v embedded gcc12\riscv-none-elf\include\c++\12.2.0\bits\char_traits.h ****     _GLIBCXX20_CONSTEXPR
 273:d:\software\mounriver_studio\toolchain\risc-v embedded gcc12\riscv-none-elf\include\c++\12.2.0\bits\char_traits.h ****     typename char_traits<_CharT>::char_type*
 274:d:\software\mounriver_studio\toolchain\risc-v embedded gcc12\riscv-none-elf\include\c++\12.2.0\bits\char_traits.h ****     char_traits<_CharT>::
 275:d:\software\mounriver_studio\toolchain\risc-v embedded gcc12\riscv-none-elf\include\c++\12.2.0\bits\char_traits.h ****     assign(char_type* __s, std::size_t __n, char_type __a)
 276:d:\software\mounriver_studio\toolchain\risc-v embedded gcc12\riscv-none-elf\include\c++\12.2.0\bits\char_traits.h ****     {
 277:d:\software\mounriver_studio\toolchain\risc-v embedded gcc12\riscv-none-elf\include\c++\12.2.0\bits\char_traits.h **** #if __cplusplus >= 202002L
 278:d:\software\mounriver_studio\toolchain\risc-v embedded gcc12\riscv-none-elf\include\c++\12.2.0\bits\char_traits.h ****       if (std::__is_constant_evaluated())
 279:d:\software\mounriver_studio\toolchain\risc-v embedded gcc12\riscv-none-elf\include\c++\12.2.0\bits\char_traits.h **** 	{
 280:d:\software\mounriver_studio\toolchain\risc-v embedded gcc12\riscv-none-elf\include\c++\12.2.0\bits\char_traits.h **** 	  for (std::size_t __i = 0; __i < __n; ++__i)
 281:d:\software\mounriver_studio\toolchain\risc-v embedded gcc12\riscv-none-elf\include\c++\12.2.0\bits\char_traits.h **** 	    std::construct_at(__s + __i, __a);
 282:d:\software\mounriver_studio\toolchain\risc-v embedded gcc12\riscv-none-elf\include\c++\12.2.0\bits\char_traits.h **** 	  return __s;
 283:d:\software\mounriver_studio\toolchain\risc-v embedded gcc12\riscv-none-elf\include\c++\12.2.0\bits\char_traits.h **** 	}
 284:d:\software\mounriver_studio\toolchain\risc-v embedded gcc12\riscv-none-elf\include\c++\12.2.0\bits\char_traits.h **** #endif
 285:d:\software\mounriver_studio\toolchain\risc-v embedded gcc12\riscv-none-elf\include\c++\12.2.0\bits\char_traits.h **** 
 286:d:\software\mounriver_studio\toolchain\risc-v embedded gcc12\riscv-none-elf\include\c++\12.2.0\bits\char_traits.h ****       if _GLIBCXX17_CONSTEXPR (sizeof(_CharT) == 1 && __is_trivial(_CharT))
 287:d:\software\mounriver_studio\toolchain\risc-v embedded gcc12\riscv-none-elf\include\c++\12.2.0\bits\char_traits.h **** 	{
 288:d:\software\mounriver_studio\toolchain\risc-v embedded gcc12\riscv-none-elf\include\c++\12.2.0\bits\char_traits.h **** 	  unsigned char __c;
 289:d:\software\mounriver_studio\toolchain\risc-v embedded gcc12\riscv-none-elf\include\c++\12.2.0\bits\char_traits.h **** 	  __builtin_memcpy(&__c, __builtin_addressof(__a), 1);
 290:d:\software\mounriver_studio\toolchain\risc-v embedded gcc12\riscv-none-elf\include\c++\12.2.0\bits\char_traits.h **** 	  __builtin_memset(__s, __c, __n);
 291:d:\software\mounriver_studio\toolchain\risc-v embedded gcc12\riscv-none-elf\include\c++\12.2.0\bits\char_traits.h **** 	}
 292:d:\software\mounriver_studio\toolchain\risc-v embedded gcc12\riscv-none-elf\include\c++\12.2.0\bits\char_traits.h ****       else
 293:d:\software\mounriver_studio\toolchain\risc-v embedded gcc12\riscv-none-elf\include\c++\12.2.0\bits\char_traits.h **** 	{
 294:d:\software\mounriver_studio\toolchain\risc-v embedded gcc12\riscv-none-elf\include\c++\12.2.0\bits\char_traits.h **** 	  for (std::size_t __i = 0; __i < __n; ++__i)
 295:d:\software\mounriver_studio\toolchain\risc-v embedded gcc12\riscv-none-elf\include\c++\12.2.0\bits\char_traits.h **** 	    __s[__i] = __a;
 296:d:\software\mounriver_studio\toolchain\risc-v embedded gcc12\riscv-none-elf\include\c++\12.2.0\bits\char_traits.h **** 	}
 297:d:\software\mounriver_studio\toolchain\risc-v embedded gcc12\riscv-none-elf\include\c++\12.2.0\bits\char_traits.h ****       return __s;
 298:d:\software\mounriver_studio\toolchain\risc-v embedded gcc12\riscv-none-elf\include\c++\12.2.0\bits\char_traits.h ****     }
 299:d:\software\mounriver_studio\toolchain\risc-v embedded gcc12\riscv-none-elf\include\c++\12.2.0\bits\char_traits.h **** 
 300:d:\software\mounriver_studio\toolchain\risc-v embedded gcc12\riscv-none-elf\include\c++\12.2.0\bits\char_traits.h **** _GLIBCXX_END_NAMESPACE_VERSION
 301:d:\software\mounriver_studio\toolchain\risc-v embedded gcc12\riscv-none-elf\include\c++\12.2.0\bits\char_traits.h **** } // namespace
 302:d:\software\mounriver_studio\toolchain\risc-v embedded gcc12\riscv-none-elf\include\c++\12.2.0\bits\char_traits.h **** 
 303:d:\software\mounriver_studio\toolchain\risc-v embedded gcc12\riscv-none-elf\include\c++\12.2.0\bits\char_traits.h **** namespace std _GLIBCXX_VISIBILITY(default)
 304:d:\software\mounriver_studio\toolchain\risc-v embedded gcc12\riscv-none-elf\include\c++\12.2.0\bits\char_traits.h **** {
 305:d:\software\mounriver_studio\toolchain\risc-v embedded gcc12\riscv-none-elf\include\c++\12.2.0\bits\char_traits.h **** _GLIBCXX_BEGIN_NAMESPACE_VERSION
 306:d:\software\mounriver_studio\toolchain\risc-v embedded gcc12\riscv-none-elf\include\c++\12.2.0\bits\char_traits.h **** 
 307:d:\software\mounriver_studio\toolchain\risc-v embedded gcc12\riscv-none-elf\include\c++\12.2.0\bits\char_traits.h **** #ifdef __cpp_lib_is_constant_evaluated
 308:d:\software\mounriver_studio\toolchain\risc-v embedded gcc12\riscv-none-elf\include\c++\12.2.0\bits\char_traits.h **** // Unofficial macro indicating P1032R1 support in C++20
 309:d:\software\mounriver_studio\toolchain\risc-v embedded gcc12\riscv-none-elf\include\c++\12.2.0\bits\char_traits.h **** # define __cpp_lib_constexpr_char_traits 201811L
 310:d:\software\mounriver_studio\toolchain\risc-v embedded gcc12\riscv-none-elf\include\c++\12.2.0\bits\char_traits.h **** #elif __cplusplus >= 201703L && _GLIBCXX_HAVE_IS_CONSTANT_EVALUATED
 311:d:\software\mounriver_studio\toolchain\risc-v embedded gcc12\riscv-none-elf\include\c++\12.2.0\bits\char_traits.h **** // Unofficial macro indicating P0426R1 support in C++17
 312:d:\software\mounriver_studio\toolchain\risc-v embedded gcc12\riscv-none-elf\include\c++\12.2.0\bits\char_traits.h **** # define __cpp_lib_constexpr_char_traits 201611L
 313:d:\software\mounriver_studio\toolchain\risc-v embedded gcc12\riscv-none-elf\include\c++\12.2.0\bits\char_traits.h **** #endif
 314:d:\software\mounriver_studio\toolchain\risc-v embedded gcc12\riscv-none-elf\include\c++\12.2.0\bits\char_traits.h **** 
 315:d:\software\mounriver_studio\toolchain\risc-v embedded gcc12\riscv-none-elf\include\c++\12.2.0\bits\char_traits.h ****   // 21.1
 316:d:\software\mounriver_studio\toolchain\risc-v embedded gcc12\riscv-none-elf\include\c++\12.2.0\bits\char_traits.h ****   /**
 317:d:\software\mounriver_studio\toolchain\risc-v embedded gcc12\riscv-none-elf\include\c++\12.2.0\bits\char_traits.h ****    *  @brief  Basis for explicit traits specializations.
 318:d:\software\mounriver_studio\toolchain\risc-v embedded gcc12\riscv-none-elf\include\c++\12.2.0\bits\char_traits.h ****    *
 319:d:\software\mounriver_studio\toolchain\risc-v embedded gcc12\riscv-none-elf\include\c++\12.2.0\bits\char_traits.h ****    *  @note  For any given actual character type, this definition is
 320:d:\software\mounriver_studio\toolchain\risc-v embedded gcc12\riscv-none-elf\include\c++\12.2.0\bits\char_traits.h ****    *  probably wrong.  Since this is just a thin wrapper around
 321:d:\software\mounriver_studio\toolchain\risc-v embedded gcc12\riscv-none-elf\include\c++\12.2.0\bits\char_traits.h ****    *  __gnu_cxx::char_traits, it is possible to achieve a more
 322:d:\software\mounriver_studio\toolchain\risc-v embedded gcc12\riscv-none-elf\include\c++\12.2.0\bits\char_traits.h ****    *  appropriate definition by specializing __gnu_cxx::char_traits.
 323:d:\software\mounriver_studio\toolchain\risc-v embedded gcc12\riscv-none-elf\include\c++\12.2.0\bits\char_traits.h ****    *
 324:d:\software\mounriver_studio\toolchain\risc-v embedded gcc12\riscv-none-elf\include\c++\12.2.0\bits\char_traits.h ****    *  See https://gcc.gnu.org/onlinedocs/libstdc++/manual/strings.html#strings.string.character_typ
 325:d:\software\mounriver_studio\toolchain\risc-v embedded gcc12\riscv-none-elf\include\c++\12.2.0\bits\char_traits.h ****    *  for advice on how to make use of this class for @a unusual character
 326:d:\software\mounriver_studio\toolchain\risc-v embedded gcc12\riscv-none-elf\include\c++\12.2.0\bits\char_traits.h ****    *  types. Also, check out include/ext/pod_char_traits.h.
 327:d:\software\mounriver_studio\toolchain\risc-v embedded gcc12\riscv-none-elf\include\c++\12.2.0\bits\char_traits.h ****   */
 328:d:\software\mounriver_studio\toolchain\risc-v embedded gcc12\riscv-none-elf\include\c++\12.2.0\bits\char_traits.h ****   template<typename _CharT>
 329:d:\software\mounriver_studio\toolchain\risc-v embedded gcc12\riscv-none-elf\include\c++\12.2.0\bits\char_traits.h ****     struct char_traits : public __gnu_cxx::char_traits<_CharT>
 330:d:\software\mounriver_studio\toolchain\risc-v embedded gcc12\riscv-none-elf\include\c++\12.2.0\bits\char_traits.h ****     { };
 331:d:\software\mounriver_studio\toolchain\risc-v embedded gcc12\riscv-none-elf\include\c++\12.2.0\bits\char_traits.h **** 
 332:d:\software\mounriver_studio\toolchain\risc-v embedded gcc12\riscv-none-elf\include\c++\12.2.0\bits\char_traits.h **** 
 333:d:\software\mounriver_studio\toolchain\risc-v embedded gcc12\riscv-none-elf\include\c++\12.2.0\bits\char_traits.h ****   /// 21.1.3.1  char_traits specializations
 334:d:\software\mounriver_studio\toolchain\risc-v embedded gcc12\riscv-none-elf\include\c++\12.2.0\bits\char_traits.h ****   template<>
 335:d:\software\mounriver_studio\toolchain\risc-v embedded gcc12\riscv-none-elf\include\c++\12.2.0\bits\char_traits.h ****     struct char_traits<char>
 336:d:\software\mounriver_studio\toolchain\risc-v embedded gcc12\riscv-none-elf\include\c++\12.2.0\bits\char_traits.h ****     {
 337:d:\software\mounriver_studio\toolchain\risc-v embedded gcc12\riscv-none-elf\include\c++\12.2.0\bits\char_traits.h ****       typedef char              char_type;
 338:d:\software\mounriver_studio\toolchain\risc-v embedded gcc12\riscv-none-elf\include\c++\12.2.0\bits\char_traits.h ****       typedef int               int_type;
 339:d:\software\mounriver_studio\toolchain\risc-v embedded gcc12\riscv-none-elf\include\c++\12.2.0\bits\char_traits.h ****       typedef streampos         pos_type;
 340:d:\software\mounriver_studio\toolchain\risc-v embedded gcc12\riscv-none-elf\include\c++\12.2.0\bits\char_traits.h ****       typedef streamoff         off_type;
 341:d:\software\mounriver_studio\toolchain\risc-v embedded gcc12\riscv-none-elf\include\c++\12.2.0\bits\char_traits.h ****       typedef mbstate_t         state_type;
 342:d:\software\mounriver_studio\toolchain\risc-v embedded gcc12\riscv-none-elf\include\c++\12.2.0\bits\char_traits.h **** #if __cpp_lib_three_way_comparison
 343:d:\software\mounriver_studio\toolchain\risc-v embedded gcc12\riscv-none-elf\include\c++\12.2.0\bits\char_traits.h ****       using comparison_category = strong_ordering;
 344:d:\software\mounriver_studio\toolchain\risc-v embedded gcc12\riscv-none-elf\include\c++\12.2.0\bits\char_traits.h **** #endif
 345:d:\software\mounriver_studio\toolchain\risc-v embedded gcc12\riscv-none-elf\include\c++\12.2.0\bits\char_traits.h **** 
 346:d:\software\mounriver_studio\toolchain\risc-v embedded gcc12\riscv-none-elf\include\c++\12.2.0\bits\char_traits.h ****       static _GLIBCXX17_CONSTEXPR void
 347:d:\software\mounriver_studio\toolchain\risc-v embedded gcc12\riscv-none-elf\include\c++\12.2.0\bits\char_traits.h ****       assign(char_type& __c1, const char_type& __c2) _GLIBCXX_NOEXCEPT
 348:d:\software\mounriver_studio\toolchain\risc-v embedded gcc12\riscv-none-elf\include\c++\12.2.0\bits\char_traits.h ****       {
 349:d:\software\mounriver_studio\toolchain\risc-v embedded gcc12\riscv-none-elf\include\c++\12.2.0\bits\char_traits.h **** #if __cpp_constexpr_dynamic_alloc
 350:d:\software\mounriver_studio\toolchain\risc-v embedded gcc12\riscv-none-elf\include\c++\12.2.0\bits\char_traits.h **** 	if (std::__is_constant_evaluated())
 351:d:\software\mounriver_studio\toolchain\risc-v embedded gcc12\riscv-none-elf\include\c++\12.2.0\bits\char_traits.h **** 	  std::construct_at(__builtin_addressof(__c1), __c2);
 352:d:\software\mounriver_studio\toolchain\risc-v embedded gcc12\riscv-none-elf\include\c++\12.2.0\bits\char_traits.h **** 	else
 353:d:\software\mounriver_studio\toolchain\risc-v embedded gcc12\riscv-none-elf\include\c++\12.2.0\bits\char_traits.h **** #endif
 354:d:\software\mounriver_studio\toolchain\risc-v embedded gcc12\riscv-none-elf\include\c++\12.2.0\bits\char_traits.h **** 	__c1 = __c2;
 355:d:\software\mounriver_studio\toolchain\risc-v embedded gcc12\riscv-none-elf\include\c++\12.2.0\bits\char_traits.h ****       }
 356:d:\software\mounriver_studio\toolchain\risc-v embedded gcc12\riscv-none-elf\include\c++\12.2.0\bits\char_traits.h **** 
 357:d:\software\mounriver_studio\toolchain\risc-v embedded gcc12\riscv-none-elf\include\c++\12.2.0\bits\char_traits.h ****       static _GLIBCXX_CONSTEXPR bool
 358:d:\software\mounriver_studio\toolchain\risc-v embedded gcc12\riscv-none-elf\include\c++\12.2.0\bits\char_traits.h ****       eq(const char_type& __c1, const char_type& __c2) _GLIBCXX_NOEXCEPT
 359:d:\software\mounriver_studio\toolchain\risc-v embedded gcc12\riscv-none-elf\include\c++\12.2.0\bits\char_traits.h ****       { return __c1 == __c2; }
 360:d:\software\mounriver_studio\toolchain\risc-v embedded gcc12\riscv-none-elf\include\c++\12.2.0\bits\char_traits.h **** 
 361:d:\software\mounriver_studio\toolchain\risc-v embedded gcc12\riscv-none-elf\include\c++\12.2.0\bits\char_traits.h ****       static _GLIBCXX_CONSTEXPR bool
 362:d:\software\mounriver_studio\toolchain\risc-v embedded gcc12\riscv-none-elf\include\c++\12.2.0\bits\char_traits.h ****       lt(const char_type& __c1, const char_type& __c2) _GLIBCXX_NOEXCEPT
 363:d:\software\mounriver_studio\toolchain\risc-v embedded gcc12\riscv-none-elf\include\c++\12.2.0\bits\char_traits.h ****       {
 364:d:\software\mounriver_studio\toolchain\risc-v embedded gcc12\riscv-none-elf\include\c++\12.2.0\bits\char_traits.h **** 	// LWG 467.
 365:d:\software\mounriver_studio\toolchain\risc-v embedded gcc12\riscv-none-elf\include\c++\12.2.0\bits\char_traits.h **** 	return (static_cast<unsigned char>(__c1)
 366:d:\software\mounriver_studio\toolchain\risc-v embedded gcc12\riscv-none-elf\include\c++\12.2.0\bits\char_traits.h **** 		< static_cast<unsigned char>(__c2));
 367:d:\software\mounriver_studio\toolchain\risc-v embedded gcc12\riscv-none-elf\include\c++\12.2.0\bits\char_traits.h ****       }
 368:d:\software\mounriver_studio\toolchain\risc-v embedded gcc12\riscv-none-elf\include\c++\12.2.0\bits\char_traits.h **** 
 369:d:\software\mounriver_studio\toolchain\risc-v embedded gcc12\riscv-none-elf\include\c++\12.2.0\bits\char_traits.h ****       static _GLIBCXX17_CONSTEXPR int
 370:d:\software\mounriver_studio\toolchain\risc-v embedded gcc12\riscv-none-elf\include\c++\12.2.0\bits\char_traits.h ****       compare(const char_type* __s1, const char_type* __s2, size_t __n)
 371:d:\software\mounriver_studio\toolchain\risc-v embedded gcc12\riscv-none-elf\include\c++\12.2.0\bits\char_traits.h ****       {
 372:d:\software\mounriver_studio\toolchain\risc-v embedded gcc12\riscv-none-elf\include\c++\12.2.0\bits\char_traits.h **** 	if (__n == 0)
 373:d:\software\mounriver_studio\toolchain\risc-v embedded gcc12\riscv-none-elf\include\c++\12.2.0\bits\char_traits.h **** 	  return 0;
 374:d:\software\mounriver_studio\toolchain\risc-v embedded gcc12\riscv-none-elf\include\c++\12.2.0\bits\char_traits.h **** #if __cplusplus >= 201703L
 375:d:\software\mounriver_studio\toolchain\risc-v embedded gcc12\riscv-none-elf\include\c++\12.2.0\bits\char_traits.h **** 	if (std::__is_constant_evaluated())
 376:d:\software\mounriver_studio\toolchain\risc-v embedded gcc12\riscv-none-elf\include\c++\12.2.0\bits\char_traits.h **** 	  {
 377:d:\software\mounriver_studio\toolchain\risc-v embedded gcc12\riscv-none-elf\include\c++\12.2.0\bits\char_traits.h **** 	    for (size_t __i = 0; __i < __n; ++__i)
 378:d:\software\mounriver_studio\toolchain\risc-v embedded gcc12\riscv-none-elf\include\c++\12.2.0\bits\char_traits.h **** 	      if (lt(__s1[__i], __s2[__i]))
 379:d:\software\mounriver_studio\toolchain\risc-v embedded gcc12\riscv-none-elf\include\c++\12.2.0\bits\char_traits.h **** 		return -1;
 380:d:\software\mounriver_studio\toolchain\risc-v embedded gcc12\riscv-none-elf\include\c++\12.2.0\bits\char_traits.h **** 	      else if (lt(__s2[__i], __s1[__i]))
 381:d:\software\mounriver_studio\toolchain\risc-v embedded gcc12\riscv-none-elf\include\c++\12.2.0\bits\char_traits.h **** 		return 1;
 382:d:\software\mounriver_studio\toolchain\risc-v embedded gcc12\riscv-none-elf\include\c++\12.2.0\bits\char_traits.h **** 	    return 0;
 383:d:\software\mounriver_studio\toolchain\risc-v embedded gcc12\riscv-none-elf\include\c++\12.2.0\bits\char_traits.h **** 	  }
 384:d:\software\mounriver_studio\toolchain\risc-v embedded gcc12\riscv-none-elf\include\c++\12.2.0\bits\char_traits.h **** #endif
 385:d:\software\mounriver_studio\toolchain\risc-v embedded gcc12\riscv-none-elf\include\c++\12.2.0\bits\char_traits.h **** 	return __builtin_memcmp(__s1, __s2, __n);
 386:d:\software\mounriver_studio\toolchain\risc-v embedded gcc12\riscv-none-elf\include\c++\12.2.0\bits\char_traits.h ****       }
 387:d:\software\mounriver_studio\toolchain\risc-v embedded gcc12\riscv-none-elf\include\c++\12.2.0\bits\char_traits.h **** 
 388:d:\software\mounriver_studio\toolchain\risc-v embedded gcc12\riscv-none-elf\include\c++\12.2.0\bits\char_traits.h ****       static _GLIBCXX17_CONSTEXPR size_t
 389:d:\software\mounriver_studio\toolchain\risc-v embedded gcc12\riscv-none-elf\include\c++\12.2.0\bits\char_traits.h ****       length(const char_type* __s)
 390:d:\software\mounriver_studio\toolchain\risc-v embedded gcc12\riscv-none-elf\include\c++\12.2.0\bits\char_traits.h ****       {
 391:d:\software\mounriver_studio\toolchain\risc-v embedded gcc12\riscv-none-elf\include\c++\12.2.0\bits\char_traits.h **** #if __cplusplus >= 201703L
 392:d:\software\mounriver_studio\toolchain\risc-v embedded gcc12\riscv-none-elf\include\c++\12.2.0\bits\char_traits.h **** 	if (std::__is_constant_evaluated())
 393:d:\software\mounriver_studio\toolchain\risc-v embedded gcc12\riscv-none-elf\include\c++\12.2.0\bits\char_traits.h **** 	  return __gnu_cxx::char_traits<char_type>::length(__s);
 394:d:\software\mounriver_studio\toolchain\risc-v embedded gcc12\riscv-none-elf\include\c++\12.2.0\bits\char_traits.h **** #endif
 395:d:\software\mounriver_studio\toolchain\risc-v embedded gcc12\riscv-none-elf\include\c++\12.2.0\bits\char_traits.h **** 	return __builtin_strlen(__s);
 396:d:\software\mounriver_studio\toolchain\risc-v embedded gcc12\riscv-none-elf\include\c++\12.2.0\bits\char_traits.h ****       }
 397:d:\software\mounriver_studio\toolchain\risc-v embedded gcc12\riscv-none-elf\include\c++\12.2.0\bits\char_traits.h **** 
 398:d:\software\mounriver_studio\toolchain\risc-v embedded gcc12\riscv-none-elf\include\c++\12.2.0\bits\char_traits.h ****       static _GLIBCXX17_CONSTEXPR const char_type*
 399:d:\software\mounriver_studio\toolchain\risc-v embedded gcc12\riscv-none-elf\include\c++\12.2.0\bits\char_traits.h ****       find(const char_type* __s, size_t __n, const char_type& __a)
 400:d:\software\mounriver_studio\toolchain\risc-v embedded gcc12\riscv-none-elf\include\c++\12.2.0\bits\char_traits.h ****       {
 401:d:\software\mounriver_studio\toolchain\risc-v embedded gcc12\riscv-none-elf\include\c++\12.2.0\bits\char_traits.h **** 	if (__n == 0)
 402:d:\software\mounriver_studio\toolchain\risc-v embedded gcc12\riscv-none-elf\include\c++\12.2.0\bits\char_traits.h **** 	  return 0;
 403:d:\software\mounriver_studio\toolchain\risc-v embedded gcc12\riscv-none-elf\include\c++\12.2.0\bits\char_traits.h **** #if __cplusplus >= 201703L
 404:d:\software\mounriver_studio\toolchain\risc-v embedded gcc12\riscv-none-elf\include\c++\12.2.0\bits\char_traits.h **** 	if (std::__is_constant_evaluated())
 405:d:\software\mounriver_studio\toolchain\risc-v embedded gcc12\riscv-none-elf\include\c++\12.2.0\bits\char_traits.h **** 	  return __gnu_cxx::char_traits<char_type>::find(__s, __n, __a);
 406:d:\software\mounriver_studio\toolchain\risc-v embedded gcc12\riscv-none-elf\include\c++\12.2.0\bits\char_traits.h **** #endif
 407:d:\software\mounriver_studio\toolchain\risc-v embedded gcc12\riscv-none-elf\include\c++\12.2.0\bits\char_traits.h **** 	return static_cast<const char_type*>(__builtin_memchr(__s, __a, __n));
 408:d:\software\mounriver_studio\toolchain\risc-v embedded gcc12\riscv-none-elf\include\c++\12.2.0\bits\char_traits.h ****       }
 409:d:\software\mounriver_studio\toolchain\risc-v embedded gcc12\riscv-none-elf\include\c++\12.2.0\bits\char_traits.h **** 
 410:d:\software\mounriver_studio\toolchain\risc-v embedded gcc12\riscv-none-elf\include\c++\12.2.0\bits\char_traits.h ****       static _GLIBCXX20_CONSTEXPR char_type*
 411:d:\software\mounriver_studio\toolchain\risc-v embedded gcc12\riscv-none-elf\include\c++\12.2.0\bits\char_traits.h ****       move(char_type* __s1, const char_type* __s2, size_t __n)
 412:d:\software\mounriver_studio\toolchain\risc-v embedded gcc12\riscv-none-elf\include\c++\12.2.0\bits\char_traits.h ****       {
 413:d:\software\mounriver_studio\toolchain\risc-v embedded gcc12\riscv-none-elf\include\c++\12.2.0\bits\char_traits.h **** 	if (__n == 0)
 414:d:\software\mounriver_studio\toolchain\risc-v embedded gcc12\riscv-none-elf\include\c++\12.2.0\bits\char_traits.h **** 	  return __s1;
 415:d:\software\mounriver_studio\toolchain\risc-v embedded gcc12\riscv-none-elf\include\c++\12.2.0\bits\char_traits.h **** #if __cplusplus >= 202002L
 416:d:\software\mounriver_studio\toolchain\risc-v embedded gcc12\riscv-none-elf\include\c++\12.2.0\bits\char_traits.h **** 	if (std::__is_constant_evaluated())
 417:d:\software\mounriver_studio\toolchain\risc-v embedded gcc12\riscv-none-elf\include\c++\12.2.0\bits\char_traits.h **** 	  return __gnu_cxx::char_traits<char_type>::move(__s1, __s2, __n);
 418:d:\software\mounriver_studio\toolchain\risc-v embedded gcc12\riscv-none-elf\include\c++\12.2.0\bits\char_traits.h **** #endif
 419:d:\software\mounriver_studio\toolchain\risc-v embedded gcc12\riscv-none-elf\include\c++\12.2.0\bits\char_traits.h **** 	return static_cast<char_type*>(__builtin_memmove(__s1, __s2, __n));
 420:d:\software\mounriver_studio\toolchain\risc-v embedded gcc12\riscv-none-elf\include\c++\12.2.0\bits\char_traits.h ****       }
 421:d:\software\mounriver_studio\toolchain\risc-v embedded gcc12\riscv-none-elf\include\c++\12.2.0\bits\char_traits.h **** 
 422:d:\software\mounriver_studio\toolchain\risc-v embedded gcc12\riscv-none-elf\include\c++\12.2.0\bits\char_traits.h ****       static _GLIBCXX20_CONSTEXPR char_type*
 423:d:\software\mounriver_studio\toolchain\risc-v embedded gcc12\riscv-none-elf\include\c++\12.2.0\bits\char_traits.h ****       copy(char_type* __s1, const char_type* __s2, size_t __n)
 424:d:\software\mounriver_studio\toolchain\risc-v embedded gcc12\riscv-none-elf\include\c++\12.2.0\bits\char_traits.h ****       {
 425:d:\software\mounriver_studio\toolchain\risc-v embedded gcc12\riscv-none-elf\include\c++\12.2.0\bits\char_traits.h **** 	if (__n == 0)
 426:d:\software\mounriver_studio\toolchain\risc-v embedded gcc12\riscv-none-elf\include\c++\12.2.0\bits\char_traits.h **** 	  return __s1;
 427:d:\software\mounriver_studio\toolchain\risc-v embedded gcc12\riscv-none-elf\include\c++\12.2.0\bits\char_traits.h **** #if __cplusplus >= 202002L
 428:d:\software\mounriver_studio\toolchain\risc-v embedded gcc12\riscv-none-elf\include\c++\12.2.0\bits\char_traits.h **** 	if (std::__is_constant_evaluated())
 429:d:\software\mounriver_studio\toolchain\risc-v embedded gcc12\riscv-none-elf\include\c++\12.2.0\bits\char_traits.h **** 	  return __gnu_cxx::char_traits<char_type>::copy(__s1, __s2, __n);
 430:d:\software\mounriver_studio\toolchain\risc-v embedded gcc12\riscv-none-elf\include\c++\12.2.0\bits\char_traits.h **** #endif
 431:d:\software\mounriver_studio\toolchain\risc-v embedded gcc12\riscv-none-elf\include\c++\12.2.0\bits\char_traits.h **** 	return static_cast<char_type*>(__builtin_memcpy(__s1, __s2, __n));
 107              		.loc 3 431 49
 108 0076 97050000 		lla	a1,.LC3
 108      93850500 
 109 007e 2D46     		li	a2,11
 110 0080 2685     		mv	a0,s1
 111              	.LBE340:
 112              	.LBE339:
 113              	.LBE338:
 114              	.LBE337:
 115              	.LBE336:
 116              	.LBE335:
 117              	.LBE334:
 118              	.LBB358:
 119              	.LBB333:
 120              	.LBB332:
 121              		.loc 2 200 25
 122 0082 26C4     		sw	s1,8(sp)
 123              	.LVL9:
 124              	.LBE332:
 125              	.LBE333:
 126              	.LBE358:
 127              	.LBB359:
 128              	.LBB355:
 392:d:\software\mounriver_studio\toolchain\risc-v embedded gcc12\riscv-none-elf\include\c++\12.2.0\bits\char_traits.h **** 	  return __gnu_cxx::char_traits<char_type>::length(__s);
 129              		.loc 3 392 2 is_stmt 1
 395:d:\software\mounriver_studio\toolchain\risc-v embedded gcc12\riscv-none-elf\include\c++\12.2.0\bits\char_traits.h ****       }
 130              		.loc 3 395 2
 131              	.LBE355:
 132              	.LBB356:
 133              	.LBB353:
 134              	.LBB344:
 135              	.LBB343:
 136              	.LBB342:
 137              	.LBB341:
 425:d:\software\mounriver_studio\toolchain\risc-v embedded gcc12\riscv-none-elf\include\c++\12.2.0\bits\char_traits.h **** 	  return __s1;
 138              		.loc 3 425 2
 428:d:\software\mounriver_studio\toolchain\risc-v embedded gcc12\riscv-none-elf\include\c++\12.2.0\bits\char_traits.h **** 	  return __gnu_cxx::char_traits<char_type>::copy(__s1, __s2, __n);
 139              		.loc 3 428 2
 140              		.loc 3 431 2
 141              		.loc 3 431 49 is_stmt 0
 142 0084 97000000 		call	memcpy
 142      E7800000 
 143              	.LVL10:
 144              	.LBE341:
 145              	.LBE342:
 146              	.LBE343:
 147              	.LBE344:
 148              	.LBB345:
 149              	.LBB346:
 150              	.LBB347:
 201:d:\software\mounriver_studio\toolchain\risc-v embedded gcc12\riscv-none-elf\include\c++\12.2.0\bits\basic_string.h **** 
 202:d:\software\mounriver_studio\toolchain\risc-v embedded gcc12\riscv-none-elf\include\c++\12.2.0\bits\basic_string.h **** 	_GLIBCXX20_CONSTEXPR
 203:d:\software\mounriver_studio\toolchain\risc-v embedded gcc12\riscv-none-elf\include\c++\12.2.0\bits\basic_string.h **** 	_Alloc_hider(pointer __dat, _Alloc&& __a = _Alloc())
 204:d:\software\mounriver_studio\toolchain\risc-v embedded gcc12\riscv-none-elf\include\c++\12.2.0\bits\basic_string.h **** 	: allocator_type(std::move(__a)), _M_p(__dat) { }
 205:d:\software\mounriver_studio\toolchain\risc-v embedded gcc12\riscv-none-elf\include\c++\12.2.0\bits\basic_string.h **** #endif
 206:d:\software\mounriver_studio\toolchain\risc-v embedded gcc12\riscv-none-elf\include\c++\12.2.0\bits\basic_string.h **** 
 207:d:\software\mounriver_studio\toolchain\risc-v embedded gcc12\riscv-none-elf\include\c++\12.2.0\bits\basic_string.h **** 	pointer _M_p; // The actual data.
 208:d:\software\mounriver_studio\toolchain\risc-v embedded gcc12\riscv-none-elf\include\c++\12.2.0\bits\basic_string.h ****       };
 209:d:\software\mounriver_studio\toolchain\risc-v embedded gcc12\riscv-none-elf\include\c++\12.2.0\bits\basic_string.h **** 
 210:d:\software\mounriver_studio\toolchain\risc-v embedded gcc12\riscv-none-elf\include\c++\12.2.0\bits\basic_string.h ****       _Alloc_hider	_M_dataplus;
 211:d:\software\mounriver_studio\toolchain\risc-v embedded gcc12\riscv-none-elf\include\c++\12.2.0\bits\basic_string.h ****       size_type		_M_string_length;
 212:d:\software\mounriver_studio\toolchain\risc-v embedded gcc12\riscv-none-elf\include\c++\12.2.0\bits\basic_string.h **** 
 213:d:\software\mounriver_studio\toolchain\risc-v embedded gcc12\riscv-none-elf\include\c++\12.2.0\bits\basic_string.h ****       enum { _S_local_capacity = 15 / sizeof(_CharT) };
 214:d:\software\mounriver_studio\toolchain\risc-v embedded gcc12\riscv-none-elf\include\c++\12.2.0\bits\basic_string.h **** 
 215:d:\software\mounriver_studio\toolchain\risc-v embedded gcc12\riscv-none-elf\include\c++\12.2.0\bits\basic_string.h ****       union
 216:d:\software\mounriver_studio\toolchain\risc-v embedded gcc12\riscv-none-elf\include\c++\12.2.0\bits\basic_string.h ****       {
 217:d:\software\mounriver_studio\toolchain\risc-v embedded gcc12\riscv-none-elf\include\c++\12.2.0\bits\basic_string.h **** 	_CharT           _M_local_buf[_S_local_capacity + 1];
 218:d:\software\mounriver_studio\toolchain\risc-v embedded gcc12\riscv-none-elf\include\c++\12.2.0\bits\basic_string.h **** 	size_type        _M_allocated_capacity;
 219:d:\software\mounriver_studio\toolchain\risc-v embedded gcc12\riscv-none-elf\include\c++\12.2.0\bits\basic_string.h ****       };
 220:d:\software\mounriver_studio\toolchain\risc-v embedded gcc12\riscv-none-elf\include\c++\12.2.0\bits\basic_string.h **** 
 221:d:\software\mounriver_studio\toolchain\risc-v embedded gcc12\riscv-none-elf\include\c++\12.2.0\bits\basic_string.h ****       _GLIBCXX20_CONSTEXPR
 222:d:\software\mounriver_studio\toolchain\risc-v embedded gcc12\riscv-none-elf\include\c++\12.2.0\bits\basic_string.h ****       void
 223:d:\software\mounriver_studio\toolchain\risc-v embedded gcc12\riscv-none-elf\include\c++\12.2.0\bits\basic_string.h ****       _M_data(pointer __p)
 224:d:\software\mounriver_studio\toolchain\risc-v embedded gcc12\riscv-none-elf\include\c++\12.2.0\bits\basic_string.h ****       { _M_dataplus._M_p = __p; }
 225:d:\software\mounriver_studio\toolchain\risc-v embedded gcc12\riscv-none-elf\include\c++\12.2.0\bits\basic_string.h **** 
 226:d:\software\mounriver_studio\toolchain\risc-v embedded gcc12\riscv-none-elf\include\c++\12.2.0\bits\basic_string.h ****       _GLIBCXX20_CONSTEXPR
 227:d:\software\mounriver_studio\toolchain\risc-v embedded gcc12\riscv-none-elf\include\c++\12.2.0\bits\basic_string.h ****       void
 228:d:\software\mounriver_studio\toolchain\risc-v embedded gcc12\riscv-none-elf\include\c++\12.2.0\bits\basic_string.h ****       _M_length(size_type __length)
 229:d:\software\mounriver_studio\toolchain\risc-v embedded gcc12\riscv-none-elf\include\c++\12.2.0\bits\basic_string.h ****       { _M_string_length = __length; }
 151              		.loc 2 229 26
 152 008c AD47     		li	a5,11
 153              	.LBE347:
 154              	.LBE346:
 155              	.LBE345:
 156              	.LBE353:
 157              	.LBE356:
 158              	.LBE359:
 159              	.LBE328:
 160              	.LBE327:
 161              	.LBE326:
  52:../User/main.cpp **** 	std::cout << "Hello, World!\n" << sin(pi) << std::endl;
 162              		.loc 1 52 15
 163 008e 97050000 		lla	a1,.LC4
 163      93850500 
 164 0096 17050000 		lla	a0,_ZSt4cout
 164      13050500 
 165              	.LBB363:
 166              	.LBB362:
 167              	.LBB361:
 168              	.LBB360:
 169              	.LBB357:
 170              	.LBB354:
 171              	.LBB352:
 172              	.LBB349:
 173              	.LBB348:
 174              		.loc 2 229 26
 175 009e 3EC6     		sw	a5,12(sp)
 176              	.LVL11:
 177              	.LBE348:
 178              	.LBE349:
 179              	.LBB350:
 180              	.LBB351:
 350:d:\software\mounriver_studio\toolchain\risc-v embedded gcc12\riscv-none-elf\include\c++\12.2.0\bits\char_traits.h **** 	  std::construct_at(__builtin_addressof(__c1), __c2);
 181              		.loc 3 350 2 is_stmt 1
 354:d:\software\mounriver_studio\toolchain\risc-v embedded gcc12\riscv-none-elf\include\c++\12.2.0\bits\char_traits.h ****       }
 182              		.loc 3 354 2
 354:d:\software\mounriver_studio\toolchain\risc-v embedded gcc12\riscv-none-elf\include\c++\12.2.0\bits\char_traits.h ****       }
 183              		.loc 3 354 7 is_stmt 0
 184 00a0 A30D0100 		sb	zero,27(sp)
 185              	.LVL12:
 186              	.LBE351:
 187              	.LBE350:
 188              	.LBE352:
 189              	.LBE354:
 190              	.LBE357:
 191              	.LBE360:
 192              	.LBE361:
 193              	.LBE362:
 194              	.LBE363:
 195              		.loc 1 52 2 is_stmt 1
 196              	.LEHB1:
 197              		.loc 1 52 15 is_stmt 0
 198 00a4 97000000 		call	_ZStlsISt11char_traitsIcEERSt13basic_ostreamIcT_ES5_PKc
 198      E7800000 
 199              	.LVL13:
 200              	.LBB364:
 201              	.LBB365:
 202              		.file 4 "d:\\software\\mounriver_studio\\toolchain\\risc-v embedded gcc12\\riscv-none-elf\\include
   1:d:\software\mounriver_studio\toolchain\risc-v embedded gcc12\riscv-none-elf\include\c++\12.2.0\ostream **** // Output streams -*- C++ -*-
   2:d:\software\mounriver_studio\toolchain\risc-v embedded gcc12\riscv-none-elf\include\c++\12.2.0\ostream **** 
   3:d:\software\mounriver_studio\toolchain\risc-v embedded gcc12\riscv-none-elf\include\c++\12.2.0\ostream **** // Copyright (C) 1997-2022 Free Software Foundation, Inc.
   4:d:\software\mounriver_studio\toolchain\risc-v embedded gcc12\riscv-none-elf\include\c++\12.2.0\ostream **** //
   5:d:\software\mounriver_studio\toolchain\risc-v embedded gcc12\riscv-none-elf\include\c++\12.2.0\ostream **** // This file is part of the GNU ISO C++ Library.  This library is free
   6:d:\software\mounriver_studio\toolchain\risc-v embedded gcc12\riscv-none-elf\include\c++\12.2.0\ostream **** // software; you can redistribute it and/or modify it under the
   7:d:\software\mounriver_studio\toolchain\risc-v embedded gcc12\riscv-none-elf\include\c++\12.2.0\ostream **** // terms of the GNU General Public License as published by the
   8:d:\software\mounriver_studio\toolchain\risc-v embedded gcc12\riscv-none-elf\include\c++\12.2.0\ostream **** // Free Software Foundation; either version 3, or (at your option)
   9:d:\software\mounriver_studio\toolchain\risc-v embedded gcc12\riscv-none-elf\include\c++\12.2.0\ostream **** // any later version.
  10:d:\software\mounriver_studio\toolchain\risc-v embedded gcc12\riscv-none-elf\include\c++\12.2.0\ostream **** 
  11:d:\software\mounriver_studio\toolchain\risc-v embedded gcc12\riscv-none-elf\include\c++\12.2.0\ostream **** // This library is distributed in the hope that it will be useful,
  12:d:\software\mounriver_studio\toolchain\risc-v embedded gcc12\riscv-none-elf\include\c++\12.2.0\ostream **** // but WITHOUT ANY WARRANTY; without even the implied warranty of
  13:d:\software\mounriver_studio\toolchain\risc-v embedded gcc12\riscv-none-elf\include\c++\12.2.0\ostream **** // MERCHANTABILITY or FITNESS FOR A PARTICULAR PURPOSE.  See the
  14:d:\software\mounriver_studio\toolchain\risc-v embedded gcc12\riscv-none-elf\include\c++\12.2.0\ostream **** // GNU General Public License for more details.
  15:d:\software\mounriver_studio\toolchain\risc-v embedded gcc12\riscv-none-elf\include\c++\12.2.0\ostream **** 
  16:d:\software\mounriver_studio\toolchain\risc-v embedded gcc12\riscv-none-elf\include\c++\12.2.0\ostream **** // Under Section 7 of GPL version 3, you are granted additional
  17:d:\software\mounriver_studio\toolchain\risc-v embedded gcc12\riscv-none-elf\include\c++\12.2.0\ostream **** // permissions described in the GCC Runtime Library Exception, version
  18:d:\software\mounriver_studio\toolchain\risc-v embedded gcc12\riscv-none-elf\include\c++\12.2.0\ostream **** // 3.1, as published by the Free Software Foundation.
  19:d:\software\mounriver_studio\toolchain\risc-v embedded gcc12\riscv-none-elf\include\c++\12.2.0\ostream **** 
  20:d:\software\mounriver_studio\toolchain\risc-v embedded gcc12\riscv-none-elf\include\c++\12.2.0\ostream **** // You should have received a copy of the GNU General Public License and
  21:d:\software\mounriver_studio\toolchain\risc-v embedded gcc12\riscv-none-elf\include\c++\12.2.0\ostream **** // a copy of the GCC Runtime Library Exception along with this program;
  22:d:\software\mounriver_studio\toolchain\risc-v embedded gcc12\riscv-none-elf\include\c++\12.2.0\ostream **** // see the files COPYING3 and COPYING.RUNTIME respectively.  If not, see
  23:d:\software\mounriver_studio\toolchain\risc-v embedded gcc12\riscv-none-elf\include\c++\12.2.0\ostream **** // <http://www.gnu.org/licenses/>.
  24:d:\software\mounriver_studio\toolchain\risc-v embedded gcc12\riscv-none-elf\include\c++\12.2.0\ostream **** 
  25:d:\software\mounriver_studio\toolchain\risc-v embedded gcc12\riscv-none-elf\include\c++\12.2.0\ostream **** /** @file include/ostream
  26:d:\software\mounriver_studio\toolchain\risc-v embedded gcc12\riscv-none-elf\include\c++\12.2.0\ostream ****  *  This is a Standard C++ Library header.
  27:d:\software\mounriver_studio\toolchain\risc-v embedded gcc12\riscv-none-elf\include\c++\12.2.0\ostream ****  */
  28:d:\software\mounriver_studio\toolchain\risc-v embedded gcc12\riscv-none-elf\include\c++\12.2.0\ostream **** 
  29:d:\software\mounriver_studio\toolchain\risc-v embedded gcc12\riscv-none-elf\include\c++\12.2.0\ostream **** //
  30:d:\software\mounriver_studio\toolchain\risc-v embedded gcc12\riscv-none-elf\include\c++\12.2.0\ostream **** // ISO C++ 14882: 27.6.2  Output streams
  31:d:\software\mounriver_studio\toolchain\risc-v embedded gcc12\riscv-none-elf\include\c++\12.2.0\ostream **** //
  32:d:\software\mounriver_studio\toolchain\risc-v embedded gcc12\riscv-none-elf\include\c++\12.2.0\ostream **** 
  33:d:\software\mounriver_studio\toolchain\risc-v embedded gcc12\riscv-none-elf\include\c++\12.2.0\ostream **** #ifndef _GLIBCXX_OSTREAM
  34:d:\software\mounriver_studio\toolchain\risc-v embedded gcc12\riscv-none-elf\include\c++\12.2.0\ostream **** #define _GLIBCXX_OSTREAM 1
  35:d:\software\mounriver_studio\toolchain\risc-v embedded gcc12\riscv-none-elf\include\c++\12.2.0\ostream **** 
  36:d:\software\mounriver_studio\toolchain\risc-v embedded gcc12\riscv-none-elf\include\c++\12.2.0\ostream **** #pragma GCC system_header
  37:d:\software\mounriver_studio\toolchain\risc-v embedded gcc12\riscv-none-elf\include\c++\12.2.0\ostream **** 
  38:d:\software\mounriver_studio\toolchain\risc-v embedded gcc12\riscv-none-elf\include\c++\12.2.0\ostream **** #include <ios>
  39:d:\software\mounriver_studio\toolchain\risc-v embedded gcc12\riscv-none-elf\include\c++\12.2.0\ostream **** #include <bits/ostream_insert.h>
  40:d:\software\mounriver_studio\toolchain\risc-v embedded gcc12\riscv-none-elf\include\c++\12.2.0\ostream **** 
  41:d:\software\mounriver_studio\toolchain\risc-v embedded gcc12\riscv-none-elf\include\c++\12.2.0\ostream **** namespace std _GLIBCXX_VISIBILITY(default)
  42:d:\software\mounriver_studio\toolchain\risc-v embedded gcc12\riscv-none-elf\include\c++\12.2.0\ostream **** {
  43:d:\software\mounriver_studio\toolchain\risc-v embedded gcc12\riscv-none-elf\include\c++\12.2.0\ostream **** _GLIBCXX_BEGIN_NAMESPACE_VERSION
  44:d:\software\mounriver_studio\toolchain\risc-v embedded gcc12\riscv-none-elf\include\c++\12.2.0\ostream **** 
  45:d:\software\mounriver_studio\toolchain\risc-v embedded gcc12\riscv-none-elf\include\c++\12.2.0\ostream ****   /**
  46:d:\software\mounriver_studio\toolchain\risc-v embedded gcc12\riscv-none-elf\include\c++\12.2.0\ostream ****    *  @brief  Template class basic_ostream.
  47:d:\software\mounriver_studio\toolchain\risc-v embedded gcc12\riscv-none-elf\include\c++\12.2.0\ostream ****    *  @ingroup io
  48:d:\software\mounriver_studio\toolchain\risc-v embedded gcc12\riscv-none-elf\include\c++\12.2.0\ostream ****    *
  49:d:\software\mounriver_studio\toolchain\risc-v embedded gcc12\riscv-none-elf\include\c++\12.2.0\ostream ****    *  @tparam _CharT  Type of character stream.
  50:d:\software\mounriver_studio\toolchain\risc-v embedded gcc12\riscv-none-elf\include\c++\12.2.0\ostream ****    *  @tparam _Traits  Traits for character type, defaults to
  51:d:\software\mounriver_studio\toolchain\risc-v embedded gcc12\riscv-none-elf\include\c++\12.2.0\ostream ****    *                   char_traits<_CharT>.
  52:d:\software\mounriver_studio\toolchain\risc-v embedded gcc12\riscv-none-elf\include\c++\12.2.0\ostream ****    *
  53:d:\software\mounriver_studio\toolchain\risc-v embedded gcc12\riscv-none-elf\include\c++\12.2.0\ostream ****    *  This is the base class for all output streams.  It provides text
  54:d:\software\mounriver_studio\toolchain\risc-v embedded gcc12\riscv-none-elf\include\c++\12.2.0\ostream ****    *  formatting of all builtin types, and communicates with any class
  55:d:\software\mounriver_studio\toolchain\risc-v embedded gcc12\riscv-none-elf\include\c++\12.2.0\ostream ****    *  derived from basic_streambuf to do the actual output.
  56:d:\software\mounriver_studio\toolchain\risc-v embedded gcc12\riscv-none-elf\include\c++\12.2.0\ostream ****   */
  57:d:\software\mounriver_studio\toolchain\risc-v embedded gcc12\riscv-none-elf\include\c++\12.2.0\ostream ****   template<typename _CharT, typename _Traits>
  58:d:\software\mounriver_studio\toolchain\risc-v embedded gcc12\riscv-none-elf\include\c++\12.2.0\ostream ****     class basic_ostream : virtual public basic_ios<_CharT, _Traits>
  59:d:\software\mounriver_studio\toolchain\risc-v embedded gcc12\riscv-none-elf\include\c++\12.2.0\ostream ****     {
  60:d:\software\mounriver_studio\toolchain\risc-v embedded gcc12\riscv-none-elf\include\c++\12.2.0\ostream ****     public:
  61:d:\software\mounriver_studio\toolchain\risc-v embedded gcc12\riscv-none-elf\include\c++\12.2.0\ostream ****       // Types (inherited from basic_ios):
  62:d:\software\mounriver_studio\toolchain\risc-v embedded gcc12\riscv-none-elf\include\c++\12.2.0\ostream ****       typedef _CharT			 		char_type;
  63:d:\software\mounriver_studio\toolchain\risc-v embedded gcc12\riscv-none-elf\include\c++\12.2.0\ostream ****       typedef typename _Traits::int_type 		int_type;
  64:d:\software\mounriver_studio\toolchain\risc-v embedded gcc12\riscv-none-elf\include\c++\12.2.0\ostream ****       typedef typename _Traits::pos_type 		pos_type;
  65:d:\software\mounriver_studio\toolchain\risc-v embedded gcc12\riscv-none-elf\include\c++\12.2.0\ostream ****       typedef typename _Traits::off_type 		off_type;
  66:d:\software\mounriver_studio\toolchain\risc-v embedded gcc12\riscv-none-elf\include\c++\12.2.0\ostream ****       typedef _Traits			 		traits_type;
  67:d:\software\mounriver_studio\toolchain\risc-v embedded gcc12\riscv-none-elf\include\c++\12.2.0\ostream **** 
  68:d:\software\mounriver_studio\toolchain\risc-v embedded gcc12\riscv-none-elf\include\c++\12.2.0\ostream ****       // Non-standard Types:
  69:d:\software\mounriver_studio\toolchain\risc-v embedded gcc12\riscv-none-elf\include\c++\12.2.0\ostream ****       typedef basic_streambuf<_CharT, _Traits> 		__streambuf_type;
  70:d:\software\mounriver_studio\toolchain\risc-v embedded gcc12\riscv-none-elf\include\c++\12.2.0\ostream ****       typedef basic_ios<_CharT, _Traits>		__ios_type;
  71:d:\software\mounriver_studio\toolchain\risc-v embedded gcc12\riscv-none-elf\include\c++\12.2.0\ostream ****       typedef basic_ostream<_CharT, _Traits>		__ostream_type;
  72:d:\software\mounriver_studio\toolchain\risc-v embedded gcc12\riscv-none-elf\include\c++\12.2.0\ostream ****       typedef num_put<_CharT, ostreambuf_iterator<_CharT, _Traits> >
  73:d:\software\mounriver_studio\toolchain\risc-v embedded gcc12\riscv-none-elf\include\c++\12.2.0\ostream ****       							__num_put_type;
  74:d:\software\mounriver_studio\toolchain\risc-v embedded gcc12\riscv-none-elf\include\c++\12.2.0\ostream ****       typedef ctype<_CharT>	      			__ctype_type;
  75:d:\software\mounriver_studio\toolchain\risc-v embedded gcc12\riscv-none-elf\include\c++\12.2.0\ostream **** 
  76:d:\software\mounriver_studio\toolchain\risc-v embedded gcc12\riscv-none-elf\include\c++\12.2.0\ostream ****       /**
  77:d:\software\mounriver_studio\toolchain\risc-v embedded gcc12\riscv-none-elf\include\c++\12.2.0\ostream ****        *  @brief  Base constructor.
  78:d:\software\mounriver_studio\toolchain\risc-v embedded gcc12\riscv-none-elf\include\c++\12.2.0\ostream ****        *
  79:d:\software\mounriver_studio\toolchain\risc-v embedded gcc12\riscv-none-elf\include\c++\12.2.0\ostream ****        *  This ctor is almost never called by the user directly, rather from
  80:d:\software\mounriver_studio\toolchain\risc-v embedded gcc12\riscv-none-elf\include\c++\12.2.0\ostream ****        *  derived classes' initialization lists, which pass a pointer to
  81:d:\software\mounriver_studio\toolchain\risc-v embedded gcc12\riscv-none-elf\include\c++\12.2.0\ostream ****        *  their own stream buffer.
  82:d:\software\mounriver_studio\toolchain\risc-v embedded gcc12\riscv-none-elf\include\c++\12.2.0\ostream ****       */
  83:d:\software\mounriver_studio\toolchain\risc-v embedded gcc12\riscv-none-elf\include\c++\12.2.0\ostream ****       explicit
  84:d:\software\mounriver_studio\toolchain\risc-v embedded gcc12\riscv-none-elf\include\c++\12.2.0\ostream ****       basic_ostream(__streambuf_type* __sb)
  85:d:\software\mounriver_studio\toolchain\risc-v embedded gcc12\riscv-none-elf\include\c++\12.2.0\ostream ****       { this->init(__sb); }
  86:d:\software\mounriver_studio\toolchain\risc-v embedded gcc12\riscv-none-elf\include\c++\12.2.0\ostream **** 
  87:d:\software\mounriver_studio\toolchain\risc-v embedded gcc12\riscv-none-elf\include\c++\12.2.0\ostream ****       /**
  88:d:\software\mounriver_studio\toolchain\risc-v embedded gcc12\riscv-none-elf\include\c++\12.2.0\ostream ****        *  @brief  Base destructor.
  89:d:\software\mounriver_studio\toolchain\risc-v embedded gcc12\riscv-none-elf\include\c++\12.2.0\ostream ****        *
  90:d:\software\mounriver_studio\toolchain\risc-v embedded gcc12\riscv-none-elf\include\c++\12.2.0\ostream ****        *  This does very little apart from providing a virtual base dtor.
  91:d:\software\mounriver_studio\toolchain\risc-v embedded gcc12\riscv-none-elf\include\c++\12.2.0\ostream ****       */
  92:d:\software\mounriver_studio\toolchain\risc-v embedded gcc12\riscv-none-elf\include\c++\12.2.0\ostream ****       virtual
  93:d:\software\mounriver_studio\toolchain\risc-v embedded gcc12\riscv-none-elf\include\c++\12.2.0\ostream ****       ~basic_ostream() { }
  94:d:\software\mounriver_studio\toolchain\risc-v embedded gcc12\riscv-none-elf\include\c++\12.2.0\ostream **** 
  95:d:\software\mounriver_studio\toolchain\risc-v embedded gcc12\riscv-none-elf\include\c++\12.2.0\ostream ****       /// Safe prefix/suffix operations.
  96:d:\software\mounriver_studio\toolchain\risc-v embedded gcc12\riscv-none-elf\include\c++\12.2.0\ostream ****       class sentry;
  97:d:\software\mounriver_studio\toolchain\risc-v embedded gcc12\riscv-none-elf\include\c++\12.2.0\ostream ****       friend class sentry;
  98:d:\software\mounriver_studio\toolchain\risc-v embedded gcc12\riscv-none-elf\include\c++\12.2.0\ostream **** 
  99:d:\software\mounriver_studio\toolchain\risc-v embedded gcc12\riscv-none-elf\include\c++\12.2.0\ostream ****       ///@{
 100:d:\software\mounriver_studio\toolchain\risc-v embedded gcc12\riscv-none-elf\include\c++\12.2.0\ostream ****       /**
 101:d:\software\mounriver_studio\toolchain\risc-v embedded gcc12\riscv-none-elf\include\c++\12.2.0\ostream ****        *  @brief  Interface for manipulators.
 102:d:\software\mounriver_studio\toolchain\risc-v embedded gcc12\riscv-none-elf\include\c++\12.2.0\ostream ****        *
 103:d:\software\mounriver_studio\toolchain\risc-v embedded gcc12\riscv-none-elf\include\c++\12.2.0\ostream ****        *  Manipulators such as @c std::endl and @c std::hex use these
 104:d:\software\mounriver_studio\toolchain\risc-v embedded gcc12\riscv-none-elf\include\c++\12.2.0\ostream ****        *  functions in constructs like "std::cout << std::endl".  For more
 105:d:\software\mounriver_studio\toolchain\risc-v embedded gcc12\riscv-none-elf\include\c++\12.2.0\ostream ****        *  information, see the iomanip header.
 106:d:\software\mounriver_studio\toolchain\risc-v embedded gcc12\riscv-none-elf\include\c++\12.2.0\ostream ****       */
 107:d:\software\mounriver_studio\toolchain\risc-v embedded gcc12\riscv-none-elf\include\c++\12.2.0\ostream ****       __ostream_type&
 108:d:\software\mounriver_studio\toolchain\risc-v embedded gcc12\riscv-none-elf\include\c++\12.2.0\ostream ****       operator<<(__ostream_type& (*__pf)(__ostream_type&))
 109:d:\software\mounriver_studio\toolchain\risc-v embedded gcc12\riscv-none-elf\include\c++\12.2.0\ostream ****       {
 110:d:\software\mounriver_studio\toolchain\risc-v embedded gcc12\riscv-none-elf\include\c++\12.2.0\ostream **** 	// _GLIBCXX_RESOLVE_LIB_DEFECTS
 111:d:\software\mounriver_studio\toolchain\risc-v embedded gcc12\riscv-none-elf\include\c++\12.2.0\ostream **** 	// DR 60. What is a formatted input function?
 112:d:\software\mounriver_studio\toolchain\risc-v embedded gcc12\riscv-none-elf\include\c++\12.2.0\ostream **** 	// The inserters for manipulators are *not* formatted output functions.
 113:d:\software\mounriver_studio\toolchain\risc-v embedded gcc12\riscv-none-elf\include\c++\12.2.0\ostream **** 	return __pf(*this);
 114:d:\software\mounriver_studio\toolchain\risc-v embedded gcc12\riscv-none-elf\include\c++\12.2.0\ostream ****       }
 115:d:\software\mounriver_studio\toolchain\risc-v embedded gcc12\riscv-none-elf\include\c++\12.2.0\ostream **** 
 116:d:\software\mounriver_studio\toolchain\risc-v embedded gcc12\riscv-none-elf\include\c++\12.2.0\ostream ****       __ostream_type&
 117:d:\software\mounriver_studio\toolchain\risc-v embedded gcc12\riscv-none-elf\include\c++\12.2.0\ostream ****       operator<<(__ios_type& (*__pf)(__ios_type&))
 118:d:\software\mounriver_studio\toolchain\risc-v embedded gcc12\riscv-none-elf\include\c++\12.2.0\ostream ****       {
 119:d:\software\mounriver_studio\toolchain\risc-v embedded gcc12\riscv-none-elf\include\c++\12.2.0\ostream **** 	// _GLIBCXX_RESOLVE_LIB_DEFECTS
 120:d:\software\mounriver_studio\toolchain\risc-v embedded gcc12\riscv-none-elf\include\c++\12.2.0\ostream **** 	// DR 60. What is a formatted input function?
 121:d:\software\mounriver_studio\toolchain\risc-v embedded gcc12\riscv-none-elf\include\c++\12.2.0\ostream **** 	// The inserters for manipulators are *not* formatted output functions.
 122:d:\software\mounriver_studio\toolchain\risc-v embedded gcc12\riscv-none-elf\include\c++\12.2.0\ostream **** 	__pf(*this);
 123:d:\software\mounriver_studio\toolchain\risc-v embedded gcc12\riscv-none-elf\include\c++\12.2.0\ostream **** 	return *this;
 124:d:\software\mounriver_studio\toolchain\risc-v embedded gcc12\riscv-none-elf\include\c++\12.2.0\ostream ****       }
 125:d:\software\mounriver_studio\toolchain\risc-v embedded gcc12\riscv-none-elf\include\c++\12.2.0\ostream **** 
 126:d:\software\mounriver_studio\toolchain\risc-v embedded gcc12\riscv-none-elf\include\c++\12.2.0\ostream ****       __ostream_type&
 127:d:\software\mounriver_studio\toolchain\risc-v embedded gcc12\riscv-none-elf\include\c++\12.2.0\ostream ****       operator<<(ios_base& (*__pf) (ios_base&))
 128:d:\software\mounriver_studio\toolchain\risc-v embedded gcc12\riscv-none-elf\include\c++\12.2.0\ostream ****       {
 129:d:\software\mounriver_studio\toolchain\risc-v embedded gcc12\riscv-none-elf\include\c++\12.2.0\ostream **** 	// _GLIBCXX_RESOLVE_LIB_DEFECTS
 130:d:\software\mounriver_studio\toolchain\risc-v embedded gcc12\riscv-none-elf\include\c++\12.2.0\ostream **** 	// DR 60. What is a formatted input function?
 131:d:\software\mounriver_studio\toolchain\risc-v embedded gcc12\riscv-none-elf\include\c++\12.2.0\ostream **** 	// The inserters for manipulators are *not* formatted output functions.
 132:d:\software\mounriver_studio\toolchain\risc-v embedded gcc12\riscv-none-elf\include\c++\12.2.0\ostream **** 	__pf(*this);
 133:d:\software\mounriver_studio\toolchain\risc-v embedded gcc12\riscv-none-elf\include\c++\12.2.0\ostream **** 	return *this;
 134:d:\software\mounriver_studio\toolchain\risc-v embedded gcc12\riscv-none-elf\include\c++\12.2.0\ostream ****       }
 135:d:\software\mounriver_studio\toolchain\risc-v embedded gcc12\riscv-none-elf\include\c++\12.2.0\ostream ****       ///@}
 136:d:\software\mounriver_studio\toolchain\risc-v embedded gcc12\riscv-none-elf\include\c++\12.2.0\ostream **** 
 137:d:\software\mounriver_studio\toolchain\risc-v embedded gcc12\riscv-none-elf\include\c++\12.2.0\ostream ****       ///@{
 138:d:\software\mounriver_studio\toolchain\risc-v embedded gcc12\riscv-none-elf\include\c++\12.2.0\ostream ****       /**
 139:d:\software\mounriver_studio\toolchain\risc-v embedded gcc12\riscv-none-elf\include\c++\12.2.0\ostream ****        *  @name Inserters
 140:d:\software\mounriver_studio\toolchain\risc-v embedded gcc12\riscv-none-elf\include\c++\12.2.0\ostream ****        *
 141:d:\software\mounriver_studio\toolchain\risc-v embedded gcc12\riscv-none-elf\include\c++\12.2.0\ostream ****        *  All the @c operator<< functions (aka <em>formatted output
 142:d:\software\mounriver_studio\toolchain\risc-v embedded gcc12\riscv-none-elf\include\c++\12.2.0\ostream ****        *  functions</em>) have some common behavior.  Each starts by
 143:d:\software\mounriver_studio\toolchain\risc-v embedded gcc12\riscv-none-elf\include\c++\12.2.0\ostream ****        *  constructing a temporary object of type std::basic_ostream::sentry.
 144:d:\software\mounriver_studio\toolchain\risc-v embedded gcc12\riscv-none-elf\include\c++\12.2.0\ostream ****        *  This can have several effects, concluding with the setting of a
 145:d:\software\mounriver_studio\toolchain\risc-v embedded gcc12\riscv-none-elf\include\c++\12.2.0\ostream ****        *  status flag; see the sentry documentation for more.
 146:d:\software\mounriver_studio\toolchain\risc-v embedded gcc12\riscv-none-elf\include\c++\12.2.0\ostream ****        *
 147:d:\software\mounriver_studio\toolchain\risc-v embedded gcc12\riscv-none-elf\include\c++\12.2.0\ostream ****        *  If the sentry status is good, the function tries to generate
 148:d:\software\mounriver_studio\toolchain\risc-v embedded gcc12\riscv-none-elf\include\c++\12.2.0\ostream ****        *  whatever data is appropriate for the type of the argument.
 149:d:\software\mounriver_studio\toolchain\risc-v embedded gcc12\riscv-none-elf\include\c++\12.2.0\ostream ****        *
 150:d:\software\mounriver_studio\toolchain\risc-v embedded gcc12\riscv-none-elf\include\c++\12.2.0\ostream ****        *  If an exception is thrown during insertion, ios_base::badbit
 151:d:\software\mounriver_studio\toolchain\risc-v embedded gcc12\riscv-none-elf\include\c++\12.2.0\ostream ****        *  will be turned on in the stream's error state without causing an
 152:d:\software\mounriver_studio\toolchain\risc-v embedded gcc12\riscv-none-elf\include\c++\12.2.0\ostream ****        *  ios_base::failure to be thrown.  The original exception will then
 153:d:\software\mounriver_studio\toolchain\risc-v embedded gcc12\riscv-none-elf\include\c++\12.2.0\ostream ****        *  be rethrown.
 154:d:\software\mounriver_studio\toolchain\risc-v embedded gcc12\riscv-none-elf\include\c++\12.2.0\ostream ****       */
 155:d:\software\mounriver_studio\toolchain\risc-v embedded gcc12\riscv-none-elf\include\c++\12.2.0\ostream **** 
 156:d:\software\mounriver_studio\toolchain\risc-v embedded gcc12\riscv-none-elf\include\c++\12.2.0\ostream ****       ///@{
 157:d:\software\mounriver_studio\toolchain\risc-v embedded gcc12\riscv-none-elf\include\c++\12.2.0\ostream ****       /**
 158:d:\software\mounriver_studio\toolchain\risc-v embedded gcc12\riscv-none-elf\include\c++\12.2.0\ostream ****        *  @brief Integer arithmetic inserters
 159:d:\software\mounriver_studio\toolchain\risc-v embedded gcc12\riscv-none-elf\include\c++\12.2.0\ostream ****        *  @param  __n A variable of builtin integral type.
 160:d:\software\mounriver_studio\toolchain\risc-v embedded gcc12\riscv-none-elf\include\c++\12.2.0\ostream ****        *  @return  @c *this if successful
 161:d:\software\mounriver_studio\toolchain\risc-v embedded gcc12\riscv-none-elf\include\c++\12.2.0\ostream ****        *
 162:d:\software\mounriver_studio\toolchain\risc-v embedded gcc12\riscv-none-elf\include\c++\12.2.0\ostream ****        *  These functions use the stream's current locale (specifically, the
 163:d:\software\mounriver_studio\toolchain\risc-v embedded gcc12\riscv-none-elf\include\c++\12.2.0\ostream ****        *  @c num_get facet) to perform numeric formatting.
 164:d:\software\mounriver_studio\toolchain\risc-v embedded gcc12\riscv-none-elf\include\c++\12.2.0\ostream ****       */
 165:d:\software\mounriver_studio\toolchain\risc-v embedded gcc12\riscv-none-elf\include\c++\12.2.0\ostream ****       __ostream_type&
 166:d:\software\mounriver_studio\toolchain\risc-v embedded gcc12\riscv-none-elf\include\c++\12.2.0\ostream ****       operator<<(long __n)
 167:d:\software\mounriver_studio\toolchain\risc-v embedded gcc12\riscv-none-elf\include\c++\12.2.0\ostream ****       { return _M_insert(__n); }
 168:d:\software\mounriver_studio\toolchain\risc-v embedded gcc12\riscv-none-elf\include\c++\12.2.0\ostream **** 
 169:d:\software\mounriver_studio\toolchain\risc-v embedded gcc12\riscv-none-elf\include\c++\12.2.0\ostream ****       __ostream_type&
 170:d:\software\mounriver_studio\toolchain\risc-v embedded gcc12\riscv-none-elf\include\c++\12.2.0\ostream ****       operator<<(unsigned long __n)
 171:d:\software\mounriver_studio\toolchain\risc-v embedded gcc12\riscv-none-elf\include\c++\12.2.0\ostream ****       { return _M_insert(__n); }
 172:d:\software\mounriver_studio\toolchain\risc-v embedded gcc12\riscv-none-elf\include\c++\12.2.0\ostream **** 
 173:d:\software\mounriver_studio\toolchain\risc-v embedded gcc12\riscv-none-elf\include\c++\12.2.0\ostream ****       __ostream_type&
 174:d:\software\mounriver_studio\toolchain\risc-v embedded gcc12\riscv-none-elf\include\c++\12.2.0\ostream ****       operator<<(bool __n)
 175:d:\software\mounriver_studio\toolchain\risc-v embedded gcc12\riscv-none-elf\include\c++\12.2.0\ostream ****       { return _M_insert(__n); }
 176:d:\software\mounriver_studio\toolchain\risc-v embedded gcc12\riscv-none-elf\include\c++\12.2.0\ostream **** 
 177:d:\software\mounriver_studio\toolchain\risc-v embedded gcc12\riscv-none-elf\include\c++\12.2.0\ostream ****       __ostream_type&
 178:d:\software\mounriver_studio\toolchain\risc-v embedded gcc12\riscv-none-elf\include\c++\12.2.0\ostream ****       operator<<(short __n);
 179:d:\software\mounriver_studio\toolchain\risc-v embedded gcc12\riscv-none-elf\include\c++\12.2.0\ostream **** 
 180:d:\software\mounriver_studio\toolchain\risc-v embedded gcc12\riscv-none-elf\include\c++\12.2.0\ostream ****       __ostream_type&
 181:d:\software\mounriver_studio\toolchain\risc-v embedded gcc12\riscv-none-elf\include\c++\12.2.0\ostream ****       operator<<(unsigned short __n)
 182:d:\software\mounriver_studio\toolchain\risc-v embedded gcc12\riscv-none-elf\include\c++\12.2.0\ostream ****       {
 183:d:\software\mounriver_studio\toolchain\risc-v embedded gcc12\riscv-none-elf\include\c++\12.2.0\ostream **** 	// _GLIBCXX_RESOLVE_LIB_DEFECTS
 184:d:\software\mounriver_studio\toolchain\risc-v embedded gcc12\riscv-none-elf\include\c++\12.2.0\ostream **** 	// 117. basic_ostream uses nonexistent num_put member functions.
 185:d:\software\mounriver_studio\toolchain\risc-v embedded gcc12\riscv-none-elf\include\c++\12.2.0\ostream **** 	return _M_insert(static_cast<unsigned long>(__n));
 186:d:\software\mounriver_studio\toolchain\risc-v embedded gcc12\riscv-none-elf\include\c++\12.2.0\ostream ****       }
 187:d:\software\mounriver_studio\toolchain\risc-v embedded gcc12\riscv-none-elf\include\c++\12.2.0\ostream **** 
 188:d:\software\mounriver_studio\toolchain\risc-v embedded gcc12\riscv-none-elf\include\c++\12.2.0\ostream ****       __ostream_type&
 189:d:\software\mounriver_studio\toolchain\risc-v embedded gcc12\riscv-none-elf\include\c++\12.2.0\ostream ****       operator<<(int __n);
 190:d:\software\mounriver_studio\toolchain\risc-v embedded gcc12\riscv-none-elf\include\c++\12.2.0\ostream **** 
 191:d:\software\mounriver_studio\toolchain\risc-v embedded gcc12\riscv-none-elf\include\c++\12.2.0\ostream ****       __ostream_type&
 192:d:\software\mounriver_studio\toolchain\risc-v embedded gcc12\riscv-none-elf\include\c++\12.2.0\ostream ****       operator<<(unsigned int __n)
 193:d:\software\mounriver_studio\toolchain\risc-v embedded gcc12\riscv-none-elf\include\c++\12.2.0\ostream ****       {
 194:d:\software\mounriver_studio\toolchain\risc-v embedded gcc12\riscv-none-elf\include\c++\12.2.0\ostream **** 	// _GLIBCXX_RESOLVE_LIB_DEFECTS
 195:d:\software\mounriver_studio\toolchain\risc-v embedded gcc12\riscv-none-elf\include\c++\12.2.0\ostream **** 	// 117. basic_ostream uses nonexistent num_put member functions.
 196:d:\software\mounriver_studio\toolchain\risc-v embedded gcc12\riscv-none-elf\include\c++\12.2.0\ostream **** 	return _M_insert(static_cast<unsigned long>(__n));
 197:d:\software\mounriver_studio\toolchain\risc-v embedded gcc12\riscv-none-elf\include\c++\12.2.0\ostream ****       }
 198:d:\software\mounriver_studio\toolchain\risc-v embedded gcc12\riscv-none-elf\include\c++\12.2.0\ostream **** 
 199:d:\software\mounriver_studio\toolchain\risc-v embedded gcc12\riscv-none-elf\include\c++\12.2.0\ostream **** #ifdef _GLIBCXX_USE_LONG_LONG
 200:d:\software\mounriver_studio\toolchain\risc-v embedded gcc12\riscv-none-elf\include\c++\12.2.0\ostream ****       __ostream_type&
 201:d:\software\mounriver_studio\toolchain\risc-v embedded gcc12\riscv-none-elf\include\c++\12.2.0\ostream ****       operator<<(long long __n)
 202:d:\software\mounriver_studio\toolchain\risc-v embedded gcc12\riscv-none-elf\include\c++\12.2.0\ostream ****       { return _M_insert(__n); }
 203:d:\software\mounriver_studio\toolchain\risc-v embedded gcc12\riscv-none-elf\include\c++\12.2.0\ostream **** 
 204:d:\software\mounriver_studio\toolchain\risc-v embedded gcc12\riscv-none-elf\include\c++\12.2.0\ostream ****       __ostream_type&
 205:d:\software\mounriver_studio\toolchain\risc-v embedded gcc12\riscv-none-elf\include\c++\12.2.0\ostream ****       operator<<(unsigned long long __n)
 206:d:\software\mounriver_studio\toolchain\risc-v embedded gcc12\riscv-none-elf\include\c++\12.2.0\ostream ****       { return _M_insert(__n); }
 207:d:\software\mounriver_studio\toolchain\risc-v embedded gcc12\riscv-none-elf\include\c++\12.2.0\ostream **** #endif
 208:d:\software\mounriver_studio\toolchain\risc-v embedded gcc12\riscv-none-elf\include\c++\12.2.0\ostream ****       ///@}
 209:d:\software\mounriver_studio\toolchain\risc-v embedded gcc12\riscv-none-elf\include\c++\12.2.0\ostream **** 
 210:d:\software\mounriver_studio\toolchain\risc-v embedded gcc12\riscv-none-elf\include\c++\12.2.0\ostream ****       ///@{
 211:d:\software\mounriver_studio\toolchain\risc-v embedded gcc12\riscv-none-elf\include\c++\12.2.0\ostream ****       /**
 212:d:\software\mounriver_studio\toolchain\risc-v embedded gcc12\riscv-none-elf\include\c++\12.2.0\ostream ****        *  @brief  Floating point arithmetic inserters
 213:d:\software\mounriver_studio\toolchain\risc-v embedded gcc12\riscv-none-elf\include\c++\12.2.0\ostream ****        *  @param  __f A variable of builtin floating point type.
 214:d:\software\mounriver_studio\toolchain\risc-v embedded gcc12\riscv-none-elf\include\c++\12.2.0\ostream ****        *  @return  @c *this if successful
 215:d:\software\mounriver_studio\toolchain\risc-v embedded gcc12\riscv-none-elf\include\c++\12.2.0\ostream ****        *
 216:d:\software\mounriver_studio\toolchain\risc-v embedded gcc12\riscv-none-elf\include\c++\12.2.0\ostream ****        *  These functions use the stream's current locale (specifically, the
 217:d:\software\mounriver_studio\toolchain\risc-v embedded gcc12\riscv-none-elf\include\c++\12.2.0\ostream ****        *  @c num_get facet) to perform numeric formatting.
 218:d:\software\mounriver_studio\toolchain\risc-v embedded gcc12\riscv-none-elf\include\c++\12.2.0\ostream ****       */
 219:d:\software\mounriver_studio\toolchain\risc-v embedded gcc12\riscv-none-elf\include\c++\12.2.0\ostream ****       __ostream_type&
 220:d:\software\mounriver_studio\toolchain\risc-v embedded gcc12\riscv-none-elf\include\c++\12.2.0\ostream ****       operator<<(double __f)
 221:d:\software\mounriver_studio\toolchain\risc-v embedded gcc12\riscv-none-elf\include\c++\12.2.0\ostream ****       { return _M_insert(__f); }
 203              		.loc 4 221 25
 204 00ac 97070000 		lla	a5,.LC5
 204      93870700 
 205 00b4 8C43     		lw	a1,0(a5)
 206 00b6 D043     		lw	a2,4(a5)
 207 00b8 97000000 		call	_ZNSo9_M_insertIdEERSoT_
 207      E7800000 
 208              	.LVL14:
 209              	.LBE365:
 210              	.LBE364:
 211              	.LBB366:
 212              	.LBB367:
 113:d:\software\mounriver_studio\toolchain\risc-v embedded gcc12\riscv-none-elf\include\c++\12.2.0\ostream ****       }
 213              		.loc 4 113 13 discriminator 1
 214 00c0 97000000 		call	_ZSt4endlIcSt11char_traitsIcEERSt13basic_ostreamIT_T0_ES6_
 214      E7800000 
 215              	.LVL15:
 216              	.LBE367:
 217              	.LBE366:
  53:../User/main.cpp **** 	std::cin >> input;
 218              		.loc 1 53 2 is_stmt 1
 219              		.loc 1 53 14 is_stmt 0
 220 00c8 2C00     		addi	a1,sp,8
 221 00ca 17050000 		lla	a0,_ZSt3cin
 221      13050500 
 222 00d2 97000000 		call	_ZStrsIcSt11char_traitsIcESaIcEERSt13basic_istreamIT_T0_ES7_RNSt7__cxx1112basic_stringIS4_S5_
 222      E7800000 
 223              	.LVL16:
  54:../User/main.cpp **** 	std::cout << input << std::endl;
 224              		.loc 1 54 2 is_stmt 1
 225              		.loc 1 54 15 is_stmt 0
 226 00da 2C00     		addi	a1,sp,8
 227 00dc 17050000 		lla	a0,_ZSt4cout
 227      13050500 
 228 00e4 97000000 		call	_ZStlsIcSt11char_traitsIcESaIcEERSt13basic_ostreamIT_T0_ES7_RKNSt7__cxx1112basic_stringIS4_S5
 228      E7800000 
 229              	.LVL17:
 230              	.LBB368:
 231              	.LBB369:
 113:d:\software\mounriver_studio\toolchain\risc-v embedded gcc12\riscv-none-elf\include\c++\12.2.0\ostream ****       }
 232              		.loc 4 113 13
 233 00ec 97000000 		call	_ZSt4endlIcSt11char_traitsIcEERSt13basic_ostreamIT_T0_ES6_
 233      E7800000 
 234              	.LVL18:
 235              	.LEHE1:
 236              	.L2:
 237              	.LBE369:
 238              	.LBE368:
  55:../User/main.cpp **** 	while(1)
 239              		.loc 1 55 2 is_stmt 1 discriminator 1
 240              		.loc 1 55 2 discriminator 1
 241 00f4 01A0     		j	.L2
 242              	.L5:
 243              	.LBB370:
 244              	.LBB371:
 245              	.LBB372:
 246              	.LBB373:
 247              	.LBB374:
 248              	.LBB375:
 249              	.LBB376:
 230:d:\software\mounriver_studio\toolchain\risc-v embedded gcc12\riscv-none-elf\include\c++\12.2.0\bits\basic_string.h **** 
 231:d:\software\mounriver_studio\toolchain\risc-v embedded gcc12\riscv-none-elf\include\c++\12.2.0\bits\basic_string.h ****       _GLIBCXX20_CONSTEXPR
 232:d:\software\mounriver_studio\toolchain\risc-v embedded gcc12\riscv-none-elf\include\c++\12.2.0\bits\basic_string.h ****       pointer
 233:d:\software\mounriver_studio\toolchain\risc-v embedded gcc12\riscv-none-elf\include\c++\12.2.0\bits\basic_string.h ****       _M_data() const
 234:d:\software\mounriver_studio\toolchain\risc-v embedded gcc12\riscv-none-elf\include\c++\12.2.0\bits\basic_string.h ****       { return _M_dataplus._M_p; }
 250              		.loc 2 234 28 is_stmt 0
 251 00f6 2A84     		mv	s0,a0
 252              	.LVL19:
 253 00f8 2245     		lw	a0,8(sp)
 254              	.LVL20:
 255              	.LBE376:
 256              	.LBE375:
 257              	.LBE374:
 235:d:\software\mounriver_studio\toolchain\risc-v embedded gcc12\riscv-none-elf\include\c++\12.2.0\bits\basic_string.h **** 
 236:d:\software\mounriver_studio\toolchain\risc-v embedded gcc12\riscv-none-elf\include\c++\12.2.0\bits\basic_string.h ****       _GLIBCXX20_CONSTEXPR
 237:d:\software\mounriver_studio\toolchain\risc-v embedded gcc12\riscv-none-elf\include\c++\12.2.0\bits\basic_string.h ****       pointer
 238:d:\software\mounriver_studio\toolchain\risc-v embedded gcc12\riscv-none-elf\include\c++\12.2.0\bits\basic_string.h ****       _M_local_data()
 239:d:\software\mounriver_studio\toolchain\risc-v embedded gcc12\riscv-none-elf\include\c++\12.2.0\bits\basic_string.h ****       {
 240:d:\software\mounriver_studio\toolchain\risc-v embedded gcc12\riscv-none-elf\include\c++\12.2.0\bits\basic_string.h **** #if __cplusplus >= 201103L
 241:d:\software\mounriver_studio\toolchain\risc-v embedded gcc12\riscv-none-elf\include\c++\12.2.0\bits\basic_string.h **** 	return std::pointer_traits<pointer>::pointer_to(*_M_local_buf);
 242:d:\software\mounriver_studio\toolchain\risc-v embedded gcc12\riscv-none-elf\include\c++\12.2.0\bits\basic_string.h **** #else
 243:d:\software\mounriver_studio\toolchain\risc-v embedded gcc12\riscv-none-elf\include\c++\12.2.0\bits\basic_string.h **** 	return pointer(_M_local_buf);
 244:d:\software\mounriver_studio\toolchain\risc-v embedded gcc12\riscv-none-elf\include\c++\12.2.0\bits\basic_string.h **** #endif
 245:d:\software\mounriver_studio\toolchain\risc-v embedded gcc12\riscv-none-elf\include\c++\12.2.0\bits\basic_string.h ****       }
 246:d:\software\mounriver_studio\toolchain\risc-v embedded gcc12\riscv-none-elf\include\c++\12.2.0\bits\basic_string.h **** 
 247:d:\software\mounriver_studio\toolchain\risc-v embedded gcc12\riscv-none-elf\include\c++\12.2.0\bits\basic_string.h ****       _GLIBCXX20_CONSTEXPR
 248:d:\software\mounriver_studio\toolchain\risc-v embedded gcc12\riscv-none-elf\include\c++\12.2.0\bits\basic_string.h ****       const_pointer
 249:d:\software\mounriver_studio\toolchain\risc-v embedded gcc12\riscv-none-elf\include\c++\12.2.0\bits\basic_string.h ****       _M_local_data() const
 250:d:\software\mounriver_studio\toolchain\risc-v embedded gcc12\riscv-none-elf\include\c++\12.2.0\bits\basic_string.h ****       {
 251:d:\software\mounriver_studio\toolchain\risc-v embedded gcc12\riscv-none-elf\include\c++\12.2.0\bits\basic_string.h **** #if __cplusplus >= 201103L
 252:d:\software\mounriver_studio\toolchain\risc-v embedded gcc12\riscv-none-elf\include\c++\12.2.0\bits\basic_string.h **** 	return std::pointer_traits<const_pointer>::pointer_to(*_M_local_buf);
 253:d:\software\mounriver_studio\toolchain\risc-v embedded gcc12\riscv-none-elf\include\c++\12.2.0\bits\basic_string.h **** #else
 254:d:\software\mounriver_studio\toolchain\risc-v embedded gcc12\riscv-none-elf\include\c++\12.2.0\bits\basic_string.h **** 	return const_pointer(_M_local_buf);
 255:d:\software\mounriver_studio\toolchain\risc-v embedded gcc12\riscv-none-elf\include\c++\12.2.0\bits\basic_string.h **** #endif
 256:d:\software\mounriver_studio\toolchain\risc-v embedded gcc12\riscv-none-elf\include\c++\12.2.0\bits\basic_string.h ****       }
 257:d:\software\mounriver_studio\toolchain\risc-v embedded gcc12\riscv-none-elf\include\c++\12.2.0\bits\basic_string.h **** 
 258:d:\software\mounriver_studio\toolchain\risc-v embedded gcc12\riscv-none-elf\include\c++\12.2.0\bits\basic_string.h ****       _GLIBCXX20_CONSTEXPR
 259:d:\software\mounriver_studio\toolchain\risc-v embedded gcc12\riscv-none-elf\include\c++\12.2.0\bits\basic_string.h ****       void
 260:d:\software\mounriver_studio\toolchain\risc-v embedded gcc12\riscv-none-elf\include\c++\12.2.0\bits\basic_string.h ****       _M_capacity(size_type __capacity)
 261:d:\software\mounriver_studio\toolchain\risc-v embedded gcc12\riscv-none-elf\include\c++\12.2.0\bits\basic_string.h ****       { _M_allocated_capacity = __capacity; }
 262:d:\software\mounriver_studio\toolchain\risc-v embedded gcc12\riscv-none-elf\include\c++\12.2.0\bits\basic_string.h **** 
 263:d:\software\mounriver_studio\toolchain\risc-v embedded gcc12\riscv-none-elf\include\c++\12.2.0\bits\basic_string.h ****       _GLIBCXX20_CONSTEXPR
 264:d:\software\mounriver_studio\toolchain\risc-v embedded gcc12\riscv-none-elf\include\c++\12.2.0\bits\basic_string.h ****       void
 265:d:\software\mounriver_studio\toolchain\risc-v embedded gcc12\riscv-none-elf\include\c++\12.2.0\bits\basic_string.h ****       _M_set_length(size_type __n)
 266:d:\software\mounriver_studio\toolchain\risc-v embedded gcc12\riscv-none-elf\include\c++\12.2.0\bits\basic_string.h ****       {
 267:d:\software\mounriver_studio\toolchain\risc-v embedded gcc12\riscv-none-elf\include\c++\12.2.0\bits\basic_string.h **** 	_M_length(__n);
 268:d:\software\mounriver_studio\toolchain\risc-v embedded gcc12\riscv-none-elf\include\c++\12.2.0\bits\basic_string.h **** 	traits_type::assign(_M_data()[__n], _CharT());
 269:d:\software\mounriver_studio\toolchain\risc-v embedded gcc12\riscv-none-elf\include\c++\12.2.0\bits\basic_string.h ****       }
 270:d:\software\mounriver_studio\toolchain\risc-v embedded gcc12\riscv-none-elf\include\c++\12.2.0\bits\basic_string.h **** 
 271:d:\software\mounriver_studio\toolchain\risc-v embedded gcc12\riscv-none-elf\include\c++\12.2.0\bits\basic_string.h ****       _GLIBCXX20_CONSTEXPR
 272:d:\software\mounriver_studio\toolchain\risc-v embedded gcc12\riscv-none-elf\include\c++\12.2.0\bits\basic_string.h ****       bool
 273:d:\software\mounriver_studio\toolchain\risc-v embedded gcc12\riscv-none-elf\include\c++\12.2.0\bits\basic_string.h ****       _M_is_local() const
 274:d:\software\mounriver_studio\toolchain\risc-v embedded gcc12\riscv-none-elf\include\c++\12.2.0\bits\basic_string.h ****       { return _M_data() == _M_local_data(); }
 275:d:\software\mounriver_studio\toolchain\risc-v embedded gcc12\riscv-none-elf\include\c++\12.2.0\bits\basic_string.h **** 
 276:d:\software\mounriver_studio\toolchain\risc-v embedded gcc12\riscv-none-elf\include\c++\12.2.0\bits\basic_string.h ****       // Create & Destroy
 277:d:\software\mounriver_studio\toolchain\risc-v embedded gcc12\riscv-none-elf\include\c++\12.2.0\bits\basic_string.h ****       _GLIBCXX20_CONSTEXPR
 278:d:\software\mounriver_studio\toolchain\risc-v embedded gcc12\riscv-none-elf\include\c++\12.2.0\bits\basic_string.h ****       pointer
 279:d:\software\mounriver_studio\toolchain\risc-v embedded gcc12\riscv-none-elf\include\c++\12.2.0\bits\basic_string.h ****       _M_create(size_type&, size_type);
 280:d:\software\mounriver_studio\toolchain\risc-v embedded gcc12\riscv-none-elf\include\c++\12.2.0\bits\basic_string.h **** 
 281:d:\software\mounriver_studio\toolchain\risc-v embedded gcc12\riscv-none-elf\include\c++\12.2.0\bits\basic_string.h ****       _GLIBCXX20_CONSTEXPR
 282:d:\software\mounriver_studio\toolchain\risc-v embedded gcc12\riscv-none-elf\include\c++\12.2.0\bits\basic_string.h ****       void
 283:d:\software\mounriver_studio\toolchain\risc-v embedded gcc12\riscv-none-elf\include\c++\12.2.0\bits\basic_string.h ****       _M_dispose()
 284:d:\software\mounriver_studio\toolchain\risc-v embedded gcc12\riscv-none-elf\include\c++\12.2.0\bits\basic_string.h ****       {
 285:d:\software\mounriver_studio\toolchain\risc-v embedded gcc12\riscv-none-elf\include\c++\12.2.0\bits\basic_string.h **** 	if (!_M_is_local())
 258              		.loc 2 285 2
 259 00fa 63089500 		beq	a0,s1,.L4
 260              	.LVL21:
 261              	.LBB377:
 262              	.LBB378:
 263              	.LBB379:
 264              	.LBB380:
 265              	.LBB381:
 266              	.LBB382:
 267              	.LBB383:
 268              	.LBB384:
 269              		.file 5 "d:\\software\\mounriver_studio\\toolchain\\risc-v embedded gcc12\\riscv-none-elf\\include
   1:d:\software\mounriver_studio\toolchain\risc-v embedded gcc12\riscv-none-elf\include\c++\12.2.0\bits\new_allocator.h **** // Allocator that wraps operator new -*- C++ -*-
   2:d:\software\mounriver_studio\toolchain\risc-v embedded gcc12\riscv-none-elf\include\c++\12.2.0\bits\new_allocator.h **** 
   3:d:\software\mounriver_studio\toolchain\risc-v embedded gcc12\riscv-none-elf\include\c++\12.2.0\bits\new_allocator.h **** // Copyright (C) 2001-2022 Free Software Foundation, Inc.
   4:d:\software\mounriver_studio\toolchain\risc-v embedded gcc12\riscv-none-elf\include\c++\12.2.0\bits\new_allocator.h **** //
   5:d:\software\mounriver_studio\toolchain\risc-v embedded gcc12\riscv-none-elf\include\c++\12.2.0\bits\new_allocator.h **** // This file is part of the GNU ISO C++ Library.  This library is free
   6:d:\software\mounriver_studio\toolchain\risc-v embedded gcc12\riscv-none-elf\include\c++\12.2.0\bits\new_allocator.h **** // software; you can redistribute it and/or modify it under the
   7:d:\software\mounriver_studio\toolchain\risc-v embedded gcc12\riscv-none-elf\include\c++\12.2.0\bits\new_allocator.h **** // terms of the GNU General Public License as published by the
   8:d:\software\mounriver_studio\toolchain\risc-v embedded gcc12\riscv-none-elf\include\c++\12.2.0\bits\new_allocator.h **** // Free Software Foundation; either version 3, or (at your option)
   9:d:\software\mounriver_studio\toolchain\risc-v embedded gcc12\riscv-none-elf\include\c++\12.2.0\bits\new_allocator.h **** // any later version.
  10:d:\software\mounriver_studio\toolchain\risc-v embedded gcc12\riscv-none-elf\include\c++\12.2.0\bits\new_allocator.h **** 
  11:d:\software\mounriver_studio\toolchain\risc-v embedded gcc12\riscv-none-elf\include\c++\12.2.0\bits\new_allocator.h **** // This library is distributed in the hope that it will be useful,
  12:d:\software\mounriver_studio\toolchain\risc-v embedded gcc12\riscv-none-elf\include\c++\12.2.0\bits\new_allocator.h **** // but WITHOUT ANY WARRANTY; without even the implied warranty of
  13:d:\software\mounriver_studio\toolchain\risc-v embedded gcc12\riscv-none-elf\include\c++\12.2.0\bits\new_allocator.h **** // MERCHANTABILITY or FITNESS FOR A PARTICULAR PURPOSE.  See the
  14:d:\software\mounriver_studio\toolchain\risc-v embedded gcc12\riscv-none-elf\include\c++\12.2.0\bits\new_allocator.h **** // GNU General Public License for more details.
  15:d:\software\mounriver_studio\toolchain\risc-v embedded gcc12\riscv-none-elf\include\c++\12.2.0\bits\new_allocator.h **** 
  16:d:\software\mounriver_studio\toolchain\risc-v embedded gcc12\riscv-none-elf\include\c++\12.2.0\bits\new_allocator.h **** // Under Section 7 of GPL version 3, you are granted additional
  17:d:\software\mounriver_studio\toolchain\risc-v embedded gcc12\riscv-none-elf\include\c++\12.2.0\bits\new_allocator.h **** // permissions described in the GCC Runtime Library Exception, version
  18:d:\software\mounriver_studio\toolchain\risc-v embedded gcc12\riscv-none-elf\include\c++\12.2.0\bits\new_allocator.h **** // 3.1, as published by the Free Software Foundation.
  19:d:\software\mounriver_studio\toolchain\risc-v embedded gcc12\riscv-none-elf\include\c++\12.2.0\bits\new_allocator.h **** 
  20:d:\software\mounriver_studio\toolchain\risc-v embedded gcc12\riscv-none-elf\include\c++\12.2.0\bits\new_allocator.h **** // You should have received a copy of the GNU General Public License and
  21:d:\software\mounriver_studio\toolchain\risc-v embedded gcc12\riscv-none-elf\include\c++\12.2.0\bits\new_allocator.h **** // a copy of the GCC Runtime Library Exception along with this program;
  22:d:\software\mounriver_studio\toolchain\risc-v embedded gcc12\riscv-none-elf\include\c++\12.2.0\bits\new_allocator.h **** // see the files COPYING3 and COPYING.RUNTIME respectively.  If not, see
  23:d:\software\mounriver_studio\toolchain\risc-v embedded gcc12\riscv-none-elf\include\c++\12.2.0\bits\new_allocator.h **** // <http://www.gnu.org/licenses/>.
  24:d:\software\mounriver_studio\toolchain\risc-v embedded gcc12\riscv-none-elf\include\c++\12.2.0\bits\new_allocator.h **** 
  25:d:\software\mounriver_studio\toolchain\risc-v embedded gcc12\riscv-none-elf\include\c++\12.2.0\bits\new_allocator.h **** /** @file bits/new_allocator.h
  26:d:\software\mounriver_studio\toolchain\risc-v embedded gcc12\riscv-none-elf\include\c++\12.2.0\bits\new_allocator.h ****  *  This is an internal header file, included by other library headers.
  27:d:\software\mounriver_studio\toolchain\risc-v embedded gcc12\riscv-none-elf\include\c++\12.2.0\bits\new_allocator.h ****  *  Do not attempt to use it directly. @headername{memory}
  28:d:\software\mounriver_studio\toolchain\risc-v embedded gcc12\riscv-none-elf\include\c++\12.2.0\bits\new_allocator.h ****  */
  29:d:\software\mounriver_studio\toolchain\risc-v embedded gcc12\riscv-none-elf\include\c++\12.2.0\bits\new_allocator.h **** 
  30:d:\software\mounriver_studio\toolchain\risc-v embedded gcc12\riscv-none-elf\include\c++\12.2.0\bits\new_allocator.h **** #ifndef _STD_NEW_ALLOCATOR_H
  31:d:\software\mounriver_studio\toolchain\risc-v embedded gcc12\riscv-none-elf\include\c++\12.2.0\bits\new_allocator.h **** #define _STD_NEW_ALLOCATOR_H 1
  32:d:\software\mounriver_studio\toolchain\risc-v embedded gcc12\riscv-none-elf\include\c++\12.2.0\bits\new_allocator.h **** 
  33:d:\software\mounriver_studio\toolchain\risc-v embedded gcc12\riscv-none-elf\include\c++\12.2.0\bits\new_allocator.h **** #include <bits/c++config.h>
  34:d:\software\mounriver_studio\toolchain\risc-v embedded gcc12\riscv-none-elf\include\c++\12.2.0\bits\new_allocator.h **** #include <new>
  35:d:\software\mounriver_studio\toolchain\risc-v embedded gcc12\riscv-none-elf\include\c++\12.2.0\bits\new_allocator.h **** #include <bits/functexcept.h>
  36:d:\software\mounriver_studio\toolchain\risc-v embedded gcc12\riscv-none-elf\include\c++\12.2.0\bits\new_allocator.h **** #include <bits/move.h>
  37:d:\software\mounriver_studio\toolchain\risc-v embedded gcc12\riscv-none-elf\include\c++\12.2.0\bits\new_allocator.h **** #if __cplusplus >= 201103L
  38:d:\software\mounriver_studio\toolchain\risc-v embedded gcc12\riscv-none-elf\include\c++\12.2.0\bits\new_allocator.h **** #include <type_traits>
  39:d:\software\mounriver_studio\toolchain\risc-v embedded gcc12\riscv-none-elf\include\c++\12.2.0\bits\new_allocator.h **** #endif
  40:d:\software\mounriver_studio\toolchain\risc-v embedded gcc12\riscv-none-elf\include\c++\12.2.0\bits\new_allocator.h **** 
  41:d:\software\mounriver_studio\toolchain\risc-v embedded gcc12\riscv-none-elf\include\c++\12.2.0\bits\new_allocator.h **** namespace std _GLIBCXX_VISIBILITY(default)
  42:d:\software\mounriver_studio\toolchain\risc-v embedded gcc12\riscv-none-elf\include\c++\12.2.0\bits\new_allocator.h **** {
  43:d:\software\mounriver_studio\toolchain\risc-v embedded gcc12\riscv-none-elf\include\c++\12.2.0\bits\new_allocator.h **** _GLIBCXX_BEGIN_NAMESPACE_VERSION
  44:d:\software\mounriver_studio\toolchain\risc-v embedded gcc12\riscv-none-elf\include\c++\12.2.0\bits\new_allocator.h **** 
  45:d:\software\mounriver_studio\toolchain\risc-v embedded gcc12\riscv-none-elf\include\c++\12.2.0\bits\new_allocator.h ****   /**
  46:d:\software\mounriver_studio\toolchain\risc-v embedded gcc12\riscv-none-elf\include\c++\12.2.0\bits\new_allocator.h ****    *  @brief  An allocator that uses global new, as per C++03 [20.4.1].
  47:d:\software\mounriver_studio\toolchain\risc-v embedded gcc12\riscv-none-elf\include\c++\12.2.0\bits\new_allocator.h ****    *  @ingroup allocators
  48:d:\software\mounriver_studio\toolchain\risc-v embedded gcc12\riscv-none-elf\include\c++\12.2.0\bits\new_allocator.h ****    *
  49:d:\software\mounriver_studio\toolchain\risc-v embedded gcc12\riscv-none-elf\include\c++\12.2.0\bits\new_allocator.h ****    *  This is precisely the allocator defined in the C++ Standard.
  50:d:\software\mounriver_studio\toolchain\risc-v embedded gcc12\riscv-none-elf\include\c++\12.2.0\bits\new_allocator.h ****    *    - all allocation calls operator new
  51:d:\software\mounriver_studio\toolchain\risc-v embedded gcc12\riscv-none-elf\include\c++\12.2.0\bits\new_allocator.h ****    *    - all deallocation calls operator delete
  52:d:\software\mounriver_studio\toolchain\risc-v embedded gcc12\riscv-none-elf\include\c++\12.2.0\bits\new_allocator.h ****    *
  53:d:\software\mounriver_studio\toolchain\risc-v embedded gcc12\riscv-none-elf\include\c++\12.2.0\bits\new_allocator.h ****    *  @tparam  _Tp  Type of allocated object.
  54:d:\software\mounriver_studio\toolchain\risc-v embedded gcc12\riscv-none-elf\include\c++\12.2.0\bits\new_allocator.h ****    */
  55:d:\software\mounriver_studio\toolchain\risc-v embedded gcc12\riscv-none-elf\include\c++\12.2.0\bits\new_allocator.h ****   template<typename _Tp>
  56:d:\software\mounriver_studio\toolchain\risc-v embedded gcc12\riscv-none-elf\include\c++\12.2.0\bits\new_allocator.h ****     class __new_allocator
  57:d:\software\mounriver_studio\toolchain\risc-v embedded gcc12\riscv-none-elf\include\c++\12.2.0\bits\new_allocator.h ****     {
  58:d:\software\mounriver_studio\toolchain\risc-v embedded gcc12\riscv-none-elf\include\c++\12.2.0\bits\new_allocator.h ****     public:
  59:d:\software\mounriver_studio\toolchain\risc-v embedded gcc12\riscv-none-elf\include\c++\12.2.0\bits\new_allocator.h ****       typedef _Tp        value_type;
  60:d:\software\mounriver_studio\toolchain\risc-v embedded gcc12\riscv-none-elf\include\c++\12.2.0\bits\new_allocator.h ****       typedef std::size_t     size_type;
  61:d:\software\mounriver_studio\toolchain\risc-v embedded gcc12\riscv-none-elf\include\c++\12.2.0\bits\new_allocator.h ****       typedef std::ptrdiff_t  difference_type;
  62:d:\software\mounriver_studio\toolchain\risc-v embedded gcc12\riscv-none-elf\include\c++\12.2.0\bits\new_allocator.h **** #if __cplusplus <= 201703L
  63:d:\software\mounriver_studio\toolchain\risc-v embedded gcc12\riscv-none-elf\include\c++\12.2.0\bits\new_allocator.h ****       typedef _Tp*       pointer;
  64:d:\software\mounriver_studio\toolchain\risc-v embedded gcc12\riscv-none-elf\include\c++\12.2.0\bits\new_allocator.h ****       typedef const _Tp* const_pointer;
  65:d:\software\mounriver_studio\toolchain\risc-v embedded gcc12\riscv-none-elf\include\c++\12.2.0\bits\new_allocator.h ****       typedef _Tp&       reference;
  66:d:\software\mounriver_studio\toolchain\risc-v embedded gcc12\riscv-none-elf\include\c++\12.2.0\bits\new_allocator.h ****       typedef const _Tp& const_reference;
  67:d:\software\mounriver_studio\toolchain\risc-v embedded gcc12\riscv-none-elf\include\c++\12.2.0\bits\new_allocator.h **** 
  68:d:\software\mounriver_studio\toolchain\risc-v embedded gcc12\riscv-none-elf\include\c++\12.2.0\bits\new_allocator.h ****       template<typename _Tp1>
  69:d:\software\mounriver_studio\toolchain\risc-v embedded gcc12\riscv-none-elf\include\c++\12.2.0\bits\new_allocator.h **** 	struct rebind
  70:d:\software\mounriver_studio\toolchain\risc-v embedded gcc12\riscv-none-elf\include\c++\12.2.0\bits\new_allocator.h **** 	{ typedef __new_allocator<_Tp1> other; };
  71:d:\software\mounriver_studio\toolchain\risc-v embedded gcc12\riscv-none-elf\include\c++\12.2.0\bits\new_allocator.h **** #endif
  72:d:\software\mounriver_studio\toolchain\risc-v embedded gcc12\riscv-none-elf\include\c++\12.2.0\bits\new_allocator.h **** 
  73:d:\software\mounriver_studio\toolchain\risc-v embedded gcc12\riscv-none-elf\include\c++\12.2.0\bits\new_allocator.h **** #if __cplusplus >= 201103L
  74:d:\software\mounriver_studio\toolchain\risc-v embedded gcc12\riscv-none-elf\include\c++\12.2.0\bits\new_allocator.h ****       // _GLIBCXX_RESOLVE_LIB_DEFECTS
  75:d:\software\mounriver_studio\toolchain\risc-v embedded gcc12\riscv-none-elf\include\c++\12.2.0\bits\new_allocator.h ****       // 2103. propagate_on_container_move_assignment
  76:d:\software\mounriver_studio\toolchain\risc-v embedded gcc12\riscv-none-elf\include\c++\12.2.0\bits\new_allocator.h ****       typedef std::true_type propagate_on_container_move_assignment;
  77:d:\software\mounriver_studio\toolchain\risc-v embedded gcc12\riscv-none-elf\include\c++\12.2.0\bits\new_allocator.h **** #endif
  78:d:\software\mounriver_studio\toolchain\risc-v embedded gcc12\riscv-none-elf\include\c++\12.2.0\bits\new_allocator.h **** 
  79:d:\software\mounriver_studio\toolchain\risc-v embedded gcc12\riscv-none-elf\include\c++\12.2.0\bits\new_allocator.h ****       _GLIBCXX20_CONSTEXPR
  80:d:\software\mounriver_studio\toolchain\risc-v embedded gcc12\riscv-none-elf\include\c++\12.2.0\bits\new_allocator.h ****       __new_allocator() _GLIBCXX_USE_NOEXCEPT { }
  81:d:\software\mounriver_studio\toolchain\risc-v embedded gcc12\riscv-none-elf\include\c++\12.2.0\bits\new_allocator.h **** 
  82:d:\software\mounriver_studio\toolchain\risc-v embedded gcc12\riscv-none-elf\include\c++\12.2.0\bits\new_allocator.h ****       _GLIBCXX20_CONSTEXPR
  83:d:\software\mounriver_studio\toolchain\risc-v embedded gcc12\riscv-none-elf\include\c++\12.2.0\bits\new_allocator.h ****       __new_allocator(const __new_allocator&) _GLIBCXX_USE_NOEXCEPT { }
  84:d:\software\mounriver_studio\toolchain\risc-v embedded gcc12\riscv-none-elf\include\c++\12.2.0\bits\new_allocator.h **** 
  85:d:\software\mounriver_studio\toolchain\risc-v embedded gcc12\riscv-none-elf\include\c++\12.2.0\bits\new_allocator.h ****       template<typename _Tp1>
  86:d:\software\mounriver_studio\toolchain\risc-v embedded gcc12\riscv-none-elf\include\c++\12.2.0\bits\new_allocator.h **** 	_GLIBCXX20_CONSTEXPR
  87:d:\software\mounriver_studio\toolchain\risc-v embedded gcc12\riscv-none-elf\include\c++\12.2.0\bits\new_allocator.h **** 	__new_allocator(const __new_allocator<_Tp1>&) _GLIBCXX_USE_NOEXCEPT { }
  88:d:\software\mounriver_studio\toolchain\risc-v embedded gcc12\riscv-none-elf\include\c++\12.2.0\bits\new_allocator.h **** 
  89:d:\software\mounriver_studio\toolchain\risc-v embedded gcc12\riscv-none-elf\include\c++\12.2.0\bits\new_allocator.h **** #if __cplusplus <= 201703L
  90:d:\software\mounriver_studio\toolchain\risc-v embedded gcc12\riscv-none-elf\include\c++\12.2.0\bits\new_allocator.h ****       ~__new_allocator() _GLIBCXX_USE_NOEXCEPT { }
  91:d:\software\mounriver_studio\toolchain\risc-v embedded gcc12\riscv-none-elf\include\c++\12.2.0\bits\new_allocator.h **** 
  92:d:\software\mounriver_studio\toolchain\risc-v embedded gcc12\riscv-none-elf\include\c++\12.2.0\bits\new_allocator.h ****       pointer
  93:d:\software\mounriver_studio\toolchain\risc-v embedded gcc12\riscv-none-elf\include\c++\12.2.0\bits\new_allocator.h ****       address(reference __x) const _GLIBCXX_NOEXCEPT
  94:d:\software\mounriver_studio\toolchain\risc-v embedded gcc12\riscv-none-elf\include\c++\12.2.0\bits\new_allocator.h ****       { return std::__addressof(__x); }
  95:d:\software\mounriver_studio\toolchain\risc-v embedded gcc12\riscv-none-elf\include\c++\12.2.0\bits\new_allocator.h **** 
  96:d:\software\mounriver_studio\toolchain\risc-v embedded gcc12\riscv-none-elf\include\c++\12.2.0\bits\new_allocator.h ****       const_pointer
  97:d:\software\mounriver_studio\toolchain\risc-v embedded gcc12\riscv-none-elf\include\c++\12.2.0\bits\new_allocator.h ****       address(const_reference __x) const _GLIBCXX_NOEXCEPT
  98:d:\software\mounriver_studio\toolchain\risc-v embedded gcc12\riscv-none-elf\include\c++\12.2.0\bits\new_allocator.h ****       { return std::__addressof(__x); }
  99:d:\software\mounriver_studio\toolchain\risc-v embedded gcc12\riscv-none-elf\include\c++\12.2.0\bits\new_allocator.h **** #endif
 100:d:\software\mounriver_studio\toolchain\risc-v embedded gcc12\riscv-none-elf\include\c++\12.2.0\bits\new_allocator.h **** 
 101:d:\software\mounriver_studio\toolchain\risc-v embedded gcc12\riscv-none-elf\include\c++\12.2.0\bits\new_allocator.h **** #if __has_builtin(__builtin_operator_new) >= 201802L
 102:d:\software\mounriver_studio\toolchain\risc-v embedded gcc12\riscv-none-elf\include\c++\12.2.0\bits\new_allocator.h **** # define _GLIBCXX_OPERATOR_NEW __builtin_operator_new
 103:d:\software\mounriver_studio\toolchain\risc-v embedded gcc12\riscv-none-elf\include\c++\12.2.0\bits\new_allocator.h **** # define _GLIBCXX_OPERATOR_DELETE __builtin_operator_delete
 104:d:\software\mounriver_studio\toolchain\risc-v embedded gcc12\riscv-none-elf\include\c++\12.2.0\bits\new_allocator.h **** #else
 105:d:\software\mounriver_studio\toolchain\risc-v embedded gcc12\riscv-none-elf\include\c++\12.2.0\bits\new_allocator.h **** # define _GLIBCXX_OPERATOR_NEW ::operator new
 106:d:\software\mounriver_studio\toolchain\risc-v embedded gcc12\riscv-none-elf\include\c++\12.2.0\bits\new_allocator.h **** # define _GLIBCXX_OPERATOR_DELETE ::operator delete
 107:d:\software\mounriver_studio\toolchain\risc-v embedded gcc12\riscv-none-elf\include\c++\12.2.0\bits\new_allocator.h **** #endif
 108:d:\software\mounriver_studio\toolchain\risc-v embedded gcc12\riscv-none-elf\include\c++\12.2.0\bits\new_allocator.h **** 
 109:d:\software\mounriver_studio\toolchain\risc-v embedded gcc12\riscv-none-elf\include\c++\12.2.0\bits\new_allocator.h ****       // NB: __n is permitted to be 0.  The C++ standard says nothing
 110:d:\software\mounriver_studio\toolchain\risc-v embedded gcc12\riscv-none-elf\include\c++\12.2.0\bits\new_allocator.h ****       // about what the return value is when __n == 0.
 111:d:\software\mounriver_studio\toolchain\risc-v embedded gcc12\riscv-none-elf\include\c++\12.2.0\bits\new_allocator.h ****       _GLIBCXX_NODISCARD _Tp*
 112:d:\software\mounriver_studio\toolchain\risc-v embedded gcc12\riscv-none-elf\include\c++\12.2.0\bits\new_allocator.h ****       allocate(size_type __n, const void* = static_cast<const void*>(0))
 113:d:\software\mounriver_studio\toolchain\risc-v embedded gcc12\riscv-none-elf\include\c++\12.2.0\bits\new_allocator.h ****       {
 114:d:\software\mounriver_studio\toolchain\risc-v embedded gcc12\riscv-none-elf\include\c++\12.2.0\bits\new_allocator.h **** #if __cplusplus >= 201103L
 115:d:\software\mounriver_studio\toolchain\risc-v embedded gcc12\riscv-none-elf\include\c++\12.2.0\bits\new_allocator.h **** 	// _GLIBCXX_RESOLVE_LIB_DEFECTS
 116:d:\software\mounriver_studio\toolchain\risc-v embedded gcc12\riscv-none-elf\include\c++\12.2.0\bits\new_allocator.h **** 	// 3308. std::allocator<void>().allocate(n)
 117:d:\software\mounriver_studio\toolchain\risc-v embedded gcc12\riscv-none-elf\include\c++\12.2.0\bits\new_allocator.h **** 	static_assert(sizeof(_Tp) != 0, "cannot allocate incomplete types");
 118:d:\software\mounriver_studio\toolchain\risc-v embedded gcc12\riscv-none-elf\include\c++\12.2.0\bits\new_allocator.h **** #endif
 119:d:\software\mounriver_studio\toolchain\risc-v embedded gcc12\riscv-none-elf\include\c++\12.2.0\bits\new_allocator.h **** 
 120:d:\software\mounriver_studio\toolchain\risc-v embedded gcc12\riscv-none-elf\include\c++\12.2.0\bits\new_allocator.h **** 	if (__builtin_expect(__n > this->_M_max_size(), false))
 121:d:\software\mounriver_studio\toolchain\risc-v embedded gcc12\riscv-none-elf\include\c++\12.2.0\bits\new_allocator.h **** 	  {
 122:d:\software\mounriver_studio\toolchain\risc-v embedded gcc12\riscv-none-elf\include\c++\12.2.0\bits\new_allocator.h **** 	    // _GLIBCXX_RESOLVE_LIB_DEFECTS
 123:d:\software\mounriver_studio\toolchain\risc-v embedded gcc12\riscv-none-elf\include\c++\12.2.0\bits\new_allocator.h **** 	    // 3190. allocator::allocate sometimes returns too little storage
 124:d:\software\mounriver_studio\toolchain\risc-v embedded gcc12\riscv-none-elf\include\c++\12.2.0\bits\new_allocator.h **** 	    if (__n > (std::size_t(-1) / sizeof(_Tp)))
 125:d:\software\mounriver_studio\toolchain\risc-v embedded gcc12\riscv-none-elf\include\c++\12.2.0\bits\new_allocator.h **** 	      std::__throw_bad_array_new_length();
 126:d:\software\mounriver_studio\toolchain\risc-v embedded gcc12\riscv-none-elf\include\c++\12.2.0\bits\new_allocator.h **** 	    std::__throw_bad_alloc();
 127:d:\software\mounriver_studio\toolchain\risc-v embedded gcc12\riscv-none-elf\include\c++\12.2.0\bits\new_allocator.h **** 	  }
 128:d:\software\mounriver_studio\toolchain\risc-v embedded gcc12\riscv-none-elf\include\c++\12.2.0\bits\new_allocator.h **** 
 129:d:\software\mounriver_studio\toolchain\risc-v embedded gcc12\riscv-none-elf\include\c++\12.2.0\bits\new_allocator.h **** #if __cpp_aligned_new
 130:d:\software\mounriver_studio\toolchain\risc-v embedded gcc12\riscv-none-elf\include\c++\12.2.0\bits\new_allocator.h **** 	if (alignof(_Tp) > __STDCPP_DEFAULT_NEW_ALIGNMENT__)
 131:d:\software\mounriver_studio\toolchain\risc-v embedded gcc12\riscv-none-elf\include\c++\12.2.0\bits\new_allocator.h **** 	  {
 132:d:\software\mounriver_studio\toolchain\risc-v embedded gcc12\riscv-none-elf\include\c++\12.2.0\bits\new_allocator.h **** 	    std::align_val_t __al = std::align_val_t(alignof(_Tp));
 133:d:\software\mounriver_studio\toolchain\risc-v embedded gcc12\riscv-none-elf\include\c++\12.2.0\bits\new_allocator.h **** 	    return static_cast<_Tp*>(_GLIBCXX_OPERATOR_NEW(__n * sizeof(_Tp),
 134:d:\software\mounriver_studio\toolchain\risc-v embedded gcc12\riscv-none-elf\include\c++\12.2.0\bits\new_allocator.h **** 							   __al));
 135:d:\software\mounriver_studio\toolchain\risc-v embedded gcc12\riscv-none-elf\include\c++\12.2.0\bits\new_allocator.h **** 	  }
 136:d:\software\mounriver_studio\toolchain\risc-v embedded gcc12\riscv-none-elf\include\c++\12.2.0\bits\new_allocator.h **** #endif
 137:d:\software\mounriver_studio\toolchain\risc-v embedded gcc12\riscv-none-elf\include\c++\12.2.0\bits\new_allocator.h **** 	return static_cast<_Tp*>(_GLIBCXX_OPERATOR_NEW(__n * sizeof(_Tp)));
 138:d:\software\mounriver_studio\toolchain\risc-v embedded gcc12\riscv-none-elf\include\c++\12.2.0\bits\new_allocator.h ****       }
 139:d:\software\mounriver_studio\toolchain\risc-v embedded gcc12\riscv-none-elf\include\c++\12.2.0\bits\new_allocator.h **** 
 140:d:\software\mounriver_studio\toolchain\risc-v embedded gcc12\riscv-none-elf\include\c++\12.2.0\bits\new_allocator.h ****       // __p is not permitted to be a null pointer.
 141:d:\software\mounriver_studio\toolchain\risc-v embedded gcc12\riscv-none-elf\include\c++\12.2.0\bits\new_allocator.h ****       void
 142:d:\software\mounriver_studio\toolchain\risc-v embedded gcc12\riscv-none-elf\include\c++\12.2.0\bits\new_allocator.h ****       deallocate(_Tp* __p, size_type __n __attribute__ ((__unused__)))
 143:d:\software\mounriver_studio\toolchain\risc-v embedded gcc12\riscv-none-elf\include\c++\12.2.0\bits\new_allocator.h ****       {
 144:d:\software\mounriver_studio\toolchain\risc-v embedded gcc12\riscv-none-elf\include\c++\12.2.0\bits\new_allocator.h **** #if __cpp_sized_deallocation
 145:d:\software\mounriver_studio\toolchain\risc-v embedded gcc12\riscv-none-elf\include\c++\12.2.0\bits\new_allocator.h **** # define _GLIBCXX_SIZED_DEALLOC(p, n) (p), (n) * sizeof(_Tp)
 146:d:\software\mounriver_studio\toolchain\risc-v embedded gcc12\riscv-none-elf\include\c++\12.2.0\bits\new_allocator.h **** #else
 147:d:\software\mounriver_studio\toolchain\risc-v embedded gcc12\riscv-none-elf\include\c++\12.2.0\bits\new_allocator.h **** # define _GLIBCXX_SIZED_DEALLOC(p, n) (p)
 148:d:\software\mounriver_studio\toolchain\risc-v embedded gcc12\riscv-none-elf\include\c++\12.2.0\bits\new_allocator.h **** #endif
 149:d:\software\mounriver_studio\toolchain\risc-v embedded gcc12\riscv-none-elf\include\c++\12.2.0\bits\new_allocator.h **** 
 150:d:\software\mounriver_studio\toolchain\risc-v embedded gcc12\riscv-none-elf\include\c++\12.2.0\bits\new_allocator.h **** #if __cpp_aligned_new
 151:d:\software\mounriver_studio\toolchain\risc-v embedded gcc12\riscv-none-elf\include\c++\12.2.0\bits\new_allocator.h **** 	if (alignof(_Tp) > __STDCPP_DEFAULT_NEW_ALIGNMENT__)
 152:d:\software\mounriver_studio\toolchain\risc-v embedded gcc12\riscv-none-elf\include\c++\12.2.0\bits\new_allocator.h **** 	  {
 153:d:\software\mounriver_studio\toolchain\risc-v embedded gcc12\riscv-none-elf\include\c++\12.2.0\bits\new_allocator.h **** 	    _GLIBCXX_OPERATOR_DELETE(_GLIBCXX_SIZED_DEALLOC(__p, __n),
 154:d:\software\mounriver_studio\toolchain\risc-v embedded gcc12\riscv-none-elf\include\c++\12.2.0\bits\new_allocator.h **** 				     std::align_val_t(alignof(_Tp)));
 155:d:\software\mounriver_studio\toolchain\risc-v embedded gcc12\riscv-none-elf\include\c++\12.2.0\bits\new_allocator.h **** 	    return;
 156:d:\software\mounriver_studio\toolchain\risc-v embedded gcc12\riscv-none-elf\include\c++\12.2.0\bits\new_allocator.h **** 	  }
 157:d:\software\mounriver_studio\toolchain\risc-v embedded gcc12\riscv-none-elf\include\c++\12.2.0\bits\new_allocator.h **** #endif
 158:d:\software\mounriver_studio\toolchain\risc-v embedded gcc12\riscv-none-elf\include\c++\12.2.0\bits\new_allocator.h **** 	_GLIBCXX_OPERATOR_DELETE(_GLIBCXX_SIZED_DEALLOC(__p, __n));
 270              		.loc 5 158 26
 271 00fe C245     		lw	a1,16(sp)
 272 0100 8505     		addi	a1,a1,1
 273              	.LVL22:
 274 0102 97000000 		call	_ZdlPvj
 274      E7800000 
 275              	.LVL23:
 276              	.L4:
 277 010a 2285     		mv	a0,s0
 278              	.LEHB2:
 279 010c 97000000 		call	_Unwind_Resume
 279      E7800000 
 280              	.LVL24:
 281              	.LEHE2:
 282              	.LBE384:
 283              	.LBE383:
 284              	.LBE382:
 285              	.LBE381:
 286              	.LBE380:
 287              	.LBE379:
 288              	.LBE378:
 289              	.LBE377:
 290              	.LBE373:
 291              	.LBE372:
 292              	.LBE371:
 293              	.LBE370:
 294              		.cfi_endproc
 295              	.LFE2522:
 296              		.globl	__gxx_personality_v0
 297              		.section	.gcc_except_table.main,"aw",@progbits
 298              	.LLSDA2522:
 299 0000 FF       		.byte	0xff
 300 0001 FF       		.byte	0xff
 301 0002 03       		.byte	0x3
 302 0003 27       		.byte	0x27
 303 0004 00000000 		.4byte	.LEHB0-.LFB2522
 304 0008 00000000 		.4byte	.LEHE0-.LEHB0
 305 000c 00000000 		.4byte	0
 306 0010 00       		.byte	0
 307 0011 00000000 		.4byte	.LEHB1-.LFB2522
 308 0015 00000000 		.4byte	.LEHE1-.LEHB1
 309 0019 00000000 		.4byte	.L5-.LFB2522
 310 001d 00       		.byte	0
 311 001e 00000000 		.4byte	.LEHB2-.LFB2522
 312 0022 00000000 		.4byte	.LEHE2-.LEHB2
 313 0026 00000000 		.4byte	0
 314 002a 00       		.byte	0
 315              		.section	.text.startup.main
 317              		.section	.text.startup._GLOBAL__sub_I_main,"ax",@progbits
 318              		.align	1
 320              	_GLOBAL__sub_I_main:
 321              	.LFB3305:
  56:../User/main.cpp ****     {
  57:../User/main.cpp **** 
  58:../User/main.cpp **** 	}
  59:../User/main.cpp **** }
 322              		.loc 1 59 1 is_stmt 1
 323              		.cfi_startproc
 324 0000 17030000 		call	t0,__riscv_save_0
 324      E7020300 
 325              		.cfi_offset 1, -4
 326              		.cfi_def_cfa_offset 16
 327              	.LVL25:
 328              	.LBB387:
 329              	.LBB388:
 330              		.file 6 "d:\\software\\mounriver_studio\\toolchain\\risc-v embedded gcc12\\riscv-none-elf\\include
   1:d:\software\mounriver_studio\toolchain\risc-v embedded gcc12\riscv-none-elf\include\c++\12.2.0\iostream **** // Standard iostream objects -*- C++ -*-
   2:d:\software\mounriver_studio\toolchain\risc-v embedded gcc12\riscv-none-elf\include\c++\12.2.0\iostream **** 
   3:d:\software\mounriver_studio\toolchain\risc-v embedded gcc12\riscv-none-elf\include\c++\12.2.0\iostream **** // Copyright (C) 1997-2022 Free Software Foundation, Inc.
   4:d:\software\mounriver_studio\toolchain\risc-v embedded gcc12\riscv-none-elf\include\c++\12.2.0\iostream **** //
   5:d:\software\mounriver_studio\toolchain\risc-v embedded gcc12\riscv-none-elf\include\c++\12.2.0\iostream **** // This file is part of the GNU ISO C++ Library.  This library is free
   6:d:\software\mounriver_studio\toolchain\risc-v embedded gcc12\riscv-none-elf\include\c++\12.2.0\iostream **** // software; you can redistribute it and/or modify it under the
   7:d:\software\mounriver_studio\toolchain\risc-v embedded gcc12\riscv-none-elf\include\c++\12.2.0\iostream **** // terms of the GNU General Public License as published by the
   8:d:\software\mounriver_studio\toolchain\risc-v embedded gcc12\riscv-none-elf\include\c++\12.2.0\iostream **** // Free Software Foundation; either version 3, or (at your option)
   9:d:\software\mounriver_studio\toolchain\risc-v embedded gcc12\riscv-none-elf\include\c++\12.2.0\iostream **** // any later version.
  10:d:\software\mounriver_studio\toolchain\risc-v embedded gcc12\riscv-none-elf\include\c++\12.2.0\iostream **** 
  11:d:\software\mounriver_studio\toolchain\risc-v embedded gcc12\riscv-none-elf\include\c++\12.2.0\iostream **** // This library is distributed in the hope that it will be useful,
  12:d:\software\mounriver_studio\toolchain\risc-v embedded gcc12\riscv-none-elf\include\c++\12.2.0\iostream **** // but WITHOUT ANY WARRANTY; without even the implied warranty of
  13:d:\software\mounriver_studio\toolchain\risc-v embedded gcc12\riscv-none-elf\include\c++\12.2.0\iostream **** // MERCHANTABILITY or FITNESS FOR A PARTICULAR PURPOSE.  See the
  14:d:\software\mounriver_studio\toolchain\risc-v embedded gcc12\riscv-none-elf\include\c++\12.2.0\iostream **** // GNU General Public License for more details.
  15:d:\software\mounriver_studio\toolchain\risc-v embedded gcc12\riscv-none-elf\include\c++\12.2.0\iostream **** 
  16:d:\software\mounriver_studio\toolchain\risc-v embedded gcc12\riscv-none-elf\include\c++\12.2.0\iostream **** // Under Section 7 of GPL version 3, you are granted additional
  17:d:\software\mounriver_studio\toolchain\risc-v embedded gcc12\riscv-none-elf\include\c++\12.2.0\iostream **** // permissions described in the GCC Runtime Library Exception, version
  18:d:\software\mounriver_studio\toolchain\risc-v embedded gcc12\riscv-none-elf\include\c++\12.2.0\iostream **** // 3.1, as published by the Free Software Foundation.
  19:d:\software\mounriver_studio\toolchain\risc-v embedded gcc12\riscv-none-elf\include\c++\12.2.0\iostream **** 
  20:d:\software\mounriver_studio\toolchain\risc-v embedded gcc12\riscv-none-elf\include\c++\12.2.0\iostream **** // You should have received a copy of the GNU General Public License and
  21:d:\software\mounriver_studio\toolchain\risc-v embedded gcc12\riscv-none-elf\include\c++\12.2.0\iostream **** // a copy of the GCC Runtime Library Exception along with this program;
  22:d:\software\mounriver_studio\toolchain\risc-v embedded gcc12\riscv-none-elf\include\c++\12.2.0\iostream **** // see the files COPYING3 and COPYING.RUNTIME respectively.  If not, see
  23:d:\software\mounriver_studio\toolchain\risc-v embedded gcc12\riscv-none-elf\include\c++\12.2.0\iostream **** // <http://www.gnu.org/licenses/>.
  24:d:\software\mounriver_studio\toolchain\risc-v embedded gcc12\riscv-none-elf\include\c++\12.2.0\iostream **** 
  25:d:\software\mounriver_studio\toolchain\risc-v embedded gcc12\riscv-none-elf\include\c++\12.2.0\iostream **** /** @file include/iostream
  26:d:\software\mounriver_studio\toolchain\risc-v embedded gcc12\riscv-none-elf\include\c++\12.2.0\iostream ****  *  This is a Standard C++ Library header.
  27:d:\software\mounriver_studio\toolchain\risc-v embedded gcc12\riscv-none-elf\include\c++\12.2.0\iostream ****  */
  28:d:\software\mounriver_studio\toolchain\risc-v embedded gcc12\riscv-none-elf\include\c++\12.2.0\iostream **** 
  29:d:\software\mounriver_studio\toolchain\risc-v embedded gcc12\riscv-none-elf\include\c++\12.2.0\iostream **** //
  30:d:\software\mounriver_studio\toolchain\risc-v embedded gcc12\riscv-none-elf\include\c++\12.2.0\iostream **** // ISO C++ 14882: 27.3  Standard iostream objects
  31:d:\software\mounriver_studio\toolchain\risc-v embedded gcc12\riscv-none-elf\include\c++\12.2.0\iostream **** //
  32:d:\software\mounriver_studio\toolchain\risc-v embedded gcc12\riscv-none-elf\include\c++\12.2.0\iostream **** 
  33:d:\software\mounriver_studio\toolchain\risc-v embedded gcc12\riscv-none-elf\include\c++\12.2.0\iostream **** #ifndef _GLIBCXX_IOSTREAM
  34:d:\software\mounriver_studio\toolchain\risc-v embedded gcc12\riscv-none-elf\include\c++\12.2.0\iostream **** #define _GLIBCXX_IOSTREAM 1
  35:d:\software\mounriver_studio\toolchain\risc-v embedded gcc12\riscv-none-elf\include\c++\12.2.0\iostream **** 
  36:d:\software\mounriver_studio\toolchain\risc-v embedded gcc12\riscv-none-elf\include\c++\12.2.0\iostream **** #pragma GCC system_header
  37:d:\software\mounriver_studio\toolchain\risc-v embedded gcc12\riscv-none-elf\include\c++\12.2.0\iostream **** 
  38:d:\software\mounriver_studio\toolchain\risc-v embedded gcc12\riscv-none-elf\include\c++\12.2.0\iostream **** #include <bits/c++config.h>
  39:d:\software\mounriver_studio\toolchain\risc-v embedded gcc12\riscv-none-elf\include\c++\12.2.0\iostream **** #include <ostream>
  40:d:\software\mounriver_studio\toolchain\risc-v embedded gcc12\riscv-none-elf\include\c++\12.2.0\iostream **** #include <istream>
  41:d:\software\mounriver_studio\toolchain\risc-v embedded gcc12\riscv-none-elf\include\c++\12.2.0\iostream **** 
  42:d:\software\mounriver_studio\toolchain\risc-v embedded gcc12\riscv-none-elf\include\c++\12.2.0\iostream **** namespace std _GLIBCXX_VISIBILITY(default)
  43:d:\software\mounriver_studio\toolchain\risc-v embedded gcc12\riscv-none-elf\include\c++\12.2.0\iostream **** {
  44:d:\software\mounriver_studio\toolchain\risc-v embedded gcc12\riscv-none-elf\include\c++\12.2.0\iostream **** _GLIBCXX_BEGIN_NAMESPACE_VERSION
  45:d:\software\mounriver_studio\toolchain\risc-v embedded gcc12\riscv-none-elf\include\c++\12.2.0\iostream **** 
  46:d:\software\mounriver_studio\toolchain\risc-v embedded gcc12\riscv-none-elf\include\c++\12.2.0\iostream ****   /**
  47:d:\software\mounriver_studio\toolchain\risc-v embedded gcc12\riscv-none-elf\include\c++\12.2.0\iostream ****    *  @name Standard Stream Objects
  48:d:\software\mounriver_studio\toolchain\risc-v embedded gcc12\riscv-none-elf\include\c++\12.2.0\iostream ****    *
  49:d:\software\mounriver_studio\toolchain\risc-v embedded gcc12\riscv-none-elf\include\c++\12.2.0\iostream ****    *  The &lt;iostream&gt; header declares the eight <em>standard stream
  50:d:\software\mounriver_studio\toolchain\risc-v embedded gcc12\riscv-none-elf\include\c++\12.2.0\iostream ****    *  objects</em>.  For other declarations, see
  51:d:\software\mounriver_studio\toolchain\risc-v embedded gcc12\riscv-none-elf\include\c++\12.2.0\iostream ****    *  http://gcc.gnu.org/onlinedocs/libstdc++/manual/io.html
  52:d:\software\mounriver_studio\toolchain\risc-v embedded gcc12\riscv-none-elf\include\c++\12.2.0\iostream ****    *  and the @link iosfwd I/O forward declarations @endlink
  53:d:\software\mounriver_studio\toolchain\risc-v embedded gcc12\riscv-none-elf\include\c++\12.2.0\iostream ****    *
  54:d:\software\mounriver_studio\toolchain\risc-v embedded gcc12\riscv-none-elf\include\c++\12.2.0\iostream ****    *  They are required by default to cooperate with the global C
  55:d:\software\mounriver_studio\toolchain\risc-v embedded gcc12\riscv-none-elf\include\c++\12.2.0\iostream ****    *  library's @c FILE streams, and to be available during program
  56:d:\software\mounriver_studio\toolchain\risc-v embedded gcc12\riscv-none-elf\include\c++\12.2.0\iostream ****    *  startup and termination. For more information, see the section of the
  57:d:\software\mounriver_studio\toolchain\risc-v embedded gcc12\riscv-none-elf\include\c++\12.2.0\iostream ****    *  manual linked to above.
  58:d:\software\mounriver_studio\toolchain\risc-v embedded gcc12\riscv-none-elf\include\c++\12.2.0\iostream ****   */
  59:d:\software\mounriver_studio\toolchain\risc-v embedded gcc12\riscv-none-elf\include\c++\12.2.0\iostream ****   ///@{
  60:d:\software\mounriver_studio\toolchain\risc-v embedded gcc12\riscv-none-elf\include\c++\12.2.0\iostream ****   extern istream cin;		/// Linked to standard input
  61:d:\software\mounriver_studio\toolchain\risc-v embedded gcc12\riscv-none-elf\include\c++\12.2.0\iostream ****   extern ostream cout;		/// Linked to standard output
  62:d:\software\mounriver_studio\toolchain\risc-v embedded gcc12\riscv-none-elf\include\c++\12.2.0\iostream ****   extern ostream cerr;		/// Linked to standard error (unbuffered)
  63:d:\software\mounriver_studio\toolchain\risc-v embedded gcc12\riscv-none-elf\include\c++\12.2.0\iostream ****   extern ostream clog;		/// Linked to standard error (buffered)
  64:d:\software\mounriver_studio\toolchain\risc-v embedded gcc12\riscv-none-elf\include\c++\12.2.0\iostream **** 
  65:d:\software\mounriver_studio\toolchain\risc-v embedded gcc12\riscv-none-elf\include\c++\12.2.0\iostream **** #ifdef _GLIBCXX_USE_WCHAR_T
  66:d:\software\mounriver_studio\toolchain\risc-v embedded gcc12\riscv-none-elf\include\c++\12.2.0\iostream ****   extern wistream wcin;		/// Linked to standard input
  67:d:\software\mounriver_studio\toolchain\risc-v embedded gcc12\riscv-none-elf\include\c++\12.2.0\iostream ****   extern wostream wcout;	/// Linked to standard output
  68:d:\software\mounriver_studio\toolchain\risc-v embedded gcc12\riscv-none-elf\include\c++\12.2.0\iostream ****   extern wostream wcerr;	/// Linked to standard error (unbuffered)
  69:d:\software\mounriver_studio\toolchain\risc-v embedded gcc12\riscv-none-elf\include\c++\12.2.0\iostream ****   extern wostream wclog;	/// Linked to standard error (buffered)
  70:d:\software\mounriver_studio\toolchain\risc-v embedded gcc12\riscv-none-elf\include\c++\12.2.0\iostream **** #endif
  71:d:\software\mounriver_studio\toolchain\risc-v embedded gcc12\riscv-none-elf\include\c++\12.2.0\iostream ****   ///@}
  72:d:\software\mounriver_studio\toolchain\risc-v embedded gcc12\riscv-none-elf\include\c++\12.2.0\iostream **** 
  73:d:\software\mounriver_studio\toolchain\risc-v embedded gcc12\riscv-none-elf\include\c++\12.2.0\iostream ****   // For construction of filebuffers for cout, cin, cerr, clog et. al.
  74:d:\software\mounriver_studio\toolchain\risc-v embedded gcc12\riscv-none-elf\include\c++\12.2.0\iostream ****   static ios_base::Init __ioinit;
 331              		.loc 6 74 25 is_stmt 0
 332 0008 17050000 		lla	a0,_ZStL8__ioinit
 332      13050500 
 333 0010 97000000 		call	_ZNSt8ios_base4InitC1Ev
 333      E7800000 
 334              	.LVL26:
 335 0018 17060000 		lla	a2,__dso_handle
 335      13060600 
 336 0020 97050000 		lla	a1,_ZStL8__ioinit
 336      93850500 
 337 0028 17050000 		lla	a0,_ZNSt8ios_base4InitD1Ev
 337      13050500 
 338 0030 97000000 		call	__cxa_atexit
 338      E7800000 
 339              	.LVL27:
 340              	.LBE388:
 341              	.LBE387:
 342              		.loc 1 59 1
 343 0038 17030000 		tail	__riscv_restore_0
 343      67000300 
 344              		.cfi_restore 1
 345              		.cfi_def_cfa_offset 0
 346              		.cfi_endproc
 347              	.LFE3305:
 349              		.section	.init_array,"aw"
 350              		.align	2
 351 0000 00000000 		.word	_GLOBAL__sub_I_main
 352              		.section	.sbss._ZStL8__ioinit,"aw",@nobits
 353              		.align	2
 356              	_ZStL8__ioinit:
 357 0000 00       		.zero	1
 358              		.section	.srodata.cst8,"aM",@progbits,8
 359              		.align	3
 360              	.LC5:
 361 0000 BCDCF615 		.word	368499900
 362 0004 224A183F 		.word	1058556450
 363              		.text
 364              	.Letext0:
 365              		.file 7 "d:\\software\\mounriver_studio\\toolchain\\risc-v embedded gcc12\\riscv-none-elf\\include
 366              		.file 8 "d:\\software\\mounriver_studio\\toolchain\\risc-v embedded gcc12\\lib\\gcc\\riscv-none-el
 367              		.file 9 "d:\\software\\mounriver_studio\\toolchain\\risc-v embedded gcc12\\lib\\gcc\\riscv-none-el
 368              		.file 10 "d:\\software\\mounriver_studio\\toolchain\\risc-v embedded gcc12\\riscv-none-elf\\includ
 369              		.file 11 "d:\\software\\mounriver_studio\\toolchain\\risc-v embedded gcc12\\riscv-none-elf\\includ
 370              		.file 12 "d:\\software\\mounriver_studio\\toolchain\\risc-v embedded gcc12\\riscv-none-elf\\includ
 371              		.file 13 "d:\\software\\mounriver_studio\\toolchain\\risc-v embedded gcc12\\riscv-none-elf\\includ
 372              		.file 14 "d:\\software\\mounriver_studio\\toolchain\\risc-v embedded gcc12\\riscv-none-elf\\includ
 373              		.file 15 "d:\\software\\mounriver_studio\\toolchain\\risc-v embedded gcc12\\riscv-none-elf\\includ
 374              		.file 16 "d:\\software\\mounriver_studio\\toolchain\\risc-v embedded gcc12\\riscv-none-elf\\includ
 375              		.file 17 "d:\\software\\mounriver_studio\\toolchain\\risc-v embedded gcc12\\riscv-none-elf\\includ
 376              		.file 18 "d:\\software\\mounriver_studio\\toolchain\\risc-v embedded gcc12\\riscv-none-elf\\includ
 377              		.file 19 "d:\\software\\mounriver_studio\\toolchain\\risc-v embedded gcc12\\riscv-none-elf\\includ
 378              		.file 20 "d:\\software\\mounriver_studio\\toolchain\\risc-v embedded gcc12\\riscv-none-elf\\includ
 379              		.file 21 "d:\\software\\mounriver_studio\\toolchain\\risc-v embedded gcc12\\riscv-none-elf\\includ
 380              		.file 22 "d:\\software\\mounriver_studio\\toolchain\\risc-v embedded gcc12\\riscv-none-elf\\includ
 381              		.file 23 "d:\\software\\mounriver_studio\\toolchain\\risc-v embedded gcc12\\riscv-none-elf\\includ
 382              		.file 24 "d:\\software\\mounriver_studio\\toolchain\\risc-v embedded gcc12\\riscv-none-elf\\includ
 383              		.file 25 "d:\\software\\mounriver_studio\\toolchain\\risc-v embedded gcc12\\riscv-none-elf\\includ
 384              		.file 26 "d:\\software\\mounriver_studio\\toolchain\\risc-v embedded gcc12\\riscv-none-elf\\includ
 385              		.file 27 "d:\\software\\mounriver_studio\\toolchain\\risc-v embedded gcc12\\riscv-none-elf\\includ
 386              		.file 28 "d:\\software\\mounriver_studio\\toolchain\\risc-v embedded gcc12\\riscv-none-elf\\includ
 387              		.file 29 "d:\\software\\mounriver_studio\\toolchain\\risc-v embedded gcc12\\riscv-none-elf\\includ
 388              		.file 30 "d:\\software\\mounriver_studio\\toolchain\\risc-v embedded gcc12\\riscv-none-elf\\includ
 389              		.file 31 "d:\\software\\mounriver_studio\\toolchain\\risc-v embedded gcc12\\riscv-none-elf\\includ
 390              		.file 32 "d:\\software\\mounriver_studio\\toolchain\\risc-v embedded gcc12\\riscv-none-elf\\includ
 391              		.file 33 "d:\\software\\mounriver_studio\\toolchain\\risc-v embedded gcc12\\riscv-none-elf\\includ
 392              		.file 34 "d:\\software\\mounriver_studio\\toolchain\\risc-v embedded gcc12\\riscv-none-elf\\includ
 393              		.file 35 "d:\\software\\mounriver_studio\\toolchain\\risc-v embedded gcc12\\riscv-none-elf\\includ
 394              		.file 36 "d:\\software\\mounriver_studio\\toolchain\\risc-v embedded gcc12\\riscv-none-elf\\includ
 395              		.file 37 "d:\\software\\mounriver_studio\\toolchain\\risc-v embedded gcc12\\riscv-none-elf\\includ
 396              		.file 38 "d:\\software\\mounriver_studio\\toolchain\\risc-v embedded gcc12\\riscv-none-elf\\includ
 397              		.file 39 "d:\\software\\mounriver_studio\\toolchain\\risc-v embedded gcc12\\riscv-none-elf\\includ
 398              		.file 40 "d:\\software\\mounriver_studio\\toolchain\\risc-v embedded gcc12\\riscv-none-elf\\includ
 399              		.file 41 "d:\\software\\mounriver_studio\\toolchain\\risc-v embedded gcc12\\riscv-none-elf\\includ
 400              		.file 42 "d:\\software\\mounriver_studio\\toolchain\\risc-v embedded gcc12\\riscv-none-elf\\includ
 401              		.file 43 "d:\\software\\mounriver_studio\\toolchain\\risc-v embedded gcc12\\riscv-none-elf\\includ
 402              		.file 44 "d:\\software\\mounriver_studio\\toolchain\\risc-v embedded gcc12\\riscv-none-elf\\includ
 403              		.file 45 "d:\\software\\mounriver_studio\\toolchain\\risc-v embedded gcc12\\riscv-none-elf\\includ
 404              		.file 46 "d:\\software\\mounriver_studio\\toolchain\\risc-v embedded gcc12\\riscv-none-elf\\includ
 405              		.file 47 "d:\\software\\mounriver_studio\\toolchain\\risc-v embedded gcc12\\riscv-none-elf\\includ
 406              		.file 48 "d:\\software\\mounriver_studio\\toolchain\\risc-v embedded gcc12\\riscv-none-elf\\includ
 407              		.file 49 "d:\\software\\mounriver_studio\\toolchain\\risc-v embedded gcc12\\riscv-none-elf\\includ
 408              		.file 50 "d:\\software\\mounriver_studio\\toolchain\\risc-v embedded gcc12\\riscv-none-elf\\includ
 409              		.file 51 "d:\\software\\mounriver_studio\\toolchain\\risc-v embedded gcc12\\riscv-none-elf\\includ
 410              		.file 52 "d:\\software\\mounriver_studio\\toolchain\\risc-v embedded gcc12\\riscv-none-elf\\includ
 411              		.file 53 "d:\\software\\mounriver_studio\\toolchain\\risc-v embedded gcc12\\riscv-none-elf\\includ
 412              		.file 54 "d:\\software\\mounriver_studio\\toolchain\\risc-v embedded gcc12\\riscv-none-elf\\includ
 413              		.file 55 "d:\\software\\mounriver_studio\\toolchain\\risc-v embedded gcc12\\riscv-none-elf\\includ
 414              		.file 56 "d:\\software\\mounriver_studio\\toolchain\\risc-v embedded gcc12\\riscv-none-elf\\includ
 415              		.file 57 "d:\\software\\mounriver_studio\\toolchain\\risc-v embedded gcc12\\riscv-none-elf\\includ
 416              		.file 58 "C:\\Users\\localhost\\Documents\\turbomoskal-repo\\qqexpert\\firmware\\MasterController\
 417              		.file 59 "C:\\Users\\localhost\\Documents\\turbomoskal-repo\\qqexpert\\firmware\\MasterController\
 418              		.file 60 "C:\\Users\\localhost\\Documents\\turbomoskal-repo\\qqexpert\\firmware\\MasterController\
 419              		.file 61 "C:\\Users\\localhost\\Documents\\turbomoskal-repo\\qqexpert\\firmware\\MasterController\
 420              		.file 62 "d:\\software\\mounriver_studio\\toolchain\\risc-v embedded gcc12\\riscv-none-elf\\includ
 18226              		.align	2
 18229              	DW.ref.__gxx_personality_v0:
 18230 0000 00000000 		.word	__gxx_personality_v0
 18231              		.hidden	__dso_handle
 18232              		.ident	"GCC: (xPack GNU RISC-V Embedded GCC i386) 12.2.0"