   1              		.file	"system_ch32v30x.c"
   2              		.option nopic
   3              		.attribute arch, "rv32i2p0_m2p0_a2p0_f2p0_c2p0_xw"
   4              		.attribute unaligned_access, 0
   5              		.attribute stack_align, 16
   6              		.text
   7              	.Ltext0:
   8              		.cfi_sections	.debug_frame
   9              		.file 0 "C:\\Users\\localhost\\Documents\\turbomoskal-repo\\qqexpert\\firmware\\MasterController\\
  10              		.section	.text.SystemInit,"ax",@progbits
  11              		.align	1
  12              		.globl	SystemInit
  14              	SystemInit:
  15              	.LFB29:
  16              		.file 1 "../User/system_ch32v30x.c"
   1:../User/system_ch32v30x.c **** /********************************** (C) COPYRIGHT *******************************
   2:../User/system_ch32v30x.c **** * File Name          : system_ch32v30x.c
   3:../User/system_ch32v30x.c **** * Author             : WCH
   4:../User/system_ch32v30x.c **** * Version            : V1.0.0
   5:../User/system_ch32v30x.c **** * Date               : 2024/03/06
   6:../User/system_ch32v30x.c **** * Description        : CH32V30x Device Peripheral Access Layer System Source File.
   7:../User/system_ch32v30x.c **** *                      For HSE = 8Mhz
   8:../User/system_ch32v30x.c **** *********************************************************************************
   9:../User/system_ch32v30x.c **** * Copyright (c) 2021 Nanjing Qinheng Microelectronics Co., Ltd.
  10:../User/system_ch32v30x.c **** * Attention: This software (modified or not) and binary are used for 
  11:../User/system_ch32v30x.c **** * microcontroller manufactured by Nanjing Qinheng Microelectronics.
  12:../User/system_ch32v30x.c **** *******************************************************************************/
  13:../User/system_ch32v30x.c **** #include "ch32v30x.h" 
  14:../User/system_ch32v30x.c **** 
  15:../User/system_ch32v30x.c **** /* 
  16:../User/system_ch32v30x.c **** * Uncomment the line corresponding to the desired System clock (SYSCLK) frequency (after 
  17:../User/system_ch32v30x.c **** * reset the HSI is used as SYSCLK source).
  18:../User/system_ch32v30x.c **** * If none of the define below is enabled, the HSI is used as System clock source. 
  19:../User/system_ch32v30x.c **** */
  20:../User/system_ch32v30x.c **** //#define SYSCLK_FREQ_HSE    HSE_VALUE
  21:../User/system_ch32v30x.c **** //#define SYSCLK_FREQ_48MHz_HSE  48000000
  22:../User/system_ch32v30x.c **** //#define SYSCLK_FREQ_56MHz_HSE  56000000
  23:../User/system_ch32v30x.c **** //#define SYSCLK_FREQ_72MHz_HSE  72000000
  24:../User/system_ch32v30x.c **** #define SYSCLK_FREQ_96MHz_HSE  96000000
  25:../User/system_ch32v30x.c **** //#define SYSCLK_FREQ_120MHz_HSE  120000000
  26:../User/system_ch32v30x.c **** //#define SYSCLK_FREQ_144MHz_HSE  144000000
  27:../User/system_ch32v30x.c **** //#define SYSCLK_FREQ_HSI    HSI_VALUE
  28:../User/system_ch32v30x.c **** //#define SYSCLK_FREQ_48MHz_HSI  48000000
  29:../User/system_ch32v30x.c **** //#define SYSCLK_FREQ_56MHz_HSI  56000000
  30:../User/system_ch32v30x.c **** //#define SYSCLK_FREQ_72MHz_HSI  72000000
  31:../User/system_ch32v30x.c **** //#define SYSCLK_FREQ_96MHz_HSI  96000000
  32:../User/system_ch32v30x.c **** //#define SYSCLK_FREQ_120MHz_HSI  120000000
  33:../User/system_ch32v30x.c **** //#define SYSCLK_FREQ_144MHz_HSI  144000000
  34:../User/system_ch32v30x.c **** 
  35:../User/system_ch32v30x.c **** /* Clock Definitions */
  36:../User/system_ch32v30x.c **** #ifdef SYSCLK_FREQ_HSE
  37:../User/system_ch32v30x.c **** uint32_t SystemCoreClock         = SYSCLK_FREQ_HSE;              /* System Clock Frequency (Core Cl
  38:../User/system_ch32v30x.c **** #elif defined SYSCLK_FREQ_48MHz_HSE
  39:../User/system_ch32v30x.c **** uint32_t SystemCoreClock         = SYSCLK_FREQ_48MHz_HSE;        /* System Clock Frequency (Core Cl
  40:../User/system_ch32v30x.c **** #elif defined SYSCLK_FREQ_56MHz_HSE
  41:../User/system_ch32v30x.c **** uint32_t SystemCoreClock         = SYSCLK_FREQ_56MHz_HSE;        /* System Clock Frequency (Core Cl
  42:../User/system_ch32v30x.c **** #elif defined SYSCLK_FREQ_72MHz_HSE
  43:../User/system_ch32v30x.c **** uint32_t SystemCoreClock         = SYSCLK_FREQ_72MHz_HSE;        /* System Clock Frequency (Core Cl
  44:../User/system_ch32v30x.c **** #elif defined SYSCLK_FREQ_96MHz_HSE
  45:../User/system_ch32v30x.c **** uint32_t SystemCoreClock         = SYSCLK_FREQ_96MHz_HSE;        /* System Clock Frequency (Core Cl
  46:../User/system_ch32v30x.c **** #elif defined SYSCLK_FREQ_120MHz_HSE
  47:../User/system_ch32v30x.c **** uint32_t SystemCoreClock         = SYSCLK_FREQ_120MHz_HSE;        /* System Clock Frequency (Core C
  48:../User/system_ch32v30x.c **** #elif defined SYSCLK_FREQ_144MHz_HSE
  49:../User/system_ch32v30x.c **** uint32_t SystemCoreClock         = SYSCLK_FREQ_144MHz_HSE;        /* System Clock Frequency (Core C
  50:../User/system_ch32v30x.c **** #elif defined SYSCLK_FREQ_48MHz_HSI
  51:../User/system_ch32v30x.c **** uint32_t SystemCoreClock         = SYSCLK_FREQ_48MHz_HSI;        /* System Clock Frequency (Core Cl
  52:../User/system_ch32v30x.c **** #elif defined SYSCLK_FREQ_56MHz_HSI
  53:../User/system_ch32v30x.c **** uint32_t SystemCoreClock         = SYSCLK_FREQ_56MHz_HSI;        /* System Clock Frequency (Core Cl
  54:../User/system_ch32v30x.c **** #elif defined SYSCLK_FREQ_72MHz_HSI
  55:../User/system_ch32v30x.c **** uint32_t SystemCoreClock         = SYSCLK_FREQ_72MHz_HSI;        /* System Clock Frequency (Core Cl
  56:../User/system_ch32v30x.c **** #elif defined SYSCLK_FREQ_96MHz_HSI
  57:../User/system_ch32v30x.c **** uint32_t SystemCoreClock         = SYSCLK_FREQ_96MHz_HSI;        /* System Clock Frequency (Core Cl
  58:../User/system_ch32v30x.c **** #elif defined SYSCLK_FREQ_120MHz_HSI
  59:../User/system_ch32v30x.c **** uint32_t SystemCoreClock         = SYSCLK_FREQ_120MHz_HSI;        /* System Clock Frequency (Core C
  60:../User/system_ch32v30x.c **** #elif defined SYSCLK_FREQ_144MHz_HSI
  61:../User/system_ch32v30x.c **** uint32_t SystemCoreClock         = SYSCLK_FREQ_144MHz_HSI;        /* System Clock Frequency (Core C
  62:../User/system_ch32v30x.c **** #else
  63:../User/system_ch32v30x.c **** uint32_t SystemCoreClock         = HSI_VALUE;                    /* System Clock Frequency (Core Cl
  64:../User/system_ch32v30x.c **** 
  65:../User/system_ch32v30x.c **** #endif
  66:../User/system_ch32v30x.c **** 
  67:../User/system_ch32v30x.c **** __I uint8_t AHBPrescTable[16] = {0, 0, 0, 0, 0, 0, 0, 0, 1, 2, 3, 4, 6, 7, 8, 9};
  68:../User/system_ch32v30x.c **** 
  69:../User/system_ch32v30x.c **** 
  70:../User/system_ch32v30x.c **** /* system_private_function_proto_types */
  71:../User/system_ch32v30x.c **** static void SetSysClock(void);
  72:../User/system_ch32v30x.c **** 
  73:../User/system_ch32v30x.c **** #ifdef SYSCLK_FREQ_HSE
  74:../User/system_ch32v30x.c **** static void SetSysClockToHSE( void );
  75:../User/system_ch32v30x.c **** #elif defined SYSCLK_FREQ_48MHz_HSE
  76:../User/system_ch32v30x.c **** static void SetSysClockTo48_HSE( void );
  77:../User/system_ch32v30x.c **** #elif defined SYSCLK_FREQ_56MHz_HSE
  78:../User/system_ch32v30x.c **** static void SetSysClockTo56_HSE( void );
  79:../User/system_ch32v30x.c **** #elif defined SYSCLK_FREQ_72MHz_HSE
  80:../User/system_ch32v30x.c **** static void SetSysClockTo72_HSE( void );
  81:../User/system_ch32v30x.c **** #elif defined SYSCLK_FREQ_96MHz_HSE
  82:../User/system_ch32v30x.c **** static void SetSysClockTo96_HSE( void );
  83:../User/system_ch32v30x.c **** #elif defined SYSCLK_FREQ_120MHz_HSE
  84:../User/system_ch32v30x.c **** static void SetSysClockTo120_HSE( void );
  85:../User/system_ch32v30x.c **** #elif defined SYSCLK_FREQ_144MHz_HSE
  86:../User/system_ch32v30x.c **** static void SetSysClockTo144_HSE( void );
  87:../User/system_ch32v30x.c **** #elif defined SYSCLK_FREQ_48MHz_HSI
  88:../User/system_ch32v30x.c **** static void SetSysClockTo48_HSI( void );
  89:../User/system_ch32v30x.c **** #elif defined SYSCLK_FREQ_56MHz_HSI
  90:../User/system_ch32v30x.c **** static void SetSysClockTo56_HSI( void );
  91:../User/system_ch32v30x.c **** #elif defined SYSCLK_FREQ_72MHz_HSI
  92:../User/system_ch32v30x.c **** static void SetSysClockTo72_HSI( void );
  93:../User/system_ch32v30x.c **** #elif defined SYSCLK_FREQ_96MHz_HSI
  94:../User/system_ch32v30x.c **** static void SetSysClockTo96_HSI( void );
  95:../User/system_ch32v30x.c **** #elif defined SYSCLK_FREQ_120MHz_HSI
  96:../User/system_ch32v30x.c **** static void SetSysClockTo120_HSI( void );
  97:../User/system_ch32v30x.c **** #elif defined SYSCLK_FREQ_144MHz_HSI
  98:../User/system_ch32v30x.c **** static void SetSysClockTo144_HSI( void );
  99:../User/system_ch32v30x.c **** 
 100:../User/system_ch32v30x.c **** #endif
 101:../User/system_ch32v30x.c **** 
 102:../User/system_ch32v30x.c **** 
 103:../User/system_ch32v30x.c **** /*********************************************************************
 104:../User/system_ch32v30x.c ****  * @fn      SystemInit
 105:../User/system_ch32v30x.c ****  *
 106:../User/system_ch32v30x.c ****  * @brief   Setup the microcontroller system Initialize the Embedded Flash Interface,
 107:../User/system_ch32v30x.c ****  *        the PLL and update the SystemCoreClock variable.
 108:../User/system_ch32v30x.c ****  *
 109:../User/system_ch32v30x.c ****  * @return  none
 110:../User/system_ch32v30x.c ****  */
 111:../User/system_ch32v30x.c **** void SystemInit (void)
 112:../User/system_ch32v30x.c **** {
  17              		.loc 1 112 1
  18              		.cfi_startproc
 113:../User/system_ch32v30x.c ****   RCC->CTLR |= (uint32_t)0x00000001;
  19              		.loc 1 113 3
  20              		.loc 1 113 6 is_stmt 0
  21 0000 B7170240 		li	a5,1073876992
  22 0004 9843     		lw	a4,0(a5)
 114:../User/system_ch32v30x.c **** 
 115:../User/system_ch32v30x.c ****   RCC->CFGR0 &= (uint32_t)0xF0FF0000;
  23              		.loc 1 115 14
  24 0006 B706FFF0 		li	a3,-251723776
 112:../User/system_ch32v30x.c ****   RCC->CTLR |= (uint32_t)0x00000001;
  25              		.loc 1 112 1
  26 000a 4111     		addi	sp,sp,-16
  27              		.cfi_def_cfa_offset 16
 113:../User/system_ch32v30x.c ****   RCC->CTLR |= (uint32_t)0x00000001;
  28              		.loc 1 113 13
  29 000c 13671700 		ori	a4,a4,1
  30 0010 98C3     		sw	a4,0(a5)
  31              		.loc 1 115 3 is_stmt 1
  32              		.loc 1 115 6 is_stmt 0
  33 0012 D843     		lw	a4,4(a5)
  34              	.LBB8:
  35              	.LBB9:
  36              	.LBB10:
 116:../User/system_ch32v30x.c **** 
 117:../User/system_ch32v30x.c ****   RCC->CTLR &= (uint32_t)0xFEF6FFFF;
 118:../User/system_ch32v30x.c ****   RCC->CTLR &= (uint32_t)0xFFFBFFFF;
 119:../User/system_ch32v30x.c ****   RCC->CFGR0 &= (uint32_t)0xFF00FFFF;
 120:../User/system_ch32v30x.c **** 
 121:../User/system_ch32v30x.c **** #ifdef CH32V30x_D8C
 122:../User/system_ch32v30x.c ****   RCC->CTLR &= (uint32_t)0xEBFFFFFF;
 123:../User/system_ch32v30x.c ****   RCC->INTR = 0x00FF0000;
 124:../User/system_ch32v30x.c ****   RCC->CFGR2 = 0x00000000;
 125:../User/system_ch32v30x.c **** #else
 126:../User/system_ch32v30x.c ****   RCC->INTR = 0x009F0000;   
 127:../User/system_ch32v30x.c **** #endif   
 128:../User/system_ch32v30x.c ****   SetSysClock();
 129:../User/system_ch32v30x.c **** }
 130:../User/system_ch32v30x.c **** 
 131:../User/system_ch32v30x.c **** /*********************************************************************
 132:../User/system_ch32v30x.c ****  * @fn      SystemCoreClockUpdate
 133:../User/system_ch32v30x.c ****  *
 134:../User/system_ch32v30x.c ****  * @brief   Update SystemCoreClock variable according to Clock Register Values.
 135:../User/system_ch32v30x.c ****  *
 136:../User/system_ch32v30x.c ****  * @return  none
 137:../User/system_ch32v30x.c ****  */
 138:../User/system_ch32v30x.c **** void SystemCoreClockUpdate (void)
 139:../User/system_ch32v30x.c **** {
 140:../User/system_ch32v30x.c ****   uint32_t tmp = 0, pllmull = 0, pllsource = 0;
 141:../User/system_ch32v30x.c ****   uint8_t Pll_6_5 = 0;
 142:../User/system_ch32v30x.c **** 
 143:../User/system_ch32v30x.c **** #ifdef CH32V30x_D8C
 144:../User/system_ch32v30x.c ****   uint8_t Pll2mull = 0;
 145:../User/system_ch32v30x.c **** 
 146:../User/system_ch32v30x.c **** #endif
 147:../User/system_ch32v30x.c **** 
 148:../User/system_ch32v30x.c ****   tmp = RCC->CFGR0 & RCC_SWS;
 149:../User/system_ch32v30x.c ****   
 150:../User/system_ch32v30x.c ****   switch (tmp)
 151:../User/system_ch32v30x.c ****   {
 152:../User/system_ch32v30x.c ****     case 0x00:
 153:../User/system_ch32v30x.c ****       SystemCoreClock = HSI_VALUE;
 154:../User/system_ch32v30x.c ****       break;
 155:../User/system_ch32v30x.c ****     case 0x04:  
 156:../User/system_ch32v30x.c ****       SystemCoreClock = HSE_VALUE;
 157:../User/system_ch32v30x.c ****       break;
 158:../User/system_ch32v30x.c ****     case 0x08: 
 159:../User/system_ch32v30x.c ****       pllmull = RCC->CFGR0 & RCC_PLLMULL;
 160:../User/system_ch32v30x.c ****       pllsource = RCC->CFGR0 & RCC_PLLSRC; 
 161:../User/system_ch32v30x.c ****       pllmull = ( pllmull >> 18) + 2;
 162:../User/system_ch32v30x.c **** 
 163:../User/system_ch32v30x.c **** #ifdef CH32V30x_D8
 164:../User/system_ch32v30x.c ****       if(pllmull == 17) pllmull = 18;
 165:../User/system_ch32v30x.c **** #else
 166:../User/system_ch32v30x.c ****       if(pllmull == 2) pllmull = 18;
 167:../User/system_ch32v30x.c ****       if(pllmull == 15){
 168:../User/system_ch32v30x.c ****           pllmull = 13;  /* *6.5 */
 169:../User/system_ch32v30x.c ****           Pll_6_5 = 1;
 170:../User/system_ch32v30x.c ****       }
 171:../User/system_ch32v30x.c ****       if(pllmull == 16) pllmull = 15;
 172:../User/system_ch32v30x.c ****       if(pllmull == 17) pllmull = 16;
 173:../User/system_ch32v30x.c **** #endif
 174:../User/system_ch32v30x.c **** 
 175:../User/system_ch32v30x.c ****       if (pllsource == 0x00)
 176:../User/system_ch32v30x.c ****       {
 177:../User/system_ch32v30x.c ****           if(EXTEN->EXTEN_CTR & EXTEN_PLL_HSI_PRE) SystemCoreClock = HSI_VALUE * pllmull;
 178:../User/system_ch32v30x.c ****           else SystemCoreClock = (HSI_VALUE >> 1) * pllmull;
 179:../User/system_ch32v30x.c ****       }
 180:../User/system_ch32v30x.c ****       else
 181:../User/system_ch32v30x.c ****       {
 182:../User/system_ch32v30x.c **** 
 183:../User/system_ch32v30x.c **** #ifdef CH32V30x_D8
 184:../User/system_ch32v30x.c ****           if ((RCC->CFGR0 & RCC_PLLXTPRE) != (uint32_t)RESET)
 185:../User/system_ch32v30x.c ****           {
 186:../User/system_ch32v30x.c ****             SystemCoreClock = (HSE_VALUE >> 1) * pllmull;
 187:../User/system_ch32v30x.c ****           }
 188:../User/system_ch32v30x.c ****           else
 189:../User/system_ch32v30x.c ****           {
 190:../User/system_ch32v30x.c ****             SystemCoreClock = HSE_VALUE * pllmull;
 191:../User/system_ch32v30x.c ****           }
 192:../User/system_ch32v30x.c **** 
 193:../User/system_ch32v30x.c **** #else
 194:../User/system_ch32v30x.c ****           if(RCC->CFGR2 & (1<<16)){ /* PLL2 */
 195:../User/system_ch32v30x.c ****               SystemCoreClock = HSE_VALUE/(((RCC->CFGR2 & 0xF0)>>4) + 1);  /* PREDIV2 */
 196:../User/system_ch32v30x.c **** 
 197:../User/system_ch32v30x.c ****               Pll2mull = (uint8_t)((RCC->CFGR2 & 0xF00)>>8);
 198:../User/system_ch32v30x.c **** 
 199:../User/system_ch32v30x.c ****               if(Pll2mull == 0) SystemCoreClock = (SystemCoreClock * 5)>>1;
 200:../User/system_ch32v30x.c ****               else if(Pll2mull == 1) SystemCoreClock = (SystemCoreClock * 25)>>1;
 201:../User/system_ch32v30x.c ****               else if(Pll2mull == 15) SystemCoreClock = SystemCoreClock * 20;
 202:../User/system_ch32v30x.c ****               else  SystemCoreClock = SystemCoreClock * (Pll2mull + 2);
 203:../User/system_ch32v30x.c **** 
 204:../User/system_ch32v30x.c ****               SystemCoreClock = SystemCoreClock/((RCC->CFGR2 & 0xF) + 1);  /* PREDIV1 */
 205:../User/system_ch32v30x.c ****           }
 206:../User/system_ch32v30x.c ****           else{/* HSE */
 207:../User/system_ch32v30x.c ****               SystemCoreClock = HSE_VALUE/((RCC->CFGR2 & 0xF) + 1);  /* PREDIV1 */
 208:../User/system_ch32v30x.c ****           }
 209:../User/system_ch32v30x.c **** 
 210:../User/system_ch32v30x.c ****           SystemCoreClock = SystemCoreClock * pllmull;
 211:../User/system_ch32v30x.c **** #endif
 212:../User/system_ch32v30x.c ****       }
 213:../User/system_ch32v30x.c **** 
 214:../User/system_ch32v30x.c **** 
 215:../User/system_ch32v30x.c ****       if(Pll_6_5 == 1) SystemCoreClock = (SystemCoreClock / 2);
 216:../User/system_ch32v30x.c **** 
 217:../User/system_ch32v30x.c ****       break;
 218:../User/system_ch32v30x.c ****     default:
 219:../User/system_ch32v30x.c ****       SystemCoreClock = HSI_VALUE;
 220:../User/system_ch32v30x.c ****       break;
 221:../User/system_ch32v30x.c ****   }
 222:../User/system_ch32v30x.c ****  
 223:../User/system_ch32v30x.c ****   tmp = AHBPrescTable[((RCC->CFGR0 & RCC_HPRE) >> 4)];
 224:../User/system_ch32v30x.c ****   SystemCoreClock >>= tmp;  
 225:../User/system_ch32v30x.c **** }
 226:../User/system_ch32v30x.c **** 
 227:../User/system_ch32v30x.c **** /*********************************************************************
 228:../User/system_ch32v30x.c ****  * @fn      SetSysClock
 229:../User/system_ch32v30x.c ****  *
 230:../User/system_ch32v30x.c ****  * @brief   Configures the System clock frequency, HCLK, PCLK2 and PCLK1 prescalers.
 231:../User/system_ch32v30x.c ****  *
 232:../User/system_ch32v30x.c ****  * @return  none
 233:../User/system_ch32v30x.c ****  */
 234:../User/system_ch32v30x.c **** static void SetSysClock(void)
 235:../User/system_ch32v30x.c **** {
 236:../User/system_ch32v30x.c ****   //GPIO_IPD_Unused();
 237:../User/system_ch32v30x.c **** #ifdef SYSCLK_FREQ_HSE
 238:../User/system_ch32v30x.c ****     SetSysClockToHSE();
 239:../User/system_ch32v30x.c **** #elif defined SYSCLK_FREQ_48MHz_HSE
 240:../User/system_ch32v30x.c ****     SetSysClockTo48_HSE();
 241:../User/system_ch32v30x.c **** #elif defined SYSCLK_FREQ_56MHz_HSE
 242:../User/system_ch32v30x.c ****     SetSysClockTo56_HSE();
 243:../User/system_ch32v30x.c **** #elif defined SYSCLK_FREQ_72MHz_HSE
 244:../User/system_ch32v30x.c ****     SetSysClockTo72_HSE();
 245:../User/system_ch32v30x.c **** #elif defined SYSCLK_FREQ_96MHz_HSE
 246:../User/system_ch32v30x.c ****     SetSysClockTo96_HSE();
 247:../User/system_ch32v30x.c **** #elif defined SYSCLK_FREQ_120MHz_HSE
 248:../User/system_ch32v30x.c ****     SetSysClockTo120_HSE();
 249:../User/system_ch32v30x.c **** #elif defined SYSCLK_FREQ_144MHz_HSE
 250:../User/system_ch32v30x.c ****     SetSysClockTo144_HSE();
 251:../User/system_ch32v30x.c **** #elif defined SYSCLK_FREQ_48MHz_HSI
 252:../User/system_ch32v30x.c ****     SetSysClockTo48_HSI();
 253:../User/system_ch32v30x.c **** #elif defined SYSCLK_FREQ_56MHz_HSI
 254:../User/system_ch32v30x.c ****     SetSysClockTo56_HSI();
 255:../User/system_ch32v30x.c **** #elif defined SYSCLK_FREQ_72MHz_HSI
 256:../User/system_ch32v30x.c ****     SetSysClockTo72_HSI();
 257:../User/system_ch32v30x.c **** #elif defined SYSCLK_FREQ_96MHz_HSI
 258:../User/system_ch32v30x.c ****     SetSysClockTo96_HSI();
 259:../User/system_ch32v30x.c **** #elif defined SYSCLK_FREQ_120MHz_HSI
 260:../User/system_ch32v30x.c ****     SetSysClockTo120_HSI();
 261:../User/system_ch32v30x.c **** #elif defined SYSCLK_FREQ_144MHz_HSI
 262:../User/system_ch32v30x.c ****     SetSysClockTo144_HSI();
 263:../User/system_ch32v30x.c **** 
 264:../User/system_ch32v30x.c **** #endif
 265:../User/system_ch32v30x.c ****  
 266:../User/system_ch32v30x.c ****  /* If none of the define above is enabled, the HSI is used as System clock
 267:../User/system_ch32v30x.c ****   * source (default after reset) 
 268:../User/system_ch32v30x.c ****     */
 269:../User/system_ch32v30x.c **** }
 270:../User/system_ch32v30x.c **** 
 271:../User/system_ch32v30x.c **** 
 272:../User/system_ch32v30x.c **** #ifdef SYSCLK_FREQ_HSE
 273:../User/system_ch32v30x.c **** 
 274:../User/system_ch32v30x.c **** /*********************************************************************
 275:../User/system_ch32v30x.c ****  * @fn      SetSysClockToHSE
 276:../User/system_ch32v30x.c ****  *
 277:../User/system_ch32v30x.c ****  * @brief   Sets HSE as System clock source and configure HCLK, PCLK2 and PCLK1 prescalers.
 278:../User/system_ch32v30x.c ****  *
 279:../User/system_ch32v30x.c ****  * @return  none
 280:../User/system_ch32v30x.c ****  */
 281:../User/system_ch32v30x.c **** static void SetSysClockToHSE(void)
 282:../User/system_ch32v30x.c **** {
 283:../User/system_ch32v30x.c ****   __IO uint32_t StartUpCounter = 0, HSEStatus = 0;
 284:../User/system_ch32v30x.c ****    
 285:../User/system_ch32v30x.c ****   RCC->CTLR |= ((uint32_t)RCC_HSEON);
 286:../User/system_ch32v30x.c ****  
 287:../User/system_ch32v30x.c ****   /* Wait till HSE is ready and if Time out is reached exit */
 288:../User/system_ch32v30x.c ****   do
 289:../User/system_ch32v30x.c ****   {
 290:../User/system_ch32v30x.c ****     HSEStatus = RCC->CTLR & RCC_HSERDY;
 291:../User/system_ch32v30x.c ****     StartUpCounter++;  
 292:../User/system_ch32v30x.c ****   } while((HSEStatus == 0) && (StartUpCounter != HSE_STARTUP_TIMEOUT));
 293:../User/system_ch32v30x.c **** 
 294:../User/system_ch32v30x.c ****   if ((RCC->CTLR & RCC_HSERDY) != RESET)
 295:../User/system_ch32v30x.c ****   {
 296:../User/system_ch32v30x.c ****     HSEStatus = (uint32_t)0x01;
 297:../User/system_ch32v30x.c ****   }
 298:../User/system_ch32v30x.c ****   else
 299:../User/system_ch32v30x.c ****   {
 300:../User/system_ch32v30x.c ****     HSEStatus = (uint32_t)0x00;
 301:../User/system_ch32v30x.c ****   }  
 302:../User/system_ch32v30x.c **** 
 303:../User/system_ch32v30x.c ****   if (HSEStatus == (uint32_t)0x01)
 304:../User/system_ch32v30x.c ****   {
 305:../User/system_ch32v30x.c ****     /* HCLK = SYSCLK */
 306:../User/system_ch32v30x.c ****     RCC->CFGR0 |= (uint32_t)RCC_HPRE_DIV1;      
 307:../User/system_ch32v30x.c ****     /* PCLK2 = HCLK */
 308:../User/system_ch32v30x.c ****     RCC->CFGR0 |= (uint32_t)RCC_PPRE2_DIV1;
 309:../User/system_ch32v30x.c ****     /* PCLK1 = HCLK */
 310:../User/system_ch32v30x.c ****     RCC->CFGR0 |= (uint32_t)RCC_PPRE1_DIV1;
 311:../User/system_ch32v30x.c ****     
 312:../User/system_ch32v30x.c ****     /* Select HSE as system clock source */
 313:../User/system_ch32v30x.c ****     RCC->CFGR0 &= (uint32_t)((uint32_t)~(RCC_SW));
 314:../User/system_ch32v30x.c ****     RCC->CFGR0 |= (uint32_t)RCC_SW_HSE;    
 315:../User/system_ch32v30x.c **** 
 316:../User/system_ch32v30x.c ****     /* Wait till HSE is used as system clock source */
 317:../User/system_ch32v30x.c ****     while ((RCC->CFGR0 & (uint32_t)RCC_SWS) != (uint32_t)0x04)
 318:../User/system_ch32v30x.c ****     {
 319:../User/system_ch32v30x.c ****     }
 320:../User/system_ch32v30x.c ****   }
 321:../User/system_ch32v30x.c ****   else
 322:../User/system_ch32v30x.c ****   { 
 323:../User/system_ch32v30x.c ****         /* If HSE fails to start-up, the application will have wrong clock
 324:../User/system_ch32v30x.c ****      * configuration. User can add here some code to deal with this error 
 325:../User/system_ch32v30x.c ****          */
 326:../User/system_ch32v30x.c ****   }  
 327:../User/system_ch32v30x.c **** }
 328:../User/system_ch32v30x.c **** 
 329:../User/system_ch32v30x.c **** #elif defined SYSCLK_FREQ_48MHz_HSE
 330:../User/system_ch32v30x.c **** 
 331:../User/system_ch32v30x.c **** /*********************************************************************
 332:../User/system_ch32v30x.c ****  * @fn      SetSysClockTo48_HSE
 333:../User/system_ch32v30x.c ****  *
 334:../User/system_ch32v30x.c ****  * @brief   Sets System clock frequency to 48MHz and configure HCLK, PCLK2 and PCLK1 prescalers.
 335:../User/system_ch32v30x.c ****  *
 336:../User/system_ch32v30x.c ****  * @return  none
 337:../User/system_ch32v30x.c ****  */
 338:../User/system_ch32v30x.c **** static void SetSysClockTo48_HSE(void)
 339:../User/system_ch32v30x.c **** {
 340:../User/system_ch32v30x.c ****   __IO uint32_t StartUpCounter = 0, HSEStatus = 0;
 341:../User/system_ch32v30x.c ****      
 342:../User/system_ch32v30x.c ****    
 343:../User/system_ch32v30x.c ****   RCC->CTLR |= ((uint32_t)RCC_HSEON);
 344:../User/system_ch32v30x.c ****   /* Wait till HSE is ready and if Time out is reached exit */
 345:../User/system_ch32v30x.c ****   do
 346:../User/system_ch32v30x.c ****   {
 347:../User/system_ch32v30x.c ****     HSEStatus = RCC->CTLR & RCC_HSERDY;
 348:../User/system_ch32v30x.c ****     StartUpCounter++;  
 349:../User/system_ch32v30x.c ****   } while((HSEStatus == 0) && (StartUpCounter != HSE_STARTUP_TIMEOUT));
 350:../User/system_ch32v30x.c **** 
 351:../User/system_ch32v30x.c ****   if ((RCC->CTLR & RCC_HSERDY) != RESET)
 352:../User/system_ch32v30x.c ****   {
 353:../User/system_ch32v30x.c ****     HSEStatus = (uint32_t)0x01;
 354:../User/system_ch32v30x.c ****   }
 355:../User/system_ch32v30x.c ****   else
 356:../User/system_ch32v30x.c ****   {
 357:../User/system_ch32v30x.c ****     HSEStatus = (uint32_t)0x00;
 358:../User/system_ch32v30x.c ****   }  
 359:../User/system_ch32v30x.c **** 
 360:../User/system_ch32v30x.c ****   if (HSEStatus == (uint32_t)0x01)
 361:../User/system_ch32v30x.c ****   {
 362:../User/system_ch32v30x.c ****     /* HCLK = SYSCLK */
 363:../User/system_ch32v30x.c ****     RCC->CFGR0 |= (uint32_t)RCC_HPRE_DIV1;    
 364:../User/system_ch32v30x.c ****     /* PCLK2 = HCLK */
 365:../User/system_ch32v30x.c ****     RCC->CFGR0 |= (uint32_t)RCC_PPRE2_DIV1;  
 366:../User/system_ch32v30x.c ****     /* PCLK1 = HCLK */
 367:../User/system_ch32v30x.c ****     RCC->CFGR0 |= (uint32_t)RCC_PPRE1_DIV2;
 368:../User/system_ch32v30x.c **** 
 369:../User/system_ch32v30x.c ****     /*  PLL configuration: PLLCLK = HSE * 6 = 48 MHz */
 370:../User/system_ch32v30x.c ****     RCC->CFGR0 &= (uint32_t)((uint32_t)~(RCC_PLLSRC | RCC_PLLXTPRE | RCC_PLLMULL));
 371:../User/system_ch32v30x.c **** 
 372:../User/system_ch32v30x.c **** #ifdef CH32V30x_D8
 373:../User/system_ch32v30x.c ****         RCC->CFGR0 |= (uint32_t)(RCC_PLLSRC_HSE | RCC_PLLXTPRE_HSE | RCC_PLLMULL6);
 374:../User/system_ch32v30x.c **** #else
 375:../User/system_ch32v30x.c ****         RCC->CFGR0 |= (uint32_t)(RCC_PLLSRC_HSE | RCC_PLLXTPRE_HSE | RCC_PLLMULL6_EXTEN);
 376:../User/system_ch32v30x.c **** #endif
 377:../User/system_ch32v30x.c **** 
 378:../User/system_ch32v30x.c ****     /* Enable PLL */
 379:../User/system_ch32v30x.c ****     RCC->CTLR |= RCC_PLLON;
 380:../User/system_ch32v30x.c ****     /* Wait till PLL is ready */
 381:../User/system_ch32v30x.c ****     while((RCC->CTLR & RCC_PLLRDY) == 0)
 382:../User/system_ch32v30x.c ****     {
 383:../User/system_ch32v30x.c ****     }
 384:../User/system_ch32v30x.c ****     /* Select PLL as system clock source */
 385:../User/system_ch32v30x.c ****     RCC->CFGR0 &= (uint32_t)((uint32_t)~(RCC_SW));
 386:../User/system_ch32v30x.c ****     RCC->CFGR0 |= (uint32_t)RCC_SW_PLL;    
 387:../User/system_ch32v30x.c ****     /* Wait till PLL is used as system clock source */
 388:../User/system_ch32v30x.c ****     while ((RCC->CFGR0 & (uint32_t)RCC_SWS) != (uint32_t)0x08)
 389:../User/system_ch32v30x.c ****     {
 390:../User/system_ch32v30x.c ****     }
 391:../User/system_ch32v30x.c ****   }
 392:../User/system_ch32v30x.c ****   else
 393:../User/system_ch32v30x.c ****   { 
 394:../User/system_ch32v30x.c ****         /*
 395:../User/system_ch32v30x.c ****          * If HSE fails to start-up, the application will have wrong clock
 396:../User/system_ch32v30x.c ****      * configuration. User can add here some code to deal with this error 
 397:../User/system_ch32v30x.c ****          */
 398:../User/system_ch32v30x.c ****   } 
 399:../User/system_ch32v30x.c **** }
 400:../User/system_ch32v30x.c **** 
 401:../User/system_ch32v30x.c **** #elif defined SYSCLK_FREQ_56MHz_HSE
 402:../User/system_ch32v30x.c **** 
 403:../User/system_ch32v30x.c **** /*********************************************************************
 404:../User/system_ch32v30x.c ****  * @fn      SetSysClockTo56_HSE
 405:../User/system_ch32v30x.c ****  *
 406:../User/system_ch32v30x.c ****  * @brief   Sets System clock frequency to 56MHz and configure HCLK, PCLK2 and PCLK1 prescalers.
 407:../User/system_ch32v30x.c ****  *
 408:../User/system_ch32v30x.c ****  * @return  none
 409:../User/system_ch32v30x.c ****  */
 410:../User/system_ch32v30x.c **** static void SetSysClockTo56_HSE(void)
 411:../User/system_ch32v30x.c **** {
 412:../User/system_ch32v30x.c ****   __IO uint32_t StartUpCounter = 0, HSEStatus = 0;
 413:../User/system_ch32v30x.c ****      
 414:../User/system_ch32v30x.c ****   RCC->CTLR |= ((uint32_t)RCC_HSEON);
 415:../User/system_ch32v30x.c **** 
 416:../User/system_ch32v30x.c ****   /* Wait till HSE is ready and if Time out is reached exit */
 417:../User/system_ch32v30x.c ****   do
 418:../User/system_ch32v30x.c ****   {
 419:../User/system_ch32v30x.c ****     HSEStatus = RCC->CTLR & RCC_HSERDY;
 420:../User/system_ch32v30x.c ****     StartUpCounter++;  
 421:../User/system_ch32v30x.c ****   } while((HSEStatus == 0) && (StartUpCounter != HSE_STARTUP_TIMEOUT));
 422:../User/system_ch32v30x.c **** 
 423:../User/system_ch32v30x.c ****   if ((RCC->CTLR & RCC_HSERDY) != RESET)
 424:../User/system_ch32v30x.c ****   {
 425:../User/system_ch32v30x.c ****     HSEStatus = (uint32_t)0x01;
 426:../User/system_ch32v30x.c ****   }
 427:../User/system_ch32v30x.c ****   else
 428:../User/system_ch32v30x.c ****   {
 429:../User/system_ch32v30x.c ****     HSEStatus = (uint32_t)0x00;
 430:../User/system_ch32v30x.c ****   }  
 431:../User/system_ch32v30x.c **** 
 432:../User/system_ch32v30x.c ****   if (HSEStatus == (uint32_t)0x01)
 433:../User/system_ch32v30x.c ****   {
 434:../User/system_ch32v30x.c ****     /* HCLK = SYSCLK */
 435:../User/system_ch32v30x.c ****     RCC->CFGR0 |= (uint32_t)RCC_HPRE_DIV1;   
 436:../User/system_ch32v30x.c ****     /* PCLK2 = HCLK */
 437:../User/system_ch32v30x.c ****     RCC->CFGR0 |= (uint32_t)RCC_PPRE2_DIV1;
 438:../User/system_ch32v30x.c ****     /* PCLK1 = HCLK */
 439:../User/system_ch32v30x.c ****     RCC->CFGR0 |= (uint32_t)RCC_PPRE1_DIV2;
 440:../User/system_ch32v30x.c ****   
 441:../User/system_ch32v30x.c ****     /* PLL configuration: PLLCLK = HSE * 7 = 56 MHz */
 442:../User/system_ch32v30x.c ****     RCC->CFGR0 &= (uint32_t)((uint32_t)~(RCC_PLLSRC | RCC_PLLXTPRE | RCC_PLLMULL));
 443:../User/system_ch32v30x.c **** 
 444:../User/system_ch32v30x.c **** #ifdef CH32V30x_D8
 445:../User/system_ch32v30x.c ****         RCC->CFGR0 |= (uint32_t)(RCC_PLLSRC_HSE | RCC_PLLXTPRE_HSE | RCC_PLLMULL7);
 446:../User/system_ch32v30x.c **** #else
 447:../User/system_ch32v30x.c ****         RCC->CFGR0 |= (uint32_t)(RCC_PLLSRC_HSE | RCC_PLLXTPRE_HSE | RCC_PLLMULL7_EXTEN);
 448:../User/system_ch32v30x.c **** #endif
 449:../User/system_ch32v30x.c **** 
 450:../User/system_ch32v30x.c ****     /* Enable PLL */
 451:../User/system_ch32v30x.c ****     RCC->CTLR |= RCC_PLLON;
 452:../User/system_ch32v30x.c ****     /* Wait till PLL is ready */
 453:../User/system_ch32v30x.c ****     while((RCC->CTLR & RCC_PLLRDY) == 0)
 454:../User/system_ch32v30x.c ****     {
 455:../User/system_ch32v30x.c ****     }
 456:../User/system_ch32v30x.c **** 
 457:../User/system_ch32v30x.c ****     /* Select PLL as system clock source */
 458:../User/system_ch32v30x.c ****     RCC->CFGR0 &= (uint32_t)((uint32_t)~(RCC_SW));
 459:../User/system_ch32v30x.c ****     RCC->CFGR0 |= (uint32_t)RCC_SW_PLL;    
 460:../User/system_ch32v30x.c ****     /* Wait till PLL is used as system clock source */
 461:../User/system_ch32v30x.c ****     while ((RCC->CFGR0 & (uint32_t)RCC_SWS) != (uint32_t)0x08)
 462:../User/system_ch32v30x.c ****     {
 463:../User/system_ch32v30x.c ****     }
 464:../User/system_ch32v30x.c ****   }
 465:../User/system_ch32v30x.c ****   else
 466:../User/system_ch32v30x.c ****   { 
 467:../User/system_ch32v30x.c ****         /*
 468:../User/system_ch32v30x.c ****          * If HSE fails to start-up, the application will have wrong clock
 469:../User/system_ch32v30x.c ****      * configuration. User can add here some code to deal with this error 
 470:../User/system_ch32v30x.c ****          */
 471:../User/system_ch32v30x.c ****   } 
 472:../User/system_ch32v30x.c **** }
 473:../User/system_ch32v30x.c **** 
 474:../User/system_ch32v30x.c **** #elif defined SYSCLK_FREQ_72MHz_HSE
 475:../User/system_ch32v30x.c **** 
 476:../User/system_ch32v30x.c **** /*********************************************************************
 477:../User/system_ch32v30x.c ****  * @fn      SetSysClockTo72_HSE
 478:../User/system_ch32v30x.c ****  *
 479:../User/system_ch32v30x.c ****  * @brief   Sets System clock frequency to 72MHz and configure HCLK, PCLK2 and PCLK1 prescalers.
 480:../User/system_ch32v30x.c ****  *
 481:../User/system_ch32v30x.c ****  * @return  none
 482:../User/system_ch32v30x.c ****  */
 483:../User/system_ch32v30x.c **** static void SetSysClockTo72_HSE(void)
 484:../User/system_ch32v30x.c **** {
 485:../User/system_ch32v30x.c ****   __IO uint32_t StartUpCounter = 0, HSEStatus = 0;
 486:../User/system_ch32v30x.c ****      
 487:../User/system_ch32v30x.c ****   RCC->CTLR |= ((uint32_t)RCC_HSEON);
 488:../User/system_ch32v30x.c ****  
 489:../User/system_ch32v30x.c ****   /* Wait till HSE is ready and if Time out is reached exit */
 490:../User/system_ch32v30x.c ****   do
 491:../User/system_ch32v30x.c ****   {
 492:../User/system_ch32v30x.c ****     HSEStatus = RCC->CTLR & RCC_HSERDY;
 493:../User/system_ch32v30x.c ****     StartUpCounter++;  
 494:../User/system_ch32v30x.c ****   } while((HSEStatus == 0) && (StartUpCounter != HSE_STARTUP_TIMEOUT));
 495:../User/system_ch32v30x.c **** 
 496:../User/system_ch32v30x.c ****   if ((RCC->CTLR & RCC_HSERDY) != RESET)
 497:../User/system_ch32v30x.c ****   {
 498:../User/system_ch32v30x.c ****     HSEStatus = (uint32_t)0x01;
 499:../User/system_ch32v30x.c ****   }
 500:../User/system_ch32v30x.c ****   else
 501:../User/system_ch32v30x.c ****   {
 502:../User/system_ch32v30x.c ****     HSEStatus = (uint32_t)0x00;
 503:../User/system_ch32v30x.c ****   }  
 504:../User/system_ch32v30x.c **** 
 505:../User/system_ch32v30x.c ****   if (HSEStatus == (uint32_t)0x01)
 506:../User/system_ch32v30x.c ****   {
 507:../User/system_ch32v30x.c ****     /* HCLK = SYSCLK */
 508:../User/system_ch32v30x.c ****     RCC->CFGR0 |= (uint32_t)RCC_HPRE_DIV1; 
 509:../User/system_ch32v30x.c ****     /* PCLK2 = HCLK */
 510:../User/system_ch32v30x.c ****     RCC->CFGR0 |= (uint32_t)RCC_PPRE2_DIV1; 
 511:../User/system_ch32v30x.c ****     /* PCLK1 = HCLK */
 512:../User/system_ch32v30x.c ****     RCC->CFGR0 |= (uint32_t)RCC_PPRE1_DIV2;
 513:../User/system_ch32v30x.c ****  
 514:../User/system_ch32v30x.c ****     /* PLL configuration: PLLCLK = HSE * 9 = 72 MHz */
 515:../User/system_ch32v30x.c ****     RCC->CFGR0 &= (uint32_t)((uint32_t)~(RCC_PLLSRC | RCC_PLLXTPRE |
 516:../User/system_ch32v30x.c ****                                         RCC_PLLMULL));
 517:../User/system_ch32v30x.c **** 
 518:../User/system_ch32v30x.c **** #ifdef CH32V30x_D8
 519:../User/system_ch32v30x.c ****         RCC->CFGR0 |= (uint32_t)(RCC_PLLSRC_HSE | RCC_PLLXTPRE_HSE | RCC_PLLMULL9);
 520:../User/system_ch32v30x.c **** #else
 521:../User/system_ch32v30x.c ****         RCC->CFGR0 |= (uint32_t)(RCC_PLLSRC_HSE | RCC_PLLXTPRE_HSE | RCC_PLLMULL9_EXTEN);
 522:../User/system_ch32v30x.c **** #endif
 523:../User/system_ch32v30x.c **** 
 524:../User/system_ch32v30x.c ****     /* Enable PLL */
 525:../User/system_ch32v30x.c ****     RCC->CTLR |= RCC_PLLON;
 526:../User/system_ch32v30x.c ****     /* Wait till PLL is ready */
 527:../User/system_ch32v30x.c ****     while((RCC->CTLR & RCC_PLLRDY) == 0)
 528:../User/system_ch32v30x.c ****     {
 529:../User/system_ch32v30x.c ****     }    
 530:../User/system_ch32v30x.c ****     /* Select PLL as system clock source */
 531:../User/system_ch32v30x.c ****     RCC->CFGR0 &= (uint32_t)((uint32_t)~(RCC_SW));
 532:../User/system_ch32v30x.c ****     RCC->CFGR0 |= (uint32_t)RCC_SW_PLL;    
 533:../User/system_ch32v30x.c ****     /* Wait till PLL is used as system clock source */
 534:../User/system_ch32v30x.c ****     while ((RCC->CFGR0 & (uint32_t)RCC_SWS) != (uint32_t)0x08)
 535:../User/system_ch32v30x.c ****     {
 536:../User/system_ch32v30x.c ****     }
 537:../User/system_ch32v30x.c ****   }
 538:../User/system_ch32v30x.c ****   else
 539:../User/system_ch32v30x.c ****   { 
 540:../User/system_ch32v30x.c ****         /*
 541:../User/system_ch32v30x.c ****          * If HSE fails to start-up, the application will have wrong clock
 542:../User/system_ch32v30x.c ****      * configuration. User can add here some code to deal with this error 
 543:../User/system_ch32v30x.c ****          */
 544:../User/system_ch32v30x.c ****   }
 545:../User/system_ch32v30x.c **** }
 546:../User/system_ch32v30x.c **** 
 547:../User/system_ch32v30x.c **** 
 548:../User/system_ch32v30x.c **** #elif defined SYSCLK_FREQ_96MHz_HSE
 549:../User/system_ch32v30x.c **** 
 550:../User/system_ch32v30x.c **** /*********************************************************************
 551:../User/system_ch32v30x.c ****  * @fn      SetSysClockTo96_HSE
 552:../User/system_ch32v30x.c ****  *
 553:../User/system_ch32v30x.c ****  * @brief   Sets System clock frequency to 96MHz and configure HCLK, PCLK2 and PCLK1 prescalers.
 554:../User/system_ch32v30x.c ****  *
 555:../User/system_ch32v30x.c ****  * @return  none
 556:../User/system_ch32v30x.c ****  */
 557:../User/system_ch32v30x.c **** static void SetSysClockTo96_HSE(void)
 558:../User/system_ch32v30x.c **** {
 559:../User/system_ch32v30x.c ****   __IO uint32_t StartUpCounter = 0, HSEStatus = 0;
 560:../User/system_ch32v30x.c **** 
 561:../User/system_ch32v30x.c ****   RCC->CTLR |= ((uint32_t)RCC_HSEON);
 562:../User/system_ch32v30x.c **** 
 563:../User/system_ch32v30x.c ****   /* Wait till HSE is ready and if Time out is reached exit */
 564:../User/system_ch32v30x.c ****   do
 565:../User/system_ch32v30x.c ****   {
 566:../User/system_ch32v30x.c ****     HSEStatus = RCC->CTLR & RCC_HSERDY;
  37              		.loc 1 566 27
  38 0014 37060200 		li	a2,131072
  39              	.LBE10:
  40              	.LBE9:
  41              	.LBE8:
 115:../User/system_ch32v30x.c **** 
  42              		.loc 1 115 14
  43 0018 758F     		and	a4,a4,a3
  44 001a D8C3     		sw	a4,4(a5)
 117:../User/system_ch32v30x.c ****   RCC->CTLR &= (uint32_t)0xFFFBFFFF;
  45              		.loc 1 117 3 is_stmt 1
 117:../User/system_ch32v30x.c ****   RCC->CTLR &= (uint32_t)0xFFFBFFFF;
  46              		.loc 1 117 6 is_stmt 0
  47 001c 9843     		lw	a4,0(a5)
 117:../User/system_ch32v30x.c ****   RCC->CTLR &= (uint32_t)0xFFFBFFFF;
  48              		.loc 1 117 13
  49 001e B706F7FE 		li	a3,-17367040
  50 0022 FD16     		addi	a3,a3,-1
  51 0024 758F     		and	a4,a4,a3
  52 0026 98C3     		sw	a4,0(a5)
 118:../User/system_ch32v30x.c ****   RCC->CFGR0 &= (uint32_t)0xFF00FFFF;
  53              		.loc 1 118 3 is_stmt 1
 118:../User/system_ch32v30x.c ****   RCC->CFGR0 &= (uint32_t)0xFF00FFFF;
  54              		.loc 1 118 6 is_stmt 0
  55 0028 9843     		lw	a4,0(a5)
 118:../User/system_ch32v30x.c ****   RCC->CFGR0 &= (uint32_t)0xFF00FFFF;
  56              		.loc 1 118 13
  57 002a B706FCFF 		li	a3,-262144
  58 002e FD16     		addi	a3,a3,-1
  59 0030 758F     		and	a4,a4,a3
  60 0032 98C3     		sw	a4,0(a5)
 119:../User/system_ch32v30x.c **** 
  61              		.loc 1 119 3 is_stmt 1
 119:../User/system_ch32v30x.c **** 
  62              		.loc 1 119 6 is_stmt 0
  63 0034 D843     		lw	a4,4(a5)
 119:../User/system_ch32v30x.c **** 
  64              		.loc 1 119 14
  65 0036 B70601FF 		li	a3,-16711680
  66 003a FD16     		addi	a3,a3,-1
  67 003c 758F     		and	a4,a4,a3
  68 003e D8C3     		sw	a4,4(a5)
 122:../User/system_ch32v30x.c ****   RCC->INTR = 0x00FF0000;
  69              		.loc 1 122 3 is_stmt 1
 122:../User/system_ch32v30x.c ****   RCC->INTR = 0x00FF0000;
  70              		.loc 1 122 6 is_stmt 0
  71 0040 9843     		lw	a4,0(a5)
 122:../User/system_ch32v30x.c ****   RCC->INTR = 0x00FF0000;
  72              		.loc 1 122 13
  73 0042 B70600EC 		li	a3,-335544320
  74 0046 FD16     		addi	a3,a3,-1
  75 0048 758F     		and	a4,a4,a3
  76 004a 98C3     		sw	a4,0(a5)
 123:../User/system_ch32v30x.c ****   RCC->CFGR2 = 0x00000000;
  77              		.loc 1 123 3 is_stmt 1
 123:../User/system_ch32v30x.c ****   RCC->CFGR2 = 0x00000000;
  78              		.loc 1 123 13 is_stmt 0
  79 004c 3707FF00 		li	a4,16711680
  80 0050 98C7     		sw	a4,8(a5)
 124:../User/system_ch32v30x.c **** #else
  81              		.loc 1 124 3 is_stmt 1
 124:../User/system_ch32v30x.c **** #else
  82              		.loc 1 124 14 is_stmt 0
  83 0052 23A60702 		sw	zero,44(a5)
 128:../User/system_ch32v30x.c **** }
  84              		.loc 1 128 3 is_stmt 1
  85              	.LBB15:
 246:../User/system_ch32v30x.c **** #elif defined SYSCLK_FREQ_120MHz_HSE
  86              		.loc 1 246 5
  87              	.LBB13:
  88              	.LBB11:
 559:../User/system_ch32v30x.c **** 
  89              		.loc 1 559 3
 559:../User/system_ch32v30x.c **** 
  90              		.loc 1 559 17 is_stmt 0
  91 0056 02C4     		sw	zero,8(sp)
 559:../User/system_ch32v30x.c **** 
  92              		.loc 1 559 37
  93 0058 02C6     		sw	zero,12(sp)
 561:../User/system_ch32v30x.c **** 
  94              		.loc 1 561 3 is_stmt 1
 561:../User/system_ch32v30x.c **** 
  95              		.loc 1 561 6 is_stmt 0
  96 005a 9843     		lw	a4,0(a5)
 561:../User/system_ch32v30x.c **** 
  97              		.loc 1 561 13
  98 005c C166     		li	a3,65536
  99 005e 558F     		or	a4,a4,a3
 100 0060 98C3     		sw	a4,0(a5)
 101              		.loc 1 566 20
 102 0062 B7160240 		li	a3,1073876992
 567:../User/system_ch32v30x.c ****     StartUpCounter++;
 568:../User/system_ch32v30x.c ****   } while((HSEStatus == 0) && (StartUpCounter != HSE_STARTUP_TIMEOUT));
 103              		.loc 1 568 28
 104 0066 0567     		li	a4,4096
 105              	.L3:
 564:../User/system_ch32v30x.c ****   {
 106              		.loc 1 564 3 is_stmt 1
 566:../User/system_ch32v30x.c ****     StartUpCounter++;
 107              		.loc 1 566 5
 566:../User/system_ch32v30x.c ****     StartUpCounter++;
 108              		.loc 1 566 20 is_stmt 0
 109 0068 9C42     		lw	a5,0(a3)
 566:../User/system_ch32v30x.c ****     StartUpCounter++;
 110              		.loc 1 566 27
 111 006a F18F     		and	a5,a5,a2
 566:../User/system_ch32v30x.c ****     StartUpCounter++;
 112              		.loc 1 566 15
 113 006c 3EC6     		sw	a5,12(sp)
 567:../User/system_ch32v30x.c ****     StartUpCounter++;
 114              		.loc 1 567 5 is_stmt 1
 567:../User/system_ch32v30x.c ****     StartUpCounter++;
 115              		.loc 1 567 19 is_stmt 0
 116 006e A247     		lw	a5,8(sp)
 117 0070 8507     		addi	a5,a5,1
 118 0072 3EC4     		sw	a5,8(sp)
 119              		.loc 1 568 28 is_stmt 1
 120              		.loc 1 568 22 is_stmt 0
 121 0074 B247     		lw	a5,12(sp)
 122              		.loc 1 568 28
 123 0076 81E7     		bne	a5,zero,.L2
 124              		.loc 1 568 47
 125 0078 A247     		lw	a5,8(sp)
 126              		.loc 1 568 28
 127 007a E397E7FE 		bne	a5,a4,.L3
 128              	.L2:
 569:../User/system_ch32v30x.c **** 
 570:../User/system_ch32v30x.c ****   if ((RCC->CTLR & RCC_HSERDY) != RESET)
 129              		.loc 1 570 3 is_stmt 1
 130              		.loc 1 570 11 is_stmt 0
 131 007e B7170240 		li	a5,1073876992
 132 0082 9C43     		lw	a5,0(a5)
 133              		.loc 1 570 18
 134 0084 37070200 		li	a4,131072
 135 0088 F98F     		and	a5,a5,a4
 136              		.loc 1 570 6
 137 008a B5C7     		beq	a5,zero,.L4
 571:../User/system_ch32v30x.c ****   {
 572:../User/system_ch32v30x.c ****     HSEStatus = (uint32_t)0x01;
 138              		.loc 1 572 5 is_stmt 1
 139              		.loc 1 572 15 is_stmt 0
 140 008c 8547     		li	a5,1
 141 008e 3EC6     		sw	a5,12(sp)
 142              	.L5:
 573:../User/system_ch32v30x.c ****   }
 574:../User/system_ch32v30x.c ****   else
 575:../User/system_ch32v30x.c ****   {
 576:../User/system_ch32v30x.c ****     HSEStatus = (uint32_t)0x00;
 577:../User/system_ch32v30x.c ****   }
 578:../User/system_ch32v30x.c **** 
 579:../User/system_ch32v30x.c ****   if (HSEStatus == (uint32_t)0x01)
 143              		.loc 1 579 3 is_stmt 1
 144              		.loc 1 579 17 is_stmt 0
 145 0090 3247     		lw	a4,12(sp)
 146              		.loc 1 579 6
 147 0092 8547     		li	a5,1
 148 0094 631FF704 		bne	a4,a5,.L1
 580:../User/system_ch32v30x.c ****   {
 581:../User/system_ch32v30x.c ****     /* HCLK = SYSCLK */
 582:../User/system_ch32v30x.c ****     RCC->CFGR0 |= (uint32_t)RCC_HPRE_DIV1;
 149              		.loc 1 582 5 is_stmt 1
 150              		.loc 1 582 8 is_stmt 0
 151 0098 B7170240 		li	a5,1073876992
 152 009c D843     		lw	a4,4(a5)
 583:../User/system_ch32v30x.c ****     /* PCLK2 = HCLK */
 584:../User/system_ch32v30x.c ****     RCC->CFGR0 |= (uint32_t)RCC_PPRE2_DIV1;
 585:../User/system_ch32v30x.c ****     /* PCLK1 = HCLK */
 586:../User/system_ch32v30x.c ****     RCC->CFGR0 |= (uint32_t)RCC_PPRE1_DIV2;
 587:../User/system_ch32v30x.c **** 
 588:../User/system_ch32v30x.c ****     /*  PLL configuration: PLLCLK = HSE * 12 = 96 MHz */
 589:../User/system_ch32v30x.c ****     RCC->CFGR0 &= (uint32_t)((uint32_t)~(RCC_PLLSRC | RCC_PLLXTPRE |
 153              		.loc 1 589 16
 154 009e B706C1FF 		li	a3,-4128768
 155 00a2 FD16     		addi	a3,a3,-1
 582:../User/system_ch32v30x.c ****     /* PCLK2 = HCLK */
 156              		.loc 1 582 16
 157 00a4 D8C3     		sw	a4,4(a5)
 584:../User/system_ch32v30x.c ****     /* PCLK1 = HCLK */
 158              		.loc 1 584 5 is_stmt 1
 584:../User/system_ch32v30x.c ****     /* PCLK1 = HCLK */
 159              		.loc 1 584 8 is_stmt 0
 160 00a6 D843     		lw	a4,4(a5)
 584:../User/system_ch32v30x.c ****     /* PCLK1 = HCLK */
 161              		.loc 1 584 16
 162 00a8 D8C3     		sw	a4,4(a5)
 586:../User/system_ch32v30x.c **** 
 163              		.loc 1 586 5 is_stmt 1
 586:../User/system_ch32v30x.c **** 
 164              		.loc 1 586 8 is_stmt 0
 165 00aa D843     		lw	a4,4(a5)
 586:../User/system_ch32v30x.c **** 
 166              		.loc 1 586 16
 167 00ac 13670740 		ori	a4,a4,1024
 168 00b0 D8C3     		sw	a4,4(a5)
 169              		.loc 1 589 5 is_stmt 1
 170              		.loc 1 589 8 is_stmt 0
 171 00b2 D843     		lw	a4,4(a5)
 172              		.loc 1 589 16
 173 00b4 758F     		and	a4,a4,a3
 174 00b6 D8C3     		sw	a4,4(a5)
 590:../User/system_ch32v30x.c ****                                         RCC_PLLMULL));
 591:../User/system_ch32v30x.c **** 
 592:../User/system_ch32v30x.c **** #ifdef CH32V30x_D8
 593:../User/system_ch32v30x.c ****         RCC->CFGR0 |= (uint32_t)(RCC_PLLSRC_HSE | RCC_PLLXTPRE_HSE | RCC_PLLMULL12);
 594:../User/system_ch32v30x.c **** #else
 595:../User/system_ch32v30x.c ****         RCC->CFGR0 |= (uint32_t)(RCC_PLLSRC_HSE | RCC_PLLXTPRE_HSE | RCC_PLLMULL12_EXTEN);
 175              		.loc 1 595 9 is_stmt 1
 176              		.loc 1 595 12 is_stmt 0
 177 00b8 D843     		lw	a4,4(a5)
 178              		.loc 1 595 20
 179 00ba B7062900 		li	a3,2686976
 180 00be 558F     		or	a4,a4,a3
 181 00c0 D8C3     		sw	a4,4(a5)
 596:../User/system_ch32v30x.c **** #endif
 597:../User/system_ch32v30x.c **** 
 598:../User/system_ch32v30x.c ****     /* Enable PLL */
 599:../User/system_ch32v30x.c ****     RCC->CTLR |= RCC_PLLON;
 182              		.loc 1 599 5 is_stmt 1
 183              		.loc 1 599 8 is_stmt 0
 184 00c2 9843     		lw	a4,0(a5)
 185              		.loc 1 599 15
 186 00c4 B7060001 		li	a3,16777216
 187 00c8 558F     		or	a4,a4,a3
 188 00ca 98C3     		sw	a4,0(a5)
 600:../User/system_ch32v30x.c ****     /* Wait till PLL is ready */
 601:../User/system_ch32v30x.c ****     while((RCC->CTLR & RCC_PLLRDY) == 0)
 189              		.loc 1 601 5 is_stmt 1
 190              		.loc 1 601 22 is_stmt 0
 191 00cc B7060002 		li	a3,33554432
 192              	.L7:
 602:../User/system_ch32v30x.c ****     {
 603:../User/system_ch32v30x.c ****     }
 193              		.loc 1 603 5 is_stmt 1
 601:../User/system_ch32v30x.c ****     {
 194              		.loc 1 601 36
 601:../User/system_ch32v30x.c ****     {
 195              		.loc 1 601 15 is_stmt 0
 196 00d0 9843     		lw	a4,0(a5)
 601:../User/system_ch32v30x.c ****     {
 197              		.loc 1 601 22
 198 00d2 758F     		and	a4,a4,a3
 601:../User/system_ch32v30x.c ****     {
 199              		.loc 1 601 36
 200 00d4 75DF     		beq	a4,zero,.L7
 604:../User/system_ch32v30x.c ****     /* Select PLL as system clock source */
 605:../User/system_ch32v30x.c ****     RCC->CFGR0 &= (uint32_t)((uint32_t)~(RCC_SW));
 201              		.loc 1 605 5 is_stmt 1
 202              		.loc 1 605 8 is_stmt 0
 203 00d6 D843     		lw	a4,4(a5)
 606:../User/system_ch32v30x.c ****     RCC->CFGR0 |= (uint32_t)RCC_SW_PLL;
 607:../User/system_ch32v30x.c ****     /* Wait till PLL is used as system clock source */
 608:../User/system_ch32v30x.c ****     while ((RCC->CFGR0 & (uint32_t)RCC_SWS) != (uint32_t)0x08)
 204              		.loc 1 608 16
 205 00d8 B7160240 		li	a3,1073876992
 605:../User/system_ch32v30x.c ****     RCC->CFGR0 |= (uint32_t)RCC_SW_PLL;
 206              		.loc 1 605 16
 207 00dc 719B     		andi	a4,a4,-4
 208 00de D8C3     		sw	a4,4(a5)
 606:../User/system_ch32v30x.c ****     RCC->CFGR0 |= (uint32_t)RCC_SW_PLL;
 209              		.loc 1 606 5 is_stmt 1
 606:../User/system_ch32v30x.c ****     RCC->CFGR0 |= (uint32_t)RCC_SW_PLL;
 210              		.loc 1 606 8 is_stmt 0
 211 00e0 D843     		lw	a4,4(a5)
 606:../User/system_ch32v30x.c ****     RCC->CFGR0 |= (uint32_t)RCC_SW_PLL;
 212              		.loc 1 606 16
 213 00e2 13672700 		ori	a4,a4,2
 214 00e6 D8C3     		sw	a4,4(a5)
 215              		.loc 1 608 5 is_stmt 1
 216              		.loc 1 608 45 is_stmt 0
 217 00e8 2147     		li	a4,8
 218              	.L8:
 609:../User/system_ch32v30x.c ****     {
 610:../User/system_ch32v30x.c ****     }
 219              		.loc 1 610 5 is_stmt 1
 608:../User/system_ch32v30x.c ****     {
 220              		.loc 1 608 45
 608:../User/system_ch32v30x.c ****     {
 221              		.loc 1 608 16 is_stmt 0
 222 00ea DC42     		lw	a5,4(a3)
 608:../User/system_ch32v30x.c ****     {
 223              		.loc 1 608 24
 224 00ec B18B     		andi	a5,a5,12
 608:../User/system_ch32v30x.c ****     {
 225              		.loc 1 608 45
 226 00ee E39EE7FE 		bne	a5,a4,.L8
 227              	.L1:
 228              	.LBE11:
 229              	.LBE13:
 230              	.LBE15:
 129:../User/system_ch32v30x.c **** 
 231              		.loc 1 129 1
 232 00f2 4101     		addi	sp,sp,16
 233              		.cfi_remember_state
 234              		.cfi_def_cfa_offset 0
 235 00f4 8280     		jr	ra
 236              	.L4:
 237              		.cfi_restore_state
 238              	.LBB16:
 239              	.LBB14:
 240              	.LBB12:
 576:../User/system_ch32v30x.c ****   }
 241              		.loc 1 576 5 is_stmt 1
 576:../User/system_ch32v30x.c ****   }
 242              		.loc 1 576 15 is_stmt 0
 243 00f6 02C6     		sw	zero,12(sp)
 244 00f8 61BF     		j	.L5
 245              	.LBE12:
 246              	.LBE14:
 247              	.LBE16:
 248              		.cfi_endproc
 249              	.LFE29:
 251              		.section	.text.SystemCoreClockUpdate,"ax",@progbits
 252              		.align	1
 253              		.globl	SystemCoreClockUpdate
 255              	SystemCoreClockUpdate:
 256              	.LFB30:
 139:../User/system_ch32v30x.c ****   uint32_t tmp = 0, pllmull = 0, pllsource = 0;
 257              		.loc 1 139 1 is_stmt 1
 258              		.cfi_startproc
 140:../User/system_ch32v30x.c ****   uint8_t Pll_6_5 = 0;
 259              		.loc 1 140 3
 260              	.LVL0:
 141:../User/system_ch32v30x.c **** 
 261              		.loc 1 141 3
 144:../User/system_ch32v30x.c **** 
 262              		.loc 1 144 3
 148:../User/system_ch32v30x.c ****   
 263              		.loc 1 148 3
 148:../User/system_ch32v30x.c ****   
 264              		.loc 1 148 12 is_stmt 0
 265 0000 37170240 		li	a4,1073876992
 266 0004 5C43     		lw	a5,4(a4)
 267              	.LVL1:
 150:../User/system_ch32v30x.c ****   {
 268              		.loc 1 150 3 is_stmt 1
 269 0006 A146     		li	a3,8
 270 0008 17060000 		lla	a2,SystemCoreClock
 270      13060600 
 148:../User/system_ch32v30x.c ****   
 271              		.loc 1 148 7 is_stmt 0
 272 0010 B18B     		andi	a5,a5,12
 273              	.LVL2:
 150:../User/system_ch32v30x.c ****   {
 274              		.loc 1 150 3
 275 0012 6387D702 		beq	a5,a3,.L15
 153:../User/system_ch32v30x.c ****       break;
 276              		.loc 1 153 7 is_stmt 1
 153:../User/system_ch32v30x.c ****       break;
 277              		.loc 1 153 23 is_stmt 0
 278 0016 B7177A00 		li	a5,7999488
 279              	.LVL3:
 280 001a 93870720 		addi	a5,a5,512
 281 001e 1CC2     		sw	a5,0(a2)
 154:../User/system_ch32v30x.c ****     case 0x04:  
 282              		.loc 1 154 7 is_stmt 1
 283              	.LVL4:
 284              	.L16:
 223:../User/system_ch32v30x.c ****   SystemCoreClock >>= tmp;  
 285              		.loc 1 223 3
 223:../User/system_ch32v30x.c ****   SystemCoreClock >>= tmp;  
 286              		.loc 1 223 28 is_stmt 0
 287 0020 B7170240 		li	a5,1073876992
 288 0024 DC43     		lw	a5,4(a5)
 223:../User/system_ch32v30x.c ****   SystemCoreClock >>= tmp;  
 289              		.loc 1 223 22
 290 0026 17070000 		lla	a4,AHBPrescTable
 290      13070700 
 223:../User/system_ch32v30x.c ****   SystemCoreClock >>= tmp;  
 291              		.loc 1 223 48
 292 002e 9183     		srli	a5,a5,4
 293 0030 BD8B     		andi	a5,a5,15
 223:../User/system_ch32v30x.c ****   SystemCoreClock >>= tmp;  
 294              		.loc 1 223 22
 295 0032 BA97     		add	a5,a4,a5
 296 0034 9823     		lbu	a4,0(a5)
 297              	.LVL5:
 224:../User/system_ch32v30x.c **** }
 298              		.loc 1 224 3 is_stmt 1
 224:../User/system_ch32v30x.c **** }
 299              		.loc 1 224 19 is_stmt 0
 300 0036 1C42     		lw	a5,0(a2)
 301 0038 B3D7E700 		srl	a5,a5,a4
 302 003c 1CC2     		sw	a5,0(a2)
 225:../User/system_ch32v30x.c **** 
 303              		.loc 1 225 1
 304 003e 8280     		ret
 305              	.LVL6:
 306              	.L15:
 159:../User/system_ch32v30x.c ****       pllsource = RCC->CFGR0 & RCC_PLLSRC; 
 307              		.loc 1 159 7 is_stmt 1
 159:../User/system_ch32v30x.c ****       pllsource = RCC->CFGR0 & RCC_PLLSRC; 
 308              		.loc 1 159 20 is_stmt 0
 309 0040 5C43     		lw	a5,4(a4)
 310              	.LVL7:
 160:../User/system_ch32v30x.c ****       pllmull = ( pllmull >> 18) + 2;
 311              		.loc 1 160 7 is_stmt 1
 160:../User/system_ch32v30x.c ****       pllmull = ( pllmull >> 18) + 2;
 312              		.loc 1 160 22 is_stmt 0
 313 0042 5443     		lw	a3,4(a4)
 160:../User/system_ch32v30x.c ****       pllmull = ( pllmull >> 18) + 2;
 314              		.loc 1 160 17
 315 0044 4167     		li	a4,65536
 161:../User/system_ch32v30x.c **** 
 316              		.loc 1 161 27
 317 0046 C983     		srli	a5,a5,18
 318              	.LVL8:
 319 0048 BD8B     		andi	a5,a5,15
 160:../User/system_ch32v30x.c ****       pllmull = ( pllmull >> 18) + 2;
 320              		.loc 1 160 17
 321 004a F98E     		and	a3,a3,a4
 322              	.LVL9:
 161:../User/system_ch32v30x.c **** 
 323              		.loc 1 161 7 is_stmt 1
 166:../User/system_ch32v30x.c ****       if(pllmull == 15){
 324              		.loc 1 166 7
 166:../User/system_ch32v30x.c ****       if(pllmull == 15){
 325              		.loc 1 166 9 is_stmt 0
 326 004c 13872700 		addi	a4,a5,2
 327              	.LVL10:
 328 0050 9DCB     		beq	a5,zero,.L29
 167:../User/system_ch32v30x.c ****           pllmull = 13;  /* *6.5 */
 329              		.loc 1 167 7 is_stmt 1
 167:../User/system_ch32v30x.c ****           pllmull = 13;  /* *6.5 */
 330              		.loc 1 167 9 is_stmt 0
 331 0052 BD47     		li	a5,15
 332 0054 630BF702 		beq	a4,a5,.L30
 171:../User/system_ch32v30x.c ****       if(pllmull == 17) pllmull = 16;
 333              		.loc 1 171 7 is_stmt 1
 171:../User/system_ch32v30x.c ****       if(pllmull == 17) pllmull = 16;
 334              		.loc 1 171 9 is_stmt 0
 335 0058 C147     		li	a5,16
 336 005a 630BF702 		beq	a4,a5,.L31
 337              	.LVL11:
 172:../User/system_ch32v30x.c **** #endif
 338              		.loc 1 172 7 is_stmt 1
 172:../User/system_ch32v30x.c **** #endif
 339              		.loc 1 172 9 is_stmt 0
 340 005e C547     		li	a5,17
 341 0060 630BF702 		beq	a4,a5,.L32
 342              	.LVL12:
 343              	.L17:
 166:../User/system_ch32v30x.c ****       if(pllmull == 15){
 344              		.loc 1 166 32
 345 0064 8145     		li	a1,0
 346              	.L18:
 347              	.LVL13:
 175:../User/system_ch32v30x.c ****       {
 348              		.loc 1 175 7 is_stmt 1
 175:../User/system_ch32v30x.c ****       {
 349              		.loc 1 175 10 is_stmt 0
 350 0066 A1E2     		bne	a3,zero,.L19
 177:../User/system_ch32v30x.c ****           else SystemCoreClock = (HSI_VALUE >> 1) * pllmull;
 351              		.loc 1 177 11 is_stmt 1
 177:../User/system_ch32v30x.c ****           else SystemCoreClock = (HSI_VALUE >> 1) * pllmull;
 352              		.loc 1 177 19 is_stmt 0
 353 0068 B7470240 		li	a5,1073889280
 354 006c 83A70780 		lw	a5,-2048(a5)
 177:../User/system_ch32v30x.c ****           else SystemCoreClock = (HSI_VALUE >> 1) * pllmull;
 355              		.loc 1 177 31
 356 0070 C18B     		andi	a5,a5,16
 177:../User/system_ch32v30x.c ****           else SystemCoreClock = (HSI_VALUE >> 1) * pllmull;
 357              		.loc 1 177 13
 358 0072 8DC7     		beq	a5,zero,.L20
 177:../User/system_ch32v30x.c ****           else SystemCoreClock = (HSI_VALUE >> 1) * pllmull;
 359              		.loc 1 177 52 is_stmt 1 discriminator 1
 177:../User/system_ch32v30x.c ****           else SystemCoreClock = (HSI_VALUE >> 1) * pllmull;
 360              		.loc 1 177 80 is_stmt 0 discriminator 1
 361 0074 B7177A00 		li	a5,7999488
 362 0078 93870720 		addi	a5,a5,512
 363              	.LVL14:
 364              	.L36:
 210:../User/system_ch32v30x.c **** #endif
 365              		.loc 1 210 11 is_stmt 1
 210:../User/system_ch32v30x.c **** #endif
 366              		.loc 1 210 45 is_stmt 0
 367 007c 3307F702 		mul	a4,a4,a5
 368              	.LVL15:
 215:../User/system_ch32v30x.c **** 
 369              		.loc 1 215 7 is_stmt 1
 215:../User/system_ch32v30x.c **** 
 370              		.loc 1 215 9 is_stmt 0
 371 0080 C1E9     		bne	a1,zero,.L28
 372              	.L37:
 215:../User/system_ch32v30x.c **** 
 373              		.loc 1 215 40 discriminator 1
 374 0082 18C2     		sw	a4,0(a2)
 375 0084 71BF     		j	.L16
 376              	.LVL16:
 377              	.L29:
 166:../User/system_ch32v30x.c ****       if(pllmull == 15){
 378              		.loc 1 166 32
 379 0086 4947     		li	a4,18
 380              	.LVL17:
 381 0088 F1BF     		j	.L17
 382              	.LVL18:
 383              	.L30:
 169:../User/system_ch32v30x.c ****       }
 384              		.loc 1 169 19
 385 008a 8545     		li	a1,1
 168:../User/system_ch32v30x.c ****           Pll_6_5 = 1;
 386              		.loc 1 168 19
 387 008c 3547     		li	a4,13
 388              	.LVL19:
 389 008e E1BF     		j	.L18
 390              	.LVL20:
 391              	.L31:
 392 0090 8145     		li	a1,0
 171:../User/system_ch32v30x.c ****       if(pllmull == 17) pllmull = 16;
 393              		.loc 1 171 33
 394 0092 3D47     		li	a4,15
 395              	.LVL21:
 396 0094 C9BF     		j	.L18
 397              	.LVL22:
 398              	.L32:
 399 0096 8145     		li	a1,0
 172:../User/system_ch32v30x.c **** #endif
 400              		.loc 1 172 33
 401 0098 4147     		li	a4,16
 402              	.LVL23:
 403 009a F1B7     		j	.L18
 404              	.LVL24:
 405              	.L20:
 178:../User/system_ch32v30x.c ****       }
 406              		.loc 1 178 16 is_stmt 1
 178:../User/system_ch32v30x.c ****       }
 407              		.loc 1 178 51 is_stmt 0
 408 009c B7173D00 		li	a5,4001792
 409 00a0 93870790 		addi	a5,a5,-1792
 410 00a4 E1BF     		j	.L36
 411              	.L19:
 194:../User/system_ch32v30x.c ****               SystemCoreClock = HSE_VALUE/(((RCC->CFGR2 & 0xF0)>>4) + 1);  /* PREDIV2 */
 412              		.loc 1 194 11 is_stmt 1
 194:../User/system_ch32v30x.c ****               SystemCoreClock = HSE_VALUE/(((RCC->CFGR2 & 0xF0)>>4) + 1);  /* PREDIV2 */
 413              		.loc 1 194 17 is_stmt 0
 414 00a6 37150240 		li	a0,1073876992
 415 00aa 5C55     		lw	a5,44(a0)
 194:../User/system_ch32v30x.c ****               SystemCoreClock = HSE_VALUE/(((RCC->CFGR2 & 0xF0)>>4) + 1);  /* PREDIV2 */
 416              		.loc 1 194 25
 417 00ac C166     		li	a3,65536
 418              	.LVL25:
 419 00ae F58F     		and	a5,a5,a3
 195:../User/system_ch32v30x.c **** 
 420              		.loc 1 195 49
 421 00b0 5455     		lw	a3,44(a0)
 194:../User/system_ch32v30x.c ****               SystemCoreClock = HSE_VALUE/(((RCC->CFGR2 & 0xF0)>>4) + 1);  /* PREDIV2 */
 422              		.loc 1 194 13
 423 00b2 A1CB     		beq	a5,zero,.L22
 195:../User/system_ch32v30x.c **** 
 424              		.loc 1 195 15 is_stmt 1
 195:../User/system_ch32v30x.c **** 
 425              		.loc 1 195 64 is_stmt 0
 426 00b4 9182     		srli	a3,a3,4
 427 00b6 BD8A     		andi	a3,a3,15
 195:../User/system_ch32v30x.c **** 
 428              		.loc 1 195 42
 429 00b8 B7177A00 		li	a5,7999488
 195:../User/system_ch32v30x.c **** 
 430              		.loc 1 195 69
 431 00bc 8506     		addi	a3,a3,1
 195:../User/system_ch32v30x.c **** 
 432              		.loc 1 195 42
 433 00be 93870720 		addi	a5,a5,512
 434 00c2 B3D7D702 		divu	a5,a5,a3
 197:../User/system_ch32v30x.c **** 
 435              		.loc 1 197 15 is_stmt 1
 197:../User/system_ch32v30x.c **** 
 436              		.loc 1 197 40 is_stmt 0
 437 00c6 5455     		lw	a3,44(a0)
 197:../User/system_ch32v30x.c **** 
 438              		.loc 1 197 56
 439 00c8 A182     		srli	a3,a3,8
 197:../User/system_ch32v30x.c **** 
 440              		.loc 1 197 24
 441 00ca BD8A     		andi	a3,a3,15
 442              	.LVL26:
 199:../User/system_ch32v30x.c ****               else if(Pll2mull == 1) SystemCoreClock = (SystemCoreClock * 25)>>1;
 443              		.loc 1 199 15 is_stmt 1
 199:../User/system_ch32v30x.c ****               else if(Pll2mull == 1) SystemCoreClock = (SystemCoreClock * 25)>>1;
 444              		.loc 1 199 17 is_stmt 0
 445 00cc 89EE     		bne	a3,zero,.L23
 199:../User/system_ch32v30x.c ****               else if(Pll2mull == 1) SystemCoreClock = (SystemCoreClock * 25)>>1;
 446              		.loc 1 199 33 is_stmt 1 discriminator 1
 199:../User/system_ch32v30x.c ****               else if(Pll2mull == 1) SystemCoreClock = (SystemCoreClock * 25)>>1;
 447              		.loc 1 199 68 is_stmt 0 discriminator 1
 448 00ce 9546     		li	a3,5
 449              	.LVL27:
 450              	.L33:
 200:../User/system_ch32v30x.c ****               else if(Pll2mull == 15) SystemCoreClock = SystemCoreClock * 20;
 451              		.loc 1 200 73 discriminator 1
 452 00d0 B387D702 		mul	a5,a5,a3
 200:../User/system_ch32v30x.c ****               else if(Pll2mull == 15) SystemCoreClock = SystemCoreClock * 20;
 453              		.loc 1 200 78 discriminator 1
 454 00d4 8583     		srli	a5,a5,1
 455              	.L24:
 204:../User/system_ch32v30x.c ****           }
 456              		.loc 1 204 15 is_stmt 1
 204:../User/system_ch32v30x.c ****           }
 457              		.loc 1 204 54 is_stmt 0
 458 00d6 B7160240 		li	a3,1073876992
 459 00da D456     		lw	a3,44(a3)
 204:../User/system_ch32v30x.c ****           }
 460              		.loc 1 204 62
 461 00dc BD8A     		andi	a3,a3,15
 204:../User/system_ch32v30x.c ****           }
 462              		.loc 1 204 69
 463 00de 8506     		addi	a3,a3,1
 464              	.LVL28:
 465              	.L35:
 207:../User/system_ch32v30x.c ****           }
 466              		.loc 1 207 42
 467 00e0 B3D7D702 		divu	a5,a5,a3
 468 00e4 61BF     		j	.L36
 469              	.LVL29:
 470              	.L23:
 200:../User/system_ch32v30x.c ****               else if(Pll2mull == 15) SystemCoreClock = SystemCoreClock * 20;
 471              		.loc 1 200 20 is_stmt 1
 200:../User/system_ch32v30x.c ****               else if(Pll2mull == 15) SystemCoreClock = SystemCoreClock * 20;
 472              		.loc 1 200 22 is_stmt 0
 473 00e6 0545     		li	a0,1
 474 00e8 6394A600 		bne	a3,a0,.L25
 200:../User/system_ch32v30x.c ****               else if(Pll2mull == 15) SystemCoreClock = SystemCoreClock * 20;
 475              		.loc 1 200 38 is_stmt 1 discriminator 1
 200:../User/system_ch32v30x.c ****               else if(Pll2mull == 15) SystemCoreClock = SystemCoreClock * 20;
 476              		.loc 1 200 73 is_stmt 0 discriminator 1
 477 00ec E546     		li	a3,25
 478              	.LVL30:
 479 00ee CDB7     		j	.L33
 480              	.LVL31:
 481              	.L25:
 201:../User/system_ch32v30x.c ****               else  SystemCoreClock = SystemCoreClock * (Pll2mull + 2);
 482              		.loc 1 201 20 is_stmt 1
 201:../User/system_ch32v30x.c ****               else  SystemCoreClock = SystemCoreClock * (Pll2mull + 2);
 483              		.loc 1 201 22 is_stmt 0
 484 00f0 3D45     		li	a0,15
 485 00f2 6396A600 		bne	a3,a0,.L26
 201:../User/system_ch32v30x.c ****               else  SystemCoreClock = SystemCoreClock * (Pll2mull + 2);
 486              		.loc 1 201 39 is_stmt 1 discriminator 1
 201:../User/system_ch32v30x.c ****               else  SystemCoreClock = SystemCoreClock * (Pll2mull + 2);
 487              		.loc 1 201 73 is_stmt 0 discriminator 1
 488 00f6 D146     		li	a3,20
 489              	.LVL32:
 490              	.L34:
 202:../User/system_ch32v30x.c **** 
 491              		.loc 1 202 55
 492 00f8 B387F602 		mul	a5,a3,a5
 493 00fc E9BF     		j	.L24
 494              	.LVL33:
 495              	.L26:
 202:../User/system_ch32v30x.c **** 
 496              		.loc 1 202 21 is_stmt 1
 202:../User/system_ch32v30x.c **** 
 497              		.loc 1 202 67 is_stmt 0
 498 00fe 8906     		addi	a3,a3,2
 499              	.LVL34:
 500 0100 E5BF     		j	.L34
 501              	.LVL35:
 502              	.L22:
 207:../User/system_ch32v30x.c ****           }
 503              		.loc 1 207 15 is_stmt 1
 207:../User/system_ch32v30x.c ****           }
 504              		.loc 1 207 56 is_stmt 0
 505 0102 BD8A     		andi	a3,a3,15
 207:../User/system_ch32v30x.c ****           }
 506              		.loc 1 207 42
 507 0104 B7177A00 		li	a5,7999488
 207:../User/system_ch32v30x.c ****           }
 508              		.loc 1 207 63
 509 0108 8506     		addi	a3,a3,1
 207:../User/system_ch32v30x.c ****           }
 510              		.loc 1 207 42
 511 010a 93870720 		addi	a5,a5,512
 512 010e C9BF     		j	.L35
 513              	.LVL36:
 514              	.L28:
 215:../User/system_ch32v30x.c **** 
 515              		.loc 1 215 24 is_stmt 1 discriminator 1
 215:../User/system_ch32v30x.c **** 
 516              		.loc 1 215 59 is_stmt 0 discriminator 1
 517 0110 0583     		srli	a4,a4,1
 518 0112 85BF     		j	.L37
 519              		.cfi_endproc
 520              	.LFE30:
 522              		.globl	AHBPrescTable
 523              		.section	.data.AHBPrescTable,"aw"
 524              		.align	2
 527              	AHBPrescTable:
 528 0000 00       		.string	""
 529 0001 00       		.string	""
 530 0002 00       		.string	""
 531 0003 00       		.string	""
 532 0004 00       		.string	""
 533 0005 00       		.string	""
 534 0006 00       		.string	""
 535 0007 00       		.string	""
 536 0008 01020304 		.ascii	"\001\002\003\004\006\007\b\t"
 536      06070809 
 537              		.globl	SystemCoreClock
 538              		.section	.sdata.SystemCoreClock,"aw"
 539              		.align	2
 542              	SystemCoreClock:
 543 0000 00D8B805 		.word	96000000
 544              		.text
 545              	.Letext0:
 546              		.file 2 "d:\\software\\mounriver_studio\\toolchain\\risc-v embedded gcc12\\riscv-none-elf\\include
 547              		.file 3 "d:\\software\\mounriver_studio\\toolchain\\risc-v embedded gcc12\\riscv-none-elf\\include
 548              		.file 4 "C:\\Users\\localhost\\Documents\\turbomoskal-repo\\qqexpert\\firmware\\MasterController\\
 549              		.file 5 "C:\\Users\\localhost\\Documents\\turbomoskal-repo\\qqexpert\\firmware\\MasterController\\
 550              		.file 6 "C:\\Users\\localhost\\Documents\\turbomoskal-repo\\qqexpert\\firmware\\MasterController\\
DEFINED SYMBOLS
                            *ABS*:0000000000000000 system_ch32v30x.c
C:\Users\LOCALH~1\AppData\Local\Temp\ccq2eR6F.s:14     .text.SystemInit:0000000000000000 SystemInit
C:\Users\LOCALH~1\AppData\Local\Temp\ccq2eR6F.s:18     .text.SystemInit:0000000000000000 .L0 
C:\Users\LOCALH~1\AppData\Local\Temp\ccq2eR6F.s:19     .text.SystemInit:0000000000000000 .L0 
C:\Users\LOCALH~1\AppData\Local\Temp\ccq2eR6F.s:20     .text.SystemInit:0000000000000000 .L0 
C:\Users\LOCALH~1\AppData\Local\Temp\ccq2eR6F.s:21     .text.SystemInit:0000000000000000 $x
C:\Users\LOCALH~1\AppData\Local\Temp\ccq2eR6F.s:21     .text.SystemInit:0000000000000000 .L0 
C:\Users\LOCALH~1\AppData\Local\Temp\ccq2eR6F.s:24     .text.SystemInit:0000000000000006 .L0 
C:\Users\LOCALH~1\AppData\Local\Temp\ccq2eR6F.s:26     .text.SystemInit:000000000000000a .L0 
C:\Users\LOCALH~1\AppData\Local\Temp\ccq2eR6F.s:27     .text.SystemInit:000000000000000c .L0 
C:\Users\LOCALH~1\AppData\Local\Temp\ccq2eR6F.s:29     .text.SystemInit:000000000000000c .L0 
C:\Users\LOCALH~1\AppData\Local\Temp\ccq2eR6F.s:32     .text.SystemInit:0000000000000012 .L0 
C:\Users\LOCALH~1\AppData\Local\Temp\ccq2eR6F.s:33     .text.SystemInit:0000000000000012 .L0 
C:\Users\LOCALH~1\AppData\Local\Temp\ccq2eR6F.s:38     .text.SystemInit:0000000000000014 .L0 
C:\Users\LOCALH~1\AppData\Local\Temp\ccq2eR6F.s:43     .text.SystemInit:0000000000000018 .L0 
C:\Users\LOCALH~1\AppData\Local\Temp\ccq2eR6F.s:46     .text.SystemInit:000000000000001c .L0 
C:\Users\LOCALH~1\AppData\Local\Temp\ccq2eR6F.s:47     .text.SystemInit:000000000000001c .L0 
C:\Users\LOCALH~1\AppData\Local\Temp\ccq2eR6F.s:49     .text.SystemInit:000000000000001e .L0 
C:\Users\LOCALH~1\AppData\Local\Temp\ccq2eR6F.s:54     .text.SystemInit:0000000000000028 .L0 
C:\Users\LOCALH~1\AppData\Local\Temp\ccq2eR6F.s:55     .text.SystemInit:0000000000000028 .L0 
C:\Users\LOCALH~1\AppData\Local\Temp\ccq2eR6F.s:57     .text.SystemInit:000000000000002a .L0 
C:\Users\LOCALH~1\AppData\Local\Temp\ccq2eR6F.s:62     .text.SystemInit:0000000000000034 .L0 
C:\Users\LOCALH~1\AppData\Local\Temp\ccq2eR6F.s:63     .text.SystemInit:0000000000000034 .L0 
C:\Users\LOCALH~1\AppData\Local\Temp\ccq2eR6F.s:65     .text.SystemInit:0000000000000036 .L0 
C:\Users\LOCALH~1\AppData\Local\Temp\ccq2eR6F.s:70     .text.SystemInit:0000000000000040 .L0 
C:\Users\LOCALH~1\AppData\Local\Temp\ccq2eR6F.s:71     .text.SystemInit:0000000000000040 .L0 
C:\Users\LOCALH~1\AppData\Local\Temp\ccq2eR6F.s:73     .text.SystemInit:0000000000000042 .L0 
C:\Users\LOCALH~1\AppData\Local\Temp\ccq2eR6F.s:78     .text.SystemInit:000000000000004c .L0 
C:\Users\LOCALH~1\AppData\Local\Temp\ccq2eR6F.s:79     .text.SystemInit:000000000000004c .L0 
C:\Users\LOCALH~1\AppData\Local\Temp\ccq2eR6F.s:82     .text.SystemInit:0000000000000052 .L0 
C:\Users\LOCALH~1\AppData\Local\Temp\ccq2eR6F.s:83     .text.SystemInit:0000000000000052 .L0 
C:\Users\LOCALH~1\AppData\Local\Temp\ccq2eR6F.s:86     .text.SystemInit:0000000000000056 .L0 
C:\Users\LOCALH~1\AppData\Local\Temp\ccq2eR6F.s:89     .text.SystemInit:0000000000000056 .L0 
C:\Users\LOCALH~1\AppData\Local\Temp\ccq2eR6F.s:90     .text.SystemInit:0000000000000056 .L0 
C:\Users\LOCALH~1\AppData\Local\Temp\ccq2eR6F.s:91     .text.SystemInit:0000000000000056 .L0 
C:\Users\LOCALH~1\AppData\Local\Temp\ccq2eR6F.s:93     .text.SystemInit:0000000000000058 .L0 
C:\Users\LOCALH~1\AppData\Local\Temp\ccq2eR6F.s:95     .text.SystemInit:000000000000005a .L0 
C:\Users\LOCALH~1\AppData\Local\Temp\ccq2eR6F.s:96     .text.SystemInit:000000000000005a .L0 
C:\Users\LOCALH~1\AppData\Local\Temp\ccq2eR6F.s:98     .text.SystemInit:000000000000005c .L0 
C:\Users\LOCALH~1\AppData\Local\Temp\ccq2eR6F.s:102    .text.SystemInit:0000000000000062 .L0 
C:\Users\LOCALH~1\AppData\Local\Temp\ccq2eR6F.s:104    .text.SystemInit:0000000000000066 .L0 
C:\Users\LOCALH~1\AppData\Local\Temp\ccq2eR6F.s:107    .text.SystemInit:0000000000000068 .L0 
C:\Users\LOCALH~1\AppData\Local\Temp\ccq2eR6F.s:108    .text.SystemInit:0000000000000068 .L0 
C:\Users\LOCALH~1\AppData\Local\Temp\ccq2eR6F.s:109    .text.SystemInit:0000000000000068 .L0 
C:\Users\LOCALH~1\AppData\Local\Temp\ccq2eR6F.s:111    .text.SystemInit:000000000000006a .L0 
C:\Users\LOCALH~1\AppData\Local\Temp\ccq2eR6F.s:113    .text.SystemInit:000000000000006c .L0 
C:\Users\LOCALH~1\AppData\Local\Temp\ccq2eR6F.s:115    .text.SystemInit:000000000000006e .L0 
C:\Users\LOCALH~1\AppData\Local\Temp\ccq2eR6F.s:116    .text.SystemInit:000000000000006e .L0 
C:\Users\LOCALH~1\AppData\Local\Temp\ccq2eR6F.s:120    .text.SystemInit:0000000000000074 .L0 
C:\Users\LOCALH~1\AppData\Local\Temp\ccq2eR6F.s:121    .text.SystemInit:0000000000000074 .L0 
C:\Users\LOCALH~1\AppData\Local\Temp\ccq2eR6F.s:123    .text.SystemInit:0000000000000076 .L0 
C:\Users\LOCALH~1\AppData\Local\Temp\ccq2eR6F.s:125    .text.SystemInit:0000000000000078 .L0 
C:\Users\LOCALH~1\AppData\Local\Temp\ccq2eR6F.s:127    .text.SystemInit:000000000000007a .L0 
C:\Users\LOCALH~1\AppData\Local\Temp\ccq2eR6F.s:130    .text.SystemInit:000000000000007e .L0 
C:\Users\LOCALH~1\AppData\Local\Temp\ccq2eR6F.s:131    .text.SystemInit:000000000000007e .L0 
C:\Users\LOCALH~1\AppData\Local\Temp\ccq2eR6F.s:134    .text.SystemInit:0000000000000084 .L0 
C:\Users\LOCALH~1\AppData\Local\Temp\ccq2eR6F.s:137    .text.SystemInit:000000000000008a .L0 
C:\Users\LOCALH~1\AppData\Local\Temp\ccq2eR6F.s:139    .text.SystemInit:000000000000008c .L0 
C:\Users\LOCALH~1\AppData\Local\Temp\ccq2eR6F.s:140    .text.SystemInit:000000000000008c .L0 
C:\Users\LOCALH~1\AppData\Local\Temp\ccq2eR6F.s:144    .text.SystemInit:0000000000000090 .L0 
C:\Users\LOCALH~1\AppData\Local\Temp\ccq2eR6F.s:145    .text.SystemInit:0000000000000090 .L0 
C:\Users\LOCALH~1\AppData\Local\Temp\ccq2eR6F.s:147    .text.SystemInit:0000000000000092 .L0 
C:\Users\LOCALH~1\AppData\Local\Temp\ccq2eR6F.s:150    .text.SystemInit:0000000000000098 .L0 
C:\Users\LOCALH~1\AppData\Local\Temp\ccq2eR6F.s:151    .text.SystemInit:0000000000000098 .L0 
C:\Users\LOCALH~1\AppData\Local\Temp\ccq2eR6F.s:154    .text.SystemInit:000000000000009e .L0 
C:\Users\LOCALH~1\AppData\Local\Temp\ccq2eR6F.s:157    .text.SystemInit:00000000000000a4 .L0 
C:\Users\LOCALH~1\AppData\Local\Temp\ccq2eR6F.s:159    .text.SystemInit:00000000000000a6 .L0 
C:\Users\LOCALH~1\AppData\Local\Temp\ccq2eR6F.s:160    .text.SystemInit:00000000000000a6 .L0 
C:\Users\LOCALH~1\AppData\Local\Temp\ccq2eR6F.s:162    .text.SystemInit:00000000000000a8 .L0 
C:\Users\LOCALH~1\AppData\Local\Temp\ccq2eR6F.s:164    .text.SystemInit:00000000000000aa .L0 
C:\Users\LOCALH~1\AppData\Local\Temp\ccq2eR6F.s:165    .text.SystemInit:00000000000000aa .L0 
C:\Users\LOCALH~1\AppData\Local\Temp\ccq2eR6F.s:167    .text.SystemInit:00000000000000ac .L0 
C:\Users\LOCALH~1\AppData\Local\Temp\ccq2eR6F.s:170    .text.SystemInit:00000000000000b2 .L0 
C:\Users\LOCALH~1\AppData\Local\Temp\ccq2eR6F.s:171    .text.SystemInit:00000000000000b2 .L0 
C:\Users\LOCALH~1\AppData\Local\Temp\ccq2eR6F.s:173    .text.SystemInit:00000000000000b4 .L0 
C:\Users\LOCALH~1\AppData\Local\Temp\ccq2eR6F.s:176    .text.SystemInit:00000000000000b8 .L0 
C:\Users\LOCALH~1\AppData\Local\Temp\ccq2eR6F.s:177    .text.SystemInit:00000000000000b8 .L0 
C:\Users\LOCALH~1\AppData\Local\Temp\ccq2eR6F.s:179    .text.SystemInit:00000000000000ba .L0 
C:\Users\LOCALH~1\AppData\Local\Temp\ccq2eR6F.s:183    .text.SystemInit:00000000000000c2 .L0 
C:\Users\LOCALH~1\AppData\Local\Temp\ccq2eR6F.s:184    .text.SystemInit:00000000000000c2 .L0 
C:\Users\LOCALH~1\AppData\Local\Temp\ccq2eR6F.s:186    .text.SystemInit:00000000000000c4 .L0 
C:\Users\LOCALH~1\AppData\Local\Temp\ccq2eR6F.s:190    .text.SystemInit:00000000000000cc .L0 
C:\Users\LOCALH~1\AppData\Local\Temp\ccq2eR6F.s:191    .text.SystemInit:00000000000000cc .L0 
C:\Users\LOCALH~1\AppData\Local\Temp\ccq2eR6F.s:194    .text.SystemInit:00000000000000d0 .L0 
C:\Users\LOCALH~1\AppData\Local\Temp\ccq2eR6F.s:195    .text.SystemInit:00000000000000d0 .L0 
C:\Users\LOCALH~1\AppData\Local\Temp\ccq2eR6F.s:196    .text.SystemInit:00000000000000d0 .L0 
C:\Users\LOCALH~1\AppData\Local\Temp\ccq2eR6F.s:198    .text.SystemInit:00000000000000d2 .L0 
C:\Users\LOCALH~1\AppData\Local\Temp\ccq2eR6F.s:200    .text.SystemInit:00000000000000d4 .L0 
C:\Users\LOCALH~1\AppData\Local\Temp\ccq2eR6F.s:202    .text.SystemInit:00000000000000d6 .L0 
C:\Users\LOCALH~1\AppData\Local\Temp\ccq2eR6F.s:203    .text.SystemInit:00000000000000d6 .L0 
C:\Users\LOCALH~1\AppData\Local\Temp\ccq2eR6F.s:205    .text.SystemInit:00000000000000d8 .L0 
C:\Users\LOCALH~1\AppData\Local\Temp\ccq2eR6F.s:207    .text.SystemInit:00000000000000dc .L0 
C:\Users\LOCALH~1\AppData\Local\Temp\ccq2eR6F.s:210    .text.SystemInit:00000000000000e0 .L0 
C:\Users\LOCALH~1\AppData\Local\Temp\ccq2eR6F.s:211    .text.SystemInit:00000000000000e0 .L0 
C:\Users\LOCALH~1\AppData\Local\Temp\ccq2eR6F.s:213    .text.SystemInit:00000000000000e2 .L0 
C:\Users\LOCALH~1\AppData\Local\Temp\ccq2eR6F.s:216    .text.SystemInit:00000000000000e8 .L0 
C:\Users\LOCALH~1\AppData\Local\Temp\ccq2eR6F.s:217    .text.SystemInit:00000000000000e8 .L0 
C:\Users\LOCALH~1\AppData\Local\Temp\ccq2eR6F.s:220    .text.SystemInit:00000000000000ea .L0 
C:\Users\LOCALH~1\AppData\Local\Temp\ccq2eR6F.s:221    .text.SystemInit:00000000000000ea .L0 
C:\Users\LOCALH~1\AppData\Local\Temp\ccq2eR6F.s:222    .text.SystemInit:00000000000000ea .L0 
C:\Users\LOCALH~1\AppData\Local\Temp\ccq2eR6F.s:224    .text.SystemInit:00000000000000ec .L0 
C:\Users\LOCALH~1\AppData\Local\Temp\ccq2eR6F.s:226    .text.SystemInit:00000000000000ee .L0 
C:\Users\LOCALH~1\AppData\Local\Temp\ccq2eR6F.s:232    .text.SystemInit:00000000000000f2 .L0 
C:\Users\LOCALH~1\AppData\Local\Temp\ccq2eR6F.s:233    .text.SystemInit:00000000000000f4 .L0 
C:\Users\LOCALH~1\AppData\Local\Temp\ccq2eR6F.s:234    .text.SystemInit:00000000000000f4 .L0 
C:\Users\LOCALH~1\AppData\Local\Temp\ccq2eR6F.s:237    .text.SystemInit:00000000000000f6 .L0 
C:\Users\LOCALH~1\AppData\Local\Temp\ccq2eR6F.s:242    .text.SystemInit:00000000000000f6 .L0 
C:\Users\LOCALH~1\AppData\Local\Temp\ccq2eR6F.s:243    .text.SystemInit:00000000000000f6 .L0 
C:\Users\LOCALH~1\AppData\Local\Temp\ccq2eR6F.s:248    .text.SystemInit:00000000000000fa .L0 
C:\Users\LOCALH~1\AppData\Local\Temp\ccq2eR6F.s:255    .text.SystemCoreClockUpdate:0000000000000000 SystemCoreClockUpdate
C:\Users\LOCALH~1\AppData\Local\Temp\ccq2eR6F.s:258    .text.SystemCoreClockUpdate:0000000000000000 .L0 
C:\Users\LOCALH~1\AppData\Local\Temp\ccq2eR6F.s:259    .text.SystemCoreClockUpdate:0000000000000000 .L0 
C:\Users\LOCALH~1\AppData\Local\Temp\ccq2eR6F.s:261    .text.SystemCoreClockUpdate:0000000000000000 .L0 
C:\Users\LOCALH~1\AppData\Local\Temp\ccq2eR6F.s:262    .text.SystemCoreClockUpdate:0000000000000000 .L0 
C:\Users\LOCALH~1\AppData\Local\Temp\ccq2eR6F.s:263    .text.SystemCoreClockUpdate:0000000000000000 .L0 
C:\Users\LOCALH~1\AppData\Local\Temp\ccq2eR6F.s:264    .text.SystemCoreClockUpdate:0000000000000000 .L0 
C:\Users\LOCALH~1\AppData\Local\Temp\ccq2eR6F.s:265    .text.SystemCoreClockUpdate:0000000000000000 $x
C:\Users\LOCALH~1\AppData\Local\Temp\ccq2eR6F.s:265    .text.SystemCoreClockUpdate:0000000000000000 .L0 
C:\Users\LOCALH~1\AppData\Local\Temp\ccq2eR6F.s:269    .text.SystemCoreClockUpdate:0000000000000006 .L0 
C:\Users\LOCALH~1\AppData\Local\Temp\ccq2eR6F.s:542    .sdata.SystemCoreClock:0000000000000000 SystemCoreClock
C:\Users\LOCALH~1\AppData\Local\Temp\ccq2eR6F.s:272    .text.SystemCoreClockUpdate:0000000000000010 .L0 
C:\Users\LOCALH~1\AppData\Local\Temp\ccq2eR6F.s:275    .text.SystemCoreClockUpdate:0000000000000012 .L0 
C:\Users\LOCALH~1\AppData\Local\Temp\ccq2eR6F.s:277    .text.SystemCoreClockUpdate:0000000000000016 .L0 
C:\Users\LOCALH~1\AppData\Local\Temp\ccq2eR6F.s:278    .text.SystemCoreClockUpdate:0000000000000016 .L0 
C:\Users\LOCALH~1\AppData\Local\Temp\ccq2eR6F.s:285    .text.SystemCoreClockUpdate:0000000000000020 .L0 
C:\Users\LOCALH~1\AppData\Local\Temp\ccq2eR6F.s:286    .text.SystemCoreClockUpdate:0000000000000020 .L0 
C:\Users\LOCALH~1\AppData\Local\Temp\ccq2eR6F.s:287    .text.SystemCoreClockUpdate:0000000000000020 .L0 
C:\Users\LOCALH~1\AppData\Local\Temp\ccq2eR6F.s:527    .data.AHBPrescTable:0000000000000000 AHBPrescTable
C:\Users\LOCALH~1\AppData\Local\Temp\ccq2eR6F.s:290    .text.SystemCoreClockUpdate:0000000000000026 .L0 
C:\Users\LOCALH~1\AppData\Local\Temp\ccq2eR6F.s:292    .text.SystemCoreClockUpdate:000000000000002e .L0 
C:\Users\LOCALH~1\AppData\Local\Temp\ccq2eR6F.s:295    .text.SystemCoreClockUpdate:0000000000000032 .L0 
C:\Users\LOCALH~1\AppData\Local\Temp\ccq2eR6F.s:299    .text.SystemCoreClockUpdate:0000000000000036 .L0 
C:\Users\LOCALH~1\AppData\Local\Temp\ccq2eR6F.s:300    .text.SystemCoreClockUpdate:0000000000000036 .L0 
C:\Users\LOCALH~1\AppData\Local\Temp\ccq2eR6F.s:304    .text.SystemCoreClockUpdate:000000000000003e .L0 
C:\Users\LOCALH~1\AppData\Local\Temp\ccq2eR6F.s:308    .text.SystemCoreClockUpdate:0000000000000040 .L0 
C:\Users\LOCALH~1\AppData\Local\Temp\ccq2eR6F.s:309    .text.SystemCoreClockUpdate:0000000000000040 .L0 
C:\Users\LOCALH~1\AppData\Local\Temp\ccq2eR6F.s:312    .text.SystemCoreClockUpdate:0000000000000042 .L0 
C:\Users\LOCALH~1\AppData\Local\Temp\ccq2eR6F.s:313    .text.SystemCoreClockUpdate:0000000000000042 .L0 
C:\Users\LOCALH~1\AppData\Local\Temp\ccq2eR6F.s:315    .text.SystemCoreClockUpdate:0000000000000044 .L0 
C:\Users\LOCALH~1\AppData\Local\Temp\ccq2eR6F.s:317    .text.SystemCoreClockUpdate:0000000000000046 .L0 
C:\Users\LOCALH~1\AppData\Local\Temp\ccq2eR6F.s:321    .text.SystemCoreClockUpdate:000000000000004a .L0 
C:\Users\LOCALH~1\AppData\Local\Temp\ccq2eR6F.s:324    .text.SystemCoreClockUpdate:000000000000004c .L0 
C:\Users\LOCALH~1\AppData\Local\Temp\ccq2eR6F.s:325    .text.SystemCoreClockUpdate:000000000000004c .L0 
C:\Users\LOCALH~1\AppData\Local\Temp\ccq2eR6F.s:326    .text.SystemCoreClockUpdate:000000000000004c .L0 
C:\Users\LOCALH~1\AppData\Local\Temp\ccq2eR6F.s:330    .text.SystemCoreClockUpdate:0000000000000052 .L0 
C:\Users\LOCALH~1\AppData\Local\Temp\ccq2eR6F.s:331    .text.SystemCoreClockUpdate:0000000000000052 .L0 
C:\Users\LOCALH~1\AppData\Local\Temp\ccq2eR6F.s:334    .text.SystemCoreClockUpdate:0000000000000058 .L0 
C:\Users\LOCALH~1\AppData\Local\Temp\ccq2eR6F.s:335    .text.SystemCoreClockUpdate:0000000000000058 .L0 
C:\Users\LOCALH~1\AppData\Local\Temp\ccq2eR6F.s:339    .text.SystemCoreClockUpdate:000000000000005e .L0 
C:\Users\LOCALH~1\AppData\Local\Temp\ccq2eR6F.s:340    .text.SystemCoreClockUpdate:000000000000005e .L0 
C:\Users\LOCALH~1\AppData\Local\Temp\ccq2eR6F.s:345    .text.SystemCoreClockUpdate:0000000000000064 .L0 
C:\Users\LOCALH~1\AppData\Local\Temp\ccq2eR6F.s:349    .text.SystemCoreClockUpdate:0000000000000066 .L0 
C:\Users\LOCALH~1\AppData\Local\Temp\ccq2eR6F.s:350    .text.SystemCoreClockUpdate:0000000000000066 .L0 
C:\Users\LOCALH~1\AppData\Local\Temp\ccq2eR6F.s:352    .text.SystemCoreClockUpdate:0000000000000068 .L0 
C:\Users\LOCALH~1\AppData\Local\Temp\ccq2eR6F.s:353    .text.SystemCoreClockUpdate:0000000000000068 .L0 
C:\Users\LOCALH~1\AppData\Local\Temp\ccq2eR6F.s:356    .text.SystemCoreClockUpdate:0000000000000070 .L0 
C:\Users\LOCALH~1\AppData\Local\Temp\ccq2eR6F.s:358    .text.SystemCoreClockUpdate:0000000000000072 .L0 
C:\Users\LOCALH~1\AppData\Local\Temp\ccq2eR6F.s:360    .text.SystemCoreClockUpdate:0000000000000074 .L0 
C:\Users\LOCALH~1\AppData\Local\Temp\ccq2eR6F.s:361    .text.SystemCoreClockUpdate:0000000000000074 .L0 
C:\Users\LOCALH~1\AppData\Local\Temp\ccq2eR6F.s:366    .text.SystemCoreClockUpdate:000000000000007c .L0 
C:\Users\LOCALH~1\AppData\Local\Temp\ccq2eR6F.s:367    .text.SystemCoreClockUpdate:000000000000007c .L0 
C:\Users\LOCALH~1\AppData\Local\Temp\ccq2eR6F.s:370    .text.SystemCoreClockUpdate:0000000000000080 .L0 
C:\Users\LOCALH~1\AppData\Local\Temp\ccq2eR6F.s:371    .text.SystemCoreClockUpdate:0000000000000080 .L0 
C:\Users\LOCALH~1\AppData\Local\Temp\ccq2eR6F.s:374    .text.SystemCoreClockUpdate:0000000000000082 .L0 
C:\Users\LOCALH~1\AppData\Local\Temp\ccq2eR6F.s:379    .text.SystemCoreClockUpdate:0000000000000086 .L0 
C:\Users\LOCALH~1\AppData\Local\Temp\ccq2eR6F.s:385    .text.SystemCoreClockUpdate:000000000000008a .L0 
C:\Users\LOCALH~1\AppData\Local\Temp\ccq2eR6F.s:387    .text.SystemCoreClockUpdate:000000000000008c .L0 
C:\Users\LOCALH~1\AppData\Local\Temp\ccq2eR6F.s:394    .text.SystemCoreClockUpdate:0000000000000092 .L0 
C:\Users\LOCALH~1\AppData\Local\Temp\ccq2eR6F.s:401    .text.SystemCoreClockUpdate:0000000000000098 .L0 
C:\Users\LOCALH~1\AppData\Local\Temp\ccq2eR6F.s:407    .text.SystemCoreClockUpdate:000000000000009c .L0 
C:\Users\LOCALH~1\AppData\Local\Temp\ccq2eR6F.s:408    .text.SystemCoreClockUpdate:000000000000009c .L0 
C:\Users\LOCALH~1\AppData\Local\Temp\ccq2eR6F.s:413    .text.SystemCoreClockUpdate:00000000000000a6 .L0 
C:\Users\LOCALH~1\AppData\Local\Temp\ccq2eR6F.s:414    .text.SystemCoreClockUpdate:00000000000000a6 .L0 
C:\Users\LOCALH~1\AppData\Local\Temp\ccq2eR6F.s:417    .text.SystemCoreClockUpdate:00000000000000ac .L0 
C:\Users\LOCALH~1\AppData\Local\Temp\ccq2eR6F.s:421    .text.SystemCoreClockUpdate:00000000000000b0 .L0 
C:\Users\LOCALH~1\AppData\Local\Temp\ccq2eR6F.s:423    .text.SystemCoreClockUpdate:00000000000000b2 .L0 
C:\Users\LOCALH~1\AppData\Local\Temp\ccq2eR6F.s:425    .text.SystemCoreClockUpdate:00000000000000b4 .L0 
C:\Users\LOCALH~1\AppData\Local\Temp\ccq2eR6F.s:426    .text.SystemCoreClockUpdate:00000000000000b4 .L0 
C:\Users\LOCALH~1\AppData\Local\Temp\ccq2eR6F.s:429    .text.SystemCoreClockUpdate:00000000000000b8 .L0 
C:\Users\LOCALH~1\AppData\Local\Temp\ccq2eR6F.s:431    .text.SystemCoreClockUpdate:00000000000000bc .L0 
C:\Users\LOCALH~1\AppData\Local\Temp\ccq2eR6F.s:433    .text.SystemCoreClockUpdate:00000000000000be .L0 
C:\Users\LOCALH~1\AppData\Local\Temp\ccq2eR6F.s:436    .text.SystemCoreClockUpdate:00000000000000c6 .L0 
C:\Users\LOCALH~1\AppData\Local\Temp\ccq2eR6F.s:437    .text.SystemCoreClockUpdate:00000000000000c6 .L0 
C:\Users\LOCALH~1\AppData\Local\Temp\ccq2eR6F.s:439    .text.SystemCoreClockUpdate:00000000000000c8 .L0 
C:\Users\LOCALH~1\AppData\Local\Temp\ccq2eR6F.s:441    .text.SystemCoreClockUpdate:00000000000000ca .L0 
C:\Users\LOCALH~1\AppData\Local\Temp\ccq2eR6F.s:444    .text.SystemCoreClockUpdate:00000000000000cc .L0 
C:\Users\LOCALH~1\AppData\Local\Temp\ccq2eR6F.s:445    .text.SystemCoreClockUpdate:00000000000000cc .L0 
C:\Users\LOCALH~1\AppData\Local\Temp\ccq2eR6F.s:447    .text.SystemCoreClockUpdate:00000000000000ce .L0 
C:\Users\LOCALH~1\AppData\Local\Temp\ccq2eR6F.s:448    .text.SystemCoreClockUpdate:00000000000000ce .L0 
C:\Users\LOCALH~1\AppData\Local\Temp\ccq2eR6F.s:452    .text.SystemCoreClockUpdate:00000000000000d0 .L0 
C:\Users\LOCALH~1\AppData\Local\Temp\ccq2eR6F.s:454    .text.SystemCoreClockUpdate:00000000000000d4 .L0 
C:\Users\LOCALH~1\AppData\Local\Temp\ccq2eR6F.s:457    .text.SystemCoreClockUpdate:00000000000000d6 .L0 
C:\Users\LOCALH~1\AppData\Local\Temp\ccq2eR6F.s:458    .text.SystemCoreClockUpdate:00000000000000d6 .L0 
C:\Users\LOCALH~1\AppData\Local\Temp\ccq2eR6F.s:461    .text.SystemCoreClockUpdate:00000000000000dc .L0 
C:\Users\LOCALH~1\AppData\Local\Temp\ccq2eR6F.s:463    .text.SystemCoreClockUpdate:00000000000000de .L0 
C:\Users\LOCALH~1\AppData\Local\Temp\ccq2eR6F.s:467    .text.SystemCoreClockUpdate:00000000000000e0 .L0 
C:\Users\LOCALH~1\AppData\Local\Temp\ccq2eR6F.s:472    .text.SystemCoreClockUpdate:00000000000000e6 .L0 
C:\Users\LOCALH~1\AppData\Local\Temp\ccq2eR6F.s:473    .text.SystemCoreClockUpdate:00000000000000e6 .L0 
C:\Users\LOCALH~1\AppData\Local\Temp\ccq2eR6F.s:476    .text.SystemCoreClockUpdate:00000000000000ec .L0 
C:\Users\LOCALH~1\AppData\Local\Temp\ccq2eR6F.s:477    .text.SystemCoreClockUpdate:00000000000000ec .L0 
C:\Users\LOCALH~1\AppData\Local\Temp\ccq2eR6F.s:483    .text.SystemCoreClockUpdate:00000000000000f0 .L0 
C:\Users\LOCALH~1\AppData\Local\Temp\ccq2eR6F.s:484    .text.SystemCoreClockUpdate:00000000000000f0 .L0 
C:\Users\LOCALH~1\AppData\Local\Temp\ccq2eR6F.s:487    .text.SystemCoreClockUpdate:00000000000000f6 .L0 
C:\Users\LOCALH~1\AppData\Local\Temp\ccq2eR6F.s:488    .text.SystemCoreClockUpdate:00000000000000f6 .L0 
C:\Users\LOCALH~1\AppData\Local\Temp\ccq2eR6F.s:492    .text.SystemCoreClockUpdate:00000000000000f8 .L0 
C:\Users\LOCALH~1\AppData\Local\Temp\ccq2eR6F.s:497    .text.SystemCoreClockUpdate:00000000000000fe .L0 
C:\Users\LOCALH~1\AppData\Local\Temp\ccq2eR6F.s:498    .text.SystemCoreClockUpdate:00000000000000fe .L0 
C:\Users\LOCALH~1\AppData\Local\Temp\ccq2eR6F.s:504    .text.SystemCoreClockUpdate:0000000000000102 .L0 
C:\Users\LOCALH~1\AppData\Local\Temp\ccq2eR6F.s:505    .text.SystemCoreClockUpdate:0000000000000102 .L0 
C:\Users\LOCALH~1\AppData\Local\Temp\ccq2eR6F.s:507    .text.SystemCoreClockUpdate:0000000000000104 .L0 
C:\Users\LOCALH~1\AppData\Local\Temp\ccq2eR6F.s:509    .text.SystemCoreClockUpdate:0000000000000108 .L0 
C:\Users\LOCALH~1\AppData\Local\Temp\ccq2eR6F.s:511    .text.SystemCoreClockUpdate:000000000000010a .L0 
C:\Users\LOCALH~1\AppData\Local\Temp\ccq2eR6F.s:516    .text.SystemCoreClockUpdate:0000000000000110 .L0 
C:\Users\LOCALH~1\AppData\Local\Temp\ccq2eR6F.s:517    .text.SystemCoreClockUpdate:0000000000000110 .L0 
C:\Users\LOCALH~1\AppData\Local\Temp\ccq2eR6F.s:519    .text.SystemCoreClockUpdate:0000000000000114 .L0 
C:\Users\LOCALH~1\AppData\Local\Temp\ccq2eR6F.s:1680   .debug_line_str:000000000000006f .L0 
C:\Users\LOCALH~1\AppData\Local\Temp\ccq2eR6F.s:1680   .debug_line_str:00000000000000c4 .L0 
C:\Users\LOCALH~1\AppData\Local\Temp\ccq2eR6F.s:1680   .debug_line_str:00000000000000cc .L0 
C:\Users\LOCALH~1\AppData\Local\Temp\ccq2eR6F.s:1680   .debug_line_str:0000000000000128 .L0 
C:\Users\LOCALH~1\AppData\Local\Temp\ccq2eR6F.s:1680   .debug_line_str:0000000000000180 .L0 
C:\Users\LOCALH~1\AppData\Local\Temp\ccq2eR6F.s:1680   .debug_line_str:00000000000001e0 .L0 
C:\Users\LOCALH~1\AppData\Local\Temp\ccq2eR6F.s:1680   .debug_line_str:0000000000000236 .L0 
C:\Users\LOCALH~1\AppData\Local\Temp\ccq2eR6F.s:1680   .debug_line_str:000000000000028c .L0 
C:\Users\LOCALH~1\AppData\Local\Temp\ccq2eR6F.s:1680   .debug_line_str:000000000000029e .L0 
C:\Users\LOCALH~1\AppData\Local\Temp\ccq2eR6F.s:1680   .debug_line_str:00000000000002b0 .L0 
C:\Users\LOCALH~1\AppData\Local\Temp\ccq2eR6F.s:1680   .debug_line_str:00000000000002c1 .L0 
C:\Users\LOCALH~1\AppData\Local\Temp\ccq2eR6F.s:1680   .debug_line_str:00000000000002cb .L0 
C:\Users\LOCALH~1\AppData\Local\Temp\ccq2eR6F.s:1680   .debug_line_str:00000000000002d6 .L0 
C:\Users\LOCALH~1\AppData\Local\Temp\ccq2eR6F.s:1680   .debug_line_str:00000000000002e8 .L0 
C:\Users\LOCALH~1\AppData\Local\Temp\ccq2eR6F.s:251    .text.SystemInit:00000000000000fa .L0 
C:\Users\LOCALH~1\AppData\Local\Temp\ccq2eR6F.s:523    .text.SystemCoreClockUpdate:0000000000000114 .L0 
                     .debug_frame:0000000000000000 .L0 
C:\Users\LOCALH~1\AppData\Local\Temp\ccq2eR6F.s:128    .text.SystemInit:000000000000007e .L2
C:\Users\LOCALH~1\AppData\Local\Temp\ccq2eR6F.s:105    .text.SystemInit:0000000000000068 .L3
C:\Users\LOCALH~1\AppData\Local\Temp\ccq2eR6F.s:236    .text.SystemInit:00000000000000f6 .L4
C:\Users\LOCALH~1\AppData\Local\Temp\ccq2eR6F.s:227    .text.SystemInit:00000000000000f2 .L1
C:\Users\LOCALH~1\AppData\Local\Temp\ccq2eR6F.s:192    .text.SystemInit:00000000000000d0 .L7
C:\Users\LOCALH~1\AppData\Local\Temp\ccq2eR6F.s:218    .text.SystemInit:00000000000000ea .L8
C:\Users\LOCALH~1\AppData\Local\Temp\ccq2eR6F.s:142    .text.SystemInit:0000000000000090 .L5
C:\Users\LOCALH~1\AppData\Local\Temp\ccq2eR6F.s:270    .text.SystemCoreClockUpdate:0000000000000008 .L0 
C:\Users\LOCALH~1\AppData\Local\Temp\ccq2eR6F.s:290    .text.SystemCoreClockUpdate:0000000000000026 .L0 
C:\Users\LOCALH~1\AppData\Local\Temp\ccq2eR6F.s:306    .text.SystemCoreClockUpdate:0000000000000040 .L15
C:\Users\LOCALH~1\AppData\Local\Temp\ccq2eR6F.s:377    .text.SystemCoreClockUpdate:0000000000000086 .L29
C:\Users\LOCALH~1\AppData\Local\Temp\ccq2eR6F.s:383    .text.SystemCoreClockUpdate:000000000000008a .L30
C:\Users\LOCALH~1\AppData\Local\Temp\ccq2eR6F.s:391    .text.SystemCoreClockUpdate:0000000000000090 .L31
C:\Users\LOCALH~1\AppData\Local\Temp\ccq2eR6F.s:398    .text.SystemCoreClockUpdate:0000000000000096 .L32
C:\Users\LOCALH~1\AppData\Local\Temp\ccq2eR6F.s:411    .text.SystemCoreClockUpdate:00000000000000a6 .L19
C:\Users\LOCALH~1\AppData\Local\Temp\ccq2eR6F.s:405    .text.SystemCoreClockUpdate:000000000000009c .L20
C:\Users\LOCALH~1\AppData\Local\Temp\ccq2eR6F.s:514    .text.SystemCoreClockUpdate:0000000000000110 .L28
C:\Users\LOCALH~1\AppData\Local\Temp\ccq2eR6F.s:284    .text.SystemCoreClockUpdate:0000000000000020 .L16
C:\Users\LOCALH~1\AppData\Local\Temp\ccq2eR6F.s:343    .text.SystemCoreClockUpdate:0000000000000064 .L17
C:\Users\LOCALH~1\AppData\Local\Temp\ccq2eR6F.s:346    .text.SystemCoreClockUpdate:0000000000000066 .L18
C:\Users\LOCALH~1\AppData\Local\Temp\ccq2eR6F.s:364    .text.SystemCoreClockUpdate:000000000000007c .L36
C:\Users\LOCALH~1\AppData\Local\Temp\ccq2eR6F.s:502    .text.SystemCoreClockUpdate:0000000000000102 .L22
C:\Users\LOCALH~1\AppData\Local\Temp\ccq2eR6F.s:470    .text.SystemCoreClockUpdate:00000000000000e6 .L23
C:\Users\LOCALH~1\AppData\Local\Temp\ccq2eR6F.s:481    .text.SystemCoreClockUpdate:00000000000000f0 .L25
C:\Users\LOCALH~1\AppData\Local\Temp\ccq2eR6F.s:450    .text.SystemCoreClockUpdate:00000000000000d0 .L33
C:\Users\LOCALH~1\AppData\Local\Temp\ccq2eR6F.s:495    .text.SystemCoreClockUpdate:00000000000000fe .L26
C:\Users\LOCALH~1\AppData\Local\Temp\ccq2eR6F.s:455    .text.SystemCoreClockUpdate:00000000000000d6 .L24
C:\Users\LOCALH~1\AppData\Local\Temp\ccq2eR6F.s:490    .text.SystemCoreClockUpdate:00000000000000f8 .L34
C:\Users\LOCALH~1\AppData\Local\Temp\ccq2eR6F.s:465    .text.SystemCoreClockUpdate:00000000000000e0 .L35
C:\Users\LOCALH~1\AppData\Local\Temp\ccq2eR6F.s:372    .text.SystemCoreClockUpdate:0000000000000082 .L37
C:\Users\LOCALH~1\AppData\Local\Temp\ccq2eR6F.s:916    .debug_abbrev:0000000000000000 .Ldebug_abbrev0
C:\Users\LOCALH~1\AppData\Local\Temp\ccq2eR6F.s:1665   .debug_str:00000000000001e1 .LASF45
C:\Users\LOCALH~1\AppData\Local\Temp\ccq2eR6F.s:1678   .debug_line_str:0000000000000055 .LASF0
C:\Users\LOCALH~1\AppData\Local\Temp\ccq2eR6F.s:1676   .debug_line_str:0000000000000000 .LASF1
C:\Users\LOCALH~1\AppData\Local\Temp\ccq2eR6F.s:1567   .debug_rnglists:0000000000000028 .LLRL6
C:\Users\LOCALH~1\AppData\Local\Temp\ccq2eR6F.s:1577   .debug_line:0000000000000000 .Ldebug_line0
C:\Users\LOCALH~1\AppData\Local\Temp\ccq2eR6F.s:1635   .debug_str:000000000000012f .LASF2
C:\Users\LOCALH~1\AppData\Local\Temp\ccq2eR6F.s:1671   .debug_str:00000000000002f7 .LASF3
C:\Users\LOCALH~1\AppData\Local\Temp\ccq2eR6F.s:1581   .debug_str:000000000000000a .LASF6
C:\Users\LOCALH~1\AppData\Local\Temp\ccq2eR6F.s:1615   .debug_str:00000000000000c9 .LASF4
C:\Users\LOCALH~1\AppData\Local\Temp\ccq2eR6F.s:1655   .debug_str:00000000000001af .LASF5
C:\Users\LOCALH~1\AppData\Local\Temp\ccq2eR6F.s:1627   .debug_str:000000000000010c .LASF7
C:\Users\LOCALH~1\AppData\Local\Temp\ccq2eR6F.s:1597   .debug_str:000000000000005d .LASF8
C:\Users\LOCALH~1\AppData\Local\Temp\ccq2eR6F.s:1667   .debug_str:00000000000002e2 .LASF9
C:\Users\LOCALH~1\AppData\Local\Temp\ccq2eR6F.s:1629   .debug_str:0000000000000117 .LASF10
C:\Users\LOCALH~1\AppData\Local\Temp\ccq2eR6F.s:1621   .debug_str:00000000000000eb .LASF11
C:\Users\LOCALH~1\AppData\Local\Temp\ccq2eR6F.s:1647   .debug_str:0000000000000167 .LASF12
C:\Users\LOCALH~1\AppData\Local\Temp\ccq2eR6F.s:1613   .debug_str:00000000000000b2 .LASF13
C:\Users\LOCALH~1\AppData\Local\Temp\ccq2eR6F.s:1639   .debug_str:0000000000000141 .LASF14
C:\Users\LOCALH~1\AppData\Local\Temp\ccq2eR6F.s:1659   .debug_str:00000000000001c3 .LASF15
C:\Users\LOCALH~1\AppData\Local\Temp\ccq2eR6F.s:1625   .debug_str:0000000000000103 .LASF16
C:\Users\LOCALH~1\AppData\Local\Temp\ccq2eR6F.s:1623   .debug_str:00000000000000fd .LASF17
C:\Users\LOCALH~1\AppData\Local\Temp\ccq2eR6F.s:1651   .debug_str:0000000000000189 .LASF37
C:\Users\LOCALH~1\AppData\Local\Temp\ccq2eR6F.s:1633   .debug_str:000000000000012a .LASF18
C:\Users\LOCALH~1\AppData\Local\Temp\ccq2eR6F.s:1619   .debug_str:00000000000000e5 .LASF19
C:\Users\LOCALH~1\AppData\Local\Temp\ccq2eR6F.s:1673   .debug_str:0000000000000303 .LASF20
C:\Users\LOCALH~1\AppData\Local\Temp\ccq2eR6F.s:1607   .debug_str:0000000000000096 .LASF21
C:\Users\LOCALH~1\AppData\Local\Temp\ccq2eR6F.s:1579   .debug_str:0000000000000000 .LASF22
C:\Users\LOCALH~1\AppData\Local\Temp\ccq2eR6F.s:1587   .debug_str:000000000000002d .LASF23
C:\Users\LOCALH~1\AppData\Local\Temp\ccq2eR6F.s:1585   .debug_str:0000000000000023 .LASF24
C:\Users\LOCALH~1\AppData\Local\Temp\ccq2eR6F.s:1657   .debug_str:00000000000001b9 .LASF25
C:\Users\LOCALH~1\AppData\Local\Temp\ccq2eR6F.s:1643   .debug_str:0000000000000155 .LASF26
C:\Users\LOCALH~1\AppData\Local\Temp\ccq2eR6F.s:1611   .debug_str:00000000000000aa .LASF27
C:\Users\LOCALH~1\AppData\Local\Temp\ccq2eR6F.s:1591   .debug_str:0000000000000040 .LASF28
C:\Users\LOCALH~1\AppData\Local\Temp\ccq2eR6F.s:1605   .debug_str:0000000000000090 .LASF29
C:\Users\LOCALH~1\AppData\Local\Temp\ccq2eR6F.s:1663   .debug_str:00000000000001d5 .LASF30
C:\Users\LOCALH~1\AppData\Local\Temp\ccq2eR6F.s:1609   .debug_str:00000000000000a0 .LASF31
C:\Users\LOCALH~1\AppData\Local\Temp\ccq2eR6F.s:1601   .debug_str:0000000000000078 .LASF32
C:\Users\LOCALH~1\AppData\Local\Temp\ccq2eR6F.s:1593   .debug_str:0000000000000048 .LASF33
C:\Users\LOCALH~1\AppData\Local\Temp\ccq2eR6F.s:1603   .debug_str:0000000000000082 .LASF34
C:\Users\LOCALH~1\AppData\Local\Temp\ccq2eR6F.s:1669   .debug_str:00000000000002eb .LASF35
C:\Users\LOCALH~1\AppData\Local\Temp\ccq2eR6F.s:1637   .debug_str:000000000000013c .LASF36
C:\Users\LOCALH~1\AppData\Local\Temp\ccq2eR6F.s:1617   .debug_str:00000000000000d7 .LASF38
C:\Users\LOCALH~1\AppData\Local\Temp\ccq2eR6F.s:1649   .debug_str:0000000000000175 .LASF46
C:\Users\LOCALH~1\AppData\Local\Temp\ccq2eR6F.s:1583   .debug_str:0000000000000014 .LASF39
C:\Users\LOCALH~1\AppData\Local\Temp\ccq2eR6F.s:1595   .debug_str:0000000000000053 .LASF40
C:\Users\LOCALH~1\AppData\Local\Temp\ccq2eR6F.s:1641   .debug_str:0000000000000149 .LASF47
C:\Users\LOCALH~1\AppData\Local\Temp\ccq2eR6F.s:1653   .debug_str:0000000000000199 .LASF48
C:\Users\LOCALH~1\AppData\Local\Temp\ccq2eR6F.s:256    .text.SystemCoreClockUpdate:0000000000000000 .LFB30
C:\Users\LOCALH~1\AppData\Local\Temp\ccq2eR6F.s:520    .text.SystemCoreClockUpdate:0000000000000114 .LFE30
C:\Users\LOCALH~1\AppData\Local\Temp\ccq2eR6F.s:1330   .debug_loclists:000000000000000c .LLST1
C:\Users\LOCALH~1\AppData\Local\Temp\ccq2eR6F.s:1631   .debug_str:0000000000000122 .LASF41
C:\Users\LOCALH~1\AppData\Local\Temp\ccq2eR6F.s:1362   .debug_loclists:0000000000000049 .LLST2
C:\Users\LOCALH~1\AppData\Local\Temp\ccq2eR6F.s:1589   .debug_str:0000000000000036 .LASF42
C:\Users\LOCALH~1\AppData\Local\Temp\ccq2eR6F.s:1436   .debug_loclists:00000000000000da .LLST3
C:\Users\LOCALH~1\AppData\Local\Temp\ccq2eR6F.s:1599   .debug_str:0000000000000070 .LASF43
C:\Users\LOCALH~1\AppData\Local\Temp\ccq2eR6F.s:1460   .debug_loclists:0000000000000109 .LLST4
C:\Users\LOCALH~1\AppData\Local\Temp\ccq2eR6F.s:1661   .debug_str:00000000000001cc .LASF44
C:\Users\LOCALH~1\AppData\Local\Temp\ccq2eR6F.s:1480   .debug_loclists:000000000000012e .LLST5
C:\Users\LOCALH~1\AppData\Local\Temp\ccq2eR6F.s:1645   .debug_str:000000000000015c .LASF49
C:\Users\LOCALH~1\AppData\Local\Temp\ccq2eR6F.s:15     .text.SystemInit:0000000000000000 .LFB29
C:\Users\LOCALH~1\AppData\Local\Temp\ccq2eR6F.s:249    .text.SystemInit:00000000000000fa .LFE29
C:\Users\LOCALH~1\AppData\Local\Temp\ccq2eR6F.s:34     .text.SystemInit:0000000000000014 .LBB8
C:\Users\LOCALH~1\AppData\Local\Temp\ccq2eR6F.s:1556   .debug_rnglists:000000000000000c .LLRL0
C:\Users\LOCALH~1\AppData\Local\Temp\ccq2eR6F.s:35     .text.SystemInit:0000000000000014 .LBB9
C:\Users\LOCALH~1\AppData\Local\Temp\ccq2eR6F.s:260    .text.SystemCoreClockUpdate:0000000000000000 .LVL0
C:\Users\LOCALH~1\AppData\Local\Temp\ccq2eR6F.s:267    .text.SystemCoreClockUpdate:0000000000000006 .LVL1
C:\Users\LOCALH~1\AppData\Local\Temp\ccq2eR6F.s:273    .text.SystemCoreClockUpdate:0000000000000012 .LVL2
C:\Users\LOCALH~1\AppData\Local\Temp\ccq2eR6F.s:279    .text.SystemCoreClockUpdate:000000000000001a .LVL3
C:\Users\LOCALH~1\AppData\Local\Temp\ccq2eR6F.s:297    .text.SystemCoreClockUpdate:0000000000000036 .LVL5
C:\Users\LOCALH~1\AppData\Local\Temp\ccq2eR6F.s:305    .text.SystemCoreClockUpdate:0000000000000040 .LVL6
C:\Users\LOCALH~1\AppData\Local\Temp\ccq2eR6F.s:310    .text.SystemCoreClockUpdate:0000000000000042 .LVL7
C:\Users\LOCALH~1\AppData\Local\Temp\ccq2eR6F.s:283    .text.SystemCoreClockUpdate:0000000000000020 .LVL4
C:\Users\LOCALH~1\AppData\Local\Temp\ccq2eR6F.s:318    .text.SystemCoreClockUpdate:0000000000000048 .LVL8
C:\Users\LOCALH~1\AppData\Local\Temp\ccq2eR6F.s:322    .text.SystemCoreClockUpdate:000000000000004c .LVL9
C:\Users\LOCALH~1\AppData\Local\Temp\ccq2eR6F.s:327    .text.SystemCoreClockUpdate:0000000000000050 .LVL10
C:\Users\LOCALH~1\AppData\Local\Temp\ccq2eR6F.s:342    .text.SystemCoreClockUpdate:0000000000000064 .LVL12
C:\Users\LOCALH~1\AppData\Local\Temp\ccq2eR6F.s:347    .text.SystemCoreClockUpdate:0000000000000066 .LVL13
C:\Users\LOCALH~1\AppData\Local\Temp\ccq2eR6F.s:368    .text.SystemCoreClockUpdate:0000000000000080 .LVL15
C:\Users\LOCALH~1\AppData\Local\Temp\ccq2eR6F.s:376    .text.SystemCoreClockUpdate:0000000000000086 .LVL16
C:\Users\LOCALH~1\AppData\Local\Temp\ccq2eR6F.s:380    .text.SystemCoreClockUpdate:0000000000000088 .LVL17
C:\Users\LOCALH~1\AppData\Local\Temp\ccq2eR6F.s:382    .text.SystemCoreClockUpdate:000000000000008a .LVL18
C:\Users\LOCALH~1\AppData\Local\Temp\ccq2eR6F.s:388    .text.SystemCoreClockUpdate:000000000000008e .LVL19
C:\Users\LOCALH~1\AppData\Local\Temp\ccq2eR6F.s:390    .text.SystemCoreClockUpdate:0000000000000090 .LVL20
C:\Users\LOCALH~1\AppData\Local\Temp\ccq2eR6F.s:395    .text.SystemCoreClockUpdate:0000000000000094 .LVL21
C:\Users\LOCALH~1\AppData\Local\Temp\ccq2eR6F.s:397    .text.SystemCoreClockUpdate:0000000000000096 .LVL22
C:\Users\LOCALH~1\AppData\Local\Temp\ccq2eR6F.s:402    .text.SystemCoreClockUpdate:000000000000009a .LVL23
C:\Users\LOCALH~1\AppData\Local\Temp\ccq2eR6F.s:404    .text.SystemCoreClockUpdate:000000000000009c .LVL24
C:\Users\LOCALH~1\AppData\Local\Temp\ccq2eR6F.s:513    .text.SystemCoreClockUpdate:0000000000000110 .LVL36
C:\Users\LOCALH~1\AppData\Local\Temp\ccq2eR6F.s:363    .text.SystemCoreClockUpdate:000000000000007c .LVL14
C:\Users\LOCALH~1\AppData\Local\Temp\ccq2eR6F.s:418    .text.SystemCoreClockUpdate:00000000000000ae .LVL25
C:\Users\LOCALH~1\AppData\Local\Temp\ccq2eR6F.s:337    .text.SystemCoreClockUpdate:000000000000005e .LVL11
C:\Users\LOCALH~1\AppData\Local\Temp\ccq2eR6F.s:442    .text.SystemCoreClockUpdate:00000000000000cc .LVL26
C:\Users\LOCALH~1\AppData\Local\Temp\ccq2eR6F.s:449    .text.SystemCoreClockUpdate:00000000000000d0 .LVL27
C:\Users\LOCALH~1\AppData\Local\Temp\ccq2eR6F.s:469    .text.SystemCoreClockUpdate:00000000000000e6 .LVL29
C:\Users\LOCALH~1\AppData\Local\Temp\ccq2eR6F.s:478    .text.SystemCoreClockUpdate:00000000000000ee .LVL30
C:\Users\LOCALH~1\AppData\Local\Temp\ccq2eR6F.s:480    .text.SystemCoreClockUpdate:00000000000000f0 .LVL31
C:\Users\LOCALH~1\AppData\Local\Temp\ccq2eR6F.s:489    .text.SystemCoreClockUpdate:00000000000000f8 .LVL32
C:\Users\LOCALH~1\AppData\Local\Temp\ccq2eR6F.s:494    .text.SystemCoreClockUpdate:00000000000000fe .LVL33
C:\Users\LOCALH~1\AppData\Local\Temp\ccq2eR6F.s:499    .text.SystemCoreClockUpdate:0000000000000100 .LVL34
C:\Users\LOCALH~1\AppData\Local\Temp\ccq2eR6F.s:501    .text.SystemCoreClockUpdate:0000000000000102 .LVL35
C:\Users\LOCALH~1\AppData\Local\Temp\ccq2eR6F.s:552    .debug_info:0000000000000000 .Ldebug_info0
C:\Users\LOCALH~1\AppData\Local\Temp\ccq2eR6F.s:41     .text.SystemInit:0000000000000018 .LBE8
C:\Users\LOCALH~1\AppData\Local\Temp\ccq2eR6F.s:85     .text.SystemInit:0000000000000056 .LBB15
C:\Users\LOCALH~1\AppData\Local\Temp\ccq2eR6F.s:230    .text.SystemInit:00000000000000f2 .LBE15
C:\Users\LOCALH~1\AppData\Local\Temp\ccq2eR6F.s:238    .text.SystemInit:00000000000000f6 .LBB16
C:\Users\LOCALH~1\AppData\Local\Temp\ccq2eR6F.s:247    .text.SystemInit:00000000000000fa .LBE16

NO UNDEFINED SYMBOLS
