   1              		.file	"ch32v30x_dvp.c"
   2              		.option nopic
   3              		.attribute arch, "rv32i2p0_m2p0_a2p0_f2p0_c2p0_xw"
   4              		.attribute unaligned_access, 0
   5              		.attribute stack_align, 16
   6              		.text
   7              	.Ltext0:
   8              		.cfi_sections	.debug_frame
   9              		.file 0 "C:\\Users\\localhost\\Documents\\turbomoskal-repo\\qqexpert\\firmware\\MasterController\\
  10              		.section	.text.DVP_INTCfg,"ax",@progbits
  11              		.align	1
  12              		.globl	DVP_INTCfg
  14              	DVP_INTCfg:
  15              	.LFB29:
  16              		.file 1 "../Peripheral/src/ch32v30x_dvp.c"
   1:../Peripheral/src/ch32v30x_dvp.c **** /********************************** (C) COPYRIGHT  *******************************
   2:../Peripheral/src/ch32v30x_dvp.c **** * File Name          : ch32v30x_dvp.c
   3:../Peripheral/src/ch32v30x_dvp.c **** * Author             : WCH
   4:../Peripheral/src/ch32v30x_dvp.c **** * Version            : V1.0.0
   5:../Peripheral/src/ch32v30x_dvp.c **** * Date               : 2021/06/06
   6:../Peripheral/src/ch32v30x_dvp.c **** * Description        : This file provides all the DVP firmware functions.
   7:../Peripheral/src/ch32v30x_dvp.c **** *********************************************************************************
   8:../Peripheral/src/ch32v30x_dvp.c **** * Copyright (c) 2021 Nanjing Qinheng Microelectronics Co., Ltd.
   9:../Peripheral/src/ch32v30x_dvp.c **** * Attention: This software (modified or not) and binary are used for 
  10:../Peripheral/src/ch32v30x_dvp.c **** * microcontroller manufactured by Nanjing Qinheng Microelectronics.
  11:../Peripheral/src/ch32v30x_dvp.c **** *******************************************************************************/
  12:../Peripheral/src/ch32v30x_dvp.c **** #include "ch32v30x_dvp.h"
  13:../Peripheral/src/ch32v30x_dvp.c **** 
  14:../Peripheral/src/ch32v30x_dvp.c **** /*********************************************************************
  15:../Peripheral/src/ch32v30x_dvp.c ****  * @fn      DVP_INTCfg
  16:../Peripheral/src/ch32v30x_dvp.c ****  *
  17:../Peripheral/src/ch32v30x_dvp.c ****  * @brief   DVP interrupt configuration
  18:../Peripheral/src/ch32v30x_dvp.c ****  *
  19:../Peripheral/src/ch32v30x_dvp.c ****  * @param   s - interrupt enable
  20:../Peripheral/src/ch32v30x_dvp.c ****  *             ENABLE
  21:../Peripheral/src/ch32v30x_dvp.c ****  *             DISABLE
  22:../Peripheral/src/ch32v30x_dvp.c ****  *          i - interrupt type
  23:../Peripheral/src/ch32v30x_dvp.c ****  *             RB_DVP_IE_STP_FRM
  24:../Peripheral/src/ch32v30x_dvp.c ****  *             RB_DVP_IE_FIFO_OV
  25:../Peripheral/src/ch32v30x_dvp.c ****  *             RB_DVP_IE_FRM_DONE
  26:../Peripheral/src/ch32v30x_dvp.c ****  *             RB_DVP_IE_ROW_DONE
  27:../Peripheral/src/ch32v30x_dvp.c ****  *             RB_DVP_IE_STR_FRM
  28:../Peripheral/src/ch32v30x_dvp.c ****  *
  29:../Peripheral/src/ch32v30x_dvp.c ****  * @return  none
  30:../Peripheral/src/ch32v30x_dvp.c ****  */
  31:../Peripheral/src/ch32v30x_dvp.c **** void DVP_INTCfg(uint8_t s, uint8_t i)
  32:../Peripheral/src/ch32v30x_dvp.c **** {
  17              		.loc 1 32 1
  18              		.cfi_startproc
  19              	.LVL0:
  33:../Peripheral/src/ch32v30x_dvp.c ****     if(s)
  20              		.loc 1 33 5
  34:../Peripheral/src/ch32v30x_dvp.c ****     {
  35:../Peripheral/src/ch32v30x_dvp.c ****         DVP->IER |= i;
  21              		.loc 1 35 12 is_stmt 0
  22 0000 37070550 		li	a4,1342504960
  23 0004 3C23     		lbu	a5,2(a4)
  33:../Peripheral/src/ch32v30x_dvp.c ****     if(s)
  24              		.loc 1 33 7
  25 0006 01C5     		beq	a0,zero,.L2
  26              		.loc 1 35 9 is_stmt 1
  27              		.loc 1 35 18 is_stmt 0
  28 0008 CD8F     		or	a5,a5,a1
  29              	.LVL1:
  30              	.L4:
  36:../Peripheral/src/ch32v30x_dvp.c ****     }
  37:../Peripheral/src/ch32v30x_dvp.c ****     else
  38:../Peripheral/src/ch32v30x_dvp.c ****     {
  39:../Peripheral/src/ch32v30x_dvp.c ****         DVP->IER &= ~i;
  31              		.loc 1 39 18
  32 000a 3CA3     		sb	a5,2(a4)
  40:../Peripheral/src/ch32v30x_dvp.c ****     }
  41:../Peripheral/src/ch32v30x_dvp.c **** }
  33              		.loc 1 41 1
  34 000c 8280     		ret
  35              	.LVL2:
  36              	.L2:
  39:../Peripheral/src/ch32v30x_dvp.c ****     }
  37              		.loc 1 39 9 is_stmt 1
  39:../Peripheral/src/ch32v30x_dvp.c ****     }
  38              		.loc 1 39 18 is_stmt 0
  39 000e 93C5F5FF 		not	a1,a1
  40              	.LVL3:
  41 0012 ED8F     		and	a5,a5,a1
  42 0014 DDBF     		j	.L4
  43              		.cfi_endproc
  44              	.LFE29:
  46              		.section	.text.DVP_Mode,"ax",@progbits
  47              		.align	1
  48              		.globl	DVP_Mode
  50              	DVP_Mode:
  51              	.LFB30:
  42:../Peripheral/src/ch32v30x_dvp.c **** 
  43:../Peripheral/src/ch32v30x_dvp.c **** /*********************************************************************
  44:../Peripheral/src/ch32v30x_dvp.c ****  * @fn      DVP_Mode
  45:../Peripheral/src/ch32v30x_dvp.c ****  *
  46:../Peripheral/src/ch32v30x_dvp.c ****  * @brief   DVP mode
  47:../Peripheral/src/ch32v30x_dvp.c ****  *
  48:../Peripheral/src/ch32v30x_dvp.c ****  * @param   s - data bit width
  49:../Peripheral/src/ch32v30x_dvp.c ****  *             RB_DVP_D8_MOD
  50:../Peripheral/src/ch32v30x_dvp.c ****  *             RB_DVP_D10_MOD
  51:../Peripheral/src/ch32v30x_dvp.c ****  *             RB_DVP_D12_MOD
  52:../Peripheral/src/ch32v30x_dvp.c ****  *          i - interrupt type
  53:../Peripheral/src/ch32v30x_dvp.c ****  *             Video_Mode
  54:../Peripheral/src/ch32v30x_dvp.c ****  *             JPEG_Mode
  55:../Peripheral/src/ch32v30x_dvp.c ****  *
  56:../Peripheral/src/ch32v30x_dvp.c ****  * @return  none
  57:../Peripheral/src/ch32v30x_dvp.c ****  */
  58:../Peripheral/src/ch32v30x_dvp.c **** void DVP_Mode(uint8_t s, DVP_Data_ModeTypeDef i)
  59:../Peripheral/src/ch32v30x_dvp.c **** {
  52              		.loc 1 59 1 is_stmt 1
  53              		.cfi_startproc
  54              	.LVL4:
  60:../Peripheral/src/ch32v30x_dvp.c ****     DVP->CR0 &= ~RB_DVP_MSK_DAT_MOD;
  55              		.loc 1 60 5
  56              		.loc 1 60 8 is_stmt 0
  57 0000 B7070550 		li	a5,1342504960
  58 0004 9823     		lbu	a4,0(a5)
  59              		.loc 1 60 14
  60 0006 1377F70C 		andi	a4,a4,207
  61 000a 98A3     		sb	a4,0(a5)
  61:../Peripheral/src/ch32v30x_dvp.c **** 
  62:../Peripheral/src/ch32v30x_dvp.c ****     if(s)
  62              		.loc 1 62 5 is_stmt 1
  63:../Peripheral/src/ch32v30x_dvp.c ****     {
  64:../Peripheral/src/ch32v30x_dvp.c ****         DVP->CR0 |= s;
  63              		.loc 1 64 12 is_stmt 0
  64 000c 9823     		lbu	a4,0(a5)
  62:../Peripheral/src/ch32v30x_dvp.c ****     {
  65              		.loc 1 62 7
  66 000e 19C9     		beq	a0,zero,.L6
  67              		.loc 1 64 9 is_stmt 1
  68              		.loc 1 64 18 is_stmt 0
  69 0010 498F     		or	a4,a4,a0
  70              	.L10:
  65:../Peripheral/src/ch32v30x_dvp.c ****     }
  66:../Peripheral/src/ch32v30x_dvp.c ****     else
  67:../Peripheral/src/ch32v30x_dvp.c ****     {
  68:../Peripheral/src/ch32v30x_dvp.c ****         DVP->CR0 &= ~(3 << 4);
  71              		.loc 1 68 18
  72 0012 98A3     		sb	a4,0(a5)
  69:../Peripheral/src/ch32v30x_dvp.c ****     }
  70:../Peripheral/src/ch32v30x_dvp.c **** 
  71:../Peripheral/src/ch32v30x_dvp.c ****     if(i)
  73              		.loc 1 71 5 is_stmt 1
  72:../Peripheral/src/ch32v30x_dvp.c ****     {
  73:../Peripheral/src/ch32v30x_dvp.c ****         DVP->CR0 |= RB_DVP_JPEG;
  74              		.loc 1 73 12 is_stmt 0
  75 0014 37070550 		li	a4,1342504960
  76 0018 1C23     		lbu	a5,0(a4)
  71:../Peripheral/src/ch32v30x_dvp.c ****     {
  77              		.loc 1 71 7
  78 001a 81C9     		beq	a1,zero,.L8
  79              		.loc 1 73 9 is_stmt 1
  80              		.loc 1 73 18 is_stmt 0
  81 001c 93E70704 		ori	a5,a5,64
  82              	.L11:
  74:../Peripheral/src/ch32v30x_dvp.c ****     }
  75:../Peripheral/src/ch32v30x_dvp.c ****     else
  76:../Peripheral/src/ch32v30x_dvp.c ****     {
  77:../Peripheral/src/ch32v30x_dvp.c ****         DVP->CR0 &= ~RB_DVP_JPEG;
  83              		.loc 1 77 18
  84 0020 1CA3     		sb	a5,0(a4)
  78:../Peripheral/src/ch32v30x_dvp.c ****     }
  79:../Peripheral/src/ch32v30x_dvp.c **** }
  85              		.loc 1 79 1
  86 0022 8280     		ret
  87              	.L6:
  68:../Peripheral/src/ch32v30x_dvp.c ****     }
  88              		.loc 1 68 9 is_stmt 1
  68:../Peripheral/src/ch32v30x_dvp.c ****     }
  89              		.loc 1 68 18 is_stmt 0
  90 0024 1377F70C 		andi	a4,a4,207
  91 0028 EDB7     		j	.L10
  92              	.L8:
  77:../Peripheral/src/ch32v30x_dvp.c ****     }
  93              		.loc 1 77 9 is_stmt 1
  77:../Peripheral/src/ch32v30x_dvp.c ****     }
  94              		.loc 1 77 18 is_stmt 0
  95 002a 93F7F70B 		andi	a5,a5,191
  96 002e CDBF     		j	.L11
  97              		.cfi_endproc
  98              	.LFE30:
 100              		.section	.text.DVP_Cfg,"ax",@progbits
 101              		.align	1
 102              		.globl	DVP_Cfg
 104              	DVP_Cfg:
 105              	.LFB31:
  80:../Peripheral/src/ch32v30x_dvp.c **** 
  81:../Peripheral/src/ch32v30x_dvp.c **** /*********************************************************************
  82:../Peripheral/src/ch32v30x_dvp.c ****  * @fn      DVP_Cfg
  83:../Peripheral/src/ch32v30x_dvp.c ****  *
  84:../Peripheral/src/ch32v30x_dvp.c ****  * @brief   DVP configuration
  85:../Peripheral/src/ch32v30x_dvp.c ****  *
  86:../Peripheral/src/ch32v30x_dvp.c ****  * @param   s - DMA enable control
  87:../Peripheral/src/ch32v30x_dvp.c ****  *            DVP_DMA_Enable
  88:../Peripheral/src/ch32v30x_dvp.c ****  *            DVP_DMA_Disable
  89:../Peripheral/src/ch32v30x_dvp.c ****  *          i - DVP all clear
  90:../Peripheral/src/ch32v30x_dvp.c ****  *            DVP_FLAG_FIFO_RESET_Enable
  91:../Peripheral/src/ch32v30x_dvp.c ****  *            DVP_FLAG_FIFO_RESET_Disable
  92:../Peripheral/src/ch32v30x_dvp.c ****  *          j - receive reset enable
  93:../Peripheral/src/ch32v30x_dvp.c ****  *            DVP_RX_RESET_Enable
  94:../Peripheral/src/ch32v30x_dvp.c ****  *            DVP_RX_RESET_Disable
  95:../Peripheral/src/ch32v30x_dvp.c ****  *
  96:../Peripheral/src/ch32v30x_dvp.c ****  * @return  none
  97:../Peripheral/src/ch32v30x_dvp.c ****  */
  98:../Peripheral/src/ch32v30x_dvp.c **** void DVP_Cfg(DVP_DMATypeDef s, DVP_FLAG_FIFO_RESETTypeDef i, DVP_RX_RESETTypeDef j)
  99:../Peripheral/src/ch32v30x_dvp.c **** {
 106              		.loc 1 99 1 is_stmt 1
 107              		.cfi_startproc
 108              	.LVL5:
 100:../Peripheral/src/ch32v30x_dvp.c ****     switch(s)
 109              		.loc 1 100 5
 110 0000 1DCD     		beq	a0,zero,.L13
 111 0002 8547     		li	a5,1
 112 0004 6318F500 		bne	a0,a5,.L14
 101:../Peripheral/src/ch32v30x_dvp.c ****     {
 102:../Peripheral/src/ch32v30x_dvp.c ****         case DVP_DMA_Enable:
 103:../Peripheral/src/ch32v30x_dvp.c ****             DVP->CR1 |= RB_DVP_DMA_EN;
 113              		.loc 1 103 13
 114              		.loc 1 103 16 is_stmt 0
 115 0008 37070550 		li	a4,1342504960
 116 000c 1C33     		lbu	a5,1(a4)
 117              		.loc 1 103 22
 118 000e 93E71700 		ori	a5,a5,1
 119              	.L19:
 104:../Peripheral/src/ch32v30x_dvp.c ****             break;
 105:../Peripheral/src/ch32v30x_dvp.c ****         case DVP_DMA_Disable:
 106:../Peripheral/src/ch32v30x_dvp.c ****             DVP->CR1 &= ~RB_DVP_DMA_EN;
 120              		.loc 1 106 22
 121 0012 1CB3     		sb	a5,1(a4)
 107:../Peripheral/src/ch32v30x_dvp.c ****             break;
 122              		.loc 1 107 13 is_stmt 1
 123              	.L14:
 108:../Peripheral/src/ch32v30x_dvp.c ****         default:
 109:../Peripheral/src/ch32v30x_dvp.c ****             break;
 110:../Peripheral/src/ch32v30x_dvp.c ****     }
 111:../Peripheral/src/ch32v30x_dvp.c **** 
 112:../Peripheral/src/ch32v30x_dvp.c ****     switch(i)
 124              		.loc 1 112 5
 125 0014 9DC9     		beq	a1,zero,.L15
 126 0016 8547     		li	a5,1
 127 0018 6398F500 		bne	a1,a5,.L16
 113:../Peripheral/src/ch32v30x_dvp.c ****     {
 114:../Peripheral/src/ch32v30x_dvp.c ****         case DVP_RX_RESET_Enable:
 115:../Peripheral/src/ch32v30x_dvp.c ****             DVP->CR1 |= RB_DVP_ALL_CLR;
 128              		.loc 1 115 13
 129              		.loc 1 115 16 is_stmt 0
 130 001c 37070550 		li	a4,1342504960
 131 0020 1C33     		lbu	a5,1(a4)
 132              		.loc 1 115 22
 133 0022 93E72700 		ori	a5,a5,2
 134              	.L20:
 116:../Peripheral/src/ch32v30x_dvp.c ****             break;
 117:../Peripheral/src/ch32v30x_dvp.c ****         case DVP_RX_RESET_Disable:
 118:../Peripheral/src/ch32v30x_dvp.c ****             DVP->CR1 &= ~RB_DVP_ALL_CLR;
 135              		.loc 1 118 22
 136 0026 1CB3     		sb	a5,1(a4)
 119:../Peripheral/src/ch32v30x_dvp.c ****             break;
 137              		.loc 1 119 13 is_stmt 1
 138              	.L16:
 120:../Peripheral/src/ch32v30x_dvp.c ****         default:
 121:../Peripheral/src/ch32v30x_dvp.c ****             break;
 122:../Peripheral/src/ch32v30x_dvp.c ****     }
 123:../Peripheral/src/ch32v30x_dvp.c **** 
 124:../Peripheral/src/ch32v30x_dvp.c ****     switch(j)
 139              		.loc 1 124 5
 140 0028 1DC6     		beq	a2,zero,.L17
 141 002a 8547     		li	a5,1
 142 002c 6318F600 		bne	a2,a5,.L12
 125:../Peripheral/src/ch32v30x_dvp.c ****     {
 126:../Peripheral/src/ch32v30x_dvp.c ****         case DVP_RX_RESET_Enable:
 127:../Peripheral/src/ch32v30x_dvp.c ****             DVP->CR1 |= RB_DVP_RCV_CLR;
 143              		.loc 1 127 13
 144              		.loc 1 127 16 is_stmt 0
 145 0030 37070550 		li	a4,1342504960
 146 0034 1C33     		lbu	a5,1(a4)
 147              		.loc 1 127 22
 148 0036 93E74700 		ori	a5,a5,4
 149              	.L21:
 128:../Peripheral/src/ch32v30x_dvp.c ****             break;
 129:../Peripheral/src/ch32v30x_dvp.c ****         case DVP_RX_RESET_Disable:
 130:../Peripheral/src/ch32v30x_dvp.c ****             DVP->CR1 &= ~RB_DVP_RCV_CLR;
 150              		.loc 1 130 22
 151 003a 1CB3     		sb	a5,1(a4)
 131:../Peripheral/src/ch32v30x_dvp.c ****             break;
 152              		.loc 1 131 13 is_stmt 1
 153              	.L12:
 132:../Peripheral/src/ch32v30x_dvp.c ****         default:
 133:../Peripheral/src/ch32v30x_dvp.c ****             break;
 134:../Peripheral/src/ch32v30x_dvp.c ****     }
 135:../Peripheral/src/ch32v30x_dvp.c **** }
 154              		.loc 1 135 1 is_stmt 0
 155 003c 8280     		ret
 156              	.L13:
 106:../Peripheral/src/ch32v30x_dvp.c ****             break;
 157              		.loc 1 106 13 is_stmt 1
 106:../Peripheral/src/ch32v30x_dvp.c ****             break;
 158              		.loc 1 106 16 is_stmt 0
 159 003e 37070550 		li	a4,1342504960
 160 0042 1C33     		lbu	a5,1(a4)
 106:../Peripheral/src/ch32v30x_dvp.c ****             break;
 161              		.loc 1 106 22
 162 0044 93F7E70F 		andi	a5,a5,254
 163 0048 E9B7     		j	.L19
 164              	.L15:
 118:../Peripheral/src/ch32v30x_dvp.c ****             break;
 165              		.loc 1 118 13 is_stmt 1
 118:../Peripheral/src/ch32v30x_dvp.c ****             break;
 166              		.loc 1 118 16 is_stmt 0
 167 004a 37070550 		li	a4,1342504960
 168 004e 1C33     		lbu	a5,1(a4)
 118:../Peripheral/src/ch32v30x_dvp.c ****             break;
 169              		.loc 1 118 22
 170 0050 93F7D70F 		andi	a5,a5,253
 171 0054 C9BF     		j	.L20
 172              	.L17:
 130:../Peripheral/src/ch32v30x_dvp.c ****             break;
 173              		.loc 1 130 13 is_stmt 1
 130:../Peripheral/src/ch32v30x_dvp.c ****             break;
 174              		.loc 1 130 16 is_stmt 0
 175 0056 37070550 		li	a4,1342504960
 176 005a 1C33     		lbu	a5,1(a4)
 130:../Peripheral/src/ch32v30x_dvp.c ****             break;
 177              		.loc 1 130 22
 178 005c 93F7B70F 		andi	a5,a5,251
 179 0060 E9BF     		j	.L21
 180              		.cfi_endproc
 181              	.LFE31:
 183              		.text
 184              	.Letext0:
 185              		.file 2 "d:\\software\\mounriver_studio\\toolchain\\risc-v embedded gcc12\\riscv-none-elf\\include
 186              		.file 3 "d:\\software\\mounriver_studio\\toolchain\\risc-v embedded gcc12\\riscv-none-elf\\include
 187              		.file 4 "C:\\Users\\localhost\\Documents\\turbomoskal-repo\\qqexpert\\firmware\\MasterController\\
 188              		.file 5 "C:\\Users\\localhost\\Documents\\turbomoskal-repo\\qqexpert\\firmware\\MasterController\\
DEFINED SYMBOLS
                            *ABS*:0000000000000000 ch32v30x_dvp.c
C:\Users\LOCALH~1\AppData\Local\Temp\ccgQggRn.s:14     .text.DVP_INTCfg:0000000000000000 DVP_INTCfg
C:\Users\LOCALH~1\AppData\Local\Temp\ccgQggRn.s:18     .text.DVP_INTCfg:0000000000000000 .L0 
C:\Users\LOCALH~1\AppData\Local\Temp\ccgQggRn.s:20     .text.DVP_INTCfg:0000000000000000 .L0 
C:\Users\LOCALH~1\AppData\Local\Temp\ccgQggRn.s:21     .text.DVP_INTCfg:0000000000000000 .L0 
C:\Users\LOCALH~1\AppData\Local\Temp\ccgQggRn.s:22     .text.DVP_INTCfg:0000000000000000 $x
C:\Users\LOCALH~1\AppData\Local\Temp\ccgQggRn.s:22     .text.DVP_INTCfg:0000000000000000 .L0 
C:\Users\LOCALH~1\AppData\Local\Temp\ccgQggRn.s:25     .text.DVP_INTCfg:0000000000000006 .L0 
C:\Users\LOCALH~1\AppData\Local\Temp\ccgQggRn.s:27     .text.DVP_INTCfg:0000000000000008 .L0 
C:\Users\LOCALH~1\AppData\Local\Temp\ccgQggRn.s:28     .text.DVP_INTCfg:0000000000000008 .L0 
C:\Users\LOCALH~1\AppData\Local\Temp\ccgQggRn.s:32     .text.DVP_INTCfg:000000000000000a .L0 
C:\Users\LOCALH~1\AppData\Local\Temp\ccgQggRn.s:34     .text.DVP_INTCfg:000000000000000c .L0 
C:\Users\LOCALH~1\AppData\Local\Temp\ccgQggRn.s:38     .text.DVP_INTCfg:000000000000000e .L0 
C:\Users\LOCALH~1\AppData\Local\Temp\ccgQggRn.s:39     .text.DVP_INTCfg:000000000000000e .L0 
C:\Users\LOCALH~1\AppData\Local\Temp\ccgQggRn.s:43     .text.DVP_INTCfg:0000000000000016 .L0 
C:\Users\LOCALH~1\AppData\Local\Temp\ccgQggRn.s:50     .text.DVP_Mode:0000000000000000 DVP_Mode
C:\Users\LOCALH~1\AppData\Local\Temp\ccgQggRn.s:53     .text.DVP_Mode:0000000000000000 .L0 
C:\Users\LOCALH~1\AppData\Local\Temp\ccgQggRn.s:55     .text.DVP_Mode:0000000000000000 .L0 
C:\Users\LOCALH~1\AppData\Local\Temp\ccgQggRn.s:56     .text.DVP_Mode:0000000000000000 .L0 
C:\Users\LOCALH~1\AppData\Local\Temp\ccgQggRn.s:57     .text.DVP_Mode:0000000000000000 $x
C:\Users\LOCALH~1\AppData\Local\Temp\ccgQggRn.s:57     .text.DVP_Mode:0000000000000000 .L0 
C:\Users\LOCALH~1\AppData\Local\Temp\ccgQggRn.s:60     .text.DVP_Mode:0000000000000006 .L0 
C:\Users\LOCALH~1\AppData\Local\Temp\ccgQggRn.s:63     .text.DVP_Mode:000000000000000c .L0 
C:\Users\LOCALH~1\AppData\Local\Temp\ccgQggRn.s:64     .text.DVP_Mode:000000000000000c .L0 
C:\Users\LOCALH~1\AppData\Local\Temp\ccgQggRn.s:66     .text.DVP_Mode:000000000000000e .L0 
C:\Users\LOCALH~1\AppData\Local\Temp\ccgQggRn.s:68     .text.DVP_Mode:0000000000000010 .L0 
C:\Users\LOCALH~1\AppData\Local\Temp\ccgQggRn.s:69     .text.DVP_Mode:0000000000000010 .L0 
C:\Users\LOCALH~1\AppData\Local\Temp\ccgQggRn.s:72     .text.DVP_Mode:0000000000000012 .L0 
C:\Users\LOCALH~1\AppData\Local\Temp\ccgQggRn.s:74     .text.DVP_Mode:0000000000000014 .L0 
C:\Users\LOCALH~1\AppData\Local\Temp\ccgQggRn.s:75     .text.DVP_Mode:0000000000000014 .L0 
C:\Users\LOCALH~1\AppData\Local\Temp\ccgQggRn.s:78     .text.DVP_Mode:000000000000001a .L0 
C:\Users\LOCALH~1\AppData\Local\Temp\ccgQggRn.s:80     .text.DVP_Mode:000000000000001c .L0 
C:\Users\LOCALH~1\AppData\Local\Temp\ccgQggRn.s:81     .text.DVP_Mode:000000000000001c .L0 
C:\Users\LOCALH~1\AppData\Local\Temp\ccgQggRn.s:84     .text.DVP_Mode:0000000000000020 .L0 
C:\Users\LOCALH~1\AppData\Local\Temp\ccgQggRn.s:86     .text.DVP_Mode:0000000000000022 .L0 
C:\Users\LOCALH~1\AppData\Local\Temp\ccgQggRn.s:89     .text.DVP_Mode:0000000000000024 .L0 
C:\Users\LOCALH~1\AppData\Local\Temp\ccgQggRn.s:90     .text.DVP_Mode:0000000000000024 .L0 
C:\Users\LOCALH~1\AppData\Local\Temp\ccgQggRn.s:94     .text.DVP_Mode:000000000000002a .L0 
C:\Users\LOCALH~1\AppData\Local\Temp\ccgQggRn.s:95     .text.DVP_Mode:000000000000002a .L0 
C:\Users\LOCALH~1\AppData\Local\Temp\ccgQggRn.s:97     .text.DVP_Mode:0000000000000030 .L0 
C:\Users\LOCALH~1\AppData\Local\Temp\ccgQggRn.s:104    .text.DVP_Cfg:0000000000000000 DVP_Cfg
C:\Users\LOCALH~1\AppData\Local\Temp\ccgQggRn.s:107    .text.DVP_Cfg:0000000000000000 .L0 
C:\Users\LOCALH~1\AppData\Local\Temp\ccgQggRn.s:109    .text.DVP_Cfg:0000000000000000 .L0 
C:\Users\LOCALH~1\AppData\Local\Temp\ccgQggRn.s:110    .text.DVP_Cfg:0000000000000000 $x
C:\Users\LOCALH~1\AppData\Local\Temp\ccgQggRn.s:110    .text.DVP_Cfg:0000000000000000 .L0 
C:\Users\LOCALH~1\AppData\Local\Temp\ccgQggRn.s:114    .text.DVP_Cfg:0000000000000008 .L0 
C:\Users\LOCALH~1\AppData\Local\Temp\ccgQggRn.s:115    .text.DVP_Cfg:0000000000000008 .L0 
C:\Users\LOCALH~1\AppData\Local\Temp\ccgQggRn.s:118    .text.DVP_Cfg:000000000000000e .L0 
C:\Users\LOCALH~1\AppData\Local\Temp\ccgQggRn.s:121    .text.DVP_Cfg:0000000000000012 .L0 
C:\Users\LOCALH~1\AppData\Local\Temp\ccgQggRn.s:124    .text.DVP_Cfg:0000000000000014 .L0 
C:\Users\LOCALH~1\AppData\Local\Temp\ccgQggRn.s:125    .text.DVP_Cfg:0000000000000014 .L0 
C:\Users\LOCALH~1\AppData\Local\Temp\ccgQggRn.s:129    .text.DVP_Cfg:000000000000001c .L0 
C:\Users\LOCALH~1\AppData\Local\Temp\ccgQggRn.s:130    .text.DVP_Cfg:000000000000001c .L0 
C:\Users\LOCALH~1\AppData\Local\Temp\ccgQggRn.s:133    .text.DVP_Cfg:0000000000000022 .L0 
C:\Users\LOCALH~1\AppData\Local\Temp\ccgQggRn.s:136    .text.DVP_Cfg:0000000000000026 .L0 
C:\Users\LOCALH~1\AppData\Local\Temp\ccgQggRn.s:139    .text.DVP_Cfg:0000000000000028 .L0 
C:\Users\LOCALH~1\AppData\Local\Temp\ccgQggRn.s:140    .text.DVP_Cfg:0000000000000028 .L0 
C:\Users\LOCALH~1\AppData\Local\Temp\ccgQggRn.s:144    .text.DVP_Cfg:0000000000000030 .L0 
C:\Users\LOCALH~1\AppData\Local\Temp\ccgQggRn.s:145    .text.DVP_Cfg:0000000000000030 .L0 
C:\Users\LOCALH~1\AppData\Local\Temp\ccgQggRn.s:148    .text.DVP_Cfg:0000000000000036 .L0 
C:\Users\LOCALH~1\AppData\Local\Temp\ccgQggRn.s:151    .text.DVP_Cfg:000000000000003a .L0 
C:\Users\LOCALH~1\AppData\Local\Temp\ccgQggRn.s:154    .text.DVP_Cfg:000000000000003c .L0 
C:\Users\LOCALH~1\AppData\Local\Temp\ccgQggRn.s:155    .text.DVP_Cfg:000000000000003c .L0 
C:\Users\LOCALH~1\AppData\Local\Temp\ccgQggRn.s:158    .text.DVP_Cfg:000000000000003e .L0 
C:\Users\LOCALH~1\AppData\Local\Temp\ccgQggRn.s:159    .text.DVP_Cfg:000000000000003e .L0 
C:\Users\LOCALH~1\AppData\Local\Temp\ccgQggRn.s:162    .text.DVP_Cfg:0000000000000044 .L0 
C:\Users\LOCALH~1\AppData\Local\Temp\ccgQggRn.s:166    .text.DVP_Cfg:000000000000004a .L0 
C:\Users\LOCALH~1\AppData\Local\Temp\ccgQggRn.s:167    .text.DVP_Cfg:000000000000004a .L0 
C:\Users\LOCALH~1\AppData\Local\Temp\ccgQggRn.s:170    .text.DVP_Cfg:0000000000000050 .L0 
C:\Users\LOCALH~1\AppData\Local\Temp\ccgQggRn.s:174    .text.DVP_Cfg:0000000000000056 .L0 
C:\Users\LOCALH~1\AppData\Local\Temp\ccgQggRn.s:175    .text.DVP_Cfg:0000000000000056 .L0 
C:\Users\LOCALH~1\AppData\Local\Temp\ccgQggRn.s:178    .text.DVP_Cfg:000000000000005c .L0 
C:\Users\LOCALH~1\AppData\Local\Temp\ccgQggRn.s:180    .text.DVP_Cfg:0000000000000062 .L0 
C:\Users\LOCALH~1\AppData\Local\Temp\ccgQggRn.s:987    .debug_line_str:0000000000000076 .L0 
C:\Users\LOCALH~1\AppData\Local\Temp\ccgQggRn.s:987    .debug_line_str:00000000000000cb .L0 
C:\Users\LOCALH~1\AppData\Local\Temp\ccgQggRn.s:987    .debug_line_str:00000000000000dd .L0 
C:\Users\LOCALH~1\AppData\Local\Temp\ccgQggRn.s:987    .debug_line_str:0000000000000139 .L0 
C:\Users\LOCALH~1\AppData\Local\Temp\ccgQggRn.s:987    .debug_line_str:0000000000000191 .L0 
C:\Users\LOCALH~1\AppData\Local\Temp\ccgQggRn.s:987    .debug_line_str:00000000000001f1 .L0 
C:\Users\LOCALH~1\AppData\Local\Temp\ccgQggRn.s:987    .debug_line_str:0000000000000200 .L0 
C:\Users\LOCALH~1\AppData\Local\Temp\ccgQggRn.s:987    .debug_line_str:000000000000020f .L0 
C:\Users\LOCALH~1\AppData\Local\Temp\ccgQggRn.s:987    .debug_line_str:0000000000000220 .L0 
C:\Users\LOCALH~1\AppData\Local\Temp\ccgQggRn.s:987    .debug_line_str:000000000000022a .L0 
C:\Users\LOCALH~1\AppData\Local\Temp\ccgQggRn.s:987    .debug_line_str:0000000000000235 .L0 
C:\Users\LOCALH~1\AppData\Local\Temp\ccgQggRn.s:46     .text.DVP_INTCfg:0000000000000016 .L0 
C:\Users\LOCALH~1\AppData\Local\Temp\ccgQggRn.s:100    .text.DVP_Mode:0000000000000030 .L0 
C:\Users\LOCALH~1\AppData\Local\Temp\ccgQggRn.s:183    .text.DVP_Cfg:0000000000000062 .L0 
                     .debug_frame:0000000000000000 .L0 
C:\Users\LOCALH~1\AppData\Local\Temp\ccgQggRn.s:36     .text.DVP_INTCfg:000000000000000e .L2
C:\Users\LOCALH~1\AppData\Local\Temp\ccgQggRn.s:30     .text.DVP_INTCfg:000000000000000a .L4
C:\Users\LOCALH~1\AppData\Local\Temp\ccgQggRn.s:87     .text.DVP_Mode:0000000000000024 .L6
C:\Users\LOCALH~1\AppData\Local\Temp\ccgQggRn.s:92     .text.DVP_Mode:000000000000002a .L8
C:\Users\LOCALH~1\AppData\Local\Temp\ccgQggRn.s:70     .text.DVP_Mode:0000000000000012 .L10
C:\Users\LOCALH~1\AppData\Local\Temp\ccgQggRn.s:82     .text.DVP_Mode:0000000000000020 .L11
C:\Users\LOCALH~1\AppData\Local\Temp\ccgQggRn.s:156    .text.DVP_Cfg:000000000000003e .L13
C:\Users\LOCALH~1\AppData\Local\Temp\ccgQggRn.s:123    .text.DVP_Cfg:0000000000000014 .L14
C:\Users\LOCALH~1\AppData\Local\Temp\ccgQggRn.s:164    .text.DVP_Cfg:000000000000004a .L15
C:\Users\LOCALH~1\AppData\Local\Temp\ccgQggRn.s:138    .text.DVP_Cfg:0000000000000028 .L16
C:\Users\LOCALH~1\AppData\Local\Temp\ccgQggRn.s:172    .text.DVP_Cfg:0000000000000056 .L17
C:\Users\LOCALH~1\AppData\Local\Temp\ccgQggRn.s:153    .text.DVP_Cfg:000000000000003c .L12
C:\Users\LOCALH~1\AppData\Local\Temp\ccgQggRn.s:119    .text.DVP_Cfg:0000000000000012 .L19
C:\Users\LOCALH~1\AppData\Local\Temp\ccgQggRn.s:134    .text.DVP_Cfg:0000000000000026 .L20
C:\Users\LOCALH~1\AppData\Local\Temp\ccgQggRn.s:149    .text.DVP_Cfg:000000000000003a .L21
C:\Users\LOCALH~1\AppData\Local\Temp\ccgQggRn.s:562    .debug_abbrev:0000000000000000 .Ldebug_abbrev0
C:\Users\LOCALH~1\AppData\Local\Temp\ccgQggRn.s:970    .debug_str:0000000000000210 .LASF46
C:\Users\LOCALH~1\AppData\Local\Temp\ccgQggRn.s:985    .debug_line_str:0000000000000055 .LASF0
C:\Users\LOCALH~1\AppData\Local\Temp\ccgQggRn.s:983    .debug_line_str:0000000000000000 .LASF1
C:\Users\LOCALH~1\AppData\Local\Temp\ccgQggRn.s:875    .debug_rnglists:000000000000000c .LLRL1
C:\Users\LOCALH~1\AppData\Local\Temp\ccgQggRn.s:888    .debug_line:0000000000000000 .Ldebug_line0
C:\Users\LOCALH~1\AppData\Local\Temp\ccgQggRn.s:944    .debug_str:000000000000017a .LASF2
C:\Users\LOCALH~1\AppData\Local\Temp\ccgQggRn.s:976    .debug_str:0000000000000326 .LASF3
C:\Users\LOCALH~1\AppData\Local\Temp\ccgQggRn.s:894    .debug_str:0000000000000017 .LASF6
C:\Users\LOCALH~1\AppData\Local\Temp\ccgQggRn.s:918    .debug_str:00000000000000c2 .LASF4
C:\Users\LOCALH~1\AppData\Local\Temp\ccgQggRn.s:964    .debug_str:00000000000001e9 .LASF5
C:\Users\LOCALH~1\AppData\Local\Temp\ccgQggRn.s:932    .debug_str:000000000000012a .LASF7
C:\Users\LOCALH~1\AppData\Local\Temp\ccgQggRn.s:904    .debug_str:000000000000006e .LASF8
C:\Users\LOCALH~1\AppData\Local\Temp\ccgQggRn.s:972    .debug_str:0000000000000311 .LASF9
C:\Users\LOCALH~1\AppData\Local\Temp\ccgQggRn.s:938    .debug_str:0000000000000147 .LASF10
C:\Users\LOCALH~1\AppData\Local\Temp\ccgQggRn.s:922    .debug_str:00000000000000e5 .LASF11
C:\Users\LOCALH~1\AppData\Local\Temp\ccgQggRn.s:890    .debug_str:0000000000000000 .LASF12
C:\Users\LOCALH~1\AppData\Local\Temp\ccgQggRn.s:914    .debug_str:00000000000000a4 .LASF13
C:\Users\LOCALH~1\AppData\Local\Temp\ccgQggRn.s:952    .debug_str:000000000000019e .LASF14
C:\Users\LOCALH~1\AppData\Local\Temp\ccgQggRn.s:966    .debug_str:00000000000001f3 .LASF15
C:\Users\LOCALH~1\AppData\Local\Temp\ccgQggRn.s:978    .debug_str:0000000000000332 .LASF16
C:\Users\LOCALH~1\AppData\Local\Temp\ccgQggRn.s:948    .debug_str:000000000000018f .LASF17
C:\Users\LOCALH~1\AppData\Local\Temp\ccgQggRn.s:936    .debug_str:000000000000013f .LASF18
C:\Users\LOCALH~1\AppData\Local\Temp\ccgQggRn.s:958    .debug_str:00000000000001d0 .LASF19
C:\Users\LOCALH~1\AppData\Local\Temp\ccgQggRn.s:924    .debug_str:00000000000000f7 .LASF20
C:\Users\LOCALH~1\AppData\Local\Temp\ccgQggRn.s:892    .debug_str:000000000000000e .LASF21
C:\Users\LOCALH~1\AppData\Local\Temp\ccgQggRn.s:916    .debug_str:00000000000000bb .LASF22
C:\Users\LOCALH~1\AppData\Local\Temp\ccgQggRn.s:906    .debug_str:0000000000000081 .LASF23
C:\Users\LOCALH~1\AppData\Local\Temp\ccgQggRn.s:908    .debug_str:000000000000008b .LASF24
C:\Users\LOCALH~1\AppData\Local\Temp\ccgQggRn.s:910    .debug_str:0000000000000093 .LASF25
C:\Users\LOCALH~1\AppData\Local\Temp\ccgQggRn.s:946    .debug_str:0000000000000187 .LASF26
C:\Users\LOCALH~1\AppData\Local\Temp\ccgQggRn.s:912    .debug_str:000000000000009d .LASF27
C:\Users\LOCALH~1\AppData\Local\Temp\ccgQggRn.s:960    .debug_str:00000000000001d8 .LASF28
C:\Users\LOCALH~1\AppData\Local\Temp\ccgQggRn.s:940    .debug_str:0000000000000152 .LASF29
C:\Users\LOCALH~1\AppData\Local\Temp\ccgQggRn.s:974    .debug_str:000000000000031a .LASF30
C:\Users\LOCALH~1\AppData\Local\Temp\ccgQggRn.s:950    .debug_str:0000000000000199 .LASF31
C:\Users\LOCALH~1\AppData\Local\Temp\ccgQggRn.s:962    .debug_str:00000000000001de .LASF32
C:\Users\LOCALH~1\AppData\Local\Temp\ccgQggRn.s:934    .debug_str:0000000000000135 .LASF33
C:\Users\LOCALH~1\AppData\Local\Temp\ccgQggRn.s:920    .debug_str:00000000000000d0 .LASF34
C:\Users\LOCALH~1\AppData\Local\Temp\ccgQggRn.s:930    .debug_str:000000000000011a .LASF35
C:\Users\LOCALH~1\AppData\Local\Temp\ccgQggRn.s:928    .debug_str:000000000000010b .LASF36
C:\Users\LOCALH~1\AppData\Local\Temp\ccgQggRn.s:954    .debug_str:00000000000001a6 .LASF37
C:\Users\LOCALH~1\AppData\Local\Temp\ccgQggRn.s:942    .debug_str:000000000000015e .LASF38
C:\Users\LOCALH~1\AppData\Local\Temp\ccgQggRn.s:956    .debug_str:00000000000001b5 .LASF39
C:\Users\LOCALH~1\AppData\Local\Temp\ccgQggRn.s:896    .debug_str:0000000000000021 .LASF40
C:\Users\LOCALH~1\AppData\Local\Temp\ccgQggRn.s:902    .debug_str:0000000000000059 .LASF41
C:\Users\LOCALH~1\AppData\Local\Temp\ccgQggRn.s:968    .debug_str:00000000000001fc .LASF42
C:\Users\LOCALH~1\AppData\Local\Temp\ccgQggRn.s:898    .debug_str:000000000000003c .LASF43
C:\Users\LOCALH~1\AppData\Local\Temp\ccgQggRn.s:980    .debug_str:000000000000033b .LASF44
C:\Users\LOCALH~1\AppData\Local\Temp\ccgQggRn.s:105    .text.DVP_Cfg:0000000000000000 .LFB31
C:\Users\LOCALH~1\AppData\Local\Temp\ccgQggRn.s:181    .text.DVP_Cfg:0000000000000062 .LFE31
C:\Users\LOCALH~1\AppData\Local\Temp\ccgQggRn.s:900    .debug_str:0000000000000050 .LASF45
C:\Users\LOCALH~1\AppData\Local\Temp\ccgQggRn.s:51     .text.DVP_Mode:0000000000000000 .LFB30
C:\Users\LOCALH~1\AppData\Local\Temp\ccgQggRn.s:98     .text.DVP_Mode:0000000000000030 .LFE30
C:\Users\LOCALH~1\AppData\Local\Temp\ccgQggRn.s:926    .debug_str:0000000000000100 .LASF47
C:\Users\LOCALH~1\AppData\Local\Temp\ccgQggRn.s:15     .text.DVP_INTCfg:0000000000000000 .LFB29
C:\Users\LOCALH~1\AppData\Local\Temp\ccgQggRn.s:44     .text.DVP_INTCfg:0000000000000016 .LFE29
C:\Users\LOCALH~1\AppData\Local\Temp\ccgQggRn.s:822    .debug_loclists:000000000000000c .LLST0
C:\Users\LOCALH~1\AppData\Local\Temp\ccgQggRn.s:19     .text.DVP_INTCfg:0000000000000000 .LVL0
C:\Users\LOCALH~1\AppData\Local\Temp\ccgQggRn.s:29     .text.DVP_INTCfg:000000000000000a .LVL1
C:\Users\LOCALH~1\AppData\Local\Temp\ccgQggRn.s:35     .text.DVP_INTCfg:000000000000000e .LVL2
C:\Users\LOCALH~1\AppData\Local\Temp\ccgQggRn.s:40     .text.DVP_INTCfg:0000000000000012 .LVL3
C:\Users\LOCALH~1\AppData\Local\Temp\ccgQggRn.s:190    .debug_info:0000000000000000 .Ldebug_info0

NO UNDEFINED SYMBOLS
