   1              		.file	"ch32v30x_gpio.c"
   2              		.option nopic
   3              		.attribute arch, "rv32i2p0_m2p0_a2p0_f2p0_c2p0_xw"
   4              		.attribute unaligned_access, 0
   5              		.attribute stack_align, 16
   6              		.text
   7              	.Ltext0:
   8              		.cfi_sections	.debug_frame
   9              		.file 0 "C:\\Users\\localhost\\Documents\\turbomoskal-repo\\qqexpert\\firmware\\MasterController\\
  10              		.section	.text.GPIO_DeInit,"ax",@progbits
  11              		.align	1
  12              		.globl	GPIO_DeInit
  14              	GPIO_DeInit:
  15              	.LFB29:
  16              		.file 1 "../Peripheral/src/ch32v30x_gpio.c"
   1:../Peripheral/src/ch32v30x_gpio.c **** /********************************** (C) COPYRIGHT  *******************************
   2:../Peripheral/src/ch32v30x_gpio.c **** * File Name          : ch32v30x_gpio.c
   3:../Peripheral/src/ch32v30x_gpio.c **** * Author             : WCH
   4:../Peripheral/src/ch32v30x_gpio.c **** * Version            : V1.0.0
   5:../Peripheral/src/ch32v30x_gpio.c **** * Date               : 2024/05/06
   6:../Peripheral/src/ch32v30x_gpio.c **** * Description        : This file provides all the GPIO firmware functions.
   7:../Peripheral/src/ch32v30x_gpio.c **** * Copyright (c) 2021 Nanjing Qinheng Microelectronics Co., Ltd.
   8:../Peripheral/src/ch32v30x_gpio.c **** * Attention: This software (modified or not) and binary are used for 
   9:../Peripheral/src/ch32v30x_gpio.c **** * microcontroller manufactured by Nanjing Qinheng Microelectronics.
  10:../Peripheral/src/ch32v30x_gpio.c **** *******************************************************************************/
  11:../Peripheral/src/ch32v30x_gpio.c **** #include "ch32v30x_gpio.h"
  12:../Peripheral/src/ch32v30x_gpio.c **** #include "ch32v30x_rcc.h"
  13:../Peripheral/src/ch32v30x_gpio.c **** 
  14:../Peripheral/src/ch32v30x_gpio.c **** /* MASK */
  15:../Peripheral/src/ch32v30x_gpio.c **** #define ECR_PORTPINCONFIG_MASK    ((uint16_t)0xFF80)
  16:../Peripheral/src/ch32v30x_gpio.c **** #define LSB_MASK                  ((uint16_t)0xFFFF)
  17:../Peripheral/src/ch32v30x_gpio.c **** #define DBGAFR_POSITION_MASK      ((uint32_t)0x000F0000)
  18:../Peripheral/src/ch32v30x_gpio.c **** #define DBGAFR_SWJCFG_MASK        ((uint32_t)0xF0FFFFFF)
  19:../Peripheral/src/ch32v30x_gpio.c **** #define DBGAFR_LOCATION_MASK      ((uint32_t)0x00200000)
  20:../Peripheral/src/ch32v30x_gpio.c **** #define DBGAFR_NUMBITS_MASK       ((uint32_t)0x00100000)
  21:../Peripheral/src/ch32v30x_gpio.c **** 
  22:../Peripheral/src/ch32v30x_gpio.c **** /*********************************************************************
  23:../Peripheral/src/ch32v30x_gpio.c ****  * @fn      GPIO_DeInit
  24:../Peripheral/src/ch32v30x_gpio.c ****  *
  25:../Peripheral/src/ch32v30x_gpio.c ****  * @brief   Deinitializes the GPIOx peripheral registers to their default
  26:../Peripheral/src/ch32v30x_gpio.c ****  *        reset values.
  27:../Peripheral/src/ch32v30x_gpio.c ****  *
  28:../Peripheral/src/ch32v30x_gpio.c ****  * @param   GPIOx - where x can be (A..G) to select the GPIO peripheral.
  29:../Peripheral/src/ch32v30x_gpio.c ****  *
  30:../Peripheral/src/ch32v30x_gpio.c ****  * @return  none
  31:../Peripheral/src/ch32v30x_gpio.c ****  */
  32:../Peripheral/src/ch32v30x_gpio.c **** void GPIO_DeInit(GPIO_TypeDef *GPIOx)
  33:../Peripheral/src/ch32v30x_gpio.c **** {
  17              		.loc 1 33 1
  18              		.cfi_startproc
  19              	.LVL0:
  20 0000 17030000 		call	t0,__riscv_save_0
  20      E7020300 
  21              		.cfi_offset 1, -4
  22              		.cfi_def_cfa_offset 16
  34:../Peripheral/src/ch32v30x_gpio.c ****     if(GPIOx == GPIOA)
  23              		.loc 1 34 5
  24              		.loc 1 34 7 is_stmt 0
  25 0008 B7170140 		li	a5,1073811456
  26 000c 13870780 		addi	a4,a5,-2048
  27 0010 6312E502 		bne	a0,a4,.L2
  35:../Peripheral/src/ch32v30x_gpio.c ****     {
  36:../Peripheral/src/ch32v30x_gpio.c ****         RCC_APB2PeriphResetCmd(RCC_APB2Periph_GPIOA, ENABLE);
  28              		.loc 1 36 9 is_stmt 1
  29 0014 8545     		li	a1,1
  30 0016 1145     		li	a0,4
  31              	.LVL1:
  32 0018 97000000 		call	RCC_APB2PeriphResetCmd
  32      E7800000 
  33              	.LVL2:
  37:../Peripheral/src/ch32v30x_gpio.c ****         RCC_APB2PeriphResetCmd(RCC_APB2Periph_GPIOA, DISABLE);
  34              		.loc 1 37 9
  35 0020 8145     		li	a1,0
  36 0022 1145     		li	a0,4
  37              	.L8:
  38:../Peripheral/src/ch32v30x_gpio.c ****     }
  39:../Peripheral/src/ch32v30x_gpio.c ****     else if(GPIOx == GPIOB)
  40:../Peripheral/src/ch32v30x_gpio.c ****     {
  41:../Peripheral/src/ch32v30x_gpio.c ****         RCC_APB2PeriphResetCmd(RCC_APB2Periph_GPIOB, ENABLE);
  42:../Peripheral/src/ch32v30x_gpio.c ****         RCC_APB2PeriphResetCmd(RCC_APB2Periph_GPIOB, DISABLE);
  43:../Peripheral/src/ch32v30x_gpio.c ****     }
  44:../Peripheral/src/ch32v30x_gpio.c ****     else if(GPIOx == GPIOC)
  45:../Peripheral/src/ch32v30x_gpio.c ****     {
  46:../Peripheral/src/ch32v30x_gpio.c ****         RCC_APB2PeriphResetCmd(RCC_APB2Periph_GPIOC, ENABLE);
  47:../Peripheral/src/ch32v30x_gpio.c ****         RCC_APB2PeriphResetCmd(RCC_APB2Periph_GPIOC, DISABLE);
  48:../Peripheral/src/ch32v30x_gpio.c ****     }
  49:../Peripheral/src/ch32v30x_gpio.c ****     else if(GPIOx == GPIOD)
  50:../Peripheral/src/ch32v30x_gpio.c ****     {
  51:../Peripheral/src/ch32v30x_gpio.c ****         RCC_APB2PeriphResetCmd(RCC_APB2Periph_GPIOD, ENABLE);
  52:../Peripheral/src/ch32v30x_gpio.c ****         RCC_APB2PeriphResetCmd(RCC_APB2Periph_GPIOD, DISABLE);
  53:../Peripheral/src/ch32v30x_gpio.c ****     }
  54:../Peripheral/src/ch32v30x_gpio.c ****     else if(GPIOx == GPIOE)
  55:../Peripheral/src/ch32v30x_gpio.c ****     {
  56:../Peripheral/src/ch32v30x_gpio.c ****         RCC_APB2PeriphResetCmd(RCC_APB2Periph_GPIOE, ENABLE);
  57:../Peripheral/src/ch32v30x_gpio.c ****         RCC_APB2PeriphResetCmd(RCC_APB2Periph_GPIOE, DISABLE);
  38              		.loc 1 57 9 is_stmt 0
  39 0024 97000000 		call	RCC_APB2PeriphResetCmd
  39      E7800000 
  40              	.LVL3:
  41              	.L1:
  58:../Peripheral/src/ch32v30x_gpio.c ****     }
  59:../Peripheral/src/ch32v30x_gpio.c **** }
  42              		.loc 1 59 1
  43 002c 17030000 		tail	__riscv_restore_0
  43      67000300 
  44              		.cfi_remember_state
  45              		.cfi_restore 1
  46              		.cfi_def_cfa_offset 0
  47              	.LVL4:
  48              	.L2:
  49              		.cfi_restore_state
  39:../Peripheral/src/ch32v30x_gpio.c ****     {
  50              		.loc 1 39 10 is_stmt 1
  39:../Peripheral/src/ch32v30x_gpio.c ****     {
  51              		.loc 1 39 12 is_stmt 0
  52 0034 138707C0 		addi	a4,a5,-1024
  53 0038 631BE500 		bne	a0,a4,.L4
  41:../Peripheral/src/ch32v30x_gpio.c ****         RCC_APB2PeriphResetCmd(RCC_APB2Periph_GPIOB, DISABLE);
  54              		.loc 1 41 9 is_stmt 1
  55 003c 8545     		li	a1,1
  56 003e 2145     		li	a0,8
  57              	.LVL5:
  58 0040 97000000 		call	RCC_APB2PeriphResetCmd
  58      E7800000 
  59              	.LVL6:
  42:../Peripheral/src/ch32v30x_gpio.c ****     }
  60              		.loc 1 42 9
  61 0048 8145     		li	a1,0
  62 004a 2145     		li	a0,8
  63 004c E1BF     		j	.L8
  64              	.LVL7:
  65              	.L4:
  44:../Peripheral/src/ch32v30x_gpio.c ****     {
  66              		.loc 1 44 10
  44:../Peripheral/src/ch32v30x_gpio.c ****     {
  67              		.loc 1 44 12 is_stmt 0
  68 004e 631BF500 		bne	a0,a5,.L5
  46:../Peripheral/src/ch32v30x_gpio.c ****         RCC_APB2PeriphResetCmd(RCC_APB2Periph_GPIOC, DISABLE);
  69              		.loc 1 46 9 is_stmt 1
  70 0052 8545     		li	a1,1
  71 0054 4145     		li	a0,16
  72              	.LVL8:
  73 0056 97000000 		call	RCC_APB2PeriphResetCmd
  73      E7800000 
  74              	.LVL9:
  47:../Peripheral/src/ch32v30x_gpio.c ****     }
  75              		.loc 1 47 9
  76 005e 8145     		li	a1,0
  77 0060 4145     		li	a0,16
  78 0062 C9B7     		j	.L8
  79              	.LVL10:
  80              	.L5:
  49:../Peripheral/src/ch32v30x_gpio.c ****     {
  81              		.loc 1 49 10
  49:../Peripheral/src/ch32v30x_gpio.c ****     {
  82              		.loc 1 49 12 is_stmt 0
  83 0064 93870740 		addi	a5,a5,1024
  84 0068 631DF500 		bne	a0,a5,.L6
  51:../Peripheral/src/ch32v30x_gpio.c ****         RCC_APB2PeriphResetCmd(RCC_APB2Periph_GPIOD, DISABLE);
  85              		.loc 1 51 9 is_stmt 1
  86 006c 8545     		li	a1,1
  87 006e 13050002 		li	a0,32
  88              	.LVL11:
  89 0072 97000000 		call	RCC_APB2PeriphResetCmd
  89      E7800000 
  90              	.LVL12:
  52:../Peripheral/src/ch32v30x_gpio.c ****     }
  91              		.loc 1 52 9
  92 007a 8145     		li	a1,0
  93 007c 13050002 		li	a0,32
  94 0080 55B7     		j	.L8
  95              	.LVL13:
  96              	.L6:
  54:../Peripheral/src/ch32v30x_gpio.c ****     {
  97              		.loc 1 54 10
  54:../Peripheral/src/ch32v30x_gpio.c ****     {
  98              		.loc 1 54 12 is_stmt 0
  99 0082 B7270140 		li	a5,1073815552
 100 0086 93870780 		addi	a5,a5,-2048
 101 008a E311F5FA 		bne	a0,a5,.L1
  56:../Peripheral/src/ch32v30x_gpio.c ****         RCC_APB2PeriphResetCmd(RCC_APB2Periph_GPIOE, DISABLE);
 102              		.loc 1 56 9 is_stmt 1
 103 008e 8545     		li	a1,1
 104 0090 13050004 		li	a0,64
 105              	.LVL14:
 106 0094 97000000 		call	RCC_APB2PeriphResetCmd
 106      E7800000 
 107              	.LVL15:
  57:../Peripheral/src/ch32v30x_gpio.c ****     }
 108              		.loc 1 57 9
 109 009c 8145     		li	a1,0
 110 009e 13050004 		li	a0,64
 111 00a2 49B7     		j	.L8
 112              		.cfi_endproc
 113              	.LFE29:
 115              		.section	.text.GPIO_AFIODeInit,"ax",@progbits
 116              		.align	1
 117              		.globl	GPIO_AFIODeInit
 119              	GPIO_AFIODeInit:
 120              	.LFB30:
  60:../Peripheral/src/ch32v30x_gpio.c **** 
  61:../Peripheral/src/ch32v30x_gpio.c **** /*********************************************************************
  62:../Peripheral/src/ch32v30x_gpio.c ****  * @fn      GPIO_AFIODeInit
  63:../Peripheral/src/ch32v30x_gpio.c ****  *
  64:../Peripheral/src/ch32v30x_gpio.c ****  * @brief   Deinitializes the Alternate Functions (remap, event control
  65:../Peripheral/src/ch32v30x_gpio.c ****  *        and EXTI configuration) registers to their default reset values.
  66:../Peripheral/src/ch32v30x_gpio.c ****  *
  67:../Peripheral/src/ch32v30x_gpio.c ****  * @return  none
  68:../Peripheral/src/ch32v30x_gpio.c ****  */
  69:../Peripheral/src/ch32v30x_gpio.c **** void GPIO_AFIODeInit(void)
  70:../Peripheral/src/ch32v30x_gpio.c **** {
 121              		.loc 1 70 1
 122              		.cfi_startproc
 123 0000 17030000 		call	t0,__riscv_save_0
 123      E7020300 
 124              		.cfi_offset 1, -4
 125              		.cfi_def_cfa_offset 16
  71:../Peripheral/src/ch32v30x_gpio.c ****     RCC_APB2PeriphResetCmd(RCC_APB2Periph_AFIO, ENABLE);
 126              		.loc 1 71 5
 127 0008 8545     		li	a1,1
 128 000a 0545     		li	a0,1
 129 000c 97000000 		call	RCC_APB2PeriphResetCmd
 129      E7800000 
 130              	.LVL16:
  72:../Peripheral/src/ch32v30x_gpio.c ****     RCC_APB2PeriphResetCmd(RCC_APB2Periph_AFIO, DISABLE);
 131              		.loc 1 72 5
 132 0014 8145     		li	a1,0
 133 0016 0545     		li	a0,1
 134 0018 97000000 		call	RCC_APB2PeriphResetCmd
 134      E7800000 
 135              	.LVL17:
  73:../Peripheral/src/ch32v30x_gpio.c **** }
 136              		.loc 1 73 1 is_stmt 0
 137 0020 17030000 		tail	__riscv_restore_0
 137      67000300 
 138              		.cfi_restore 1
 139              		.cfi_def_cfa_offset 0
 140              		.cfi_endproc
 141              	.LFE30:
 143              		.section	.text.GPIO_Init,"ax",@progbits
 144              		.align	1
 145              		.globl	GPIO_Init
 147              	GPIO_Init:
 148              	.LFB31:
  74:../Peripheral/src/ch32v30x_gpio.c **** 
  75:../Peripheral/src/ch32v30x_gpio.c **** /*********************************************************************
  76:../Peripheral/src/ch32v30x_gpio.c ****  * @fn      GPIO_Init
  77:../Peripheral/src/ch32v30x_gpio.c ****  *
  78:../Peripheral/src/ch32v30x_gpio.c ****  * @brief   GPIOx - where x can be (A..G) to select the GPIO peripheral.
  79:../Peripheral/src/ch32v30x_gpio.c ****  *
  80:../Peripheral/src/ch32v30x_gpio.c ****  * @param   GPIO_InitStruct - pointer to a GPIO_InitTypeDef structure that
  81:../Peripheral/src/ch32v30x_gpio.c ****  *        contains the configuration information for the specified GPIO peripheral.
  82:../Peripheral/src/ch32v30x_gpio.c ****  *
  83:../Peripheral/src/ch32v30x_gpio.c ****  * @return  none
  84:../Peripheral/src/ch32v30x_gpio.c ****  */
  85:../Peripheral/src/ch32v30x_gpio.c **** void GPIO_Init(GPIO_TypeDef *GPIOx, GPIO_InitTypeDef *GPIO_InitStruct)
  86:../Peripheral/src/ch32v30x_gpio.c **** {
 149              		.loc 1 86 1 is_stmt 1
 150              		.cfi_startproc
 151              	.LVL18:
  87:../Peripheral/src/ch32v30x_gpio.c ****     uint32_t currentmode = 0x00, currentpin = 0x00, pinpos = 0x00, pos = 0x00;
 152              		.loc 1 87 5
  88:../Peripheral/src/ch32v30x_gpio.c ****     uint32_t tmpreg = 0x00, pinmask = 0x00;
 153              		.loc 1 88 5
  89:../Peripheral/src/ch32v30x_gpio.c **** 
  90:../Peripheral/src/ch32v30x_gpio.c ****     currentmode = ((uint32_t)GPIO_InitStruct->GPIO_Mode) & ((uint32_t)0x0F);
 154              		.loc 1 90 5
 155              		.loc 1 90 45 is_stmt 0
 156 0000 9C45     		lw	a5,8(a1)
  91:../Peripheral/src/ch32v30x_gpio.c **** 
  92:../Peripheral/src/ch32v30x_gpio.c ****     if((((uint32_t)GPIO_InitStruct->GPIO_Mode) & ((uint32_t)0x10)) != 0x00)
 157              		.loc 1 92 48
 158 0002 13F70701 		andi	a4,a5,16
  90:../Peripheral/src/ch32v30x_gpio.c **** 
 159              		.loc 1 90 17
 160 0006 13F8F700 		andi	a6,a5,15
 161              	.LVL19:
 162              		.loc 1 92 5 is_stmt 1
 163              		.loc 1 92 7 is_stmt 0
 164 000a 01C7     		beq	a4,zero,.L12
  93:../Peripheral/src/ch32v30x_gpio.c ****     {
  94:../Peripheral/src/ch32v30x_gpio.c ****         currentmode |= (uint32_t)GPIO_InitStruct->GPIO_Speed;
 165              		.loc 1 94 9 is_stmt 1
 166              		.loc 1 94 21 is_stmt 0
 167 000c D841     		lw	a4,4(a1)
 168 000e 3368E800 		or	a6,a6,a4
 169              	.LVL20:
 170              	.L12:
  95:../Peripheral/src/ch32v30x_gpio.c ****     }
  96:../Peripheral/src/ch32v30x_gpio.c **** 
  97:../Peripheral/src/ch32v30x_gpio.c ****     if(((uint32_t)GPIO_InitStruct->GPIO_Pin & ((uint32_t)0x00FF)) != 0x00)
 171              		.loc 1 97 5 is_stmt 1
 172              		.loc 1 97 34 is_stmt 0
 173 0012 8E21     		lhu	a1,0(a1)
 174              	.LVL21:
 175              		.loc 1 97 7
 176 0014 13F7F50F 		andi	a4,a1,0xff
 177 0018 31C3     		beq	a4,zero,.L13
  98:../Peripheral/src/ch32v30x_gpio.c ****     {
  99:../Peripheral/src/ch32v30x_gpio.c ****         tmpreg = GPIOx->CFGLR;
 178              		.loc 1 99 9 is_stmt 1
 179              		.loc 1 99 16 is_stmt 0
 180 001a 1841     		lw	a4,0(a0)
 181              	.LVL22:
 100:../Peripheral/src/ch32v30x_gpio.c **** 
 101:../Peripheral/src/ch32v30x_gpio.c ****         for(pinpos = 0x00; pinpos < 0x08; pinpos++)
 182              		.loc 1 101 9 is_stmt 1
 183              		.loc 1 101 35
 184              		.loc 1 101 20 is_stmt 0
 185 001c 8146     		li	a3,0
 102:../Peripheral/src/ch32v30x_gpio.c ****         {
 103:../Peripheral/src/ch32v30x_gpio.c ****             pos = ((uint32_t)0x01) << pinpos;
 186              		.loc 1 103 17
 187 001e 054E     		li	t3,1
 104:../Peripheral/src/ch32v30x_gpio.c ****             currentpin = (GPIO_InitStruct->GPIO_Pin) & pos;
 105:../Peripheral/src/ch32v30x_gpio.c **** 
 106:../Peripheral/src/ch32v30x_gpio.c ****             if(currentpin == pos)
 107:../Peripheral/src/ch32v30x_gpio.c ****             {
 108:../Peripheral/src/ch32v30x_gpio.c ****                 pos = pinpos << 2;
 109:../Peripheral/src/ch32v30x_gpio.c ****                 pinmask = ((uint32_t)0x0F) << pos;
 110:../Peripheral/src/ch32v30x_gpio.c ****                 tmpreg &= ~pinmask;
 111:../Peripheral/src/ch32v30x_gpio.c ****                 tmpreg |= (currentmode << pos);
 112:../Peripheral/src/ch32v30x_gpio.c **** 
 113:../Peripheral/src/ch32v30x_gpio.c ****                 if(GPIO_InitStruct->GPIO_Mode == GPIO_Mode_IPD)
 188              		.loc 1 113 19
 189 0020 930E8002 		li	t4,40
 109:../Peripheral/src/ch32v30x_gpio.c ****                 tmpreg &= ~pinmask;
 190              		.loc 1 109 25
 191 0024 3D4F     		li	t5,15
 114:../Peripheral/src/ch32v30x_gpio.c ****                 {
 115:../Peripheral/src/ch32v30x_gpio.c ****                     GPIOx->BCR = (((uint32_t)0x01) << pinpos);
 116:../Peripheral/src/ch32v30x_gpio.c ****                 }
 117:../Peripheral/src/ch32v30x_gpio.c ****                 else
 118:../Peripheral/src/ch32v30x_gpio.c ****                 {
 119:../Peripheral/src/ch32v30x_gpio.c ****                     if(GPIO_InitStruct->GPIO_Mode == GPIO_Mode_IPU)
 192              		.loc 1 119 23
 193 0026 930F8004 		li	t6,72
 101:../Peripheral/src/ch32v30x_gpio.c ****         {
 194              		.loc 1 101 35
 195 002a 2143     		li	t1,8
 196              	.LVL23:
 197              	.L18:
 103:../Peripheral/src/ch32v30x_gpio.c ****             currentpin = (GPIO_InitStruct->GPIO_Pin) & pos;
 198              		.loc 1 103 13 is_stmt 1
 103:../Peripheral/src/ch32v30x_gpio.c ****             currentpin = (GPIO_InitStruct->GPIO_Pin) & pos;
 199              		.loc 1 103 17 is_stmt 0
 200 002c 3316DE00 		sll	a2,t3,a3
 201              	.LVL24:
 104:../Peripheral/src/ch32v30x_gpio.c **** 
 202              		.loc 1 104 13 is_stmt 1
 106:../Peripheral/src/ch32v30x_gpio.c ****             {
 203              		.loc 1 106 13
 104:../Peripheral/src/ch32v30x_gpio.c **** 
 204              		.loc 1 104 24 is_stmt 0
 205 0030 B3F8C500 		and	a7,a1,a2
 206              	.LVL25:
 106:../Peripheral/src/ch32v30x_gpio.c ****             {
 207              		.loc 1 106 15
 208 0034 63101603 		bne	a2,a7,.L14
 108:../Peripheral/src/ch32v30x_gpio.c ****                 pinmask = ((uint32_t)0x0F) << pos;
 209              		.loc 1 108 17 is_stmt 1
 210              	.LVL26:
 109:../Peripheral/src/ch32v30x_gpio.c ****                 tmpreg &= ~pinmask;
 211              		.loc 1 109 17
 110:../Peripheral/src/ch32v30x_gpio.c ****                 tmpreg |= (currentmode << pos);
 212              		.loc 1 110 17
 111:../Peripheral/src/ch32v30x_gpio.c **** 
 213              		.loc 1 111 17
 113:../Peripheral/src/ch32v30x_gpio.c ****                 {
 214              		.loc 1 113 17
 113:../Peripheral/src/ch32v30x_gpio.c ****                 {
 215              		.loc 1 113 19 is_stmt 0
 216 0038 639AD707 		bne	a5,t4,.L15
 115:../Peripheral/src/ch32v30x_gpio.c ****                 }
 217              		.loc 1 115 21 is_stmt 1
 115:../Peripheral/src/ch32v30x_gpio.c ****                 }
 218              		.loc 1 115 32 is_stmt 0
 219 003c 50C9     		sw	a2,20(a0)
 220              	.L16:
 221 003e 13962600 		slli	a2,a3,2
 109:../Peripheral/src/ch32v30x_gpio.c ****                 tmpreg &= ~pinmask;
 222              		.loc 1 109 25
 223 0042 B318CF00 		sll	a7,t5,a2
 224              	.LVL27:
 110:../Peripheral/src/ch32v30x_gpio.c ****                 tmpreg |= (currentmode << pos);
 225              		.loc 1 110 27
 226 0046 93C8F8FF 		not	a7,a7
 110:../Peripheral/src/ch32v30x_gpio.c ****                 tmpreg |= (currentmode << pos);
 227              		.loc 1 110 24
 228 004a 33F7E800 		and	a4,a7,a4
 229              	.LVL28:
 111:../Peripheral/src/ch32v30x_gpio.c **** 
 230              		.loc 1 111 40
 231 004e 3316C800 		sll	a2,a6,a2
 111:../Peripheral/src/ch32v30x_gpio.c **** 
 232              		.loc 1 111 24
 233 0052 518F     		or	a4,a2,a4
 234              	.LVL29:
 235              	.L14:
 101:../Peripheral/src/ch32v30x_gpio.c ****         {
 236              		.loc 1 101 49 is_stmt 1 discriminator 2
 237 0054 8506     		addi	a3,a3,1
 238              	.LVL30:
 101:../Peripheral/src/ch32v30x_gpio.c ****         {
 239              		.loc 1 101 35 discriminator 2
 240 0056 E39B66FC 		bne	a3,t1,.L18
 120:../Peripheral/src/ch32v30x_gpio.c ****                     {
 121:../Peripheral/src/ch32v30x_gpio.c ****                         GPIOx->BSHR = (((uint32_t)0x01) << pinpos);
 122:../Peripheral/src/ch32v30x_gpio.c ****                     }
 123:../Peripheral/src/ch32v30x_gpio.c ****                 }
 124:../Peripheral/src/ch32v30x_gpio.c ****             }
 125:../Peripheral/src/ch32v30x_gpio.c ****         }
 126:../Peripheral/src/ch32v30x_gpio.c ****         GPIOx->CFGLR = tmpreg;
 241              		.loc 1 126 9
 242              		.loc 1 126 22 is_stmt 0
 243 005a 18C1     		sw	a4,0(a0)
 244              	.LVL31:
 245              	.L13:
 127:../Peripheral/src/ch32v30x_gpio.c ****     }
 128:../Peripheral/src/ch32v30x_gpio.c **** 
 129:../Peripheral/src/ch32v30x_gpio.c ****     if(GPIO_InitStruct->GPIO_Pin > 0x00FF)
 246              		.loc 1 129 5 is_stmt 1
 247              		.loc 1 129 7 is_stmt 0
 248 005c 1307F00F 		li	a4,255
 249 0060 6375B704 		bleu	a1,a4,.L11
 130:../Peripheral/src/ch32v30x_gpio.c ****     {
 131:../Peripheral/src/ch32v30x_gpio.c ****         tmpreg = GPIOx->CFGHR;
 250              		.loc 1 131 9 is_stmt 1
 251              		.loc 1 131 16 is_stmt 0
 252 0064 5441     		lw	a3,4(a0)
 253              	.LVL32:
 132:../Peripheral/src/ch32v30x_gpio.c **** 
 133:../Peripheral/src/ch32v30x_gpio.c ****         for(pinpos = 0x00; pinpos < 0x08; pinpos++)
 254              		.loc 1 133 9 is_stmt 1
 255              		.loc 1 133 35
 256              		.loc 1 133 20 is_stmt 0
 257 0066 0146     		li	a2,0
 134:../Peripheral/src/ch32v30x_gpio.c ****         {
 135:../Peripheral/src/ch32v30x_gpio.c ****             pos = (((uint32_t)0x01) << (pinpos + 0x08));
 258              		.loc 1 135 17
 259 0068 054E     		li	t3,1
 136:../Peripheral/src/ch32v30x_gpio.c ****             currentpin = ((GPIO_InitStruct->GPIO_Pin) & pos);
 137:../Peripheral/src/ch32v30x_gpio.c **** 
 138:../Peripheral/src/ch32v30x_gpio.c ****             if(currentpin == pos)
 139:../Peripheral/src/ch32v30x_gpio.c ****             {
 140:../Peripheral/src/ch32v30x_gpio.c ****                 pos = pinpos << 2;
 141:../Peripheral/src/ch32v30x_gpio.c ****                 pinmask = ((uint32_t)0x0F) << pos;
 142:../Peripheral/src/ch32v30x_gpio.c ****                 tmpreg &= ~pinmask;
 143:../Peripheral/src/ch32v30x_gpio.c ****                 tmpreg |= (currentmode << pos);
 144:../Peripheral/src/ch32v30x_gpio.c **** 
 145:../Peripheral/src/ch32v30x_gpio.c ****                 if(GPIO_InitStruct->GPIO_Mode == GPIO_Mode_IPD)
 260              		.loc 1 145 19
 261 006a 930E8002 		li	t4,40
 146:../Peripheral/src/ch32v30x_gpio.c ****                 {
 147:../Peripheral/src/ch32v30x_gpio.c ****                     GPIOx->BCR = (((uint32_t)0x01) << (pinpos + 0x08));
 148:../Peripheral/src/ch32v30x_gpio.c ****                 }
 149:../Peripheral/src/ch32v30x_gpio.c **** 
 150:../Peripheral/src/ch32v30x_gpio.c ****                 if(GPIO_InitStruct->GPIO_Mode == GPIO_Mode_IPU)
 262              		.loc 1 150 19
 263 006e 130F8004 		li	t5,72
 133:../Peripheral/src/ch32v30x_gpio.c ****         {
 264              		.loc 1 133 35
 265 0072 2143     		li	t1,8
 266              	.LVL33:
 267              	.L23:
 135:../Peripheral/src/ch32v30x_gpio.c ****             currentpin = ((GPIO_InitStruct->GPIO_Pin) & pos);
 268              		.loc 1 135 13 is_stmt 1
 135:../Peripheral/src/ch32v30x_gpio.c ****             currentpin = ((GPIO_InitStruct->GPIO_Pin) & pos);
 269              		.loc 1 135 48 is_stmt 0
 270 0074 13078600 		addi	a4,a2,8
 135:../Peripheral/src/ch32v30x_gpio.c ****             currentpin = ((GPIO_InitStruct->GPIO_Pin) & pos);
 271              		.loc 1 135 17
 272 0078 3317EE00 		sll	a4,t3,a4
 273              	.LVL34:
 136:../Peripheral/src/ch32v30x_gpio.c **** 
 274              		.loc 1 136 13 is_stmt 1
 138:../Peripheral/src/ch32v30x_gpio.c ****             {
 275              		.loc 1 138 13
 136:../Peripheral/src/ch32v30x_gpio.c **** 
 276              		.loc 1 136 24 is_stmt 0
 277 007c B3F8E500 		and	a7,a1,a4
 278              	.LVL35:
 138:../Peripheral/src/ch32v30x_gpio.c ****             {
 279              		.loc 1 138 15
 280 0080 63111703 		bne	a4,a7,.L20
 140:../Peripheral/src/ch32v30x_gpio.c ****                 pinmask = ((uint32_t)0x0F) << pos;
 281              		.loc 1 140 17 is_stmt 1
 282              	.LVL36:
 141:../Peripheral/src/ch32v30x_gpio.c ****                 tmpreg &= ~pinmask;
 283              		.loc 1 141 17
 142:../Peripheral/src/ch32v30x_gpio.c ****                 tmpreg |= (currentmode << pos);
 284              		.loc 1 142 17
 143:../Peripheral/src/ch32v30x_gpio.c **** 
 285              		.loc 1 143 17
 145:../Peripheral/src/ch32v30x_gpio.c ****                 {
 286              		.loc 1 145 17
 145:../Peripheral/src/ch32v30x_gpio.c ****                 {
 287              		.loc 1 145 19 is_stmt 0
 288 0084 6398D703 		bne	a5,t4,.L21
 147:../Peripheral/src/ch32v30x_gpio.c ****                 }
 289              		.loc 1 147 21 is_stmt 1
 147:../Peripheral/src/ch32v30x_gpio.c ****                 }
 290              		.loc 1 147 32 is_stmt 0
 291 0088 58C9     		sw	a4,20(a0)
 292              		.loc 1 150 17 is_stmt 1
 293              	.L22:
 294 008a 93182600 		slli	a7,a2,2
 295              	.LVL37:
 141:../Peripheral/src/ch32v30x_gpio.c ****                 tmpreg &= ~pinmask;
 296              		.loc 1 141 25 is_stmt 0
 297 008e 3D47     		li	a4,15
 298              	.LVL38:
 299 0090 33171701 		sll	a4,a4,a7
 142:../Peripheral/src/ch32v30x_gpio.c ****                 tmpreg |= (currentmode << pos);
 300              		.loc 1 142 27
 301 0094 1347F7FF 		not	a4,a4
 142:../Peripheral/src/ch32v30x_gpio.c ****                 tmpreg |= (currentmode << pos);
 302              		.loc 1 142 24
 303 0098 F98E     		and	a3,a4,a3
 304              	.LVL39:
 143:../Peripheral/src/ch32v30x_gpio.c **** 
 305              		.loc 1 143 40
 306 009a B3181801 		sll	a7,a6,a7
 143:../Peripheral/src/ch32v30x_gpio.c **** 
 307              		.loc 1 143 24
 308 009e B3E6D800 		or	a3,a7,a3
 309              	.LVL40:
 310              	.L20:
 133:../Peripheral/src/ch32v30x_gpio.c ****         {
 311              		.loc 1 133 49 is_stmt 1 discriminator 2
 312 00a2 0506     		addi	a2,a2,1
 313              	.LVL41:
 133:../Peripheral/src/ch32v30x_gpio.c ****         {
 314              		.loc 1 133 35 discriminator 2
 315 00a4 E31866FC 		bne	a2,t1,.L23
 151:../Peripheral/src/ch32v30x_gpio.c ****                 {
 152:../Peripheral/src/ch32v30x_gpio.c ****                     GPIOx->BSHR = (((uint32_t)0x01) << (pinpos + 0x08));
 153:../Peripheral/src/ch32v30x_gpio.c ****                 }
 154:../Peripheral/src/ch32v30x_gpio.c ****             }
 155:../Peripheral/src/ch32v30x_gpio.c ****         }
 156:../Peripheral/src/ch32v30x_gpio.c ****         GPIOx->CFGHR = tmpreg;
 316              		.loc 1 156 9
 317              		.loc 1 156 22 is_stmt 0
 318 00a8 54C1     		sw	a3,4(a0)
 319              	.LVL42:
 320              	.L11:
 157:../Peripheral/src/ch32v30x_gpio.c ****     }
 158:../Peripheral/src/ch32v30x_gpio.c **** }
 321              		.loc 1 158 1
 322 00aa 8280     		ret
 323              	.LVL43:
 324              	.L15:
 119:../Peripheral/src/ch32v30x_gpio.c ****                     {
 325              		.loc 1 119 21 is_stmt 1
 119:../Peripheral/src/ch32v30x_gpio.c ****                     {
 326              		.loc 1 119 23 is_stmt 0
 327 00ac E399F7F9 		bne	a5,t6,.L16
 121:../Peripheral/src/ch32v30x_gpio.c ****                     }
 328              		.loc 1 121 25 is_stmt 1
 121:../Peripheral/src/ch32v30x_gpio.c ****                     }
 329              		.loc 1 121 37 is_stmt 0
 330 00b0 10C9     		sw	a2,16(a0)
 331 00b2 71B7     		j	.L16
 332              	.LVL44:
 333              	.L21:
 150:../Peripheral/src/ch32v30x_gpio.c ****                 {
 334              		.loc 1 150 17 is_stmt 1
 150:../Peripheral/src/ch32v30x_gpio.c ****                 {
 335              		.loc 1 150 19 is_stmt 0
 336 00b4 E39BE7FD 		bne	a5,t5,.L22
 152:../Peripheral/src/ch32v30x_gpio.c ****                 }
 337              		.loc 1 152 21 is_stmt 1
 152:../Peripheral/src/ch32v30x_gpio.c ****                 }
 338              		.loc 1 152 33 is_stmt 0
 339 00b8 18C9     		sw	a4,16(a0)
 340 00ba C1BF     		j	.L22
 341              		.cfi_endproc
 342              	.LFE31:
 344              		.section	.text.GPIO_StructInit,"ax",@progbits
 345              		.align	1
 346              		.globl	GPIO_StructInit
 348              	GPIO_StructInit:
 349              	.LFB32:
 159:../Peripheral/src/ch32v30x_gpio.c **** 
 160:../Peripheral/src/ch32v30x_gpio.c **** /*********************************************************************
 161:../Peripheral/src/ch32v30x_gpio.c ****  * @fn      GPIO_StructInit
 162:../Peripheral/src/ch32v30x_gpio.c ****  *
 163:../Peripheral/src/ch32v30x_gpio.c ****  * @brief   Fills each GPIO_InitStruct member with its default
 164:../Peripheral/src/ch32v30x_gpio.c ****  *
 165:../Peripheral/src/ch32v30x_gpio.c ****  * @param   GPIO_InitStruct - pointer to a GPIO_InitTypeDef structure
 166:../Peripheral/src/ch32v30x_gpio.c ****  *      which will be initialized.
 167:../Peripheral/src/ch32v30x_gpio.c ****  *
 168:../Peripheral/src/ch32v30x_gpio.c ****  * @return  none
 169:../Peripheral/src/ch32v30x_gpio.c ****  */
 170:../Peripheral/src/ch32v30x_gpio.c **** void GPIO_StructInit(GPIO_InitTypeDef *GPIO_InitStruct)
 171:../Peripheral/src/ch32v30x_gpio.c **** {
 350              		.loc 1 171 1 is_stmt 1
 351              		.cfi_startproc
 352              	.LVL45:
 172:../Peripheral/src/ch32v30x_gpio.c ****     GPIO_InitStruct->GPIO_Pin = GPIO_Pin_All;
 353              		.loc 1 172 5
 354              		.loc 1 172 31 is_stmt 0
 355 0000 FD57     		li	a5,-1
 356 0002 1EA1     		sh	a5,0(a0)
 173:../Peripheral/src/ch32v30x_gpio.c ****     GPIO_InitStruct->GPIO_Speed = GPIO_Speed_2MHz;
 357              		.loc 1 173 5 is_stmt 1
 358              		.loc 1 173 33 is_stmt 0
 359 0004 8947     		li	a5,2
 360 0006 5CC1     		sw	a5,4(a0)
 174:../Peripheral/src/ch32v30x_gpio.c ****     GPIO_InitStruct->GPIO_Mode = GPIO_Mode_IN_FLOATING;
 361              		.loc 1 174 5 is_stmt 1
 362              		.loc 1 174 32 is_stmt 0
 363 0008 9147     		li	a5,4
 364 000a 1CC5     		sw	a5,8(a0)
 175:../Peripheral/src/ch32v30x_gpio.c **** }
 365              		.loc 1 175 1
 366 000c 8280     		ret
 367              		.cfi_endproc
 368              	.LFE32:
 370              		.section	.text.GPIO_ReadInputDataBit,"ax",@progbits
 371              		.align	1
 372              		.globl	GPIO_ReadInputDataBit
 374              	GPIO_ReadInputDataBit:
 375              	.LFB33:
 176:../Peripheral/src/ch32v30x_gpio.c **** 
 177:../Peripheral/src/ch32v30x_gpio.c **** /*********************************************************************
 178:../Peripheral/src/ch32v30x_gpio.c ****  * @fn      GPIO_ReadInputDataBit
 179:../Peripheral/src/ch32v30x_gpio.c ****  *
 180:../Peripheral/src/ch32v30x_gpio.c ****  * @brief   GPIOx - where x can be (A..G) to select the GPIO peripheral.
 181:../Peripheral/src/ch32v30x_gpio.c ****  *
 182:../Peripheral/src/ch32v30x_gpio.c ****  * @param    GPIO_Pin - specifies the port bit to read.
 183:../Peripheral/src/ch32v30x_gpio.c ****  *             This parameter can be GPIO_Pin_x where x can be (0..15).
 184:../Peripheral/src/ch32v30x_gpio.c ****  *
 185:../Peripheral/src/ch32v30x_gpio.c ****  * @return  The input port pin value.
 186:../Peripheral/src/ch32v30x_gpio.c ****  */
 187:../Peripheral/src/ch32v30x_gpio.c **** uint8_t GPIO_ReadInputDataBit(GPIO_TypeDef *GPIOx, uint16_t GPIO_Pin)
 188:../Peripheral/src/ch32v30x_gpio.c **** {
 376              		.loc 1 188 1 is_stmt 1
 377              		.cfi_startproc
 378              	.LVL46:
 189:../Peripheral/src/ch32v30x_gpio.c ****     uint8_t bitstatus = 0x00;
 379              		.loc 1 189 5
 190:../Peripheral/src/ch32v30x_gpio.c **** 
 191:../Peripheral/src/ch32v30x_gpio.c ****     if((GPIOx->INDR & GPIO_Pin) != (uint32_t)Bit_RESET)
 380              		.loc 1 191 5
 381              		.loc 1 191 14 is_stmt 0
 382 0000 1C45     		lw	a5,8(a0)
 383              	.LVL47:
 192:../Peripheral/src/ch32v30x_gpio.c ****     {
 193:../Peripheral/src/ch32v30x_gpio.c ****         bitstatus = (uint8_t)Bit_SET;
 194:../Peripheral/src/ch32v30x_gpio.c ****     }
 195:../Peripheral/src/ch32v30x_gpio.c ****     else
 196:../Peripheral/src/ch32v30x_gpio.c ****     {
 197:../Peripheral/src/ch32v30x_gpio.c ****         bitstatus = (uint8_t)Bit_RESET;
 198:../Peripheral/src/ch32v30x_gpio.c ****     }
 199:../Peripheral/src/ch32v30x_gpio.c **** 
 200:../Peripheral/src/ch32v30x_gpio.c ****     return bitstatus;
 384              		.loc 1 200 5 is_stmt 1
 191:../Peripheral/src/ch32v30x_gpio.c ****     {
 385              		.loc 1 191 21 is_stmt 0
 386 0002 33F5F500 		and	a0,a1,a5
 387              	.LVL48:
 201:../Peripheral/src/ch32v30x_gpio.c **** }
 388              		.loc 1 201 1
 389 0006 3335A000 		snez	a0,a0
 390 000a 8280     		ret
 391              		.cfi_endproc
 392              	.LFE33:
 394              		.section	.text.GPIO_ReadInputData,"ax",@progbits
 395              		.align	1
 396              		.globl	GPIO_ReadInputData
 398              	GPIO_ReadInputData:
 399              	.LFB34:
 202:../Peripheral/src/ch32v30x_gpio.c **** 
 203:../Peripheral/src/ch32v30x_gpio.c **** /*********************************************************************
 204:../Peripheral/src/ch32v30x_gpio.c ****  * @fn      GPIO_ReadInputData
 205:../Peripheral/src/ch32v30x_gpio.c ****  *
 206:../Peripheral/src/ch32v30x_gpio.c ****  * @brief   Reads the specified GPIO input data port.
 207:../Peripheral/src/ch32v30x_gpio.c ****  *
 208:../Peripheral/src/ch32v30x_gpio.c ****  * @param   GPIOx - where x can be (A..G) to select the GPIO peripheral.
 209:../Peripheral/src/ch32v30x_gpio.c ****  *
 210:../Peripheral/src/ch32v30x_gpio.c ****  * @return  The output port pin value.
 211:../Peripheral/src/ch32v30x_gpio.c ****  */
 212:../Peripheral/src/ch32v30x_gpio.c **** uint16_t GPIO_ReadInputData(GPIO_TypeDef *GPIOx)
 213:../Peripheral/src/ch32v30x_gpio.c **** {
 400              		.loc 1 213 1 is_stmt 1
 401              		.cfi_startproc
 402              	.LVL49:
 214:../Peripheral/src/ch32v30x_gpio.c ****     return ((uint16_t)GPIOx->INDR);
 403              		.loc 1 214 5
 404              		.loc 1 214 28 is_stmt 0
 405 0000 0845     		lw	a0,8(a0)
 406              	.LVL50:
 215:../Peripheral/src/ch32v30x_gpio.c **** }
 407              		.loc 1 215 1
 408 0002 4205     		slli	a0,a0,16
 409 0004 4181     		srli	a0,a0,16
 410 0006 8280     		ret
 411              		.cfi_endproc
 412              	.LFE34:
 414              		.section	.text.GPIO_ReadOutputDataBit,"ax",@progbits
 415              		.align	1
 416              		.globl	GPIO_ReadOutputDataBit
 418              	GPIO_ReadOutputDataBit:
 419              	.LFB35:
 216:../Peripheral/src/ch32v30x_gpio.c **** 
 217:../Peripheral/src/ch32v30x_gpio.c **** /*********************************************************************
 218:../Peripheral/src/ch32v30x_gpio.c ****  * @fn      GPIO_ReadOutputDataBit
 219:../Peripheral/src/ch32v30x_gpio.c ****  *
 220:../Peripheral/src/ch32v30x_gpio.c ****  * @brief   Reads the specified output data port bit.
 221:../Peripheral/src/ch32v30x_gpio.c ****  *
 222:../Peripheral/src/ch32v30x_gpio.c ****  * @param   GPIOx - where x can be (A..G) to select the GPIO peripheral.
 223:../Peripheral/src/ch32v30x_gpio.c ****  *          GPIO_Pin - specifies the port bit to read.
 224:../Peripheral/src/ch32v30x_gpio.c ****  *            This parameter can be GPIO_Pin_x where x can be (0..15).
 225:../Peripheral/src/ch32v30x_gpio.c ****  *
 226:../Peripheral/src/ch32v30x_gpio.c ****  * @return  none
 227:../Peripheral/src/ch32v30x_gpio.c ****  */
 228:../Peripheral/src/ch32v30x_gpio.c **** uint8_t GPIO_ReadOutputDataBit(GPIO_TypeDef *GPIOx, uint16_t GPIO_Pin)
 229:../Peripheral/src/ch32v30x_gpio.c **** {
 420              		.loc 1 229 1 is_stmt 1
 421              		.cfi_startproc
 422              	.LVL51:
 230:../Peripheral/src/ch32v30x_gpio.c ****     uint8_t bitstatus = 0x00;
 423              		.loc 1 230 5
 231:../Peripheral/src/ch32v30x_gpio.c **** 
 232:../Peripheral/src/ch32v30x_gpio.c ****     if((GPIOx->OUTDR & GPIO_Pin) != (uint32_t)Bit_RESET)
 424              		.loc 1 232 5
 425              		.loc 1 232 14 is_stmt 0
 426 0000 5C45     		lw	a5,12(a0)
 427              	.LVL52:
 233:../Peripheral/src/ch32v30x_gpio.c ****     {
 234:../Peripheral/src/ch32v30x_gpio.c ****         bitstatus = (uint8_t)Bit_SET;
 235:../Peripheral/src/ch32v30x_gpio.c ****     }
 236:../Peripheral/src/ch32v30x_gpio.c ****     else
 237:../Peripheral/src/ch32v30x_gpio.c ****     {
 238:../Peripheral/src/ch32v30x_gpio.c ****         bitstatus = (uint8_t)Bit_RESET;
 239:../Peripheral/src/ch32v30x_gpio.c ****     }
 240:../Peripheral/src/ch32v30x_gpio.c **** 
 241:../Peripheral/src/ch32v30x_gpio.c ****     return bitstatus;
 428              		.loc 1 241 5 is_stmt 1
 232:../Peripheral/src/ch32v30x_gpio.c ****     {
 429              		.loc 1 232 22 is_stmt 0
 430 0002 33F5F500 		and	a0,a1,a5
 431              	.LVL53:
 242:../Peripheral/src/ch32v30x_gpio.c **** }
 432              		.loc 1 242 1
 433 0006 3335A000 		snez	a0,a0
 434 000a 8280     		ret
 435              		.cfi_endproc
 436              	.LFE35:
 438              		.section	.text.GPIO_ReadOutputData,"ax",@progbits
 439              		.align	1
 440              		.globl	GPIO_ReadOutputData
 442              	GPIO_ReadOutputData:
 443              	.LFB36:
 243:../Peripheral/src/ch32v30x_gpio.c **** 
 244:../Peripheral/src/ch32v30x_gpio.c **** /*********************************************************************
 245:../Peripheral/src/ch32v30x_gpio.c ****  * @fn      GPIO_ReadOutputData
 246:../Peripheral/src/ch32v30x_gpio.c ****  *
 247:../Peripheral/src/ch32v30x_gpio.c ****  * @brief   Reads the specified GPIO output data port.
 248:../Peripheral/src/ch32v30x_gpio.c ****  *
 249:../Peripheral/src/ch32v30x_gpio.c ****  * @param   GPIOx - where x can be (A..G) to select the GPIO peripheral.
 250:../Peripheral/src/ch32v30x_gpio.c ****  *
 251:../Peripheral/src/ch32v30x_gpio.c ****  * @return  GPIO output port pin value.
 252:../Peripheral/src/ch32v30x_gpio.c ****  */
 253:../Peripheral/src/ch32v30x_gpio.c **** uint16_t GPIO_ReadOutputData(GPIO_TypeDef *GPIOx)
 254:../Peripheral/src/ch32v30x_gpio.c **** {
 444              		.loc 1 254 1 is_stmt 1
 445              		.cfi_startproc
 446              	.LVL54:
 255:../Peripheral/src/ch32v30x_gpio.c ****     return ((uint16_t)GPIOx->OUTDR);
 447              		.loc 1 255 5
 448              		.loc 1 255 28 is_stmt 0
 449 0000 4845     		lw	a0,12(a0)
 450              	.LVL55:
 256:../Peripheral/src/ch32v30x_gpio.c **** }
 451              		.loc 1 256 1
 452 0002 4205     		slli	a0,a0,16
 453 0004 4181     		srli	a0,a0,16
 454 0006 8280     		ret
 455              		.cfi_endproc
 456              	.LFE36:
 458              		.section	.text.GPIO_SetBits,"ax",@progbits
 459              		.align	1
 460              		.globl	GPIO_SetBits
 462              	GPIO_SetBits:
 463              	.LFB37:
 257:../Peripheral/src/ch32v30x_gpio.c **** 
 258:../Peripheral/src/ch32v30x_gpio.c **** /*********************************************************************
 259:../Peripheral/src/ch32v30x_gpio.c ****  * @fn      GPIO_SetBits
 260:../Peripheral/src/ch32v30x_gpio.c ****  *
 261:../Peripheral/src/ch32v30x_gpio.c ****  * @brief   Sets the selected data port bits.
 262:../Peripheral/src/ch32v30x_gpio.c ****  *
 263:../Peripheral/src/ch32v30x_gpio.c ****  * @param   GPIOx - where x can be (A..G) to select the GPIO peripheral.
 264:../Peripheral/src/ch32v30x_gpio.c ****  *          GPIO_Pin - specifies the port bits to be written.
 265:../Peripheral/src/ch32v30x_gpio.c ****  *            This parameter can be any combination of GPIO_Pin_x where x can be (0..15).
 266:../Peripheral/src/ch32v30x_gpio.c ****  *
 267:../Peripheral/src/ch32v30x_gpio.c ****  * @return  none
 268:../Peripheral/src/ch32v30x_gpio.c ****  */
 269:../Peripheral/src/ch32v30x_gpio.c **** void GPIO_SetBits(GPIO_TypeDef *GPIOx, uint16_t GPIO_Pin)
 270:../Peripheral/src/ch32v30x_gpio.c **** {
 464              		.loc 1 270 1 is_stmt 1
 465              		.cfi_startproc
 466              	.LVL56:
 271:../Peripheral/src/ch32v30x_gpio.c ****     GPIOx->BSHR = GPIO_Pin;
 467              		.loc 1 271 5
 468              		.loc 1 271 17 is_stmt 0
 469 0000 0CC9     		sw	a1,16(a0)
 272:../Peripheral/src/ch32v30x_gpio.c **** }
 470              		.loc 1 272 1
 471 0002 8280     		ret
 472              		.cfi_endproc
 473              	.LFE37:
 475              		.section	.text.GPIO_ResetBits,"ax",@progbits
 476              		.align	1
 477              		.globl	GPIO_ResetBits
 479              	GPIO_ResetBits:
 480              	.LFB38:
 273:../Peripheral/src/ch32v30x_gpio.c **** 
 274:../Peripheral/src/ch32v30x_gpio.c **** /*********************************************************************
 275:../Peripheral/src/ch32v30x_gpio.c ****  * @fn      GPIO_ResetBits
 276:../Peripheral/src/ch32v30x_gpio.c ****  *
 277:../Peripheral/src/ch32v30x_gpio.c ****  * @brief   Clears the selected data port bits.
 278:../Peripheral/src/ch32v30x_gpio.c ****  *
 279:../Peripheral/src/ch32v30x_gpio.c ****  * @param   GPIOx - where x can be (A..G) to select the GPIO peripheral.
 280:../Peripheral/src/ch32v30x_gpio.c ****  *          GPIO_Pin - specifies the port bits to be written.
 281:../Peripheral/src/ch32v30x_gpio.c ****  *            This parameter can be any combination of GPIO_Pin_x where x can be (0..15).
 282:../Peripheral/src/ch32v30x_gpio.c ****  *
 283:../Peripheral/src/ch32v30x_gpio.c ****  * @return  none
 284:../Peripheral/src/ch32v30x_gpio.c ****  */
 285:../Peripheral/src/ch32v30x_gpio.c **** void GPIO_ResetBits(GPIO_TypeDef *GPIOx, uint16_t GPIO_Pin)
 286:../Peripheral/src/ch32v30x_gpio.c **** {
 481              		.loc 1 286 1 is_stmt 1
 482              		.cfi_startproc
 483              	.LVL57:
 287:../Peripheral/src/ch32v30x_gpio.c ****     GPIOx->BCR = GPIO_Pin;
 484              		.loc 1 287 5
 485              		.loc 1 287 16 is_stmt 0
 486 0000 4CC9     		sw	a1,20(a0)
 288:../Peripheral/src/ch32v30x_gpio.c **** }
 487              		.loc 1 288 1
 488 0002 8280     		ret
 489              		.cfi_endproc
 490              	.LFE38:
 492              		.section	.text.GPIO_WriteBit,"ax",@progbits
 493              		.align	1
 494              		.globl	GPIO_WriteBit
 496              	GPIO_WriteBit:
 497              	.LFB39:
 289:../Peripheral/src/ch32v30x_gpio.c **** 
 290:../Peripheral/src/ch32v30x_gpio.c **** /*********************************************************************
 291:../Peripheral/src/ch32v30x_gpio.c ****  * @fn      GPIO_WriteBit
 292:../Peripheral/src/ch32v30x_gpio.c ****  *
 293:../Peripheral/src/ch32v30x_gpio.c ****  * @brief   Sets or clears the selected data port bit.
 294:../Peripheral/src/ch32v30x_gpio.c ****  *
 295:../Peripheral/src/ch32v30x_gpio.c ****  * @param   GPIO_Pin - specifies the port bit to be written.
 296:../Peripheral/src/ch32v30x_gpio.c ****  *            This parameter can be one of GPIO_Pin_x where x can be (0..15).
 297:../Peripheral/src/ch32v30x_gpio.c ****  *          BitVal - specifies the value to be written to the selected bit.
 298:../Peripheral/src/ch32v30x_gpio.c ****  *            Bit_RESET - to clear the port pin.
 299:../Peripheral/src/ch32v30x_gpio.c ****  *            Bit_SET - to set the port pin.
 300:../Peripheral/src/ch32v30x_gpio.c ****  *
 301:../Peripheral/src/ch32v30x_gpio.c ****  * @return  none
 302:../Peripheral/src/ch32v30x_gpio.c ****  */
 303:../Peripheral/src/ch32v30x_gpio.c **** void GPIO_WriteBit(GPIO_TypeDef *GPIOx, uint16_t GPIO_Pin, BitAction BitVal)
 304:../Peripheral/src/ch32v30x_gpio.c **** {
 498              		.loc 1 304 1 is_stmt 1
 499              		.cfi_startproc
 500              	.LVL58:
 305:../Peripheral/src/ch32v30x_gpio.c ****     if(BitVal != Bit_RESET)
 501              		.loc 1 305 5
 502              		.loc 1 305 7 is_stmt 0
 503 0000 19C2     		beq	a2,zero,.L40
 306:../Peripheral/src/ch32v30x_gpio.c ****     {
 307:../Peripheral/src/ch32v30x_gpio.c ****         GPIOx->BSHR = GPIO_Pin;
 504              		.loc 1 307 9 is_stmt 1
 505              		.loc 1 307 21 is_stmt 0
 506 0002 0CC9     		sw	a1,16(a0)
 507 0004 8280     		ret
 508              	.L40:
 308:../Peripheral/src/ch32v30x_gpio.c ****     }
 309:../Peripheral/src/ch32v30x_gpio.c ****     else
 310:../Peripheral/src/ch32v30x_gpio.c ****     {
 311:../Peripheral/src/ch32v30x_gpio.c ****         GPIOx->BCR = GPIO_Pin;
 509              		.loc 1 311 9 is_stmt 1
 510              		.loc 1 311 20 is_stmt 0
 511 0006 4CC9     		sw	a1,20(a0)
 312:../Peripheral/src/ch32v30x_gpio.c ****     }
 313:../Peripheral/src/ch32v30x_gpio.c **** }
 512              		.loc 1 313 1
 513 0008 8280     		ret
 514              		.cfi_endproc
 515              	.LFE39:
 517              		.section	.text.GPIO_Write,"ax",@progbits
 518              		.align	1
 519              		.globl	GPIO_Write
 521              	GPIO_Write:
 522              	.LFB40:
 314:../Peripheral/src/ch32v30x_gpio.c **** 
 315:../Peripheral/src/ch32v30x_gpio.c **** /*********************************************************************
 316:../Peripheral/src/ch32v30x_gpio.c ****  * @fn      GPIO_Write
 317:../Peripheral/src/ch32v30x_gpio.c ****  *
 318:../Peripheral/src/ch32v30x_gpio.c ****  * @brief   Writes data to the specified GPIO data port.
 319:../Peripheral/src/ch32v30x_gpio.c ****  *
 320:../Peripheral/src/ch32v30x_gpio.c ****  * @param   GPIOx - where x can be (A..G) to select the GPIO peripheral.
 321:../Peripheral/src/ch32v30x_gpio.c ****  *          PortVal - specifies the value to be written to the port output data register.
 322:../Peripheral/src/ch32v30x_gpio.c ****  *
 323:../Peripheral/src/ch32v30x_gpio.c ****  * @return  none
 324:../Peripheral/src/ch32v30x_gpio.c ****  */
 325:../Peripheral/src/ch32v30x_gpio.c **** void GPIO_Write(GPIO_TypeDef *GPIOx, uint16_t PortVal)
 326:../Peripheral/src/ch32v30x_gpio.c **** {
 523              		.loc 1 326 1 is_stmt 1
 524              		.cfi_startproc
 525              	.LVL59:
 327:../Peripheral/src/ch32v30x_gpio.c ****     GPIOx->OUTDR = PortVal;
 526              		.loc 1 327 5
 527              		.loc 1 327 18 is_stmt 0
 528 0000 4CC5     		sw	a1,12(a0)
 328:../Peripheral/src/ch32v30x_gpio.c **** }
 529              		.loc 1 328 1
 530 0002 8280     		ret
 531              		.cfi_endproc
 532              	.LFE40:
 534              		.section	.text.GPIO_PinLockConfig,"ax",@progbits
 535              		.align	1
 536              		.globl	GPIO_PinLockConfig
 538              	GPIO_PinLockConfig:
 539              	.LFB41:
 329:../Peripheral/src/ch32v30x_gpio.c **** 
 330:../Peripheral/src/ch32v30x_gpio.c **** /*********************************************************************
 331:../Peripheral/src/ch32v30x_gpio.c ****  * @fn      GPIO_PinLockConfig
 332:../Peripheral/src/ch32v30x_gpio.c ****  *
 333:../Peripheral/src/ch32v30x_gpio.c ****  * @brief   Locks GPIO Pins configuration registers.
 334:../Peripheral/src/ch32v30x_gpio.c ****  *
 335:../Peripheral/src/ch32v30x_gpio.c ****  * @param   GPIOx - where x can be (A..G) to select the GPIO peripheral.
 336:../Peripheral/src/ch32v30x_gpio.c ****  *          GPIO_Pin - specifies the port bit to be written.
 337:../Peripheral/src/ch32v30x_gpio.c ****  *            This parameter can be any combination of GPIO_Pin_x where x can be (0..15).
 338:../Peripheral/src/ch32v30x_gpio.c ****  *
 339:../Peripheral/src/ch32v30x_gpio.c ****  * @return  none
 340:../Peripheral/src/ch32v30x_gpio.c ****  */
 341:../Peripheral/src/ch32v30x_gpio.c **** void GPIO_PinLockConfig(GPIO_TypeDef *GPIOx, uint16_t GPIO_Pin)
 342:../Peripheral/src/ch32v30x_gpio.c **** {
 540              		.loc 1 342 1 is_stmt 1
 541              		.cfi_startproc
 542              	.LVL60:
 343:../Peripheral/src/ch32v30x_gpio.c ****     uint32_t tmp = 0x00010000;
 543              		.loc 1 343 5
 344:../Peripheral/src/ch32v30x_gpio.c **** 
 345:../Peripheral/src/ch32v30x_gpio.c ****     tmp |= GPIO_Pin;
 544              		.loc 1 345 5
 545              		.loc 1 345 9 is_stmt 0
 546 0000 C167     		li	a5,65536
 547 0002 CD8F     		or	a5,a1,a5
 548              	.LVL61:
 346:../Peripheral/src/ch32v30x_gpio.c ****     GPIOx->LCKR = tmp;
 549              		.loc 1 346 5 is_stmt 1
 550              		.loc 1 346 17 is_stmt 0
 551 0004 1CCD     		sw	a5,24(a0)
 347:../Peripheral/src/ch32v30x_gpio.c ****     GPIOx->LCKR = GPIO_Pin;
 552              		.loc 1 347 5 is_stmt 1
 553              		.loc 1 347 17 is_stmt 0
 554 0006 0CCD     		sw	a1,24(a0)
 348:../Peripheral/src/ch32v30x_gpio.c ****     GPIOx->LCKR = tmp;
 555              		.loc 1 348 5 is_stmt 1
 556              		.loc 1 348 17 is_stmt 0
 557 0008 1CCD     		sw	a5,24(a0)
 349:../Peripheral/src/ch32v30x_gpio.c ****     tmp = GPIOx->LCKR;
 558              		.loc 1 349 5 is_stmt 1
 559              		.loc 1 349 9 is_stmt 0
 560 000a 1C4D     		lw	a5,24(a0)
 561              	.LVL62:
 350:../Peripheral/src/ch32v30x_gpio.c ****     tmp = GPIOx->LCKR;
 562              		.loc 1 350 5 is_stmt 1
 563              		.loc 1 350 9 is_stmt 0
 564 000c 1C4D     		lw	a5,24(a0)
 351:../Peripheral/src/ch32v30x_gpio.c **** }
 565              		.loc 1 351 1
 566 000e 8280     		ret
 567              		.cfi_endproc
 568              	.LFE41:
 570              		.section	.text.GPIO_EventOutputConfig,"ax",@progbits
 571              		.align	1
 572              		.globl	GPIO_EventOutputConfig
 574              	GPIO_EventOutputConfig:
 575              	.LFB42:
 352:../Peripheral/src/ch32v30x_gpio.c **** 
 353:../Peripheral/src/ch32v30x_gpio.c **** /*********************************************************************
 354:../Peripheral/src/ch32v30x_gpio.c ****  * @fn      GPIO_EventOutputConfig
 355:../Peripheral/src/ch32v30x_gpio.c ****  *
 356:../Peripheral/src/ch32v30x_gpio.c ****  * @brief   Selects the GPIO pin used as Event output.
 357:../Peripheral/src/ch32v30x_gpio.c ****  *
 358:../Peripheral/src/ch32v30x_gpio.c ****  * @param   GPIO_PortSource - selects the GPIO port to be used as source
 359:../Peripheral/src/ch32v30x_gpio.c ****  *        for Event output.
 360:../Peripheral/src/ch32v30x_gpio.c ****  *            This parameter can be GPIO_PortSourceGPIOx where x can be (A..E).
 361:../Peripheral/src/ch32v30x_gpio.c ****  *          GPIO_PinSource - specifies the pin for the Event output.
 362:../Peripheral/src/ch32v30x_gpio.c ****  *            This parameter can be GPIO_PinSourcex where x can be (0..15).
 363:../Peripheral/src/ch32v30x_gpio.c ****  *
 364:../Peripheral/src/ch32v30x_gpio.c ****  * @return  none
 365:../Peripheral/src/ch32v30x_gpio.c ****  */
 366:../Peripheral/src/ch32v30x_gpio.c **** void GPIO_EventOutputConfig(uint8_t GPIO_PortSource, uint8_t GPIO_PinSource)
 367:../Peripheral/src/ch32v30x_gpio.c **** {
 576              		.loc 1 367 1 is_stmt 1
 577              		.cfi_startproc
 578              	.LVL63:
 368:../Peripheral/src/ch32v30x_gpio.c ****     uint32_t tmpreg = 0x00;
 579              		.loc 1 368 5
 369:../Peripheral/src/ch32v30x_gpio.c **** 
 370:../Peripheral/src/ch32v30x_gpio.c ****     tmpreg = AFIO->ECR;
 580              		.loc 1 370 5
 581              		.loc 1 370 12 is_stmt 0
 582 0000 B7060140 		li	a3,1073807360
 583 0004 9C42     		lw	a5,0(a3)
 584              	.LVL64:
 371:../Peripheral/src/ch32v30x_gpio.c ****     tmpreg &= ECR_PORTPINCONFIG_MASK;
 585              		.loc 1 371 5 is_stmt 1
 372:../Peripheral/src/ch32v30x_gpio.c ****     tmpreg |= (uint32_t)GPIO_PortSource << 0x04;
 586              		.loc 1 372 5
 373:../Peripheral/src/ch32v30x_gpio.c ****     tmpreg |= GPIO_PinSource;
 587              		.loc 1 373 5
 371:../Peripheral/src/ch32v30x_gpio.c ****     tmpreg &= ECR_PORTPINCONFIG_MASK;
 588              		.loc 1 371 12 is_stmt 0
 589 0006 4167     		li	a4,65536
 590 0008 130707F8 		addi	a4,a4,-128
 591 000c F98F     		and	a5,a5,a4
 592              	.LVL65:
 593 000e CD8F     		or	a5,a5,a1
 372:../Peripheral/src/ch32v30x_gpio.c ****     tmpreg |= (uint32_t)GPIO_PortSource << 0x04;
 594              		.loc 1 372 41
 595 0010 1205     		slli	a0,a0,4
 596              	.LVL66:
 597              		.loc 1 373 12
 598 0012 5D8D     		or	a0,a0,a5
 599              	.LVL67:
 374:../Peripheral/src/ch32v30x_gpio.c ****     AFIO->ECR = tmpreg;
 600              		.loc 1 374 5 is_stmt 1
 601              		.loc 1 374 15 is_stmt 0
 602 0014 88C2     		sw	a0,0(a3)
 375:../Peripheral/src/ch32v30x_gpio.c **** }
 603              		.loc 1 375 1
 604 0016 8280     		ret
 605              		.cfi_endproc
 606              	.LFE42:
 608              		.section	.text.GPIO_EventOutputCmd,"ax",@progbits
 609              		.align	1
 610              		.globl	GPIO_EventOutputCmd
 612              	GPIO_EventOutputCmd:
 613              	.LFB43:
 376:../Peripheral/src/ch32v30x_gpio.c **** 
 377:../Peripheral/src/ch32v30x_gpio.c **** /*********************************************************************
 378:../Peripheral/src/ch32v30x_gpio.c ****  * @fn      GPIO_EventOutputCmd
 379:../Peripheral/src/ch32v30x_gpio.c ****  *
 380:../Peripheral/src/ch32v30x_gpio.c ****  * @brief   Enables or disables the Event Output.
 381:../Peripheral/src/ch32v30x_gpio.c ****  *
 382:../Peripheral/src/ch32v30x_gpio.c ****  * @param   NewState - ENABLE or DISABLE.
 383:../Peripheral/src/ch32v30x_gpio.c ****  *
 384:../Peripheral/src/ch32v30x_gpio.c ****  * @return  none
 385:../Peripheral/src/ch32v30x_gpio.c ****  */
 386:../Peripheral/src/ch32v30x_gpio.c **** void GPIO_EventOutputCmd(FunctionalState NewState)
 387:../Peripheral/src/ch32v30x_gpio.c **** {
 614              		.loc 1 387 1 is_stmt 1
 615              		.cfi_startproc
 616              	.LVL68:
 388:../Peripheral/src/ch32v30x_gpio.c ****     if(NewState)
 617              		.loc 1 388 5
 389:../Peripheral/src/ch32v30x_gpio.c ****     {
 390:../Peripheral/src/ch32v30x_gpio.c ****         AFIO->ECR |= (1 << 7);
 618              		.loc 1 390 13 is_stmt 0
 619 0000 37070140 		li	a4,1073807360
 620 0004 1C43     		lw	a5,0(a4)
 388:../Peripheral/src/ch32v30x_gpio.c ****     if(NewState)
 621              		.loc 1 388 7
 622 0006 09C5     		beq	a0,zero,.L46
 623              		.loc 1 390 9 is_stmt 1
 624              		.loc 1 390 19 is_stmt 0
 625 0008 93E70708 		ori	a5,a5,128
 626              	.L48:
 391:../Peripheral/src/ch32v30x_gpio.c ****     }
 392:../Peripheral/src/ch32v30x_gpio.c ****     else
 393:../Peripheral/src/ch32v30x_gpio.c ****     {
 394:../Peripheral/src/ch32v30x_gpio.c ****         AFIO->ECR &= ~(1 << 7);
 627              		.loc 1 394 19
 628 000c 1CC3     		sw	a5,0(a4)
 395:../Peripheral/src/ch32v30x_gpio.c ****     }
 396:../Peripheral/src/ch32v30x_gpio.c **** }
 629              		.loc 1 396 1
 630 000e 8280     		ret
 631              	.L46:
 394:../Peripheral/src/ch32v30x_gpio.c ****     }
 632              		.loc 1 394 9 is_stmt 1
 394:../Peripheral/src/ch32v30x_gpio.c ****     }
 633              		.loc 1 394 19 is_stmt 0
 634 0010 93F7F7F7 		andi	a5,a5,-129
 635 0014 E5BF     		j	.L48
 636              		.cfi_endproc
 637              	.LFE43:
 639              		.section	.text.GPIO_PinRemapConfig,"ax",@progbits
 640              		.align	1
 641              		.globl	GPIO_PinRemapConfig
 643              	GPIO_PinRemapConfig:
 644              	.LFB44:
 397:../Peripheral/src/ch32v30x_gpio.c **** 
 398:../Peripheral/src/ch32v30x_gpio.c **** /*********************************************************************
 399:../Peripheral/src/ch32v30x_gpio.c ****  * @fn      GPIO_PinRemapConfig
 400:../Peripheral/src/ch32v30x_gpio.c ****  *
 401:../Peripheral/src/ch32v30x_gpio.c ****  * @brief   Changes the mapping of the specified pin.
 402:../Peripheral/src/ch32v30x_gpio.c ****  *
 403:../Peripheral/src/ch32v30x_gpio.c ****  * @param   GPIO_Remap - selects the pin to remap.
 404:../Peripheral/src/ch32v30x_gpio.c ****  *            GPIO_Remap_SPI1 - SPI1 Alternate Function mapping
 405:../Peripheral/src/ch32v30x_gpio.c ****  *            GPIO_Remap_SPI3 - SPI3 Alternate Function mapping(CH32V30X_D8,CH32V30X_D8C)
 406:../Peripheral/src/ch32v30x_gpio.c ****  *            GPIO_Remap_I2C1 - I2C1 Alternate Function mapping
 407:../Peripheral/src/ch32v30x_gpio.c ****  *            GPIO_Remap_USART1 - USART1 Alternate Function mapping
 408:../Peripheral/src/ch32v30x_gpio.c ****  *            GPIO_Remap_USART2 - USART2 Alternate Function mapping
 409:../Peripheral/src/ch32v30x_gpio.c ****  *            GPIO_PartialRemap_USART3 - USART3 Partial Alternate Function mapping
 410:../Peripheral/src/ch32v30x_gpio.c ****  *            GPIO_PartialRemap1_USART3 - USART3 Partial1 Alternate Function mapping
 411:../Peripheral/src/ch32v30x_gpio.c ****  *            GPIO_FullRemap_USART3 - USART3 Full Alternate Function mapping
 412:../Peripheral/src/ch32v30x_gpio.c ****  *            GPIO_PartialRemap_TIM1 - TIM1 Partial Alternate Function mapping
 413:../Peripheral/src/ch32v30x_gpio.c ****  *            GPIO_FullRemap_TIM1 - TIM1 Full Alternate Function mapping
 414:../Peripheral/src/ch32v30x_gpio.c ****  *            GPIO_PartialRemap1_TIM2 - TIM2 Partial1 Alternate Function mapping
 415:../Peripheral/src/ch32v30x_gpio.c ****  *            GPIO_PartialRemap2_TIM2 - TIM2 Partial2 Alternate Function mapping
 416:../Peripheral/src/ch32v30x_gpio.c ****  *            GPIO_FullRemap_TIM2 - TIM2 Full Alternate Function mapping
 417:../Peripheral/src/ch32v30x_gpio.c ****  *            GPIO_PartialRemap_TIM3 - TIM3 Partial Alternate Function mapping
 418:../Peripheral/src/ch32v30x_gpio.c ****  *            GPIO_FullRemap_TIM3 - TIM3 Full Alternate Function mapping
 419:../Peripheral/src/ch32v30x_gpio.c ****  *            GPIO_Remap_TIM4 - TIM4 Alternate Function mapping
 420:../Peripheral/src/ch32v30x_gpio.c ****  *            GPIO_Remap1_CAN1 - CAN1 Alternate Function mapping
 421:../Peripheral/src/ch32v30x_gpio.c ****  *            GPIO_Remap2_CAN1 - CAN1 Alternate Function mapping
 422:../Peripheral/src/ch32v30x_gpio.c ****  *            GPIO_Remap_PD01 - PD01 Alternate Function mapping
 423:../Peripheral/src/ch32v30x_gpio.c ****  *            GPIO_Remap_ADC1_ETRGINJ - ADC1 External Trigger Injected Conversion remapping
 424:../Peripheral/src/ch32v30x_gpio.c ****  *            GPIO_Remap_ADC1_ETRGREG - ADC1 External Trigger Regular Conversion remapping
 425:../Peripheral/src/ch32v30x_gpio.c ****  *            GPIO_Remap_ADC2_ETRGINJ - ADC2 External Trigger Injected Conversion remapping
 426:../Peripheral/src/ch32v30x_gpio.c ****  *            GPIO_Remap_ADC2_ETRGREG - ADC2 External Trigger Regular Conversion remapping
 427:../Peripheral/src/ch32v30x_gpio.c ****  *            GPIO_Remap_ETH - Ethernet remapping
 428:../Peripheral/src/ch32v30x_gpio.c ****  *            GPIO_Remap_CAN2 - CAN2 remapping
 429:../Peripheral/src/ch32v30x_gpio.c ****  *            GPIO_Remap_MII_RMII_SEL - MII or RMII selection
 430:../Peripheral/src/ch32v30x_gpio.c ****  *            GPIO_Remap_SWJ_Disable - Full SWJ Disabled 
 431:../Peripheral/src/ch32v30x_gpio.c ****  *            GPIO_Remap_TIM2ITR1_PTP_SOF - Ethernet PTP output or USB OTG SOF (Start of Frame) con
 432:../Peripheral/src/ch32v30x_gpio.c ****  *        to TIM2 Internal Trigger 1 for calibration
 433:../Peripheral/src/ch32v30x_gpio.c ****  *            GPIO_Remap_TIM2ITR1_PTP_SOF - Ethernet PTP output or USB OTG SOF (Start of Frame)
 434:../Peripheral/src/ch32v30x_gpio.c ****  *            GPIO_Remap_TIM8 - TIM8 Alternate Function mapping
 435:../Peripheral/src/ch32v30x_gpio.c ****  *            GPIO_PartialRemap_TIM9 - TIM9 Partial Alternate Function mapping
 436:../Peripheral/src/ch32v30x_gpio.c ****  *            GPIO_FullRemap_TIM9 - TIM9 Full Alternate Function mapping
 437:../Peripheral/src/ch32v30x_gpio.c ****  *            GPIO_PartialRemap_TIM10 - TIM10 Partial Alternate Function mapping
 438:../Peripheral/src/ch32v30x_gpio.c ****  *            GPIO_FullRemap_TIM10 - TIM10 Full Alternate Function mapping
 439:../Peripheral/src/ch32v30x_gpio.c ****  *            GPIO_Remap_FSMC_NADV - FSMC_NADV Alternate Function mapping
 440:../Peripheral/src/ch32v30x_gpio.c ****  *            GPIO_PartialRemap_USART4 - USART4 Partial Alternate Function mapping
 441:../Peripheral/src/ch32v30x_gpio.c ****  *            GPIO_FullRemap_USART4 - USART4 Full Alternate Function mapping
 442:../Peripheral/src/ch32v30x_gpio.c ****  *            GPIO_PartialRemap_USART5 - USART5 Partial Alternate Function mapping
 443:../Peripheral/src/ch32v30x_gpio.c ****  *            GPIO_FullRemap_USART5 - USART5 Full Alternate Function mapping
 444:../Peripheral/src/ch32v30x_gpio.c ****  *            GPIO_PartialRemap_USART6 - USART6 Partial Alternate Function mapping
 445:../Peripheral/src/ch32v30x_gpio.c ****  *            GPIO_FullRemap_USART6 - USART6 Full Alternate Function mapping
 446:../Peripheral/src/ch32v30x_gpio.c ****  *            GPIO_PartialRemap_USART7 - USART7 Partial Alternate Function mapping
 447:../Peripheral/src/ch32v30x_gpio.c ****  *            GPIO_FullRemap_USART7 - USART7 Full Alternate Function mapping
 448:../Peripheral/src/ch32v30x_gpio.c ****  *            GPIO_PartialRemap_USART8 - USART8 Partial Alternate Function mapping
 449:../Peripheral/src/ch32v30x_gpio.c ****  *            GPIO_FullRemap_USART8 - USART8 Full Alternate Function mapping
 450:../Peripheral/src/ch32v30x_gpio.c ****  *            GPIO_Remap_USART1_HighBit - USART1 Alternate Function mapping high bit
 451:../Peripheral/src/ch32v30x_gpio.c ****  *          NewState - ENABLE or DISABLE.
 452:../Peripheral/src/ch32v30x_gpio.c ****  *
 453:../Peripheral/src/ch32v30x_gpio.c ****  * @return  none
 454:../Peripheral/src/ch32v30x_gpio.c ****  */
 455:../Peripheral/src/ch32v30x_gpio.c **** void GPIO_PinRemapConfig(uint32_t GPIO_Remap, FunctionalState NewState)
 456:../Peripheral/src/ch32v30x_gpio.c **** {
 645              		.loc 1 456 1 is_stmt 1
 646              		.cfi_startproc
 647              	.LVL69:
 457:../Peripheral/src/ch32v30x_gpio.c ****     uint32_t tmp = 0x00, tmp1 = 0x00, tmpreg = 0x00, tmpmask = 0x00;
 648              		.loc 1 457 5
 458:../Peripheral/src/ch32v30x_gpio.c **** 
 459:../Peripheral/src/ch32v30x_gpio.c ****     if((GPIO_Remap & 0x80000000) == 0x80000000)
 649              		.loc 1 459 5
 460:../Peripheral/src/ch32v30x_gpio.c ****     {
 461:../Peripheral/src/ch32v30x_gpio.c ****         tmpreg = AFIO->PCFR2;
 462:../Peripheral/src/ch32v30x_gpio.c ****     }
 463:../Peripheral/src/ch32v30x_gpio.c ****     else
 464:../Peripheral/src/ch32v30x_gpio.c ****     {
 465:../Peripheral/src/ch32v30x_gpio.c ****         tmpreg = AFIO->PCFR1;
 466:../Peripheral/src/ch32v30x_gpio.c ****     }
 467:../Peripheral/src/ch32v30x_gpio.c **** 
 468:../Peripheral/src/ch32v30x_gpio.c ****     tmpmask = (GPIO_Remap & DBGAFR_POSITION_MASK) >> 0x10;
 469:../Peripheral/src/ch32v30x_gpio.c ****     tmp = GPIO_Remap & LSB_MASK;
 470:../Peripheral/src/ch32v30x_gpio.c **** 
 471:../Peripheral/src/ch32v30x_gpio.c ****     /* Clear bit */
 472:../Peripheral/src/ch32v30x_gpio.c ****     if((GPIO_Remap & 0x80000000) == 0x80000000)
 473:../Peripheral/src/ch32v30x_gpio.c ****     {                                                                                              
 474:../Peripheral/src/ch32v30x_gpio.c ****         if((GPIO_Remap & (DBGAFR_LOCATION_MASK | DBGAFR_NUMBITS_MASK)) == (DBGAFR_LOCATION_MASK | D
 650              		.loc 1 474 24 is_stmt 0
 651 0000 B7083000 		li	a7,3145728
 468:../Peripheral/src/ch32v30x_gpio.c ****     tmp = GPIO_Remap & LSB_MASK;
 652              		.loc 1 468 51
 653 0004 93560501 		srli	a3,a0,16
 469:../Peripheral/src/ch32v30x_gpio.c **** 
 654              		.loc 1 469 9
 655 0008 13170501 		slli	a4,a0,16
 656              		.loc 1 474 24
 657 000c 33731501 		and	t1,a0,a7
 468:../Peripheral/src/ch32v30x_gpio.c ****     tmp = GPIO_Remap & LSB_MASK;
 658              		.loc 1 468 13
 659 0010 BD8A     		andi	a3,a3,15
 469:../Peripheral/src/ch32v30x_gpio.c **** 
 660              		.loc 1 469 9
 661 0012 4183     		srli	a4,a4,16
 459:../Peripheral/src/ch32v30x_gpio.c ****     {
 662              		.loc 1 459 7
 663 0014 63530502 		bge	a0,zero,.L50
 461:../Peripheral/src/ch32v30x_gpio.c ****     }
 664              		.loc 1 461 9 is_stmt 1
 461:../Peripheral/src/ch32v30x_gpio.c ****     }
 665              		.loc 1 461 16 is_stmt 0
 666 0018 B7070140 		li	a5,1073807360
 667 001c DC4F     		lw	a5,28(a5)
 668              	.LVL70:
 468:../Peripheral/src/ch32v30x_gpio.c ****     tmp = GPIO_Remap & LSB_MASK;
 669              		.loc 1 468 5 is_stmt 1
 469:../Peripheral/src/ch32v30x_gpio.c **** 
 670              		.loc 1 469 5
 472:../Peripheral/src/ch32v30x_gpio.c ****     {                                                                                              
 671              		.loc 1 472 5
 672              		.loc 1 474 9
 673              		.loc 1 474 11 is_stmt 0
 674 001e 63151305 		bne	t1,a7,.L74
 475:../Peripheral/src/ch32v30x_gpio.c ****         {
 476:../Peripheral/src/ch32v30x_gpio.c ****             tmp1 = ((uint32_t)0x03) << (tmpmask + 0x10);
 675              		.loc 1 476 13 is_stmt 1
 676              	.LVL71:
 477:../Peripheral/src/ch32v30x_gpio.c ****             tmpreg &= ~tmp1;
 677              		.loc 1 477 13
 476:../Peripheral/src/ch32v30x_gpio.c ****             tmpreg &= ~tmp1;
 678              		.loc 1 476 49 is_stmt 0
 679 0022 C106     		addi	a3,a3,16
 680              	.LVL72:
 476:../Peripheral/src/ch32v30x_gpio.c ****             tmpreg &= ~tmp1;
 681              		.loc 1 476 18
 682 0024 0D46     		li	a2,3
 683 0026 B316D600 		sll	a3,a2,a3
 684              	.LVL73:
 685              		.loc 1 477 23
 686 002a 93C6F6FF 		not	a3,a3
 687              		.loc 1 477 20
 688 002e F58F     		and	a5,a3,a5
 689              	.LVL74:
 478:../Peripheral/src/ch32v30x_gpio.c ****         }
 479:../Peripheral/src/ch32v30x_gpio.c ****         else if((GPIO_Remap & DBGAFR_NUMBITS_MASK) == DBGAFR_NUMBITS_MASK) /* [15:0] 2bit */
 480:../Peripheral/src/ch32v30x_gpio.c ****         {
 481:../Peripheral/src/ch32v30x_gpio.c ****             tmp1 = ((uint32_t)0x03) << tmpmask;
 482:../Peripheral/src/ch32v30x_gpio.c ****             tmpreg &= ~tmp1;
 483:../Peripheral/src/ch32v30x_gpio.c ****         }
 484:../Peripheral/src/ch32v30x_gpio.c ****         else /* [31:0] 1bit */
 485:../Peripheral/src/ch32v30x_gpio.c ****         {
 486:../Peripheral/src/ch32v30x_gpio.c ****             tmpreg &= ~(tmp << (((GPIO_Remap & 0x7FFFFFFF)>> 0x15) * 0x10));
 487:../Peripheral/src/ch32v30x_gpio.c ****         }
 488:../Peripheral/src/ch32v30x_gpio.c ****     }
 489:../Peripheral/src/ch32v30x_gpio.c ****     else
 490:../Peripheral/src/ch32v30x_gpio.c ****     {                                                                                              
 491:../Peripheral/src/ch32v30x_gpio.c ****         if((GPIO_Remap & (DBGAFR_LOCATION_MASK | DBGAFR_NUMBITS_MASK)) == (DBGAFR_LOCATION_MASK | D
 492:../Peripheral/src/ch32v30x_gpio.c ****         {
 493:../Peripheral/src/ch32v30x_gpio.c ****             tmpreg &= DBGAFR_SWJCFG_MASK;
 494:../Peripheral/src/ch32v30x_gpio.c ****             AFIO->PCFR1 &= DBGAFR_SWJCFG_MASK;
 495:../Peripheral/src/ch32v30x_gpio.c ****         }
 496:../Peripheral/src/ch32v30x_gpio.c ****         else if((GPIO_Remap & DBGAFR_NUMBITS_MASK) == DBGAFR_NUMBITS_MASK) /* [15:0] 2bit */
 497:../Peripheral/src/ch32v30x_gpio.c ****         {
 498:../Peripheral/src/ch32v30x_gpio.c ****             tmp1 = ((uint32_t)0x03) << tmpmask;
 499:../Peripheral/src/ch32v30x_gpio.c ****             tmpreg &= ~tmp1;
 500:../Peripheral/src/ch32v30x_gpio.c ****             tmpreg |= ~DBGAFR_SWJCFG_MASK;
 501:../Peripheral/src/ch32v30x_gpio.c ****         }
 502:../Peripheral/src/ch32v30x_gpio.c ****         else /* [31:0] 1bit */
 503:../Peripheral/src/ch32v30x_gpio.c ****         {
 504:../Peripheral/src/ch32v30x_gpio.c ****             tmpreg &= ~(tmp << ((GPIO_Remap >> 0x15) * 0x10));
 505:../Peripheral/src/ch32v30x_gpio.c ****             tmpreg |= ~DBGAFR_SWJCFG_MASK;
 506:../Peripheral/src/ch32v30x_gpio.c ****         }
 507:../Peripheral/src/ch32v30x_gpio.c ****     }
 508:../Peripheral/src/ch32v30x_gpio.c **** 
 509:../Peripheral/src/ch32v30x_gpio.c ****     /* Set bit */
 510:../Peripheral/src/ch32v30x_gpio.c ****     if(NewState != DISABLE)
 690              		.loc 1 510 5 is_stmt 1
 691              		.loc 1 510 7 is_stmt 0
 692 0030 C5E9     		bne	a1,zero,.L55
 693              	.LVL75:
 694              	.L56:
 511:../Peripheral/src/ch32v30x_gpio.c ****     {
 512:../Peripheral/src/ch32v30x_gpio.c ****         tmpreg |= (tmp << (((GPIO_Remap & 0x7FFFFFFF)>> 0x15) * 0x10));
 513:../Peripheral/src/ch32v30x_gpio.c ****     }
 514:../Peripheral/src/ch32v30x_gpio.c **** 
 515:../Peripheral/src/ch32v30x_gpio.c ****     if((GPIO_Remap & 0x80000000) == 0x80000000)
 516:../Peripheral/src/ch32v30x_gpio.c ****     {
 517:../Peripheral/src/ch32v30x_gpio.c ****         AFIO->PCFR2 = tmpreg;
 695              		.loc 1 517 9 is_stmt 1
 696              		.loc 1 517 21 is_stmt 0
 697 0032 37070140 		li	a4,1073807360
 698 0036 5CCF     		sw	a5,28(a4)
 699 0038 8280     		ret
 700              	.LVL76:
 701              	.L50:
 465:../Peripheral/src/ch32v30x_gpio.c ****     }
 702              		.loc 1 465 9 is_stmt 1
 465:../Peripheral/src/ch32v30x_gpio.c ****     }
 703              		.loc 1 465 16 is_stmt 0
 704 003a 37080140 		li	a6,1073807360
 705 003e 03264800 		lw	a2,4(a6)
 706              	.LVL77:
 468:../Peripheral/src/ch32v30x_gpio.c ****     tmp = GPIO_Remap & LSB_MASK;
 707              		.loc 1 468 5 is_stmt 1
 469:../Peripheral/src/ch32v30x_gpio.c **** 
 708              		.loc 1 469 5
 472:../Peripheral/src/ch32v30x_gpio.c ****     {                                                                                              
 709              		.loc 1 472 5
 491:../Peripheral/src/ch32v30x_gpio.c ****         {
 710              		.loc 1 491 9
 491:../Peripheral/src/ch32v30x_gpio.c ****         {
 711              		.loc 1 491 11 is_stmt 0
 712 0042 63121307 		bne	t1,a7,.L75
 493:../Peripheral/src/ch32v30x_gpio.c ****             AFIO->PCFR1 &= DBGAFR_SWJCFG_MASK;
 713              		.loc 1 493 13 is_stmt 1
 493:../Peripheral/src/ch32v30x_gpio.c ****             AFIO->PCFR1 &= DBGAFR_SWJCFG_MASK;
 714              		.loc 1 493 20 is_stmt 0
 715 0046 B70600F1 		li	a3,-251658240
 716 004a FD16     		addi	a3,a3,-1
 717 004c B377D600 		and	a5,a2,a3
 718              	.LVL78:
 494:../Peripheral/src/ch32v30x_gpio.c ****         }
 719              		.loc 1 494 13 is_stmt 1
 494:../Peripheral/src/ch32v30x_gpio.c ****         }
 720              		.loc 1 494 17 is_stmt 0
 721 0050 03264800 		lw	a2,4(a6)
 494:../Peripheral/src/ch32v30x_gpio.c ****         }
 722              		.loc 1 494 25
 723 0054 F18E     		and	a3,a2,a3
 724 0056 2322D800 		sw	a3,4(a6)
 510:../Peripheral/src/ch32v30x_gpio.c ****     {
 725              		.loc 1 510 5 is_stmt 1
 726              	.LVL79:
 727              	.L79:
 510:../Peripheral/src/ch32v30x_gpio.c ****     {
 728              		.loc 1 510 5
 510:../Peripheral/src/ch32v30x_gpio.c ****     {
 729              		.loc 1 510 7 is_stmt 0
 730 005a BDCD     		beq	a1,zero,.L59
 512:../Peripheral/src/ch32v30x_gpio.c ****     }
 731              		.loc 1 512 9 is_stmt 1
 512:../Peripheral/src/ch32v30x_gpio.c ****     }
 732              		.loc 1 512 54 is_stmt 0
 733 005c 5581     		srli	a0,a0,21
 734              	.LVL80:
 512:../Peripheral/src/ch32v30x_gpio.c ****     }
 735              		.loc 1 512 63
 736 005e 1205     		slli	a0,a0,4
 512:../Peripheral/src/ch32v30x_gpio.c ****     }
 737              		.loc 1 512 24
 738 0060 3315A700 		sll	a0,a4,a0
 739              	.L76:
 512:../Peripheral/src/ch32v30x_gpio.c ****     }
 740              		.loc 1 512 9 is_stmt 1
 512:../Peripheral/src/ch32v30x_gpio.c ****     }
 741              		.loc 1 512 16 is_stmt 0
 742 0064 C98F     		or	a5,a5,a0
 743              	.LVL81:
 515:../Peripheral/src/ch32v30x_gpio.c ****     {
 744              		.loc 1 515 5 is_stmt 1
 745 0066 8DA8     		j	.L59
 746              	.LVL82:
 747              	.L74:
 479:../Peripheral/src/ch32v30x_gpio.c ****         {
 748              		.loc 1 479 14
 479:../Peripheral/src/ch32v30x_gpio.c ****         {
 749              		.loc 1 479 29 is_stmt 0
 750 0068 37061000 		li	a2,1048576
 751 006c 698E     		and	a2,a0,a2
 479:../Peripheral/src/ch32v30x_gpio.c ****         {
 752              		.loc 1 479 16
 753 006e 05C2     		beq	a2,zero,.L57
 481:../Peripheral/src/ch32v30x_gpio.c ****             tmpreg &= ~tmp1;
 754              		.loc 1 481 13 is_stmt 1
 755              	.LVL83:
 482:../Peripheral/src/ch32v30x_gpio.c ****         }
 756              		.loc 1 482 13
 481:../Peripheral/src/ch32v30x_gpio.c ****             tmpreg &= ~tmp1;
 757              		.loc 1 481 18 is_stmt 0
 758 0070 0D46     		li	a2,3
 759 0072 B316D600 		sll	a3,a2,a3
 760              	.LVL84:
 482:../Peripheral/src/ch32v30x_gpio.c ****         }
 761              		.loc 1 482 23
 762 0076 93C6F6FF 		not	a3,a3
 482:../Peripheral/src/ch32v30x_gpio.c ****         }
 763              		.loc 1 482 20
 764 007a F58F     		and	a5,a3,a5
 765              	.LVL85:
 510:../Peripheral/src/ch32v30x_gpio.c ****     {
 766              		.loc 1 510 5 is_stmt 1
 510:../Peripheral/src/ch32v30x_gpio.c ****     {
 767              		.loc 1 510 7 is_stmt 0
 768 007c DDD9     		beq	a1,zero,.L56
 512:../Peripheral/src/ch32v30x_gpio.c ****     }
 769              		.loc 1 512 9 is_stmt 1
 512:../Peripheral/src/ch32v30x_gpio.c ****     }
 770              		.loc 1 512 54 is_stmt 0
 771 007e 5581     		srli	a0,a0,21
 772              	.LVL86:
 773 0080 1375F53F 		andi	a0,a0,1023
 512:../Peripheral/src/ch32v30x_gpio.c ****     }
 774              		.loc 1 512 63
 775 0084 1205     		slli	a0,a0,4
 512:../Peripheral/src/ch32v30x_gpio.c ****     }
 776              		.loc 1 512 24
 777 0086 3315A700 		sll	a0,a4,a0
 512:../Peripheral/src/ch32v30x_gpio.c ****     }
 778              		.loc 1 512 16
 779 008a C98F     		or	a5,a5,a0
 780              	.LVL87:
 515:../Peripheral/src/ch32v30x_gpio.c ****     {
 781              		.loc 1 515 5 is_stmt 1
 782 008c 5DB7     		j	.L56
 783              	.LVL88:
 784              	.L57:
 486:../Peripheral/src/ch32v30x_gpio.c ****         }
 785              		.loc 1 486 13
 486:../Peripheral/src/ch32v30x_gpio.c ****         }
 786              		.loc 1 486 59 is_stmt 0
 787 008e 5581     		srli	a0,a0,21
 788              	.LVL89:
 789 0090 1375F53F 		andi	a0,a0,1023
 486:../Peripheral/src/ch32v30x_gpio.c ****         }
 790              		.loc 1 486 68
 791 0094 1205     		slli	a0,a0,4
 486:../Peripheral/src/ch32v30x_gpio.c ****         }
 792              		.loc 1 486 29
 793 0096 3317A700 		sll	a4,a4,a0
 486:../Peripheral/src/ch32v30x_gpio.c ****         }
 794              		.loc 1 486 23
 795 009a 9346F7FF 		not	a3,a4
 486:../Peripheral/src/ch32v30x_gpio.c ****         }
 796              		.loc 1 486 20
 797 009e F58F     		and	a5,a3,a5
 798              	.LVL90:
 510:../Peripheral/src/ch32v30x_gpio.c ****     {
 799              		.loc 1 510 5 is_stmt 1
 510:../Peripheral/src/ch32v30x_gpio.c ****     {
 800              		.loc 1 510 7 is_stmt 0
 801 00a0 C9D9     		beq	a1,zero,.L56
 802              	.LVL91:
 803              	.L58:
 512:../Peripheral/src/ch32v30x_gpio.c ****     }
 804              		.loc 1 512 9 is_stmt 1
 512:../Peripheral/src/ch32v30x_gpio.c ****     }
 805              		.loc 1 512 16 is_stmt 0
 806 00a2 D98F     		or	a5,a5,a4
 807              	.LVL92:
 515:../Peripheral/src/ch32v30x_gpio.c ****     {
 808              		.loc 1 515 5 is_stmt 1
 809 00a4 79B7     		j	.L56
 810              	.LVL93:
 811              	.L75:
 496:../Peripheral/src/ch32v30x_gpio.c ****         {
 812              		.loc 1 496 14
 496:../Peripheral/src/ch32v30x_gpio.c ****         {
 813              		.loc 1 496 29 is_stmt 0
 814 00a6 B7071000 		li	a5,1048576
 815 00aa E98F     		and	a5,a0,a5
 496:../Peripheral/src/ch32v30x_gpio.c ****         {
 816              		.loc 1 496 16
 817 00ac 99CB     		beq	a5,zero,.L60
 498:../Peripheral/src/ch32v30x_gpio.c ****             tmpreg &= ~tmp1;
 818              		.loc 1 498 13 is_stmt 1
 819              	.LVL94:
 499:../Peripheral/src/ch32v30x_gpio.c ****             tmpreg |= ~DBGAFR_SWJCFG_MASK;
 820              		.loc 1 499 13
 498:../Peripheral/src/ch32v30x_gpio.c ****             tmpreg &= ~tmp1;
 821              		.loc 1 498 18 is_stmt 0
 822 00ae 8D47     		li	a5,3
 823 00b0 B397D700 		sll	a5,a5,a3
 499:../Peripheral/src/ch32v30x_gpio.c ****             tmpreg |= ~DBGAFR_SWJCFG_MASK;
 824              		.loc 1 499 23
 825 00b4 93C7F7FF 		not	a5,a5
 499:../Peripheral/src/ch32v30x_gpio.c ****             tmpreg |= ~DBGAFR_SWJCFG_MASK;
 826              		.loc 1 499 20
 827 00b8 F18F     		and	a5,a5,a2
 828              	.LVL95:
 500:../Peripheral/src/ch32v30x_gpio.c ****         }
 829              		.loc 1 500 13 is_stmt 1
 500:../Peripheral/src/ch32v30x_gpio.c ****         }
 830              		.loc 1 500 20 is_stmt 0
 831 00ba B706000F 		li	a3,251658240
 832              	.LVL96:
 833 00be D58F     		or	a5,a5,a3
 834              	.LVL97:
 835 00c0 69BF     		j	.L79
 836              	.LVL98:
 837              	.L60:
 504:../Peripheral/src/ch32v30x_gpio.c ****             tmpreg |= ~DBGAFR_SWJCFG_MASK;
 838              		.loc 1 504 13 is_stmt 1
 504:../Peripheral/src/ch32v30x_gpio.c ****             tmpreg |= ~DBGAFR_SWJCFG_MASK;
 839              		.loc 1 504 45 is_stmt 0
 840 00c2 5581     		srli	a0,a0,21
 841              	.LVL99:
 504:../Peripheral/src/ch32v30x_gpio.c ****             tmpreg |= ~DBGAFR_SWJCFG_MASK;
 842              		.loc 1 504 54
 843 00c4 1205     		slli	a0,a0,4
 504:../Peripheral/src/ch32v30x_gpio.c ****             tmpreg |= ~DBGAFR_SWJCFG_MASK;
 844              		.loc 1 504 29
 845 00c6 3315A700 		sll	a0,a4,a0
 504:../Peripheral/src/ch32v30x_gpio.c ****             tmpreg |= ~DBGAFR_SWJCFG_MASK;
 846              		.loc 1 504 23
 847 00ca 9347F5FF 		not	a5,a0
 504:../Peripheral/src/ch32v30x_gpio.c ****             tmpreg |= ~DBGAFR_SWJCFG_MASK;
 848              		.loc 1 504 20
 849 00ce F18F     		and	a5,a5,a2
 850              	.LVL100:
 505:../Peripheral/src/ch32v30x_gpio.c ****         }
 851              		.loc 1 505 13 is_stmt 1
 505:../Peripheral/src/ch32v30x_gpio.c ****         }
 852              		.loc 1 505 20 is_stmt 0
 853 00d0 3707000F 		li	a4,251658240
 854 00d4 D98F     		or	a5,a5,a4
 855              	.LVL101:
 510:../Peripheral/src/ch32v30x_gpio.c ****     {
 856              		.loc 1 510 5 is_stmt 1
 510:../Peripheral/src/ch32v30x_gpio.c ****     {
 857              		.loc 1 510 7 is_stmt 0
 858 00d6 D9F5     		bne	a1,zero,.L76
 859              	.LVL102:
 860              	.L59:
 518:../Peripheral/src/ch32v30x_gpio.c ****     }
 519:../Peripheral/src/ch32v30x_gpio.c ****     else
 520:../Peripheral/src/ch32v30x_gpio.c ****     {
 521:../Peripheral/src/ch32v30x_gpio.c ****         AFIO->PCFR1 = tmpreg;
 861              		.loc 1 521 9 is_stmt 1
 862              		.loc 1 521 21 is_stmt 0
 863 00d8 37070140 		li	a4,1073807360
 864 00dc 5CC3     		sw	a5,4(a4)
 522:../Peripheral/src/ch32v30x_gpio.c ****     }
 523:../Peripheral/src/ch32v30x_gpio.c **** }
 865              		.loc 1 523 1
 866 00de 8280     		ret
 867              	.LVL103:
 868              	.L55:
 512:../Peripheral/src/ch32v30x_gpio.c ****     }
 869              		.loc 1 512 9 is_stmt 1
 512:../Peripheral/src/ch32v30x_gpio.c ****     }
 870              		.loc 1 512 54 is_stmt 0
 871 00e0 5581     		srli	a0,a0,21
 872              	.LVL104:
 873 00e2 1375F53F 		andi	a0,a0,1023
 512:../Peripheral/src/ch32v30x_gpio.c ****     }
 874              		.loc 1 512 63
 875 00e6 1205     		slli	a0,a0,4
 512:../Peripheral/src/ch32v30x_gpio.c ****     }
 876              		.loc 1 512 24
 877 00e8 3317A700 		sll	a4,a4,a0
 878 00ec 5DBF     		j	.L58
 879              		.cfi_endproc
 880              	.LFE44:
 882              		.section	.text.GPIO_EXTILineConfig,"ax",@progbits
 883              		.align	1
 884              		.globl	GPIO_EXTILineConfig
 886              	GPIO_EXTILineConfig:
 887              	.LFB45:
 524:../Peripheral/src/ch32v30x_gpio.c **** 
 525:../Peripheral/src/ch32v30x_gpio.c **** /*********************************************************************
 526:../Peripheral/src/ch32v30x_gpio.c ****  * @fn      GPIO_EXTILineConfig
 527:../Peripheral/src/ch32v30x_gpio.c ****  *
 528:../Peripheral/src/ch32v30x_gpio.c ****  * @brief   Selects the GPIO pin used as EXTI Line.
 529:../Peripheral/src/ch32v30x_gpio.c ****  *
 530:../Peripheral/src/ch32v30x_gpio.c ****  * @param   GPIO_PortSource - selects the GPIO port to be used as source for EXTI lines.
 531:../Peripheral/src/ch32v30x_gpio.c ****  *            This parameter can be GPIO_PortSourceGPIOx where x can be (A..G).
 532:../Peripheral/src/ch32v30x_gpio.c ****  *          GPIO_PinSource - specifies the EXTI line to be configured.
 533:../Peripheral/src/ch32v30x_gpio.c ****  *            This parameter can be GPIO_PinSourcex where x can be (0..15).
 534:../Peripheral/src/ch32v30x_gpio.c ****  *
 535:../Peripheral/src/ch32v30x_gpio.c ****  * @return  none
 536:../Peripheral/src/ch32v30x_gpio.c ****  */
 537:../Peripheral/src/ch32v30x_gpio.c **** void GPIO_EXTILineConfig(uint8_t GPIO_PortSource, uint8_t GPIO_PinSource)
 538:../Peripheral/src/ch32v30x_gpio.c **** {
 888              		.loc 1 538 1 is_stmt 1
 889              		.cfi_startproc
 890              	.LVL105:
 539:../Peripheral/src/ch32v30x_gpio.c ****     uint32_t tmp = 0x00;
 891              		.loc 1 539 5
 540:../Peripheral/src/ch32v30x_gpio.c **** 
 541:../Peripheral/src/ch32v30x_gpio.c ****     tmp = ((uint32_t)0x0F) << (0x04 * (GPIO_PinSource & (uint8_t)0x03));
 892              		.loc 1 541 5
 893              		.loc 1 541 55 is_stmt 0
 894 0000 93F63500 		andi	a3,a1,3
 895 0004 37070140 		li	a4,1073807360
 896 0008 93F5C50F 		andi	a1,a1,252
 897              	.LVL106:
 898 000c 2E97     		add	a4,a4,a1
 542:../Peripheral/src/ch32v30x_gpio.c ****     AFIO->EXTICR[GPIO_PinSource >> 0x02] &= ~tmp;
 899              		.loc 1 542 17
 900 000e 1047     		lw	a2,8(a4)
 541:../Peripheral/src/ch32v30x_gpio.c ****     AFIO->EXTICR[GPIO_PinSource >> 0x02] &= ~tmp;
 901              		.loc 1 541 37
 902 0010 8A06     		slli	a3,a3,2
 903              	.LVL107:
 904              		.loc 1 542 5 is_stmt 1
 541:../Peripheral/src/ch32v30x_gpio.c ****     AFIO->EXTICR[GPIO_PinSource >> 0x02] &= ~tmp;
 905              		.loc 1 541 9 is_stmt 0
 906 0012 BD47     		li	a5,15
 907 0014 B397D700 		sll	a5,a5,a3
 908              		.loc 1 542 45
 909 0018 93C7F7FF 		not	a5,a5
 910              		.loc 1 542 42
 911 001c F18F     		and	a5,a5,a2
 912 001e 1CC7     		sw	a5,8(a4)
 543:../Peripheral/src/ch32v30x_gpio.c ****     AFIO->EXTICR[GPIO_PinSource >> 0x02] |= (((uint32_t)GPIO_PortSource) << (0x04 * (GPIO_PinSource
 913              		.loc 1 543 5 is_stmt 1
 914              		.loc 1 543 17 is_stmt 0
 915 0020 1C47     		lw	a5,8(a4)
 916              		.loc 1 543 74
 917 0022 3315D500 		sll	a0,a0,a3
 918              	.LVL108:
 919              		.loc 1 543 42
 920 0026 5D8D     		or	a0,a0,a5
 921 0028 08C7     		sw	a0,8(a4)
 544:../Peripheral/src/ch32v30x_gpio.c **** }
 922              		.loc 1 544 1
 923 002a 8280     		ret
 924              		.cfi_endproc
 925              	.LFE45:
 927              		.section	.text.GPIO_ETH_MediaInterfaceConfig,"ax",@progbits
 928              		.align	1
 929              		.globl	GPIO_ETH_MediaInterfaceConfig
 931              	GPIO_ETH_MediaInterfaceConfig:
 932              	.LFB46:
 545:../Peripheral/src/ch32v30x_gpio.c **** 
 546:../Peripheral/src/ch32v30x_gpio.c **** /*********************************************************************
 547:../Peripheral/src/ch32v30x_gpio.c ****  * @fn      GPIO_ETH_MediaInterfaceConfig
 548:../Peripheral/src/ch32v30x_gpio.c ****  *
 549:../Peripheral/src/ch32v30x_gpio.c ****  * @brief   Selects the Ethernet media interface.
 550:../Peripheral/src/ch32v30x_gpio.c ****  *
 551:../Peripheral/src/ch32v30x_gpio.c ****  * @param   GPIO_ETH_MediaInterface - specifies the Media Interface mode.
 552:../Peripheral/src/ch32v30x_gpio.c ****  *            GPIO_ETH_MediaInterface_MII - MII mode
 553:../Peripheral/src/ch32v30x_gpio.c ****  *            GPIO_ETH_MediaInterface_RMII - RMII mode
 554:../Peripheral/src/ch32v30x_gpio.c ****  *
 555:../Peripheral/src/ch32v30x_gpio.c ****  * @return  none
 556:../Peripheral/src/ch32v30x_gpio.c ****  */
 557:../Peripheral/src/ch32v30x_gpio.c **** void GPIO_ETH_MediaInterfaceConfig(uint32_t GPIO_ETH_MediaInterface)
 558:../Peripheral/src/ch32v30x_gpio.c **** {
 933              		.loc 1 558 1 is_stmt 1
 934              		.cfi_startproc
 935              	.LVL109:
 559:../Peripheral/src/ch32v30x_gpio.c ****     if(GPIO_ETH_MediaInterface)
 936              		.loc 1 559 5
 937              		.loc 1 559 7 is_stmt 0
 938 0000 09C9     		beq	a0,zero,.L82
 560:../Peripheral/src/ch32v30x_gpio.c ****     {
 561:../Peripheral/src/ch32v30x_gpio.c ****         AFIO->PCFR1 |= (1 << 23);
 939              		.loc 1 561 9 is_stmt 1
 940              		.loc 1 561 13 is_stmt 0
 941 0002 37070140 		li	a4,1073807360
 942 0006 5C43     		lw	a5,4(a4)
 943              		.loc 1 561 21
 944 0008 B7068000 		li	a3,8388608
 945 000c D58F     		or	a5,a5,a3
 946 000e 5CC3     		sw	a5,4(a4)
 947 0010 8280     		ret
 948              	.L82:
 562:../Peripheral/src/ch32v30x_gpio.c ****     }
 563:../Peripheral/src/ch32v30x_gpio.c ****     else
 564:../Peripheral/src/ch32v30x_gpio.c ****     {
 565:../Peripheral/src/ch32v30x_gpio.c ****         AFIO->PCFR1 &= ~(1 << 23);
 949              		.loc 1 565 9 is_stmt 1
 950              		.loc 1 565 13 is_stmt 0
 951 0012 B7060140 		li	a3,1073807360
 952 0016 DC42     		lw	a5,4(a3)
 953              		.loc 1 565 21
 954 0018 370780FF 		li	a4,-8388608
 955 001c 7D17     		addi	a4,a4,-1
 956 001e F98F     		and	a5,a5,a4
 957 0020 DCC2     		sw	a5,4(a3)
 566:../Peripheral/src/ch32v30x_gpio.c ****     }
 567:../Peripheral/src/ch32v30x_gpio.c **** }
 958              		.loc 1 567 1
 959 0022 8280     		ret
 960              		.cfi_endproc
 961              	.LFE46:
 963              		.section	.text.GPIO_IPD_Unused,"ax",@progbits
 964              		.align	1
 965              		.globl	GPIO_IPD_Unused
 967              	GPIO_IPD_Unused:
 968              	.LFB47:
 568:../Peripheral/src/ch32v30x_gpio.c **** /*********************************************************************
 569:../Peripheral/src/ch32v30x_gpio.c ****  * @fn      GPIO_IPD_Unused
 570:../Peripheral/src/ch32v30x_gpio.c ****  *
 571:../Peripheral/src/ch32v30x_gpio.c ****  * @brief   Configure unused GPIO as input pull-down.
 572:../Peripheral/src/ch32v30x_gpio.c ****  *
 573:../Peripheral/src/ch32v30x_gpio.c ****  * @param   none
 574:../Peripheral/src/ch32v30x_gpio.c ****  *
 575:../Peripheral/src/ch32v30x_gpio.c ****  * @return  none
 576:../Peripheral/src/ch32v30x_gpio.c ****  */
 577:../Peripheral/src/ch32v30x_gpio.c **** void GPIO_IPD_Unused(void)
 578:../Peripheral/src/ch32v30x_gpio.c **** {
 969              		.loc 1 578 1 is_stmt 1
 970              		.cfi_startproc
 971 0000 17030000 		call	t0,__riscv_save_2
 971      E7020300 
 972              		.cfi_offset 9, -12
 973              		.cfi_offset 8, -8
 974              		.cfi_offset 1, -4
 975              		.cfi_def_cfa_offset 16
 579:../Peripheral/src/ch32v30x_gpio.c ****     GPIO_InitTypeDef GPIO_InitStructure = {0};
 976              		.loc 1 579 5
 578:../Peripheral/src/ch32v30x_gpio.c ****     GPIO_InitTypeDef GPIO_InitStructure = {0};
 977              		.loc 1 578 1 is_stmt 0
 978 0008 4111     		addi	sp,sp,-16
 979              		.cfi_def_cfa_offset 32
 580:../Peripheral/src/ch32v30x_gpio.c ****     uint32_t chip = 0;
 581:../Peripheral/src/ch32v30x_gpio.c ****     RCC_APB2PeriphClockCmd(RCC_APB2Periph_GPIOA | RCC_APB2Periph_GPIOB | RCC_APB2Periph_GPIOC|\
 980              		.loc 1 581 5
 981 000a 8545     		li	a1,1
 982 000c 1305C007 		li	a0,124
 579:../Peripheral/src/ch32v30x_gpio.c ****     uint32_t chip = 0;
 983              		.loc 1 579 22
 984 0010 02C2     		sw	zero,4(sp)
 985 0012 02C4     		sw	zero,8(sp)
 986 0014 02C6     		sw	zero,12(sp)
 580:../Peripheral/src/ch32v30x_gpio.c ****     uint32_t chip = 0;
 987              		.loc 1 580 5 is_stmt 1
 988              	.LVL110:
 989              		.loc 1 581 5
 990 0016 97000000 		call	RCC_APB2PeriphClockCmd
 990      E7800000 
 991              	.LVL111:
 582:../Peripheral/src/ch32v30x_gpio.c ****                            RCC_APB2Periph_GPIOD | RCC_APB2Periph_GPIOE, ENABLE);
 583:../Peripheral/src/ch32v30x_gpio.c ****     chip =  *( uint32_t * )0x1FFFF704 & (~0x000000F0);
 992              		.loc 1 583 5
 993              		.loc 1 583 10 is_stmt 0
 994 001e B7F7FF1F 		li	a5,536866816
 995 0022 83A74770 		lw	a5,1796(a5)
 584:../Peripheral/src/ch32v30x_gpio.c ****     switch(chip)
 996              		.loc 1 584 5
 997 0026 37077330 		li	a4,812843008
 998 002a 13078750 		addi	a4,a4,1288
 583:../Peripheral/src/ch32v30x_gpio.c ****     switch(chip)
 999              		.loc 1 583 10
 1000 002e 93F7F7F0 		andi	a5,a5,-241
 1001              	.LVL112:
 1002              		.loc 1 584 5 is_stmt 1
 1003 0032 638DE714 		beq	a5,a4,.L85
 1004 0036 6369F702 		bgtu	a5,a4,.L86
 1005 003a 37075230 		li	a4,810680320
 1006 003e 13078750 		addi	a4,a4,1288
 1007 0042 6380E70A 		beq	a5,a4,.L87
 1008 0046 37077130 		li	a4,812711936
 1009 004a 13078750 		addi	a4,a4,1288
 1010 004e 638EE710 		beq	a5,a4,.L88
 1011 0052 37075030 		li	a4,810549248
 1012 0056 13078750 		addi	a4,a4,1288
 1013 005a 6388E710 		beq	a5,a4,.L88
 1014              	.LVL113:
 1015              	.L84:
 585:../Peripheral/src/ch32v30x_gpio.c ****     {
 586:../Peripheral/src/ch32v30x_gpio.c **** #ifdef CH32V30x_D8
 587:../Peripheral/src/ch32v30x_gpio.c ****         case 0x30330504:     //CH32V303CBT6
 588:../Peripheral/src/ch32v30x_gpio.c ****         {
 589:../Peripheral/src/ch32v30x_gpio.c ****             GPIO_InitStructure.GPIO_Pin = GPIO_Pin_0|GPIO_Pin_1\
 590:../Peripheral/src/ch32v30x_gpio.c ****                                           |GPIO_Pin_2|GPIO_Pin_3\
 591:../Peripheral/src/ch32v30x_gpio.c ****                                           |GPIO_Pin_4|GPIO_Pin_5\
 592:../Peripheral/src/ch32v30x_gpio.c ****                                           |GPIO_Pin_6|GPIO_Pin_7\
 593:../Peripheral/src/ch32v30x_gpio.c ****                                           |GPIO_Pin_8|GPIO_Pin_9\
 594:../Peripheral/src/ch32v30x_gpio.c ****                                           |GPIO_Pin_10|GPIO_Pin_11\
 595:../Peripheral/src/ch32v30x_gpio.c ****                                           |GPIO_Pin_12;
 596:../Peripheral/src/ch32v30x_gpio.c ****             GPIO_InitStructure.GPIO_Mode = GPIO_Mode_IPU;
 597:../Peripheral/src/ch32v30x_gpio.c ****             GPIO_Init(GPIOC, &GPIO_InitStructure);
 598:../Peripheral/src/ch32v30x_gpio.c ****             GPIO_InitStructure.GPIO_Pin = GPIO_Pin_0|GPIO_Pin_1\
 599:../Peripheral/src/ch32v30x_gpio.c ****                                           |GPIO_Pin_2|GPIO_Pin_3\
 600:../Peripheral/src/ch32v30x_gpio.c ****                                           |GPIO_Pin_4|GPIO_Pin_5\
 601:../Peripheral/src/ch32v30x_gpio.c ****                                           |GPIO_Pin_6|GPIO_Pin_7\
 602:../Peripheral/src/ch32v30x_gpio.c ****                                           |GPIO_Pin_8|GPIO_Pin_9\
 603:../Peripheral/src/ch32v30x_gpio.c ****                                           |GPIO_Pin_10|GPIO_Pin_11\
 604:../Peripheral/src/ch32v30x_gpio.c ****                                           |GPIO_Pin_12|GPIO_Pin_13\
 605:../Peripheral/src/ch32v30x_gpio.c ****                                           |GPIO_Pin_14|GPIO_Pin_15;
 606:../Peripheral/src/ch32v30x_gpio.c ****             GPIO_InitStructure.GPIO_Mode = GPIO_Mode_IPU;
 607:../Peripheral/src/ch32v30x_gpio.c ****             GPIO_Init(GPIOD, &GPIO_InitStructure);
 608:../Peripheral/src/ch32v30x_gpio.c ****             GPIO_InitStructure.GPIO_Pin =  GPIO_Pin_0|GPIO_Pin_1\
 609:../Peripheral/src/ch32v30x_gpio.c ****                                           |GPIO_Pin_2|GPIO_Pin_3\
 610:../Peripheral/src/ch32v30x_gpio.c ****                                           |GPIO_Pin_4|GPIO_Pin_5\
 611:../Peripheral/src/ch32v30x_gpio.c ****                                           |GPIO_Pin_6|GPIO_Pin_7\
 612:../Peripheral/src/ch32v30x_gpio.c ****                                           |GPIO_Pin_8|GPIO_Pin_9\
 613:../Peripheral/src/ch32v30x_gpio.c ****                                           |GPIO_Pin_10|GPIO_Pin_11\
 614:../Peripheral/src/ch32v30x_gpio.c ****                                           |GPIO_Pin_12|GPIO_Pin_13\
 615:../Peripheral/src/ch32v30x_gpio.c ****                                           |GPIO_Pin_14|GPIO_Pin_15;
 616:../Peripheral/src/ch32v30x_gpio.c ****             GPIO_InitStructure.GPIO_Mode = GPIO_Mode_IPU;
 617:../Peripheral/src/ch32v30x_gpio.c ****             GPIO_Init(GPIOE, &GPIO_InitStructure);
 618:../Peripheral/src/ch32v30x_gpio.c ****             break;
 619:../Peripheral/src/ch32v30x_gpio.c ****         }
 620:../Peripheral/src/ch32v30x_gpio.c ****         case 0x30320504:     //CH32V303RBT6
 621:../Peripheral/src/ch32v30x_gpio.c ****         {
 622:../Peripheral/src/ch32v30x_gpio.c ****             GPIO_InitStructure.GPIO_Pin = GPIO_Pin_0|GPIO_Pin_1\
 623:../Peripheral/src/ch32v30x_gpio.c ****                                           |GPIO_Pin_3|GPIO_Pin_4\
 624:../Peripheral/src/ch32v30x_gpio.c ****                                           |GPIO_Pin_5|GPIO_Pin_6\
 625:../Peripheral/src/ch32v30x_gpio.c ****                                           |GPIO_Pin_7|GPIO_Pin_8\
 626:../Peripheral/src/ch32v30x_gpio.c ****                                           |GPIO_Pin_9|GPIO_Pin_10\
 627:../Peripheral/src/ch32v30x_gpio.c ****                                           |GPIO_Pin_11|GPIO_Pin_12\
 628:../Peripheral/src/ch32v30x_gpio.c ****                                           |GPIO_Pin_13|GPIO_Pin_14\
 629:../Peripheral/src/ch32v30x_gpio.c ****                                           |GPIO_Pin_15;
 630:../Peripheral/src/ch32v30x_gpio.c ****             GPIO_InitStructure.GPIO_Mode = GPIO_Mode_IPU;
 631:../Peripheral/src/ch32v30x_gpio.c ****             GPIO_Init(GPIOD, &GPIO_InitStructure);
 632:../Peripheral/src/ch32v30x_gpio.c ****             GPIO_InitStructure.GPIO_Pin = GPIO_Pin_0|GPIO_Pin_1\
 633:../Peripheral/src/ch32v30x_gpio.c ****                                           |GPIO_Pin_2|GPIO_Pin_3\
 634:../Peripheral/src/ch32v30x_gpio.c ****                                           |GPIO_Pin_4|GPIO_Pin_5\
 635:../Peripheral/src/ch32v30x_gpio.c ****                                           |GPIO_Pin_6|GPIO_Pin_7\
 636:../Peripheral/src/ch32v30x_gpio.c ****                                           |GPIO_Pin_8|GPIO_Pin_9\
 637:../Peripheral/src/ch32v30x_gpio.c ****                                           |GPIO_Pin_10|GPIO_Pin_11\
 638:../Peripheral/src/ch32v30x_gpio.c ****                                           |GPIO_Pin_12|GPIO_Pin_13\
 639:../Peripheral/src/ch32v30x_gpio.c ****                                           |GPIO_Pin_14|GPIO_Pin_15;
 640:../Peripheral/src/ch32v30x_gpio.c ****             GPIO_InitStructure.GPIO_Mode = GPIO_Mode_IPU;
 641:../Peripheral/src/ch32v30x_gpio.c ****             GPIO_Init(GPIOE, &GPIO_InitStructure);
 642:../Peripheral/src/ch32v30x_gpio.c ****             break;
 643:../Peripheral/src/ch32v30x_gpio.c ****         }
 644:../Peripheral/src/ch32v30x_gpio.c ****         case 0x30310504:     //CH32V303RCT6
 645:../Peripheral/src/ch32v30x_gpio.c ****         {
 646:../Peripheral/src/ch32v30x_gpio.c ****             GPIO_InitStructure.GPIO_Pin = GPIO_Pin_0|GPIO_Pin_1\
 647:../Peripheral/src/ch32v30x_gpio.c ****                                           |GPIO_Pin_3|GPIO_Pin_4\
 648:../Peripheral/src/ch32v30x_gpio.c ****                                           |GPIO_Pin_5|GPIO_Pin_6\
 649:../Peripheral/src/ch32v30x_gpio.c ****                                           |GPIO_Pin_7|GPIO_Pin_8\
 650:../Peripheral/src/ch32v30x_gpio.c ****                                           |GPIO_Pin_9|GPIO_Pin_10\
 651:../Peripheral/src/ch32v30x_gpio.c ****                                           |GPIO_Pin_11|GPIO_Pin_12\
 652:../Peripheral/src/ch32v30x_gpio.c ****                                           |GPIO_Pin_13|GPIO_Pin_14\
 653:../Peripheral/src/ch32v30x_gpio.c ****                                           |GPIO_Pin_15;
 654:../Peripheral/src/ch32v30x_gpio.c ****             GPIO_InitStructure.GPIO_Mode = GPIO_Mode_IPU;
 655:../Peripheral/src/ch32v30x_gpio.c ****             GPIO_Init(GPIOD, &GPIO_InitStructure);
 656:../Peripheral/src/ch32v30x_gpio.c ****             GPIO_InitStructure.GPIO_Pin = GPIO_Pin_0|GPIO_Pin_1\
 657:../Peripheral/src/ch32v30x_gpio.c ****                                           |GPIO_Pin_2|GPIO_Pin_3\
 658:../Peripheral/src/ch32v30x_gpio.c ****                                           |GPIO_Pin_4|GPIO_Pin_5\
 659:../Peripheral/src/ch32v30x_gpio.c ****                                           |GPIO_Pin_6|GPIO_Pin_7\
 660:../Peripheral/src/ch32v30x_gpio.c ****                                           |GPIO_Pin_8|GPIO_Pin_9\
 661:../Peripheral/src/ch32v30x_gpio.c ****                                           |GPIO_Pin_10|GPIO_Pin_11\
 662:../Peripheral/src/ch32v30x_gpio.c ****                                           |GPIO_Pin_12|GPIO_Pin_13\
 663:../Peripheral/src/ch32v30x_gpio.c ****                                           |GPIO_Pin_14|GPIO_Pin_15;
 664:../Peripheral/src/ch32v30x_gpio.c ****             GPIO_InitStructure.GPIO_Mode = GPIO_Mode_IPU;
 665:../Peripheral/src/ch32v30x_gpio.c ****             GPIO_Init(GPIOE, &GPIO_InitStructure);
 666:../Peripheral/src/ch32v30x_gpio.c ****             break;
 667:../Peripheral/src/ch32v30x_gpio.c ****         }
 668:../Peripheral/src/ch32v30x_gpio.c ****         case 0x30300504:     //CH32V303VCT6
 669:../Peripheral/src/ch32v30x_gpio.c ****         {        
 670:../Peripheral/src/ch32v30x_gpio.c ****             break;
 671:../Peripheral/src/ch32v30x_gpio.c ****         }
 672:../Peripheral/src/ch32v30x_gpio.c **** #elif defined  (CH32V30x_D8C)
 673:../Peripheral/src/ch32v30x_gpio.c ****         case 0x30520508:     //CH32V305FBP6
 674:../Peripheral/src/ch32v30x_gpio.c ****         {
 675:../Peripheral/src/ch32v30x_gpio.c ****             GPIO_InitStructure.GPIO_Pin = GPIO_Pin_0|GPIO_Pin_2\
 676:../Peripheral/src/ch32v30x_gpio.c ****                                          |GPIO_Pin_3|GPIO_Pin_4\
 677:../Peripheral/src/ch32v30x_gpio.c ****                                          |GPIO_Pin_6|GPIO_Pin_7\
 678:../Peripheral/src/ch32v30x_gpio.c ****                                          |GPIO_Pin_10|GPIO_Pin_11\
 679:../Peripheral/src/ch32v30x_gpio.c ****                                          |GPIO_Pin_12|GPIO_Pin_15;
 680:../Peripheral/src/ch32v30x_gpio.c ****             GPIO_InitStructure.GPIO_Mode = GPIO_Mode_IPU;
 681:../Peripheral/src/ch32v30x_gpio.c ****             GPIO_Init(GPIOA, &GPIO_InitStructure);
 682:../Peripheral/src/ch32v30x_gpio.c ****             GPIO_InitStructure.GPIO_Pin = GPIO_Pin_2;
 683:../Peripheral/src/ch32v30x_gpio.c ****             GPIO_InitStructure.GPIO_Mode = GPIO_Mode_IPD;
 684:../Peripheral/src/ch32v30x_gpio.c ****             GPIO_Init(GPIOB, &GPIO_InitStructure);
 685:../Peripheral/src/ch32v30x_gpio.c ****             GPIO_InitStructure.GPIO_Pin = GPIO_Pin_0|GPIO_Pin_1\
 686:../Peripheral/src/ch32v30x_gpio.c ****                                          |GPIO_Pin_3\
 687:../Peripheral/src/ch32v30x_gpio.c ****                                          |GPIO_Pin_4|GPIO_Pin_5\
 688:../Peripheral/src/ch32v30x_gpio.c ****                                          |GPIO_Pin_8|GPIO_Pin_9;
 689:../Peripheral/src/ch32v30x_gpio.c ****             GPIO_InitStructure.GPIO_Mode = GPIO_Mode_IPU;
 690:../Peripheral/src/ch32v30x_gpio.c ****             GPIO_Init(GPIOB, &GPIO_InitStructure);
 691:../Peripheral/src/ch32v30x_gpio.c ****             GPIO_InitStructure.GPIO_Pin = GPIO_Pin_0|GPIO_Pin_1\
 692:../Peripheral/src/ch32v30x_gpio.c ****                                          |GPIO_Pin_2|GPIO_Pin_3\
 693:../Peripheral/src/ch32v30x_gpio.c ****                                          |GPIO_Pin_4|GPIO_Pin_5\
 694:../Peripheral/src/ch32v30x_gpio.c ****                                          |GPIO_Pin_10|GPIO_Pin_11\
 695:../Peripheral/src/ch32v30x_gpio.c ****                                          |GPIO_Pin_12|GPIO_Pin_13\
 696:../Peripheral/src/ch32v30x_gpio.c ****                                          |GPIO_Pin_14|GPIO_Pin_15;
 697:../Peripheral/src/ch32v30x_gpio.c ****             GPIO_InitStructure.GPIO_Mode = GPIO_Mode_IPU;
 698:../Peripheral/src/ch32v30x_gpio.c ****             GPIO_Init(GPIOC, &GPIO_InitStructure);
 699:../Peripheral/src/ch32v30x_gpio.c ****             GPIO_InitStructure.GPIO_Pin = GPIO_Pin_0|GPIO_Pin_1\
 700:../Peripheral/src/ch32v30x_gpio.c ****                                          |GPIO_Pin_2|GPIO_Pin_3\
 701:../Peripheral/src/ch32v30x_gpio.c ****                                          |GPIO_Pin_4|GPIO_Pin_5\
 702:../Peripheral/src/ch32v30x_gpio.c ****                                          |GPIO_Pin_6|GPIO_Pin_7\
 703:../Peripheral/src/ch32v30x_gpio.c ****                                          |GPIO_Pin_8|GPIO_Pin_9\
 704:../Peripheral/src/ch32v30x_gpio.c ****                                          |GPIO_Pin_10|GPIO_Pin_11\
 705:../Peripheral/src/ch32v30x_gpio.c ****                                          |GPIO_Pin_12|GPIO_Pin_13\
 706:../Peripheral/src/ch32v30x_gpio.c ****                                          |GPIO_Pin_14|GPIO_Pin_15;
 707:../Peripheral/src/ch32v30x_gpio.c ****             GPIO_InitStructure.GPIO_Mode = GPIO_Mode_IPU;
 708:../Peripheral/src/ch32v30x_gpio.c ****             GPIO_Init(GPIOD, &GPIO_InitStructure);
 709:../Peripheral/src/ch32v30x_gpio.c ****             GPIO_InitStructure.GPIO_Pin = GPIO_Pin_0|GPIO_Pin_1\
 710:../Peripheral/src/ch32v30x_gpio.c ****                                          |GPIO_Pin_2|GPIO_Pin_3\
 711:../Peripheral/src/ch32v30x_gpio.c ****                                          |GPIO_Pin_4|GPIO_Pin_5\
 712:../Peripheral/src/ch32v30x_gpio.c ****                                          |GPIO_Pin_6|GPIO_Pin_7\
 713:../Peripheral/src/ch32v30x_gpio.c ****                                          |GPIO_Pin_8|GPIO_Pin_9\
 714:../Peripheral/src/ch32v30x_gpio.c ****                                          |GPIO_Pin_10|GPIO_Pin_11\
 715:../Peripheral/src/ch32v30x_gpio.c ****                                          |GPIO_Pin_12|GPIO_Pin_13\
 716:../Peripheral/src/ch32v30x_gpio.c ****                                          |GPIO_Pin_14|GPIO_Pin_15;
 717:../Peripheral/src/ch32v30x_gpio.c **** 
 718:../Peripheral/src/ch32v30x_gpio.c ****             GPIO_InitStructure.GPIO_Mode = GPIO_Mode_IPU;
 719:../Peripheral/src/ch32v30x_gpio.c ****             GPIO_Init(GPIOE, &GPIO_InitStructure);
 720:../Peripheral/src/ch32v30x_gpio.c ****             break;
 721:../Peripheral/src/ch32v30x_gpio.c ****         }
 722:../Peripheral/src/ch32v30x_gpio.c ****         case 0x30500508:     //CH32V305RBT6
 723:../Peripheral/src/ch32v30x_gpio.c ****         {
 724:../Peripheral/src/ch32v30x_gpio.c ****             GPIO_InitStructure.GPIO_Pin = GPIO_Pin_0|GPIO_Pin_1\
 725:../Peripheral/src/ch32v30x_gpio.c ****                                           |GPIO_Pin_3|GPIO_Pin_4\
 726:../Peripheral/src/ch32v30x_gpio.c ****                                           |GPIO_Pin_5|GPIO_Pin_6\
 727:../Peripheral/src/ch32v30x_gpio.c ****                                           |GPIO_Pin_7|GPIO_Pin_8\
 728:../Peripheral/src/ch32v30x_gpio.c ****                                           |GPIO_Pin_9|GPIO_Pin_10\
 729:../Peripheral/src/ch32v30x_gpio.c ****                                           |GPIO_Pin_11|GPIO_Pin_12\
 730:../Peripheral/src/ch32v30x_gpio.c ****                                           |GPIO_Pin_13|GPIO_Pin_14\
 731:../Peripheral/src/ch32v30x_gpio.c ****                                           |GPIO_Pin_15;
 732:../Peripheral/src/ch32v30x_gpio.c ****             GPIO_InitStructure.GPIO_Mode = GPIO_Mode_IPU;
 733:../Peripheral/src/ch32v30x_gpio.c ****             GPIO_Init(GPIOD, &GPIO_InitStructure);
 734:../Peripheral/src/ch32v30x_gpio.c ****             GPIO_InitStructure.GPIO_Pin = GPIO_Pin_0|GPIO_Pin_1\
 735:../Peripheral/src/ch32v30x_gpio.c ****                                           |GPIO_Pin_2|GPIO_Pin_3\
 736:../Peripheral/src/ch32v30x_gpio.c ****                                           |GPIO_Pin_4|GPIO_Pin_5\
 737:../Peripheral/src/ch32v30x_gpio.c ****                                           |GPIO_Pin_6|GPIO_Pin_7\
 738:../Peripheral/src/ch32v30x_gpio.c ****                                           |GPIO_Pin_8|GPIO_Pin_9\
 739:../Peripheral/src/ch32v30x_gpio.c ****                                           |GPIO_Pin_10|GPIO_Pin_11\
 740:../Peripheral/src/ch32v30x_gpio.c ****                                           |GPIO_Pin_12|GPIO_Pin_13\
 741:../Peripheral/src/ch32v30x_gpio.c ****                                           |GPIO_Pin_14|GPIO_Pin_15;
 742:../Peripheral/src/ch32v30x_gpio.c ****             GPIO_InitStructure.GPIO_Mode = GPIO_Mode_IPU;
 743:../Peripheral/src/ch32v30x_gpio.c ****             GPIO_Init(GPIOE, &GPIO_InitStructure);
 744:../Peripheral/src/ch32v30x_gpio.c ****             break;
 745:../Peripheral/src/ch32v30x_gpio.c ****         }
 746:../Peripheral/src/ch32v30x_gpio.c ****         case 0x30710508:     //CH32V307RCT6
 747:../Peripheral/src/ch32v30x_gpio.c ****         {
 748:../Peripheral/src/ch32v30x_gpio.c ****             GPIO_InitStructure.GPIO_Pin = GPIO_Pin_0|GPIO_Pin_1\
 749:../Peripheral/src/ch32v30x_gpio.c ****                                           |GPIO_Pin_3|GPIO_Pin_4\
 750:../Peripheral/src/ch32v30x_gpio.c ****                                           |GPIO_Pin_5|GPIO_Pin_6\
 751:../Peripheral/src/ch32v30x_gpio.c ****                                           |GPIO_Pin_7|GPIO_Pin_8\
 752:../Peripheral/src/ch32v30x_gpio.c ****                                           |GPIO_Pin_9|GPIO_Pin_10\
 753:../Peripheral/src/ch32v30x_gpio.c ****                                           |GPIO_Pin_11|GPIO_Pin_12\
 754:../Peripheral/src/ch32v30x_gpio.c ****                                           |GPIO_Pin_13|GPIO_Pin_14\
 755:../Peripheral/src/ch32v30x_gpio.c ****                                           |GPIO_Pin_15;
 756:../Peripheral/src/ch32v30x_gpio.c ****             GPIO_InitStructure.GPIO_Mode = GPIO_Mode_IPU;
 757:../Peripheral/src/ch32v30x_gpio.c ****             GPIO_Init(GPIOD, &GPIO_InitStructure);
 758:../Peripheral/src/ch32v30x_gpio.c ****             GPIO_InitStructure.GPIO_Pin = GPIO_Pin_0|GPIO_Pin_1\
 759:../Peripheral/src/ch32v30x_gpio.c ****                                           |GPIO_Pin_2|GPIO_Pin_3\
 760:../Peripheral/src/ch32v30x_gpio.c ****                                           |GPIO_Pin_4|GPIO_Pin_5\
 761:../Peripheral/src/ch32v30x_gpio.c ****                                           |GPIO_Pin_6|GPIO_Pin_7\
 762:../Peripheral/src/ch32v30x_gpio.c ****                                           |GPIO_Pin_8|GPIO_Pin_9\
 763:../Peripheral/src/ch32v30x_gpio.c ****                                           |GPIO_Pin_10|GPIO_Pin_11\
 764:../Peripheral/src/ch32v30x_gpio.c ****                                           |GPIO_Pin_12|GPIO_Pin_13\
 765:../Peripheral/src/ch32v30x_gpio.c ****                                           |GPIO_Pin_14|GPIO_Pin_15;
 766:../Peripheral/src/ch32v30x_gpio.c ****             GPIO_InitStructure.GPIO_Mode = GPIO_Mode_IPU;
 767:../Peripheral/src/ch32v30x_gpio.c ****             GPIO_Init(GPIOE, &GPIO_InitStructure);
 768:../Peripheral/src/ch32v30x_gpio.c ****             break;
 769:../Peripheral/src/ch32v30x_gpio.c ****         }
 770:../Peripheral/src/ch32v30x_gpio.c ****         case 0x30730508:     //CH32V307WCU6
 771:../Peripheral/src/ch32v30x_gpio.c ****         {
 772:../Peripheral/src/ch32v30x_gpio.c ****             GPIO_InitStructure.GPIO_Pin = GPIO_Pin_0|GPIO_Pin_1\
 773:../Peripheral/src/ch32v30x_gpio.c ****                                           |GPIO_Pin_3|GPIO_Pin_4\
 774:../Peripheral/src/ch32v30x_gpio.c ****                                           |GPIO_Pin_5|GPIO_Pin_6\
 775:../Peripheral/src/ch32v30x_gpio.c ****                                           |GPIO_Pin_7|GPIO_Pin_10\
 776:../Peripheral/src/ch32v30x_gpio.c ****                                           |GPIO_Pin_11|GPIO_Pin_12\
 777:../Peripheral/src/ch32v30x_gpio.c ****                                           |GPIO_Pin_13|GPIO_Pin_14\
 778:../Peripheral/src/ch32v30x_gpio.c ****                                           |GPIO_Pin_15;
 779:../Peripheral/src/ch32v30x_gpio.c ****             GPIO_InitStructure.GPIO_Mode = GPIO_Mode_IPU;
 780:../Peripheral/src/ch32v30x_gpio.c ****             GPIO_Init(GPIOD, &GPIO_InitStructure);
 781:../Peripheral/src/ch32v30x_gpio.c ****             GPIO_InitStructure.GPIO_Pin = GPIO_Pin_1|GPIO_Pin_2\
 782:../Peripheral/src/ch32v30x_gpio.c ****                                           |GPIO_Pin_3|GPIO_Pin_4\
 783:../Peripheral/src/ch32v30x_gpio.c ****                                           |GPIO_Pin_5|GPIO_Pin_6\
 784:../Peripheral/src/ch32v30x_gpio.c ****                                           |GPIO_Pin_7|GPIO_Pin_8\
 785:../Peripheral/src/ch32v30x_gpio.c ****                                           |GPIO_Pin_9|GPIO_Pin_10\
 786:../Peripheral/src/ch32v30x_gpio.c ****                                           |GPIO_Pin_11|GPIO_Pin_12\
 787:../Peripheral/src/ch32v30x_gpio.c ****                                           |GPIO_Pin_13|GPIO_Pin_14\
 788:../Peripheral/src/ch32v30x_gpio.c ****                                           |GPIO_Pin_15;
 789:../Peripheral/src/ch32v30x_gpio.c ****             GPIO_InitStructure.GPIO_Mode = GPIO_Mode_IPU;
 790:../Peripheral/src/ch32v30x_gpio.c ****             GPIO_Init(GPIOE, &GPIO_InitStructure);
 791:../Peripheral/src/ch32v30x_gpio.c ****             break;
 792:../Peripheral/src/ch32v30x_gpio.c ****         }
 793:../Peripheral/src/ch32v30x_gpio.c ****         case 0x3173B508:     //CH32V317WCU6
 794:../Peripheral/src/ch32v30x_gpio.c ****         {
 795:../Peripheral/src/ch32v30x_gpio.c ****             GPIO_InitStructure.GPIO_Pin = GPIO_Pin_6|GPIO_Pin_7\
 796:../Peripheral/src/ch32v30x_gpio.c ****                                           |GPIO_Pin_8|GPIO_Pin_9;
 797:../Peripheral/src/ch32v30x_gpio.c ****             GPIO_InitStructure.GPIO_Mode = GPIO_Mode_IPU;
 798:../Peripheral/src/ch32v30x_gpio.c ****             GPIO_Init(GPIOC, &GPIO_InitStructure);
 799:../Peripheral/src/ch32v30x_gpio.c ****             GPIO_InitStructure.GPIO_Pin = GPIO_Pin_9\
 800:../Peripheral/src/ch32v30x_gpio.c ****                                           |GPIO_Pin_10|GPIO_Pin_11\
 801:../Peripheral/src/ch32v30x_gpio.c ****                                           |GPIO_Pin_12|GPIO_Pin_13\
 802:../Peripheral/src/ch32v30x_gpio.c ****                                           |GPIO_Pin_0|GPIO_Pin_1\
 803:../Peripheral/src/ch32v30x_gpio.c ****                                           |GPIO_Pin_3|GPIO_Pin_4\
 804:../Peripheral/src/ch32v30x_gpio.c ****                                           |GPIO_Pin_5|GPIO_Pin_6\
 805:../Peripheral/src/ch32v30x_gpio.c ****                                           |GPIO_Pin_7;
 806:../Peripheral/src/ch32v30x_gpio.c ****             GPIO_InitStructure.GPIO_Mode = GPIO_Mode_IPU;
 807:../Peripheral/src/ch32v30x_gpio.c ****             GPIO_Init(GPIOD, &GPIO_InitStructure);
 808:../Peripheral/src/ch32v30x_gpio.c ****             GPIO_InitStructure.GPIO_Pin = GPIO_Pin_1|GPIO_Pin_2\
 809:../Peripheral/src/ch32v30x_gpio.c ****                                           |GPIO_Pin_3|GPIO_Pin_4\
 810:../Peripheral/src/ch32v30x_gpio.c ****                                           |GPIO_Pin_5|GPIO_Pin_6;
 811:../Peripheral/src/ch32v30x_gpio.c ****             GPIO_InitStructure.GPIO_Mode = GPIO_Mode_IPU;
 812:../Peripheral/src/ch32v30x_gpio.c ****             GPIO_Init(GPIOE, &GPIO_InitStructure);
 813:../Peripheral/src/ch32v30x_gpio.c ****             break;
 814:../Peripheral/src/ch32v30x_gpio.c ****         }
 815:../Peripheral/src/ch32v30x_gpio.c ****         case 0x3175B508:     //CH32V317TCU6
 816:../Peripheral/src/ch32v30x_gpio.c ****         {
 817:../Peripheral/src/ch32v30x_gpio.c ****             GPIO_InitStructure.GPIO_Pin = GPIO_Pin_9|GPIO_Pin_10;
 818:../Peripheral/src/ch32v30x_gpio.c ****             GPIO_InitStructure.GPIO_Mode = GPIO_Mode_IPU;
 819:../Peripheral/src/ch32v30x_gpio.c ****             GPIO_Init(GPIOA, &GPIO_InitStructure);
 820:../Peripheral/src/ch32v30x_gpio.c ****             GPIO_InitStructure.GPIO_Pin = GPIO_Pin_9|GPIO_Pin_10\
 821:../Peripheral/src/ch32v30x_gpio.c ****                                           |GPIO_Pin_11;
 822:../Peripheral/src/ch32v30x_gpio.c ****             GPIO_InitStructure.GPIO_Mode = GPIO_Mode_IPU;
 823:../Peripheral/src/ch32v30x_gpio.c ****             GPIO_Init(GPIOB, &GPIO_InitStructure);
 824:../Peripheral/src/ch32v30x_gpio.c ****             GPIO_InitStructure.GPIO_Pin = GPIO_Pin_0|GPIO_Pin_1\
 825:../Peripheral/src/ch32v30x_gpio.c ****                                           |GPIO_Pin_5|GPIO_Pin_6\
 826:../Peripheral/src/ch32v30x_gpio.c ****                                           |GPIO_Pin_7|GPIO_Pin_8\
 827:../Peripheral/src/ch32v30x_gpio.c ****                                           |GPIO_Pin_9|GPIO_Pin_10\
 828:../Peripheral/src/ch32v30x_gpio.c ****                                           |GPIO_Pin_11|GPIO_Pin_12\
 829:../Peripheral/src/ch32v30x_gpio.c ****                                           |GPIO_Pin_13;
 830:../Peripheral/src/ch32v30x_gpio.c ****             GPIO_InitStructure.GPIO_Mode = GPIO_Mode_IPU;
 831:../Peripheral/src/ch32v30x_gpio.c ****             GPIO_Init(GPIOC, &GPIO_InitStructure);
 832:../Peripheral/src/ch32v30x_gpio.c ****             GPIO_InitStructure.GPIO_Pin = GPIO_Pin_9\
 833:../Peripheral/src/ch32v30x_gpio.c ****                                           |GPIO_Pin_10|GPIO_Pin_11\
 834:../Peripheral/src/ch32v30x_gpio.c ****                                           |GPIO_Pin_12|GPIO_Pin_13\
 835:../Peripheral/src/ch32v30x_gpio.c ****                                           |GPIO_Pin_14|GPIO_Pin_15\
 836:../Peripheral/src/ch32v30x_gpio.c ****                                           |GPIO_Pin_0|GPIO_Pin_1|GPIO_Pin_2\
 837:../Peripheral/src/ch32v30x_gpio.c ****                                           |GPIO_Pin_3|GPIO_Pin_4\
 838:../Peripheral/src/ch32v30x_gpio.c ****                                           |GPIO_Pin_5|GPIO_Pin_6\
 839:../Peripheral/src/ch32v30x_gpio.c ****                                           |GPIO_Pin_7;
 840:../Peripheral/src/ch32v30x_gpio.c ****             GPIO_InitStructure.GPIO_Mode = GPIO_Mode_IPU;
 841:../Peripheral/src/ch32v30x_gpio.c ****             GPIO_Init(GPIOD, &GPIO_InitStructure);
 842:../Peripheral/src/ch32v30x_gpio.c ****             GPIO_InitStructure.GPIO_Pin = GPIO_Pin_0|GPIO_Pin_1|GPIO_Pin_2\
 843:../Peripheral/src/ch32v30x_gpio.c ****                                           |GPIO_Pin_3|GPIO_Pin_4\
 844:../Peripheral/src/ch32v30x_gpio.c ****                                           |GPIO_Pin_5|GPIO_Pin_6;
 845:../Peripheral/src/ch32v30x_gpio.c ****             GPIO_InitStructure.GPIO_Mode = GPIO_Mode_IPU;
 846:../Peripheral/src/ch32v30x_gpio.c ****             GPIO_Init(GPIOE, &GPIO_InitStructure);
 847:../Peripheral/src/ch32v30x_gpio.c ****             break;
 848:../Peripheral/src/ch32v30x_gpio.c ****         }
 849:../Peripheral/src/ch32v30x_gpio.c ****         case 0x30700508:     //CH32V307VCT6
 850:../Peripheral/src/ch32v30x_gpio.c ****         {        
 851:../Peripheral/src/ch32v30x_gpio.c ****             break;
 852:../Peripheral/src/ch32v30x_gpio.c ****         }
 853:../Peripheral/src/ch32v30x_gpio.c ****         case 0x3170B508:     //CH32V317VCT6
 854:../Peripheral/src/ch32v30x_gpio.c ****         {        
 855:../Peripheral/src/ch32v30x_gpio.c ****             break;
 856:../Peripheral/src/ch32v30x_gpio.c ****         }
 857:../Peripheral/src/ch32v30x_gpio.c **** #endif
 858:../Peripheral/src/ch32v30x_gpio.c ****         default:
 859:../Peripheral/src/ch32v30x_gpio.c ****         {
 860:../Peripheral/src/ch32v30x_gpio.c ****             break;
 861:../Peripheral/src/ch32v30x_gpio.c ****         }
 862:../Peripheral/src/ch32v30x_gpio.c ****     }
 863:../Peripheral/src/ch32v30x_gpio.c **** }
 1016              		.loc 1 863 1 is_stmt 0
 1017 005e 4101     		addi	sp,sp,16
 1018              		.cfi_remember_state
 1019              		.cfi_def_cfa_offset 0
 1020 0060 17030000 		tail	__riscv_restore_2
 1020      67000300 
 1021              		.cfi_restore 9
 1022              		.cfi_restore 8
 1023              		.cfi_restore 1
 1024              		.cfi_def_cfa_offset -16
 1025              	.LVL114:
 1026              	.L86:
 1027              		.cfi_restore_state
 584:../Peripheral/src/ch32v30x_gpio.c ****     {
 1028              		.loc 1 584 5
 1029 0068 37B77331 		li	a4,829665280
 1030 006c 13078750 		addi	a4,a4,1288
 1031 0070 638FE712 		beq	a5,a4,.L90
 1032 0074 37B77531 		li	a4,829796352
 1033 0078 13078750 		addi	a4,a4,1288
 1034 007c E391E7FE 		bne	a5,a4,.L84
 817:../Peripheral/src/ch32v30x_gpio.c ****             GPIO_InitStructure.GPIO_Mode = GPIO_Mode_IPU;
 1035              		.loc 1 817 13 is_stmt 1
 819:../Peripheral/src/ch32v30x_gpio.c ****             GPIO_InitStructure.GPIO_Pin = GPIO_Pin_9|GPIO_Pin_10\
 1036              		.loc 1 819 13 is_stmt 0
 1037 0080 37140140 		li	s0,1073811456
 817:../Peripheral/src/ch32v30x_gpio.c ****             GPIO_InitStructure.GPIO_Mode = GPIO_Mode_IPU;
 1038              		.loc 1 817 41
 1039 0084 93070060 		li	a5,1536
 1040              	.LVL115:
 1041 0088 7C82     		sh	a5,4(sp)
 818:../Peripheral/src/ch32v30x_gpio.c ****             GPIO_Init(GPIOA, &GPIO_InitStructure);
 1042              		.loc 1 818 13 is_stmt 1
 819:../Peripheral/src/ch32v30x_gpio.c ****             GPIO_InitStructure.GPIO_Pin = GPIO_Pin_9|GPIO_Pin_10\
 1043              		.loc 1 819 13 is_stmt 0
 1044 008a 4C00     		addi	a1,sp,4
 818:../Peripheral/src/ch32v30x_gpio.c ****             GPIO_Init(GPIOA, &GPIO_InitStructure);
 1045              		.loc 1 818 42
 1046 008c 93078004 		li	a5,72
 819:../Peripheral/src/ch32v30x_gpio.c ****             GPIO_InitStructure.GPIO_Pin = GPIO_Pin_9|GPIO_Pin_10\
 1047              		.loc 1 819 13
 1048 0090 13050480 		addi	a0,s0,-2048
 818:../Peripheral/src/ch32v30x_gpio.c ****             GPIO_Init(GPIOA, &GPIO_InitStructure);
 1049              		.loc 1 818 42
 1050 0094 3EC6     		sw	a5,12(sp)
 819:../Peripheral/src/ch32v30x_gpio.c ****             GPIO_InitStructure.GPIO_Pin = GPIO_Pin_9|GPIO_Pin_10\
 1051              		.loc 1 819 13 is_stmt 1
 1052 0096 97000000 		call	GPIO_Init
 1052      E7800000 
 1053              	.LVL116:
 820:../Peripheral/src/ch32v30x_gpio.c ****                                           |GPIO_Pin_11;
 1054              		.loc 1 820 13
 820:../Peripheral/src/ch32v30x_gpio.c ****                                           |GPIO_Pin_11;
 1055              		.loc 1 820 41 is_stmt 0
 1056 009e 8567     		li	a5,4096
 1057 00a0 938707E0 		addi	a5,a5,-512
 823:../Peripheral/src/ch32v30x_gpio.c ****             GPIO_InitStructure.GPIO_Pin = GPIO_Pin_0|GPIO_Pin_1\
 1058              		.loc 1 823 13
 1059 00a4 4C00     		addi	a1,sp,4
 1060 00a6 130504C0 		addi	a0,s0,-1024
 820:../Peripheral/src/ch32v30x_gpio.c ****                                           |GPIO_Pin_11;
 1061              		.loc 1 820 41
 1062 00aa 7C82     		sh	a5,4(sp)
 822:../Peripheral/src/ch32v30x_gpio.c ****             GPIO_Init(GPIOB, &GPIO_InitStructure);
 1063              		.loc 1 822 13 is_stmt 1
 823:../Peripheral/src/ch32v30x_gpio.c ****             GPIO_InitStructure.GPIO_Pin = GPIO_Pin_0|GPIO_Pin_1\
 1064              		.loc 1 823 13
 1065 00ac 97000000 		call	GPIO_Init
 1065      E7800000 
 1066              	.LVL117:
 824:../Peripheral/src/ch32v30x_gpio.c ****                                           |GPIO_Pin_5|GPIO_Pin_6\
 1067              		.loc 1 824 13
 824:../Peripheral/src/ch32v30x_gpio.c ****                                           |GPIO_Pin_5|GPIO_Pin_6\
 1068              		.loc 1 824 41 is_stmt 0
 1069 00b4 9167     		li	a5,16384
 1070 00b6 8D17     		addi	a5,a5,-29
 831:../Peripheral/src/ch32v30x_gpio.c ****             GPIO_InitStructure.GPIO_Pin = GPIO_Pin_9\
 1071              		.loc 1 831 13
 1072 00b8 4C00     		addi	a1,sp,4
 1073 00ba 37150140 		li	a0,1073811456
 824:../Peripheral/src/ch32v30x_gpio.c ****                                           |GPIO_Pin_5|GPIO_Pin_6\
 1074              		.loc 1 824 41
 1075 00be 7C82     		sh	a5,4(sp)
 830:../Peripheral/src/ch32v30x_gpio.c ****             GPIO_Init(GPIOC, &GPIO_InitStructure);
 1076              		.loc 1 830 13 is_stmt 1
 831:../Peripheral/src/ch32v30x_gpio.c ****             GPIO_InitStructure.GPIO_Pin = GPIO_Pin_9\
 1077              		.loc 1 831 13
 1078 00c0 97000000 		call	GPIO_Init
 1078      E7800000 
 1079              	.LVL118:
 832:../Peripheral/src/ch32v30x_gpio.c ****                                           |GPIO_Pin_10|GPIO_Pin_11\
 1080              		.loc 1 832 13
 832:../Peripheral/src/ch32v30x_gpio.c ****                                           |GPIO_Pin_10|GPIO_Pin_11\
 1081              		.loc 1 832 41 is_stmt 0
 1082 00c8 9307F0EF 		li	a5,-257
 841:../Peripheral/src/ch32v30x_gpio.c ****             GPIO_InitStructure.GPIO_Pin = GPIO_Pin_0|GPIO_Pin_1|GPIO_Pin_2\
 1083              		.loc 1 841 13
 1084 00cc 4C00     		addi	a1,sp,4
 1085 00ce 13050440 		addi	a0,s0,1024
 832:../Peripheral/src/ch32v30x_gpio.c ****                                           |GPIO_Pin_10|GPIO_Pin_11\
 1086              		.loc 1 832 41
 1087 00d2 7C82     		sh	a5,4(sp)
 840:../Peripheral/src/ch32v30x_gpio.c ****             GPIO_Init(GPIOD, &GPIO_InitStructure);
 1088              		.loc 1 840 13 is_stmt 1
 841:../Peripheral/src/ch32v30x_gpio.c ****             GPIO_InitStructure.GPIO_Pin = GPIO_Pin_0|GPIO_Pin_1|GPIO_Pin_2\
 1089              		.loc 1 841 13
 1090 00d4 97000000 		call	GPIO_Init
 1090      E7800000 
 1091              	.LVL119:
 842:../Peripheral/src/ch32v30x_gpio.c ****                                           |GPIO_Pin_3|GPIO_Pin_4\
 1092              		.loc 1 842 13
 842:../Peripheral/src/ch32v30x_gpio.c ****                                           |GPIO_Pin_3|GPIO_Pin_4\
 1093              		.loc 1 842 41 is_stmt 0
 1094 00dc 9307F007 		li	a5,127
 1095 00e0 65A0     		j	.L93
 1096              	.LVL120:
 1097              	.L87:
 675:../Peripheral/src/ch32v30x_gpio.c ****                                          |GPIO_Pin_3|GPIO_Pin_4\
 1098              		.loc 1 675 13 is_stmt 1
 681:../Peripheral/src/ch32v30x_gpio.c ****             GPIO_InitStructure.GPIO_Pin = GPIO_Pin_2;
 1099              		.loc 1 681 13 is_stmt 0
 1100 00e2 37140140 		li	s0,1073811456
 675:../Peripheral/src/ch32v30x_gpio.c ****                                          |GPIO_Pin_3|GPIO_Pin_4\
 1101              		.loc 1 675 41
 1102 00e6 E977     		li	a5,-24576
 1103              	.LVL121:
 1104 00e8 9387D7CD 		addi	a5,a5,-803
 680:../Peripheral/src/ch32v30x_gpio.c ****             GPIO_Init(GPIOA, &GPIO_InitStructure);
 1105              		.loc 1 680 42
 1106 00ec 93048004 		li	s1,72
 681:../Peripheral/src/ch32v30x_gpio.c ****             GPIO_InitStructure.GPIO_Pin = GPIO_Pin_2;
 1107              		.loc 1 681 13
 1108 00f0 4C00     		addi	a1,sp,4
 1109 00f2 13050480 		addi	a0,s0,-2048
 675:../Peripheral/src/ch32v30x_gpio.c ****                                          |GPIO_Pin_3|GPIO_Pin_4\
 1110              		.loc 1 675 41
 1111 00f6 7C82     		sh	a5,4(sp)
 680:../Peripheral/src/ch32v30x_gpio.c ****             GPIO_Init(GPIOA, &GPIO_InitStructure);
 1112              		.loc 1 680 13 is_stmt 1
 680:../Peripheral/src/ch32v30x_gpio.c ****             GPIO_Init(GPIOA, &GPIO_InitStructure);
 1113              		.loc 1 680 42 is_stmt 0
 1114 00f8 26C6     		sw	s1,12(sp)
 681:../Peripheral/src/ch32v30x_gpio.c ****             GPIO_InitStructure.GPIO_Pin = GPIO_Pin_2;
 1115              		.loc 1 681 13 is_stmt 1
 1116 00fa 97000000 		call	GPIO_Init
 1116      E7800000 
 1117              	.LVL122:
 682:../Peripheral/src/ch32v30x_gpio.c ****             GPIO_InitStructure.GPIO_Mode = GPIO_Mode_IPD;
 1118              		.loc 1 682 13
 682:../Peripheral/src/ch32v30x_gpio.c ****             GPIO_InitStructure.GPIO_Mode = GPIO_Mode_IPD;
 1119              		.loc 1 682 41 is_stmt 0
 1120 0102 9147     		li	a5,4
 1121 0104 7C82     		sh	a5,4(sp)
 683:../Peripheral/src/ch32v30x_gpio.c ****             GPIO_Init(GPIOB, &GPIO_InitStructure);
 1122              		.loc 1 683 13 is_stmt 1
 684:../Peripheral/src/ch32v30x_gpio.c ****             GPIO_InitStructure.GPIO_Pin = GPIO_Pin_0|GPIO_Pin_1\
 1123              		.loc 1 684 13 is_stmt 0
 1124 0106 4C00     		addi	a1,sp,4
 683:../Peripheral/src/ch32v30x_gpio.c ****             GPIO_Init(GPIOB, &GPIO_InitStructure);
 1125              		.loc 1 683 42
 1126 0108 93078002 		li	a5,40
 684:../Peripheral/src/ch32v30x_gpio.c ****             GPIO_InitStructure.GPIO_Pin = GPIO_Pin_0|GPIO_Pin_1\
 1127              		.loc 1 684 13
 1128 010c 130504C0 		addi	a0,s0,-1024
 683:../Peripheral/src/ch32v30x_gpio.c ****             GPIO_Init(GPIOB, &GPIO_InitStructure);
 1129              		.loc 1 683 42
 1130 0110 3EC6     		sw	a5,12(sp)
 684:../Peripheral/src/ch32v30x_gpio.c ****             GPIO_InitStructure.GPIO_Pin = GPIO_Pin_0|GPIO_Pin_1\
 1131              		.loc 1 684 13 is_stmt 1
 1132 0112 97000000 		call	GPIO_Init
 1132      E7800000 
 1133              	.LVL123:
 685:../Peripheral/src/ch32v30x_gpio.c ****                                          |GPIO_Pin_3\
 1134              		.loc 1 685 13
 685:../Peripheral/src/ch32v30x_gpio.c ****                                          |GPIO_Pin_3\
 1135              		.loc 1 685 41 is_stmt 0
 1136 011a 9307B033 		li	a5,827
 690:../Peripheral/src/ch32v30x_gpio.c ****             GPIO_InitStructure.GPIO_Pin = GPIO_Pin_0|GPIO_Pin_1\
 1137              		.loc 1 690 13
 1138 011e 4C00     		addi	a1,sp,4
 1139 0120 130504C0 		addi	a0,s0,-1024
 685:../Peripheral/src/ch32v30x_gpio.c ****                                          |GPIO_Pin_3\
 1140              		.loc 1 685 41
 1141 0124 7C82     		sh	a5,4(sp)
 689:../Peripheral/src/ch32v30x_gpio.c ****             GPIO_Init(GPIOB, &GPIO_InitStructure);
 1142              		.loc 1 689 13 is_stmt 1
 689:../Peripheral/src/ch32v30x_gpio.c ****             GPIO_Init(GPIOB, &GPIO_InitStructure);
 1143              		.loc 1 689 42 is_stmt 0
 1144 0126 26C6     		sw	s1,12(sp)
 690:../Peripheral/src/ch32v30x_gpio.c ****             GPIO_InitStructure.GPIO_Pin = GPIO_Pin_0|GPIO_Pin_1\
 1145              		.loc 1 690 13 is_stmt 1
 1146 0128 97000000 		call	GPIO_Init
 1146      E7800000 
 1147              	.LVL124:
 691:../Peripheral/src/ch32v30x_gpio.c ****                                          |GPIO_Pin_2|GPIO_Pin_3\
 1148              		.loc 1 691 13
 691:../Peripheral/src/ch32v30x_gpio.c ****                                          |GPIO_Pin_2|GPIO_Pin_3\
 1149              		.loc 1 691 41 is_stmt 0
 1150 0130 9307F0C3 		li	a5,-961
 698:../Peripheral/src/ch32v30x_gpio.c ****             GPIO_InitStructure.GPIO_Pin = GPIO_Pin_0|GPIO_Pin_1\
 1151              		.loc 1 698 13
 1152 0134 4C00     		addi	a1,sp,4
 1153 0136 37150140 		li	a0,1073811456
 691:../Peripheral/src/ch32v30x_gpio.c ****                                          |GPIO_Pin_2|GPIO_Pin_3\
 1154              		.loc 1 691 41
 1155 013a 7C82     		sh	a5,4(sp)
 697:../Peripheral/src/ch32v30x_gpio.c ****             GPIO_Init(GPIOC, &GPIO_InitStructure);
 1156              		.loc 1 697 13 is_stmt 1
 698:../Peripheral/src/ch32v30x_gpio.c ****             GPIO_InitStructure.GPIO_Pin = GPIO_Pin_0|GPIO_Pin_1\
 1157              		.loc 1 698 13
 1158 013c 97000000 		call	GPIO_Init
 1158      E7800000 
 1159              	.LVL125:
 699:../Peripheral/src/ch32v30x_gpio.c ****                                          |GPIO_Pin_2|GPIO_Pin_3\
 1160              		.loc 1 699 13
 699:../Peripheral/src/ch32v30x_gpio.c ****                                          |GPIO_Pin_2|GPIO_Pin_3\
 1161              		.loc 1 699 41 is_stmt 0
 1162 0144 FD57     		li	a5,-1
 708:../Peripheral/src/ch32v30x_gpio.c ****             GPIO_InitStructure.GPIO_Pin = GPIO_Pin_0|GPIO_Pin_1\
 1163              		.loc 1 708 13
 1164 0146 4C00     		addi	a1,sp,4
 1165 0148 13050440 		addi	a0,s0,1024
 699:../Peripheral/src/ch32v30x_gpio.c ****                                          |GPIO_Pin_2|GPIO_Pin_3\
 1166              		.loc 1 699 41
 1167 014c 7C82     		sh	a5,4(sp)
 707:../Peripheral/src/ch32v30x_gpio.c ****             GPIO_Init(GPIOD, &GPIO_InitStructure);
 1168              		.loc 1 707 13 is_stmt 1
 708:../Peripheral/src/ch32v30x_gpio.c ****             GPIO_InitStructure.GPIO_Pin = GPIO_Pin_0|GPIO_Pin_1\
 1169              		.loc 1 708 13
 1170 014e 97000000 		call	GPIO_Init
 1170      E7800000 
 1171              	.LVL126:
 709:../Peripheral/src/ch32v30x_gpio.c ****                                          |GPIO_Pin_2|GPIO_Pin_3\
 1172              		.loc 1 709 13
 718:../Peripheral/src/ch32v30x_gpio.c ****             GPIO_Init(GPIOE, &GPIO_InitStructure);
 1173              		.loc 1 718 13
 719:../Peripheral/src/ch32v30x_gpio.c ****             break;
 1174              		.loc 1 719 13
 1175              	.L94:
 845:../Peripheral/src/ch32v30x_gpio.c ****             GPIO_Init(GPIOE, &GPIO_InitStructure);
 1176              		.loc 1 845 13
 846:../Peripheral/src/ch32v30x_gpio.c ****             break;
 1177              		.loc 1 846 13
 1178 0156 37250140 		li	a0,1073815552
 1179 015a 4C00     		addi	a1,sp,4
 1180 015c 13050580 		addi	a0,a0,-2048
 1181 0160 97000000 		call	GPIO_Init
 1181      E7800000 
 1182              	.LVL127:
 847:../Peripheral/src/ch32v30x_gpio.c ****         }
 1183              		.loc 1 847 13
 1184              		.loc 1 863 1 is_stmt 0
 1185 0168 DDBD     		j	.L84
 1186              	.LVL128:
 1187              	.L88:
 724:../Peripheral/src/ch32v30x_gpio.c ****                                           |GPIO_Pin_3|GPIO_Pin_4\
 1188              		.loc 1 724 13 is_stmt 1
 724:../Peripheral/src/ch32v30x_gpio.c ****                                           |GPIO_Pin_3|GPIO_Pin_4\
 1189              		.loc 1 724 41 is_stmt 0
 1190 016a ED57     		li	a5,-5
 1191              	.LVL129:
 733:../Peripheral/src/ch32v30x_gpio.c ****             GPIO_InitStructure.GPIO_Pin = GPIO_Pin_0|GPIO_Pin_1\
 1192              		.loc 1 733 13
 1193 016c 37150140 		li	a0,1073811456
 724:../Peripheral/src/ch32v30x_gpio.c ****                                           |GPIO_Pin_3|GPIO_Pin_4\
 1194              		.loc 1 724 41
 1195 0170 7C82     		sh	a5,4(sp)
 732:../Peripheral/src/ch32v30x_gpio.c ****             GPIO_Init(GPIOD, &GPIO_InitStructure);
 1196              		.loc 1 732 13 is_stmt 1
 733:../Peripheral/src/ch32v30x_gpio.c ****             GPIO_InitStructure.GPIO_Pin = GPIO_Pin_0|GPIO_Pin_1\
 1197              		.loc 1 733 13 is_stmt 0
 1198 0172 4C00     		addi	a1,sp,4
 732:../Peripheral/src/ch32v30x_gpio.c ****             GPIO_Init(GPIOD, &GPIO_InitStructure);
 1199              		.loc 1 732 42
 1200 0174 93078004 		li	a5,72
 733:../Peripheral/src/ch32v30x_gpio.c ****             GPIO_InitStructure.GPIO_Pin = GPIO_Pin_0|GPIO_Pin_1\
 1201              		.loc 1 733 13
 1202 0178 13050540 		addi	a0,a0,1024
 732:../Peripheral/src/ch32v30x_gpio.c ****             GPIO_Init(GPIOD, &GPIO_InitStructure);
 1203              		.loc 1 732 42
 1204 017c 3EC6     		sw	a5,12(sp)
 733:../Peripheral/src/ch32v30x_gpio.c ****             GPIO_InitStructure.GPIO_Pin = GPIO_Pin_0|GPIO_Pin_1\
 1205              		.loc 1 733 13 is_stmt 1
 1206 017e 97000000 		call	GPIO_Init
 1206      E7800000 
 1207              	.LVL130:
 734:../Peripheral/src/ch32v30x_gpio.c ****                                           |GPIO_Pin_2|GPIO_Pin_3\
 1208              		.loc 1 734 13
 734:../Peripheral/src/ch32v30x_gpio.c ****                                           |GPIO_Pin_2|GPIO_Pin_3\
 1209              		.loc 1 734 41 is_stmt 0
 1210 0186 FD57     		li	a5,-1
 1211              	.L93:
 842:../Peripheral/src/ch32v30x_gpio.c ****                                           |GPIO_Pin_3|GPIO_Pin_4\
 1212              		.loc 1 842 41
 1213 0188 7C82     		sh	a5,4(sp)
 1214 018a F1B7     		j	.L94
 1215              	.LVL131:
 1216              	.L85:
 772:../Peripheral/src/ch32v30x_gpio.c ****                                           |GPIO_Pin_3|GPIO_Pin_4\
 1217              		.loc 1 772 13 is_stmt 1
 772:../Peripheral/src/ch32v30x_gpio.c ****                                           |GPIO_Pin_3|GPIO_Pin_4\
 1218              		.loc 1 772 41 is_stmt 0
 1219 018c 9307B0CF 		li	a5,-773
 1220              	.LVL132:
 780:../Peripheral/src/ch32v30x_gpio.c ****             GPIO_InitStructure.GPIO_Pin = GPIO_Pin_1|GPIO_Pin_2\
 1221              		.loc 1 780 13
 1222 0190 37150140 		li	a0,1073811456
 772:../Peripheral/src/ch32v30x_gpio.c ****                                           |GPIO_Pin_3|GPIO_Pin_4\
 1223              		.loc 1 772 41
 1224 0194 7C82     		sh	a5,4(sp)
 779:../Peripheral/src/ch32v30x_gpio.c ****             GPIO_Init(GPIOD, &GPIO_InitStructure);
 1225              		.loc 1 779 13 is_stmt 1
 780:../Peripheral/src/ch32v30x_gpio.c ****             GPIO_InitStructure.GPIO_Pin = GPIO_Pin_1|GPIO_Pin_2\
 1226              		.loc 1 780 13 is_stmt 0
 1227 0196 4C00     		addi	a1,sp,4
 779:../Peripheral/src/ch32v30x_gpio.c ****             GPIO_Init(GPIOD, &GPIO_InitStructure);
 1228              		.loc 1 779 42
 1229 0198 93078004 		li	a5,72
 780:../Peripheral/src/ch32v30x_gpio.c ****             GPIO_InitStructure.GPIO_Pin = GPIO_Pin_1|GPIO_Pin_2\
 1230              		.loc 1 780 13
 1231 019c 13050540 		addi	a0,a0,1024
 779:../Peripheral/src/ch32v30x_gpio.c ****             GPIO_Init(GPIOD, &GPIO_InitStructure);
 1232              		.loc 1 779 42
 1233 01a0 3EC6     		sw	a5,12(sp)
 780:../Peripheral/src/ch32v30x_gpio.c ****             GPIO_InitStructure.GPIO_Pin = GPIO_Pin_1|GPIO_Pin_2\
 1234              		.loc 1 780 13 is_stmt 1
 1235 01a2 97000000 		call	GPIO_Init
 1235      E7800000 
 1236              	.LVL133:
 781:../Peripheral/src/ch32v30x_gpio.c ****                                           |GPIO_Pin_3|GPIO_Pin_4\
 1237              		.loc 1 781 13
 781:../Peripheral/src/ch32v30x_gpio.c ****                                           |GPIO_Pin_3|GPIO_Pin_4\
 1238              		.loc 1 781 41 is_stmt 0
 1239 01aa F957     		li	a5,-2
 1240 01ac F1BF     		j	.L93
 1241              	.LVL134:
 1242              	.L90:
 795:../Peripheral/src/ch32v30x_gpio.c ****                                           |GPIO_Pin_8|GPIO_Pin_9;
 1243              		.loc 1 795 13 is_stmt 1
 795:../Peripheral/src/ch32v30x_gpio.c ****                                           |GPIO_Pin_8|GPIO_Pin_9;
 1244              		.loc 1 795 41 is_stmt 0
 1245 01ae 9307003C 		li	a5,960
 1246              	.LVL135:
 1247 01b2 7C82     		sh	a5,4(sp)
 797:../Peripheral/src/ch32v30x_gpio.c ****             GPIO_Init(GPIOC, &GPIO_InitStructure);
 1248              		.loc 1 797 13 is_stmt 1
 798:../Peripheral/src/ch32v30x_gpio.c ****             GPIO_InitStructure.GPIO_Pin = GPIO_Pin_9\
 1249              		.loc 1 798 13 is_stmt 0
 1250 01b4 4C00     		addi	a1,sp,4
 797:../Peripheral/src/ch32v30x_gpio.c ****             GPIO_Init(GPIOC, &GPIO_InitStructure);
 1251              		.loc 1 797 42
 1252 01b6 93078004 		li	a5,72
 798:../Peripheral/src/ch32v30x_gpio.c ****             GPIO_InitStructure.GPIO_Pin = GPIO_Pin_9\
 1253              		.loc 1 798 13
 1254 01ba 37150140 		li	a0,1073811456
 797:../Peripheral/src/ch32v30x_gpio.c ****             GPIO_Init(GPIOC, &GPIO_InitStructure);
 1255              		.loc 1 797 42
 1256 01be 3EC6     		sw	a5,12(sp)
 798:../Peripheral/src/ch32v30x_gpio.c ****             GPIO_InitStructure.GPIO_Pin = GPIO_Pin_9\
 1257              		.loc 1 798 13 is_stmt 1
 1258 01c0 97000000 		call	GPIO_Init
 1258      E7800000 
 1259              	.LVL136:
 799:../Peripheral/src/ch32v30x_gpio.c ****                                           |GPIO_Pin_10|GPIO_Pin_11\
 1260              		.loc 1 799 13
 799:../Peripheral/src/ch32v30x_gpio.c ****                                           |GPIO_Pin_10|GPIO_Pin_11\
 1261              		.loc 1 799 41 is_stmt 0
 1262 01c8 9167     		li	a5,16384
 807:../Peripheral/src/ch32v30x_gpio.c ****             GPIO_InitStructure.GPIO_Pin = GPIO_Pin_1|GPIO_Pin_2\
 1263              		.loc 1 807 13
 1264 01ca 37150140 		li	a0,1073811456
 799:../Peripheral/src/ch32v30x_gpio.c ****                                           |GPIO_Pin_10|GPIO_Pin_11\
 1265              		.loc 1 799 41
 1266 01ce 9387B7EF 		addi	a5,a5,-261
 807:../Peripheral/src/ch32v30x_gpio.c ****             GPIO_InitStructure.GPIO_Pin = GPIO_Pin_1|GPIO_Pin_2\
 1267              		.loc 1 807 13
 1268 01d2 4C00     		addi	a1,sp,4
 1269 01d4 13050540 		addi	a0,a0,1024
 799:../Peripheral/src/ch32v30x_gpio.c ****                                           |GPIO_Pin_10|GPIO_Pin_11\
 1270              		.loc 1 799 41
 1271 01d8 7C82     		sh	a5,4(sp)
 806:../Peripheral/src/ch32v30x_gpio.c ****             GPIO_Init(GPIOD, &GPIO_InitStructure);
 1272              		.loc 1 806 13 is_stmt 1
 807:../Peripheral/src/ch32v30x_gpio.c ****             GPIO_InitStructure.GPIO_Pin = GPIO_Pin_1|GPIO_Pin_2\
 1273              		.loc 1 807 13
 1274 01da 97000000 		call	GPIO_Init
 1274      E7800000 
 1275              	.LVL137:
 808:../Peripheral/src/ch32v30x_gpio.c ****                                           |GPIO_Pin_3|GPIO_Pin_4\
 1276              		.loc 1 808 13
 808:../Peripheral/src/ch32v30x_gpio.c ****                                           |GPIO_Pin_3|GPIO_Pin_4\
 1277              		.loc 1 808 41 is_stmt 0
 1278 01e2 9307E007 		li	a5,126
 1279 01e6 4DB7     		j	.L93
 1280              		.cfi_endproc
 1281              	.LFE47:
 1283              		.text
 1284              	.Letext0:
 1285              		.file 2 "d:\\software\\mounriver_studio\\toolchain\\risc-v embedded gcc12\\riscv-none-elf\\include
 1286              		.file 3 "d:\\software\\mounriver_studio\\toolchain\\risc-v embedded gcc12\\riscv-none-elf\\include
 1287              		.file 4 "C:\\Users\\localhost\\Documents\\turbomoskal-repo\\qqexpert\\firmware\\MasterController\\
 1288              		.file 5 "C:\\Users\\localhost\\Documents\\turbomoskal-repo\\qqexpert\\firmware\\MasterController\\
 1289              		.file 6 "C:\\Users\\localhost\\Documents\\turbomoskal-repo\\qqexpert\\firmware\\MasterController\\
 1290              		.file 7 "C:\\Users\\localhost\\Documents\\turbomoskal-repo\\qqexpert\\firmware\\MasterController\\