   1              		.file	"ch32v30x_adc.c"
   2              		.option nopic
   3              		.attribute arch, "rv32i2p0_m2p0_a2p0_f2p0_c2p0_xw"
   4              		.attribute unaligned_access, 0
   5              		.attribute stack_align, 16
   6              		.text
   7              	.Ltext0:
   8              		.cfi_sections	.debug_frame
   9              		.file 0 "C:\\Users\\localhost\\Documents\\turbomoskal-repo\\qqexpert\\firmware\\MasterController\\
  10              		.section	.text.ADC_DeInit,"ax",@progbits
  11              		.align	1
  12              		.globl	ADC_DeInit
  14              	ADC_DeInit:
  15              	.LFB29:
  16              		.file 1 "../Peripheral/src/ch32v30x_adc.c"
   1:../Peripheral/src/ch32v30x_adc.c **** /********************************** (C) COPYRIGHT  *******************************
   2:../Peripheral/src/ch32v30x_adc.c **** * File Name          : ch32v30x_adc.c
   3:../Peripheral/src/ch32v30x_adc.c **** * Author             : WCH
   4:../Peripheral/src/ch32v30x_adc.c **** * Version            : V1.0.0
   5:../Peripheral/src/ch32v30x_adc.c **** * Date               : 2021/06/06
   6:../Peripheral/src/ch32v30x_adc.c **** * Description        : This file provides all the ADC firmware functions.
   7:../Peripheral/src/ch32v30x_adc.c **** *********************************************************************************
   8:../Peripheral/src/ch32v30x_adc.c **** * Copyright (c) 2021 Nanjing Qinheng Microelectronics Co., Ltd.
   9:../Peripheral/src/ch32v30x_adc.c **** * Attention: This software (modified or not) and binary are used for 
  10:../Peripheral/src/ch32v30x_adc.c **** * microcontroller manufactured by Nanjing Qinheng Microelectronics.
  11:../Peripheral/src/ch32v30x_adc.c **** *******************************************************************************/
  12:../Peripheral/src/ch32v30x_adc.c **** #include "ch32v30x_adc.h"
  13:../Peripheral/src/ch32v30x_adc.c **** #include "ch32v30x_rcc.h"
  14:../Peripheral/src/ch32v30x_adc.c **** 
  15:../Peripheral/src/ch32v30x_adc.c **** /* ADC DISCNUM mask */
  16:../Peripheral/src/ch32v30x_adc.c **** #define CTLR1_DISCNUM_Reset              ((uint32_t)0xFFFF1FFF)
  17:../Peripheral/src/ch32v30x_adc.c **** 
  18:../Peripheral/src/ch32v30x_adc.c **** /* ADC DISCEN mask */
  19:../Peripheral/src/ch32v30x_adc.c **** #define CTLR1_DISCEN_Set                 ((uint32_t)0x00000800)
  20:../Peripheral/src/ch32v30x_adc.c **** #define CTLR1_DISCEN_Reset               ((uint32_t)0xFFFFF7FF)
  21:../Peripheral/src/ch32v30x_adc.c **** 
  22:../Peripheral/src/ch32v30x_adc.c **** /* ADC JAUTO mask */
  23:../Peripheral/src/ch32v30x_adc.c **** #define CTLR1_JAUTO_Set                  ((uint32_t)0x00000400)
  24:../Peripheral/src/ch32v30x_adc.c **** #define CTLR1_JAUTO_Reset                ((uint32_t)0xFFFFFBFF)
  25:../Peripheral/src/ch32v30x_adc.c **** 
  26:../Peripheral/src/ch32v30x_adc.c **** /* ADC JDISCEN mask */
  27:../Peripheral/src/ch32v30x_adc.c **** #define CTLR1_JDISCEN_Set                ((uint32_t)0x00001000)
  28:../Peripheral/src/ch32v30x_adc.c **** #define CTLR1_JDISCEN_Reset              ((uint32_t)0xFFFFEFFF)
  29:../Peripheral/src/ch32v30x_adc.c **** 
  30:../Peripheral/src/ch32v30x_adc.c **** /* ADC AWDCH mask */
  31:../Peripheral/src/ch32v30x_adc.c **** #define CTLR1_AWDCH_Reset                ((uint32_t)0xFFFFFFE0)
  32:../Peripheral/src/ch32v30x_adc.c **** 
  33:../Peripheral/src/ch32v30x_adc.c **** /* ADC Analog watchdog enable mode mask */
  34:../Peripheral/src/ch32v30x_adc.c **** #define CTLR1_AWDMode_Reset              ((uint32_t)0xFF3FFDFF)
  35:../Peripheral/src/ch32v30x_adc.c **** 
  36:../Peripheral/src/ch32v30x_adc.c **** /* CTLR1 register Mask */
  37:../Peripheral/src/ch32v30x_adc.c **** #define CTLR1_CLEAR_Mask                 ((uint32_t)0xE0F0FEFF)
  38:../Peripheral/src/ch32v30x_adc.c **** 
  39:../Peripheral/src/ch32v30x_adc.c **** /* ADC ADON mask */
  40:../Peripheral/src/ch32v30x_adc.c **** #define CTLR2_ADON_Set                   ((uint32_t)0x00000001)
  41:../Peripheral/src/ch32v30x_adc.c **** #define CTLR2_ADON_Reset                 ((uint32_t)0xFFFFFFFE)
  42:../Peripheral/src/ch32v30x_adc.c **** 
  43:../Peripheral/src/ch32v30x_adc.c **** /* ADC DMA mask */
  44:../Peripheral/src/ch32v30x_adc.c **** #define CTLR2_DMA_Set                    ((uint32_t)0x00000100)
  45:../Peripheral/src/ch32v30x_adc.c **** #define CTLR2_DMA_Reset                  ((uint32_t)0xFFFFFEFF)
  46:../Peripheral/src/ch32v30x_adc.c **** 
  47:../Peripheral/src/ch32v30x_adc.c **** /* ADC RSTCAL mask */
  48:../Peripheral/src/ch32v30x_adc.c **** #define CTLR2_RSTCAL_Set                 ((uint32_t)0x00000008)
  49:../Peripheral/src/ch32v30x_adc.c **** 
  50:../Peripheral/src/ch32v30x_adc.c **** /* ADC CAL mask */
  51:../Peripheral/src/ch32v30x_adc.c **** #define CTLR2_CAL_Set                    ((uint32_t)0x00000004)
  52:../Peripheral/src/ch32v30x_adc.c **** 
  53:../Peripheral/src/ch32v30x_adc.c **** /* ADC SWSTART mask */
  54:../Peripheral/src/ch32v30x_adc.c **** #define CTLR2_SWSTART_Set                ((uint32_t)0x00400000)
  55:../Peripheral/src/ch32v30x_adc.c **** 
  56:../Peripheral/src/ch32v30x_adc.c **** /* ADC EXTTRIG mask */
  57:../Peripheral/src/ch32v30x_adc.c **** #define CTLR2_EXTTRIG_Set                ((uint32_t)0x00100000)
  58:../Peripheral/src/ch32v30x_adc.c **** #define CTLR2_EXTTRIG_Reset              ((uint32_t)0xFFEFFFFF)
  59:../Peripheral/src/ch32v30x_adc.c **** 
  60:../Peripheral/src/ch32v30x_adc.c **** /* ADC Software start mask */
  61:../Peripheral/src/ch32v30x_adc.c **** #define CTLR2_EXTTRIG_SWSTART_Set        ((uint32_t)0x00500000)
  62:../Peripheral/src/ch32v30x_adc.c **** #define CTLR2_EXTTRIG_SWSTART_Reset      ((uint32_t)0xFFAFFFFF)
  63:../Peripheral/src/ch32v30x_adc.c **** 
  64:../Peripheral/src/ch32v30x_adc.c **** /* ADC JEXTSEL mask */
  65:../Peripheral/src/ch32v30x_adc.c **** #define CTLR2_JEXTSEL_Reset              ((uint32_t)0xFFFF8FFF)
  66:../Peripheral/src/ch32v30x_adc.c **** 
  67:../Peripheral/src/ch32v30x_adc.c **** /* ADC JEXTTRIG mask */
  68:../Peripheral/src/ch32v30x_adc.c **** #define CTLR2_JEXTTRIG_Set               ((uint32_t)0x00008000)
  69:../Peripheral/src/ch32v30x_adc.c **** #define CTLR2_JEXTTRIG_Reset             ((uint32_t)0xFFFF7FFF)
  70:../Peripheral/src/ch32v30x_adc.c **** 
  71:../Peripheral/src/ch32v30x_adc.c **** /* ADC JSWSTART mask */
  72:../Peripheral/src/ch32v30x_adc.c **** #define CTLR2_JSWSTART_Set               ((uint32_t)0x00200000)
  73:../Peripheral/src/ch32v30x_adc.c **** 
  74:../Peripheral/src/ch32v30x_adc.c **** /* ADC injected software start mask */
  75:../Peripheral/src/ch32v30x_adc.c **** #define CTLR2_JEXTTRIG_JSWSTART_Set      ((uint32_t)0x00208000)
  76:../Peripheral/src/ch32v30x_adc.c **** #define CTLR2_JEXTTRIG_JSWSTART_Reset    ((uint32_t)0xFFDF7FFF)
  77:../Peripheral/src/ch32v30x_adc.c **** 
  78:../Peripheral/src/ch32v30x_adc.c **** /* ADC TSPD mask */
  79:../Peripheral/src/ch32v30x_adc.c **** #define CTLR2_TSVREFE_Set                ((uint32_t)0x00800000)
  80:../Peripheral/src/ch32v30x_adc.c **** #define CTLR2_TSVREFE_Reset              ((uint32_t)0xFF7FFFFF)
  81:../Peripheral/src/ch32v30x_adc.c **** 
  82:../Peripheral/src/ch32v30x_adc.c **** /* CTLR2 register Mask */
  83:../Peripheral/src/ch32v30x_adc.c **** #define CTLR2_CLEAR_Mask                 ((uint32_t)0xFFF1F7FD)
  84:../Peripheral/src/ch32v30x_adc.c **** 
  85:../Peripheral/src/ch32v30x_adc.c **** /* ADC SQx mask */
  86:../Peripheral/src/ch32v30x_adc.c **** #define RSQR3_SQ_Set                     ((uint32_t)0x0000001F)
  87:../Peripheral/src/ch32v30x_adc.c **** #define RSQR2_SQ_Set                     ((uint32_t)0x0000001F)
  88:../Peripheral/src/ch32v30x_adc.c **** #define RSQR1_SQ_Set                     ((uint32_t)0x0000001F)
  89:../Peripheral/src/ch32v30x_adc.c **** 
  90:../Peripheral/src/ch32v30x_adc.c **** /* RSQR1 register Mask */
  91:../Peripheral/src/ch32v30x_adc.c **** #define RSQR1_CLEAR_Mask                 ((uint32_t)0xFF0FFFFF)
  92:../Peripheral/src/ch32v30x_adc.c **** 
  93:../Peripheral/src/ch32v30x_adc.c **** /* ADC JSQx mask */
  94:../Peripheral/src/ch32v30x_adc.c **** #define ISQR_JSQ_Set                     ((uint32_t)0x0000001F)
  95:../Peripheral/src/ch32v30x_adc.c **** 
  96:../Peripheral/src/ch32v30x_adc.c **** /* ADC JL mask */
  97:../Peripheral/src/ch32v30x_adc.c **** #define ISQR_JL_Set                      ((uint32_t)0x00300000)
  98:../Peripheral/src/ch32v30x_adc.c **** #define ISQR_JL_Reset                    ((uint32_t)0xFFCFFFFF)
  99:../Peripheral/src/ch32v30x_adc.c **** 
 100:../Peripheral/src/ch32v30x_adc.c **** /* ADC SMPx mask */
 101:../Peripheral/src/ch32v30x_adc.c **** #define SAMPTR1_SMP_Set                  ((uint32_t)0x00000007)
 102:../Peripheral/src/ch32v30x_adc.c **** #define SAMPTR2_SMP_Set                  ((uint32_t)0x00000007)
 103:../Peripheral/src/ch32v30x_adc.c **** 
 104:../Peripheral/src/ch32v30x_adc.c **** /* ADC IDATARx registers offset */
 105:../Peripheral/src/ch32v30x_adc.c **** #define IDATAR_Offset                    ((uint8_t)0x28)
 106:../Peripheral/src/ch32v30x_adc.c **** 
 107:../Peripheral/src/ch32v30x_adc.c **** /* ADC1 RDATAR register base address */
 108:../Peripheral/src/ch32v30x_adc.c **** #define RDATAR_ADDRESS                   ((uint32_t)0x4001244C)
 109:../Peripheral/src/ch32v30x_adc.c **** 
 110:../Peripheral/src/ch32v30x_adc.c **** /*********************************************************************
 111:../Peripheral/src/ch32v30x_adc.c ****  * @fn      ADC_DeInit
 112:../Peripheral/src/ch32v30x_adc.c ****  *
 113:../Peripheral/src/ch32v30x_adc.c ****  * @brief   Deinitializes the ADCx peripheral registers to their default
 114:../Peripheral/src/ch32v30x_adc.c ****  *        reset values.
 115:../Peripheral/src/ch32v30x_adc.c ****  *
 116:../Peripheral/src/ch32v30x_adc.c ****  * @param   ADCx - where x can be 1 or 2 to select the ADC peripheral.
 117:../Peripheral/src/ch32v30x_adc.c ****  *
 118:../Peripheral/src/ch32v30x_adc.c ****  * @return  none
 119:../Peripheral/src/ch32v30x_adc.c ****  */
 120:../Peripheral/src/ch32v30x_adc.c **** void ADC_DeInit(ADC_TypeDef *ADCx)
 121:../Peripheral/src/ch32v30x_adc.c **** {
  17              		.loc 1 121 1
  18              		.cfi_startproc
  19              	.LVL0:
  20 0000 17030000 		call	t0,__riscv_save_0
  20      E7020300 
  21              		.cfi_offset 1, -4
  22              		.cfi_def_cfa_offset 16
 122:../Peripheral/src/ch32v30x_adc.c ****     if(ADCx == ADC1)
  23              		.loc 1 122 5
  24              		.loc 1 122 7 is_stmt 0
  25 0008 B7270140 		li	a5,1073815552
  26 000c 93870740 		addi	a5,a5,1024
  27 0010 6314F502 		bne	a0,a5,.L2
 123:../Peripheral/src/ch32v30x_adc.c ****     {
 124:../Peripheral/src/ch32v30x_adc.c ****         RCC_APB2PeriphResetCmd(RCC_APB2Periph_ADC1, ENABLE);
  28              		.loc 1 124 9 is_stmt 1
  29 0014 8545     		li	a1,1
  30 0016 13050020 		li	a0,512
  31              	.LVL1:
  32 001a 97000000 		call	RCC_APB2PeriphResetCmd
  32      E7800000 
  33              	.LVL2:
 125:../Peripheral/src/ch32v30x_adc.c ****         RCC_APB2PeriphResetCmd(RCC_APB2Periph_ADC1, DISABLE);
  34              		.loc 1 125 9
  35 0022 8145     		li	a1,0
  36 0024 13050020 		li	a0,512
  37              	.L5:
 126:../Peripheral/src/ch32v30x_adc.c ****     }
 127:../Peripheral/src/ch32v30x_adc.c ****     else if(ADCx == ADC2)
 128:../Peripheral/src/ch32v30x_adc.c ****     {
 129:../Peripheral/src/ch32v30x_adc.c ****         RCC_APB2PeriphResetCmd(RCC_APB2Periph_ADC2, ENABLE);
 130:../Peripheral/src/ch32v30x_adc.c ****         RCC_APB2PeriphResetCmd(RCC_APB2Periph_ADC2, DISABLE);
  38              		.loc 1 130 9 is_stmt 0
  39 0028 97000000 		call	RCC_APB2PeriphResetCmd
  39      E7800000 
  40              	.LVL3:
  41              	.L1:
 131:../Peripheral/src/ch32v30x_adc.c ****     }
 132:../Peripheral/src/ch32v30x_adc.c **** }
  42              		.loc 1 132 1
  43 0030 17030000 		tail	__riscv_restore_0
  43      67000300 
  44              		.cfi_remember_state
  45              		.cfi_restore 1
  46              		.cfi_def_cfa_offset 0
  47              	.LVL4:
  48              	.L2:
  49              		.cfi_restore_state
 127:../Peripheral/src/ch32v30x_adc.c ****     {
  50              		.loc 1 127 10 is_stmt 1
 127:../Peripheral/src/ch32v30x_adc.c ****     {
  51              		.loc 1 127 12 is_stmt 0
  52 0038 B7370140 		li	a5,1073819648
  53 003c 93870780 		addi	a5,a5,-2048
  54 0040 E318F5FE 		bne	a0,a5,.L1
 129:../Peripheral/src/ch32v30x_adc.c ****         RCC_APB2PeriphResetCmd(RCC_APB2Periph_ADC2, DISABLE);
  55              		.loc 1 129 9 is_stmt 1
  56 0044 8545     		li	a1,1
  57 0046 13050040 		li	a0,1024
  58              	.LVL5:
  59 004a 97000000 		call	RCC_APB2PeriphResetCmd
  59      E7800000 
  60              	.LVL6:
 130:../Peripheral/src/ch32v30x_adc.c ****     }
  61              		.loc 1 130 9
  62 0052 8145     		li	a1,0
  63 0054 13050040 		li	a0,1024
  64 0058 C1BF     		j	.L5
  65              		.cfi_endproc
  66              	.LFE29:
  68              		.section	.text.ADC_Init,"ax",@progbits
  69              		.align	1
  70              		.globl	ADC_Init
  72              	ADC_Init:
  73              	.LFB30:
 133:../Peripheral/src/ch32v30x_adc.c **** 
 134:../Peripheral/src/ch32v30x_adc.c **** /*********************************************************************
 135:../Peripheral/src/ch32v30x_adc.c ****  * @fn      ADC_Init
 136:../Peripheral/src/ch32v30x_adc.c ****  *
 137:../Peripheral/src/ch32v30x_adc.c ****  * @brief   Initializes the ADCx peripheral according to the specified
 138:../Peripheral/src/ch32v30x_adc.c ****  *        parameters in the ADC_InitStruct.
 139:../Peripheral/src/ch32v30x_adc.c ****  *
 140:../Peripheral/src/ch32v30x_adc.c ****  * @param   ADCx - where x can be 1 or 2 to select the ADC peripheral.
 141:../Peripheral/src/ch32v30x_adc.c ****  *          ADC_InitStruct - pointer to an ADC_InitTypeDef structure that
 142:../Peripheral/src/ch32v30x_adc.c ****  *        contains the configuration information for the specified ADC
 143:../Peripheral/src/ch32v30x_adc.c ****  *        peripheral.
 144:../Peripheral/src/ch32v30x_adc.c ****  *
 145:../Peripheral/src/ch32v30x_adc.c ****  * @return  none
 146:../Peripheral/src/ch32v30x_adc.c ****  */
 147:../Peripheral/src/ch32v30x_adc.c **** void ADC_Init(ADC_TypeDef *ADCx, ADC_InitTypeDef *ADC_InitStruct)
 148:../Peripheral/src/ch32v30x_adc.c **** {
  74              		.loc 1 148 1
  75              		.cfi_startproc
  76              	.LVL7:
 149:../Peripheral/src/ch32v30x_adc.c ****     uint32_t tmpreg1 = 0;
  77              		.loc 1 149 5
 150:../Peripheral/src/ch32v30x_adc.c ****     uint8_t  tmpreg2 = 0;
  78              		.loc 1 150 5
 151:../Peripheral/src/ch32v30x_adc.c **** 
 152:../Peripheral/src/ch32v30x_adc.c ****     tmpreg1 = ADCx->CTLR1;
  79              		.loc 1 152 5
  80              		.loc 1 152 13 is_stmt 0
  81 0000 5841     		lw	a4,4(a0)
  82              	.LVL8:
 153:../Peripheral/src/ch32v30x_adc.c ****     tmpreg1 &= CTLR1_CLEAR_Mask;
  83              		.loc 1 153 5 is_stmt 1
  84              		.loc 1 153 13 is_stmt 0
  85 0002 B707F1E0 		li	a5,-521076736
  86 0006 9387F7EF 		addi	a5,a5,-257
 154:../Peripheral/src/ch32v30x_adc.c ****     tmpreg1 |= (uint32_t)(ADC_InitStruct->ADC_Mode | (uint32_t)ADC_InitStruct->ADC_OutputBuffer |
  87              		.loc 1 154 52
  88 000a 944D     		lw	a3,24(a1)
 153:../Peripheral/src/ch32v30x_adc.c ****     tmpreg1 &= CTLR1_CLEAR_Mask;
  89              		.loc 1 153 13
  90 000c 7D8F     		and	a4,a4,a5
  91              	.LVL9:
  92              		.loc 1 154 5 is_stmt 1
  93              		.loc 1 154 52 is_stmt 0
  94 000e 9C41     		lw	a5,0(a1)
  95 0010 D58F     		or	a5,a5,a3
  96              		.loc 1 154 97
  97 0012 D44D     		lw	a3,28(a1)
  98 0014 D58F     		or	a5,a5,a3
 155:../Peripheral/src/ch32v30x_adc.c ****                           (uint32_t)ADC_InitStruct->ADC_Pga | ((uint32_t)ADC_InitStruct->ADC_ScanCo
  99              		.loc 1 155 107
 100 0016 D441     		lw	a3,4(a1)
 101 0018 A206     		slli	a3,a3,8
 154:../Peripheral/src/ch32v30x_adc.c ****     tmpreg1 |= (uint32_t)(ADC_InitStruct->ADC_Mode | (uint32_t)ADC_InitStruct->ADC_OutputBuffer |
 102              		.loc 1 154 16
 103 001a D58F     		or	a5,a5,a3
 154:../Peripheral/src/ch32v30x_adc.c ****     tmpreg1 |= (uint32_t)(ADC_InitStruct->ADC_Mode | (uint32_t)ADC_InitStruct->ADC_OutputBuffer |
 104              		.loc 1 154 13
 105 001c D98F     		or	a5,a5,a4
 106              	.LVL10:
 156:../Peripheral/src/ch32v30x_adc.c ****     ADCx->CTLR1 = tmpreg1;
 107              		.loc 1 156 5 is_stmt 1
 108              		.loc 1 156 17 is_stmt 0
 109 001e 5CC1     		sw	a5,4(a0)
 157:../Peripheral/src/ch32v30x_adc.c **** 
 158:../Peripheral/src/ch32v30x_adc.c ****     tmpreg1 = ADCx->CTLR2;
 110              		.loc 1 158 5 is_stmt 1
 111              		.loc 1 158 13 is_stmt 0
 112 0020 1845     		lw	a4,8(a0)
 113              	.LVL11:
 159:../Peripheral/src/ch32v30x_adc.c ****     tmpreg1 &= CTLR2_CLEAR_Mask;
 114              		.loc 1 159 5 is_stmt 1
 115              		.loc 1 159 13 is_stmt 0
 116 0022 B7F7F1FF 		li	a5,-921600
 117 0026 9387D77F 		addi	a5,a5,2045
 160:../Peripheral/src/ch32v30x_adc.c ****     tmpreg1 |= (uint32_t)(ADC_InitStruct->ADC_DataAlign | ADC_InitStruct->ADC_ExternalTrigConv |
 118              		.loc 1 160 57
 119 002a D445     		lw	a3,12(a1)
 159:../Peripheral/src/ch32v30x_adc.c ****     tmpreg1 &= CTLR2_CLEAR_Mask;
 120              		.loc 1 159 13
 121 002c 7D8F     		and	a4,a4,a5
 122              	.LVL12:
 123              		.loc 1 160 5 is_stmt 1
 124              		.loc 1 160 57 is_stmt 0
 125 002e 9C49     		lw	a5,16(a1)
 126 0030 D58F     		or	a5,a5,a3
 161:../Peripheral/src/ch32v30x_adc.c ****                           ((uint32_t)ADC_InitStruct->ADC_ContinuousConvMode << 1));
 127              		.loc 1 161 77
 128 0032 9445     		lw	a3,8(a1)
 129 0034 8606     		slli	a3,a3,1
 160:../Peripheral/src/ch32v30x_adc.c ****     tmpreg1 |= (uint32_t)(ADC_InitStruct->ADC_DataAlign | ADC_InitStruct->ADC_ExternalTrigConv |
 130              		.loc 1 160 16
 131 0036 D58F     		or	a5,a5,a3
 160:../Peripheral/src/ch32v30x_adc.c ****     tmpreg1 |= (uint32_t)(ADC_InitStruct->ADC_DataAlign | ADC_InitStruct->ADC_ExternalTrigConv |
 132              		.loc 1 160 13
 133 0038 D98F     		or	a5,a5,a4
 134              	.LVL13:
 162:../Peripheral/src/ch32v30x_adc.c ****     ADCx->CTLR2 = tmpreg1;
 135              		.loc 1 162 5 is_stmt 1
 136              		.loc 1 162 17 is_stmt 0
 137 003a 1CC5     		sw	a5,8(a0)
 163:../Peripheral/src/ch32v30x_adc.c **** 
 164:../Peripheral/src/ch32v30x_adc.c ****     tmpreg1 = ADCx->RSQR1;
 138              		.loc 1 164 5 is_stmt 1
 139              		.loc 1 164 13 is_stmt 0
 140 003c 5855     		lw	a4,44(a0)
 141              	.LVL14:
 165:../Peripheral/src/ch32v30x_adc.c ****     tmpreg1 &= RSQR1_CLEAR_Mask;
 142              		.loc 1 165 5 is_stmt 1
 143              		.loc 1 165 13 is_stmt 0
 144 003e B70710FF 		li	a5,-15728640
 145 0042 FD17     		addi	a5,a5,-1
 146 0044 7D8F     		and	a4,a4,a5
 147              	.LVL15:
 166:../Peripheral/src/ch32v30x_adc.c ****     tmpreg2 |= (uint8_t)(ADC_InitStruct->ADC_NbrOfChannel - (uint8_t)1);
 148              		.loc 1 166 5 is_stmt 1
 167:../Peripheral/src/ch32v30x_adc.c ****     tmpreg1 |= (uint32_t)tmpreg2 << 20;
 149              		.loc 1 167 5
 166:../Peripheral/src/ch32v30x_adc.c ****     tmpreg2 |= (uint8_t)(ADC_InitStruct->ADC_NbrOfChannel - (uint8_t)1);
 150              		.loc 1 166 16 is_stmt 0
 151 0046 DC29     		lbu	a5,20(a1)
 152 0048 FD17     		addi	a5,a5,-1
 153              		.loc 1 167 16
 154 004a 93F7F70F 		andi	a5,a5,0xff
 155              		.loc 1 167 34
 156 004e D207     		slli	a5,a5,20
 157              		.loc 1 167 13
 158 0050 D98F     		or	a5,a5,a4
 159              	.LVL16:
 168:../Peripheral/src/ch32v30x_adc.c ****     ADCx->RSQR1 = tmpreg1;
 160              		.loc 1 168 5 is_stmt 1
 161              		.loc 1 168 17 is_stmt 0
 162 0052 5CD5     		sw	a5,44(a0)
 163              	.LVL17:
 169:../Peripheral/src/ch32v30x_adc.c **** }
 164              		.loc 1 169 1
 165 0054 8280     		ret
 166              		.cfi_endproc
 167              	.LFE30:
 169              		.section	.text.ADC_StructInit,"ax",@progbits
 170              		.align	1
 171              		.globl	ADC_StructInit
 173              	ADC_StructInit:
 174              	.LFB31:
 170:../Peripheral/src/ch32v30x_adc.c **** 
 171:../Peripheral/src/ch32v30x_adc.c **** /*********************************************************************
 172:../Peripheral/src/ch32v30x_adc.c ****  * @fn      ADC_StructInit
 173:../Peripheral/src/ch32v30x_adc.c ****  *
 174:../Peripheral/src/ch32v30x_adc.c ****  * @brief   Fills each ADC_InitStruct member with its default value.
 175:../Peripheral/src/ch32v30x_adc.c ****  *
 176:../Peripheral/src/ch32v30x_adc.c ****  * @param   ADC_InitStruct - pointer to an ADC_InitTypeDef structure that
 177:../Peripheral/src/ch32v30x_adc.c ****  *        contains the configuration information for the specified ADC
 178:../Peripheral/src/ch32v30x_adc.c ****  *        peripheral.
 179:../Peripheral/src/ch32v30x_adc.c ****  *
 180:../Peripheral/src/ch32v30x_adc.c ****  * @return  none
 181:../Peripheral/src/ch32v30x_adc.c ****  */
 182:../Peripheral/src/ch32v30x_adc.c **** void ADC_StructInit(ADC_InitTypeDef *ADC_InitStruct)
 183:../Peripheral/src/ch32v30x_adc.c **** {
 175              		.loc 1 183 1 is_stmt 1
 176              		.cfi_startproc
 177              	.LVL18:
 184:../Peripheral/src/ch32v30x_adc.c ****     ADC_InitStruct->ADC_Mode = ADC_Mode_Independent;
 178              		.loc 1 184 5
 185:../Peripheral/src/ch32v30x_adc.c ****     ADC_InitStruct->ADC_ScanConvMode = DISABLE;
 186:../Peripheral/src/ch32v30x_adc.c ****     ADC_InitStruct->ADC_ContinuousConvMode = DISABLE;
 187:../Peripheral/src/ch32v30x_adc.c ****     ADC_InitStruct->ADC_ExternalTrigConv = ADC_ExternalTrigConv_T1_CC1;
 188:../Peripheral/src/ch32v30x_adc.c ****     ADC_InitStruct->ADC_DataAlign = ADC_DataAlign_Right;
 189:../Peripheral/src/ch32v30x_adc.c ****     ADC_InitStruct->ADC_NbrOfChannel = 1;
 179              		.loc 1 189 38 is_stmt 0
 180 0000 8547     		li	a5,1
 184:../Peripheral/src/ch32v30x_adc.c ****     ADC_InitStruct->ADC_Mode = ADC_Mode_Independent;
 181              		.loc 1 184 30
 182 0002 23200500 		sw	zero,0(a0)
 185:../Peripheral/src/ch32v30x_adc.c ****     ADC_InitStruct->ADC_ScanConvMode = DISABLE;
 183              		.loc 1 185 5 is_stmt 1
 185:../Peripheral/src/ch32v30x_adc.c ****     ADC_InitStruct->ADC_ScanConvMode = DISABLE;
 184              		.loc 1 185 38 is_stmt 0
 185 0006 23220500 		sw	zero,4(a0)
 186:../Peripheral/src/ch32v30x_adc.c ****     ADC_InitStruct->ADC_ExternalTrigConv = ADC_ExternalTrigConv_T1_CC1;
 186              		.loc 1 186 5 is_stmt 1
 186:../Peripheral/src/ch32v30x_adc.c ****     ADC_InitStruct->ADC_ExternalTrigConv = ADC_ExternalTrigConv_T1_CC1;
 187              		.loc 1 186 44 is_stmt 0
 188 000a 23240500 		sw	zero,8(a0)
 187:../Peripheral/src/ch32v30x_adc.c ****     ADC_InitStruct->ADC_DataAlign = ADC_DataAlign_Right;
 189              		.loc 1 187 5 is_stmt 1
 187:../Peripheral/src/ch32v30x_adc.c ****     ADC_InitStruct->ADC_DataAlign = ADC_DataAlign_Right;
 190              		.loc 1 187 42 is_stmt 0
 191 000e 23260500 		sw	zero,12(a0)
 188:../Peripheral/src/ch32v30x_adc.c ****     ADC_InitStruct->ADC_NbrOfChannel = 1;
 192              		.loc 1 188 5 is_stmt 1
 188:../Peripheral/src/ch32v30x_adc.c ****     ADC_InitStruct->ADC_NbrOfChannel = 1;
 193              		.loc 1 188 35 is_stmt 0
 194 0012 23280500 		sw	zero,16(a0)
 195              		.loc 1 189 5 is_stmt 1
 196              		.loc 1 189 38 is_stmt 0
 197 0016 5CA9     		sb	a5,20(a0)
 190:../Peripheral/src/ch32v30x_adc.c **** }
 198              		.loc 1 190 1
 199 0018 8280     		ret
 200              		.cfi_endproc
 201              	.LFE31:
 203              		.section	.text.ADC_Cmd,"ax",@progbits
 204              		.align	1
 205              		.globl	ADC_Cmd
 207              	ADC_Cmd:
 208              	.LFB32:
 191:../Peripheral/src/ch32v30x_adc.c **** 
 192:../Peripheral/src/ch32v30x_adc.c **** /*********************************************************************
 193:../Peripheral/src/ch32v30x_adc.c ****  * @fn      ADC_Cmd
 194:../Peripheral/src/ch32v30x_adc.c ****  *
 195:../Peripheral/src/ch32v30x_adc.c ****  * @brief   Enables or disables the specified ADC peripheral.
 196:../Peripheral/src/ch32v30x_adc.c ****  *
 197:../Peripheral/src/ch32v30x_adc.c ****  * @param   ADCx - where x can be 1 or 2 to select the ADC peripheral.
 198:../Peripheral/src/ch32v30x_adc.c ****  *          NewState - ENABLE or DISABLE.
 199:../Peripheral/src/ch32v30x_adc.c ****  *
 200:../Peripheral/src/ch32v30x_adc.c ****  * @return  none
 201:../Peripheral/src/ch32v30x_adc.c ****  */
 202:../Peripheral/src/ch32v30x_adc.c **** void ADC_Cmd(ADC_TypeDef *ADCx, FunctionalState NewState)
 203:../Peripheral/src/ch32v30x_adc.c **** {
 209              		.loc 1 203 1 is_stmt 1
 210              		.cfi_startproc
 211              	.LVL19:
 204:../Peripheral/src/ch32v30x_adc.c ****     if(NewState != DISABLE)
 212              		.loc 1 204 5
 205:../Peripheral/src/ch32v30x_adc.c ****     {
 206:../Peripheral/src/ch32v30x_adc.c ****         ADCx->CTLR2 |= CTLR2_ADON_Set;
 213              		.loc 1 206 13 is_stmt 0
 214 0000 1C45     		lw	a5,8(a0)
 204:../Peripheral/src/ch32v30x_adc.c ****     if(NewState != DISABLE)
 215              		.loc 1 204 7
 216 0002 89C5     		beq	a1,zero,.L9
 217              		.loc 1 206 9 is_stmt 1
 218              		.loc 1 206 21 is_stmt 0
 219 0004 93E71700 		ori	a5,a5,1
 220              	.L11:
 207:../Peripheral/src/ch32v30x_adc.c ****     }
 208:../Peripheral/src/ch32v30x_adc.c ****     else
 209:../Peripheral/src/ch32v30x_adc.c ****     {
 210:../Peripheral/src/ch32v30x_adc.c ****         ADCx->CTLR2 &= CTLR2_ADON_Reset;
 221              		.loc 1 210 21
 222 0008 1CC5     		sw	a5,8(a0)
 211:../Peripheral/src/ch32v30x_adc.c ****     }
 212:../Peripheral/src/ch32v30x_adc.c **** }
 223              		.loc 1 212 1
 224 000a 8280     		ret
 225              	.L9:
 210:../Peripheral/src/ch32v30x_adc.c ****     }
 226              		.loc 1 210 9 is_stmt 1
 210:../Peripheral/src/ch32v30x_adc.c ****     }
 227              		.loc 1 210 21 is_stmt 0
 228 000c F99B     		andi	a5,a5,-2
 229 000e EDBF     		j	.L11
 230              		.cfi_endproc
 231              	.LFE32:
 233              		.section	.text.ADC_DMACmd,"ax",@progbits
 234              		.align	1
 235              		.globl	ADC_DMACmd
 237              	ADC_DMACmd:
 238              	.LFB33:
 213:../Peripheral/src/ch32v30x_adc.c **** 
 214:../Peripheral/src/ch32v30x_adc.c **** /*********************************************************************
 215:../Peripheral/src/ch32v30x_adc.c ****  * @fn      ADC_DMACmd
 216:../Peripheral/src/ch32v30x_adc.c ****  *
 217:../Peripheral/src/ch32v30x_adc.c ****  * @brief   Enables or disables the specified ADC DMA request.
 218:../Peripheral/src/ch32v30x_adc.c ****  *
 219:../Peripheral/src/ch32v30x_adc.c ****  * @param   ADCx - where x can be 1 or 2 to select the ADC peripheral.
 220:../Peripheral/src/ch32v30x_adc.c ****  *          NewState - ENABLE or DISABLE.
 221:../Peripheral/src/ch32v30x_adc.c ****  *
 222:../Peripheral/src/ch32v30x_adc.c ****  * @return  none
 223:../Peripheral/src/ch32v30x_adc.c ****  */
 224:../Peripheral/src/ch32v30x_adc.c **** void ADC_DMACmd(ADC_TypeDef *ADCx, FunctionalState NewState)
 225:../Peripheral/src/ch32v30x_adc.c **** {
 239              		.loc 1 225 1 is_stmt 1
 240              		.cfi_startproc
 241              	.LVL20:
 226:../Peripheral/src/ch32v30x_adc.c ****     if(NewState != DISABLE)
 242              		.loc 1 226 5
 227:../Peripheral/src/ch32v30x_adc.c ****     {
 228:../Peripheral/src/ch32v30x_adc.c ****         ADCx->CTLR2 |= CTLR2_DMA_Set;
 243              		.loc 1 228 13 is_stmt 0
 244 0000 1C45     		lw	a5,8(a0)
 226:../Peripheral/src/ch32v30x_adc.c ****     if(NewState != DISABLE)
 245              		.loc 1 226 7
 246 0002 89C5     		beq	a1,zero,.L13
 247              		.loc 1 228 9 is_stmt 1
 248              		.loc 1 228 21 is_stmt 0
 249 0004 93E70710 		ori	a5,a5,256
 250              	.L15:
 229:../Peripheral/src/ch32v30x_adc.c ****     }
 230:../Peripheral/src/ch32v30x_adc.c ****     else
 231:../Peripheral/src/ch32v30x_adc.c ****     {
 232:../Peripheral/src/ch32v30x_adc.c ****         ADCx->CTLR2 &= CTLR2_DMA_Reset;
 251              		.loc 1 232 21
 252 0008 1CC5     		sw	a5,8(a0)
 233:../Peripheral/src/ch32v30x_adc.c ****     }
 234:../Peripheral/src/ch32v30x_adc.c **** }
 253              		.loc 1 234 1
 254 000a 8280     		ret
 255              	.L13:
 232:../Peripheral/src/ch32v30x_adc.c ****     }
 256              		.loc 1 232 9 is_stmt 1
 232:../Peripheral/src/ch32v30x_adc.c ****     }
 257              		.loc 1 232 21 is_stmt 0
 258 000c 93F7F7EF 		andi	a5,a5,-257
 259 0010 E5BF     		j	.L15
 260              		.cfi_endproc
 261              	.LFE33:
 263              		.section	.text.ADC_ITConfig,"ax",@progbits
 264              		.align	1
 265              		.globl	ADC_ITConfig
 267              	ADC_ITConfig:
 268              	.LFB34:
 235:../Peripheral/src/ch32v30x_adc.c **** 
 236:../Peripheral/src/ch32v30x_adc.c **** /*********************************************************************
 237:../Peripheral/src/ch32v30x_adc.c ****  * @fn      ADC_ITConfig
 238:../Peripheral/src/ch32v30x_adc.c ****  *
 239:../Peripheral/src/ch32v30x_adc.c ****  * @brief   Enables or disables the specified ADC interrupts.
 240:../Peripheral/src/ch32v30x_adc.c ****  *
 241:../Peripheral/src/ch32v30x_adc.c ****  * @param   ADCx - where x can be 1 or 2 to select the ADC peripheral.
 242:../Peripheral/src/ch32v30x_adc.c ****  *          ADC_IT - specifies the ADC interrupt sources to be enabled or disabled.
 243:../Peripheral/src/ch32v30x_adc.c ****  *            ADC_IT_EOC - End of conversion interrupt mask.
 244:../Peripheral/src/ch32v30x_adc.c ****  *            ADC_IT_AWD - Analog watchdog interrupt mask.
 245:../Peripheral/src/ch32v30x_adc.c ****  *            ADC_IT_JEOC - End of injected conversion interrupt mask.
 246:../Peripheral/src/ch32v30x_adc.c ****  *          NewState - ENABLE or DISABLE.
 247:../Peripheral/src/ch32v30x_adc.c ****  *
 248:../Peripheral/src/ch32v30x_adc.c ****  * @return  none
 249:../Peripheral/src/ch32v30x_adc.c ****  */
 250:../Peripheral/src/ch32v30x_adc.c **** void ADC_ITConfig(ADC_TypeDef *ADCx, uint16_t ADC_IT, FunctionalState NewState)
 251:../Peripheral/src/ch32v30x_adc.c **** {
 269              		.loc 1 251 1 is_stmt 1
 270              		.cfi_startproc
 271              	.LVL21:
 252:../Peripheral/src/ch32v30x_adc.c ****     uint8_t itmask = 0;
 272              		.loc 1 252 5
 253:../Peripheral/src/ch32v30x_adc.c **** 
 254:../Peripheral/src/ch32v30x_adc.c ****     itmask = (uint8_t)ADC_IT;
 273              		.loc 1 254 5
 255:../Peripheral/src/ch32v30x_adc.c **** 
 256:../Peripheral/src/ch32v30x_adc.c ****     if(NewState != DISABLE)
 274              		.loc 1 256 5
 257:../Peripheral/src/ch32v30x_adc.c ****     {
 258:../Peripheral/src/ch32v30x_adc.c ****         ADCx->CTLR1 |= itmask;
 275              		.loc 1 258 13 is_stmt 0
 276 0000 5C41     		lw	a5,4(a0)
 277              		.loc 1 258 21
 278 0002 93F5F50F 		andi	a1,a1,0xff
 279              	.LVL22:
 256:../Peripheral/src/ch32v30x_adc.c ****     {
 280              		.loc 1 256 7
 281 0006 01C6     		beq	a2,zero,.L17
 282              		.loc 1 258 9 is_stmt 1
 283              		.loc 1 258 21 is_stmt 0
 284 0008 CD8F     		or	a5,a5,a1
 285 000a 5CC1     		sw	a5,4(a0)
 286 000c 8280     		ret
 287              	.L17:
 259:../Peripheral/src/ch32v30x_adc.c ****     }
 260:../Peripheral/src/ch32v30x_adc.c ****     else
 261:../Peripheral/src/ch32v30x_adc.c ****     {
 262:../Peripheral/src/ch32v30x_adc.c ****         ADCx->CTLR1 &= (~(uint32_t)itmask);
 288              		.loc 1 262 9 is_stmt 1
 289              		.loc 1 262 25 is_stmt 0
 290 000e 93C5F5FF 		not	a1,a1
 291              	.LVL23:
 292              		.loc 1 262 21
 293 0012 FD8D     		and	a1,a1,a5
 294              	.LVL24:
 295 0014 4CC1     		sw	a1,4(a0)
 263:../Peripheral/src/ch32v30x_adc.c ****     }
 264:../Peripheral/src/ch32v30x_adc.c **** }
 296              		.loc 1 264 1
 297 0016 8280     		ret
 298              		.cfi_endproc
 299              	.LFE34:
 301              		.section	.text.ADC_ResetCalibration,"ax",@progbits
 302              		.align	1
 303              		.globl	ADC_ResetCalibration
 305              	ADC_ResetCalibration:
 306              	.LFB35:
 265:../Peripheral/src/ch32v30x_adc.c **** 
 266:../Peripheral/src/ch32v30x_adc.c **** /*********************************************************************
 267:../Peripheral/src/ch32v30x_adc.c ****  * @fn      ADC_ResetCalibration
 268:../Peripheral/src/ch32v30x_adc.c ****  *
 269:../Peripheral/src/ch32v30x_adc.c ****  * @brief   Resets the selected ADC calibration registers.
 270:../Peripheral/src/ch32v30x_adc.c ****  *
 271:../Peripheral/src/ch32v30x_adc.c ****  * @param   ADCx - where x can be 1 or 2 to select the ADC peripheral.
 272:../Peripheral/src/ch32v30x_adc.c ****  *
 273:../Peripheral/src/ch32v30x_adc.c ****  * @return  none
 274:../Peripheral/src/ch32v30x_adc.c ****  */
 275:../Peripheral/src/ch32v30x_adc.c **** void ADC_ResetCalibration(ADC_TypeDef *ADCx)
 276:../Peripheral/src/ch32v30x_adc.c **** {
 307              		.loc 1 276 1 is_stmt 1
 308              		.cfi_startproc
 309              	.LVL25:
 277:../Peripheral/src/ch32v30x_adc.c ****     ADCx->CTLR2 |= CTLR2_RSTCAL_Set;
 310              		.loc 1 277 5
 311              		.loc 1 277 9 is_stmt 0
 312 0000 1C45     		lw	a5,8(a0)
 313              		.loc 1 277 17
 314 0002 93E78700 		ori	a5,a5,8
 315 0006 1CC5     		sw	a5,8(a0)
 278:../Peripheral/src/ch32v30x_adc.c **** }
 316              		.loc 1 278 1
 317 0008 8280     		ret
 318              		.cfi_endproc
 319              	.LFE35:
 321              		.section	.text.ADC_GetResetCalibrationStatus,"ax",@progbits
 322              		.align	1
 323              		.globl	ADC_GetResetCalibrationStatus
 325              	ADC_GetResetCalibrationStatus:
 326              	.LFB36:
 279:../Peripheral/src/ch32v30x_adc.c **** 
 280:../Peripheral/src/ch32v30x_adc.c **** /*********************************************************************
 281:../Peripheral/src/ch32v30x_adc.c ****  * @fn      ADC_GetResetCalibrationStatus
 282:../Peripheral/src/ch32v30x_adc.c ****  *
 283:../Peripheral/src/ch32v30x_adc.c ****  * @brief   Gets the selected ADC reset calibration registers status.
 284:../Peripheral/src/ch32v30x_adc.c ****  *
 285:../Peripheral/src/ch32v30x_adc.c ****  * @param   ADCx - where x can be 1 or 2 to select the ADC peripheral.
 286:../Peripheral/src/ch32v30x_adc.c ****  *
 287:../Peripheral/src/ch32v30x_adc.c ****  * @return  FlagStatus: SET or RESET.
 288:../Peripheral/src/ch32v30x_adc.c ****  */
 289:../Peripheral/src/ch32v30x_adc.c **** FlagStatus ADC_GetResetCalibrationStatus(ADC_TypeDef *ADCx)
 290:../Peripheral/src/ch32v30x_adc.c **** {
 327              		.loc 1 290 1 is_stmt 1
 328              		.cfi_startproc
 329              	.LVL26:
 291:../Peripheral/src/ch32v30x_adc.c ****     FlagStatus bitstatus = RESET;
 330              		.loc 1 291 5
 292:../Peripheral/src/ch32v30x_adc.c **** 
 293:../Peripheral/src/ch32v30x_adc.c ****     if((ADCx->CTLR2 & CTLR2_RSTCAL_Set) != (uint32_t)RESET)
 331              		.loc 1 293 5
 332              		.loc 1 293 13 is_stmt 0
 333 0000 0845     		lw	a0,8(a0)
 334              	.LVL27:
 294:../Peripheral/src/ch32v30x_adc.c ****     {
 295:../Peripheral/src/ch32v30x_adc.c ****         bitstatus = SET;
 296:../Peripheral/src/ch32v30x_adc.c ****     }
 297:../Peripheral/src/ch32v30x_adc.c ****     else
 298:../Peripheral/src/ch32v30x_adc.c ****     {
 299:../Peripheral/src/ch32v30x_adc.c ****         bitstatus = RESET;
 300:../Peripheral/src/ch32v30x_adc.c ****     }
 301:../Peripheral/src/ch32v30x_adc.c **** 
 302:../Peripheral/src/ch32v30x_adc.c ****     return bitstatus;
 335              		.loc 1 302 5 is_stmt 1
 293:../Peripheral/src/ch32v30x_adc.c ****     {
 336              		.loc 1 293 7 is_stmt 0
 337 0002 0D81     		srli	a0,a0,3
 338              	.LVL28:
 303:../Peripheral/src/ch32v30x_adc.c **** }
 339              		.loc 1 303 1
 340 0004 0589     		andi	a0,a0,1
 341 0006 8280     		ret
 342              		.cfi_endproc
 343              	.LFE36:
 345              		.section	.text.ADC_StartCalibration,"ax",@progbits
 346              		.align	1
 347              		.globl	ADC_StartCalibration
 349              	ADC_StartCalibration:
 350              	.LFB37:
 304:../Peripheral/src/ch32v30x_adc.c **** 
 305:../Peripheral/src/ch32v30x_adc.c **** /*********************************************************************
 306:../Peripheral/src/ch32v30x_adc.c ****  * @fn      ADC_StartCalibration
 307:../Peripheral/src/ch32v30x_adc.c ****  *
 308:../Peripheral/src/ch32v30x_adc.c ****  * @brief   Starts the selected ADC calibration process.
 309:../Peripheral/src/ch32v30x_adc.c ****  *
 310:../Peripheral/src/ch32v30x_adc.c ****  * @param   ADCx - where x can be 1 or 2 to select the ADC peripheral.
 311:../Peripheral/src/ch32v30x_adc.c ****  *
 312:../Peripheral/src/ch32v30x_adc.c ****  * @return  None
 313:../Peripheral/src/ch32v30x_adc.c ****  */
 314:../Peripheral/src/ch32v30x_adc.c **** void ADC_StartCalibration(ADC_TypeDef *ADCx)
 315:../Peripheral/src/ch32v30x_adc.c **** {
 351              		.loc 1 315 1 is_stmt 1
 352              		.cfi_startproc
 353              	.LVL29:
 316:../Peripheral/src/ch32v30x_adc.c ****     ADCx->CTLR2 |= CTLR2_CAL_Set;
 354              		.loc 1 316 5
 355              		.loc 1 316 9 is_stmt 0
 356 0000 1C45     		lw	a5,8(a0)
 357              		.loc 1 316 17
 358 0002 93E74700 		ori	a5,a5,4
 359 0006 1CC5     		sw	a5,8(a0)
 317:../Peripheral/src/ch32v30x_adc.c **** }
 360              		.loc 1 317 1
 361 0008 8280     		ret
 362              		.cfi_endproc
 363              	.LFE37:
 365              		.section	.text.ADC_GetCalibrationStatus,"ax",@progbits
 366              		.align	1
 367              		.globl	ADC_GetCalibrationStatus
 369              	ADC_GetCalibrationStatus:
 370              	.LFB38:
 318:../Peripheral/src/ch32v30x_adc.c **** 
 319:../Peripheral/src/ch32v30x_adc.c **** /*********************************************************************
 320:../Peripheral/src/ch32v30x_adc.c ****  * @fn      ADC_GetCalibrationStatus
 321:../Peripheral/src/ch32v30x_adc.c ****  *
 322:../Peripheral/src/ch32v30x_adc.c ****  * @brief   Gets the selected ADC calibration status.
 323:../Peripheral/src/ch32v30x_adc.c ****  *
 324:../Peripheral/src/ch32v30x_adc.c ****  * @param   ADCx - where x can be 1 or 2 to select the ADC peripheral.
 325:../Peripheral/src/ch32v30x_adc.c ****  *
 326:../Peripheral/src/ch32v30x_adc.c ****  * @return  FlagStatus: SET or RESET.
 327:../Peripheral/src/ch32v30x_adc.c ****  */
 328:../Peripheral/src/ch32v30x_adc.c **** FlagStatus ADC_GetCalibrationStatus(ADC_TypeDef *ADCx)
 329:../Peripheral/src/ch32v30x_adc.c **** {
 371              		.loc 1 329 1 is_stmt 1
 372              		.cfi_startproc
 373              	.LVL30:
 330:../Peripheral/src/ch32v30x_adc.c ****     FlagStatus bitstatus = RESET;
 374              		.loc 1 330 5
 331:../Peripheral/src/ch32v30x_adc.c **** 
 332:../Peripheral/src/ch32v30x_adc.c ****     if((ADCx->CTLR2 & CTLR2_CAL_Set) != (uint32_t)RESET)
 375              		.loc 1 332 5
 376              		.loc 1 332 13 is_stmt 0
 377 0000 0845     		lw	a0,8(a0)
 378              	.LVL31:
 333:../Peripheral/src/ch32v30x_adc.c ****     {
 334:../Peripheral/src/ch32v30x_adc.c ****         bitstatus = SET;
 335:../Peripheral/src/ch32v30x_adc.c ****     }
 336:../Peripheral/src/ch32v30x_adc.c ****     else
 337:../Peripheral/src/ch32v30x_adc.c ****     {
 338:../Peripheral/src/ch32v30x_adc.c ****         bitstatus = RESET;
 339:../Peripheral/src/ch32v30x_adc.c ****     }
 340:../Peripheral/src/ch32v30x_adc.c **** 
 341:../Peripheral/src/ch32v30x_adc.c ****     return bitstatus;
 379              		.loc 1 341 5 is_stmt 1
 332:../Peripheral/src/ch32v30x_adc.c ****     {
 380              		.loc 1 332 7 is_stmt 0
 381 0002 0981     		srli	a0,a0,2
 382              	.LVL32:
 342:../Peripheral/src/ch32v30x_adc.c **** }
 383              		.loc 1 342 1
 384 0004 0589     		andi	a0,a0,1
 385 0006 8280     		ret
 386              		.cfi_endproc
 387              	.LFE38:
 389              		.section	.text.ADC_SoftwareStartConvCmd,"ax",@progbits
 390              		.align	1
 391              		.globl	ADC_SoftwareStartConvCmd
 393              	ADC_SoftwareStartConvCmd:
 394              	.LFB39:
 343:../Peripheral/src/ch32v30x_adc.c **** 
 344:../Peripheral/src/ch32v30x_adc.c **** /*********************************************************************
 345:../Peripheral/src/ch32v30x_adc.c ****  * @fn      ADC_SoftwareStartConvCmd
 346:../Peripheral/src/ch32v30x_adc.c ****  *
 347:../Peripheral/src/ch32v30x_adc.c ****  * @brief   Enables or disables the selected ADC software start conversion.
 348:../Peripheral/src/ch32v30x_adc.c ****  *
 349:../Peripheral/src/ch32v30x_adc.c ****  * @param   ADCx - where x can be 1 or 2 to select the ADC peripheral.
 350:../Peripheral/src/ch32v30x_adc.c ****  *          NewState - ENABLE or DISABLE.
 351:../Peripheral/src/ch32v30x_adc.c ****  *
 352:../Peripheral/src/ch32v30x_adc.c ****  * @return  None
 353:../Peripheral/src/ch32v30x_adc.c ****  */
 354:../Peripheral/src/ch32v30x_adc.c **** void ADC_SoftwareStartConvCmd(ADC_TypeDef *ADCx, FunctionalState NewState)
 355:../Peripheral/src/ch32v30x_adc.c **** {
 395              		.loc 1 355 1 is_stmt 1
 396              		.cfi_startproc
 397              	.LVL33:
 356:../Peripheral/src/ch32v30x_adc.c ****     if(NewState != DISABLE)
 398              		.loc 1 356 5
 357:../Peripheral/src/ch32v30x_adc.c ****     {
 358:../Peripheral/src/ch32v30x_adc.c ****         ADCx->CTLR2 |= CTLR2_EXTTRIG_SWSTART_Set;
 399              		.loc 1 358 13 is_stmt 0
 400 0000 1C45     		lw	a5,8(a0)
 356:../Peripheral/src/ch32v30x_adc.c ****     if(NewState != DISABLE)
 401              		.loc 1 356 7
 402 0002 91C5     		beq	a1,zero,.L24
 403              		.loc 1 358 9 is_stmt 1
 404              		.loc 1 358 21 is_stmt 0
 405 0004 37075000 		li	a4,5242880
 406 0008 D98F     		or	a5,a5,a4
 407              	.L26:
 359:../Peripheral/src/ch32v30x_adc.c ****     }
 360:../Peripheral/src/ch32v30x_adc.c ****     else
 361:../Peripheral/src/ch32v30x_adc.c ****     {
 362:../Peripheral/src/ch32v30x_adc.c ****         ADCx->CTLR2 &= CTLR2_EXTTRIG_SWSTART_Reset;
 408              		.loc 1 362 21
 409 000a 1CC5     		sw	a5,8(a0)
 363:../Peripheral/src/ch32v30x_adc.c ****     }
 364:../Peripheral/src/ch32v30x_adc.c **** }
 410              		.loc 1 364 1
 411 000c 8280     		ret
 412              	.L24:
 362:../Peripheral/src/ch32v30x_adc.c ****     }
 413              		.loc 1 362 9 is_stmt 1
 362:../Peripheral/src/ch32v30x_adc.c ****     }
 414              		.loc 1 362 21 is_stmt 0
 415 000e 3707B0FF 		li	a4,-5242880
 416 0012 7D17     		addi	a4,a4,-1
 417 0014 F98F     		and	a5,a5,a4
 418 0016 D5BF     		j	.L26
 419              		.cfi_endproc
 420              	.LFE39:
 422              		.section	.text.ADC_GetSoftwareStartConvStatus,"ax",@progbits
 423              		.align	1
 424              		.globl	ADC_GetSoftwareStartConvStatus
 426              	ADC_GetSoftwareStartConvStatus:
 427              	.LFB40:
 365:../Peripheral/src/ch32v30x_adc.c **** 
 366:../Peripheral/src/ch32v30x_adc.c **** /*********************************************************************
 367:../Peripheral/src/ch32v30x_adc.c ****  * @fn      ADC_GetSoftwareStartConvStatus
 368:../Peripheral/src/ch32v30x_adc.c ****  *
 369:../Peripheral/src/ch32v30x_adc.c ****  * @brief   Gets the selected ADC Software start conversion Status.
 370:../Peripheral/src/ch32v30x_adc.c ****  *
 371:../Peripheral/src/ch32v30x_adc.c ****  * @param   ADCx - where x can be 1 or 2 to select the ADC peripheral.
 372:../Peripheral/src/ch32v30x_adc.c ****  *
 373:../Peripheral/src/ch32v30x_adc.c ****  * @return  FlagStatus - SET or RESET.
 374:../Peripheral/src/ch32v30x_adc.c ****  */
 375:../Peripheral/src/ch32v30x_adc.c **** FlagStatus ADC_GetSoftwareStartConvStatus(ADC_TypeDef *ADCx)
 376:../Peripheral/src/ch32v30x_adc.c **** {
 428              		.loc 1 376 1 is_stmt 1
 429              		.cfi_startproc
 430              	.LVL34:
 377:../Peripheral/src/ch32v30x_adc.c ****     FlagStatus bitstatus = RESET;
 431              		.loc 1 377 5
 378:../Peripheral/src/ch32v30x_adc.c **** 
 379:../Peripheral/src/ch32v30x_adc.c ****     if((ADCx->CTLR2 & CTLR2_SWSTART_Set) != (uint32_t)RESET)
 432              		.loc 1 379 5
 433              		.loc 1 379 13 is_stmt 0
 434 0000 0845     		lw	a0,8(a0)
 435              	.LVL35:
 380:../Peripheral/src/ch32v30x_adc.c ****     {
 381:../Peripheral/src/ch32v30x_adc.c ****         bitstatus = SET;
 382:../Peripheral/src/ch32v30x_adc.c ****     }
 383:../Peripheral/src/ch32v30x_adc.c ****     else
 384:../Peripheral/src/ch32v30x_adc.c ****     {
 385:../Peripheral/src/ch32v30x_adc.c ****         bitstatus = RESET;
 386:../Peripheral/src/ch32v30x_adc.c ****     }
 387:../Peripheral/src/ch32v30x_adc.c **** 
 388:../Peripheral/src/ch32v30x_adc.c ****     return bitstatus;
 436              		.loc 1 388 5 is_stmt 1
 379:../Peripheral/src/ch32v30x_adc.c ****     {
 437              		.loc 1 379 7 is_stmt 0
 438 0002 5981     		srli	a0,a0,22
 439              	.LVL36:
 389:../Peripheral/src/ch32v30x_adc.c **** }
 440              		.loc 1 389 1
 441 0004 0589     		andi	a0,a0,1
 442 0006 8280     		ret
 443              		.cfi_endproc
 444              	.LFE40:
 446              		.section	.text.ADC_DiscModeChannelCountConfig,"ax",@progbits
 447              		.align	1
 448              		.globl	ADC_DiscModeChannelCountConfig
 450              	ADC_DiscModeChannelCountConfig:
 451              	.LFB41:
 390:../Peripheral/src/ch32v30x_adc.c **** 
 391:../Peripheral/src/ch32v30x_adc.c **** /*********************************************************************
 392:../Peripheral/src/ch32v30x_adc.c ****  * @fn      ADC_DiscModeChannelCountConfig
 393:../Peripheral/src/ch32v30x_adc.c ****  *
 394:../Peripheral/src/ch32v30x_adc.c ****  * @brief   Configures the discontinuous mode for the selected ADC regular
 395:../Peripheral/src/ch32v30x_adc.c ****  *        group channel.
 396:../Peripheral/src/ch32v30x_adc.c ****  *
 397:../Peripheral/src/ch32v30x_adc.c ****  * @param   ADCx - where x can be 1 or 2 to select the ADC peripheral.
 398:../Peripheral/src/ch32v30x_adc.c ****  *          Number - specifies the discontinuous mode regular channel
 399:../Peripheral/src/ch32v30x_adc.c ****  *            count value(1-8).
 400:../Peripheral/src/ch32v30x_adc.c ****  *
 401:../Peripheral/src/ch32v30x_adc.c ****  * @return  None
 402:../Peripheral/src/ch32v30x_adc.c ****  */
 403:../Peripheral/src/ch32v30x_adc.c **** void ADC_DiscModeChannelCountConfig(ADC_TypeDef *ADCx, uint8_t Number)
 404:../Peripheral/src/ch32v30x_adc.c **** {
 452              		.loc 1 404 1 is_stmt 1
 453              		.cfi_startproc
 454              	.LVL37:
 405:../Peripheral/src/ch32v30x_adc.c ****     uint32_t tmpreg1 = 0;
 455              		.loc 1 405 5
 406:../Peripheral/src/ch32v30x_adc.c ****     uint32_t tmpreg2 = 0;
 456              		.loc 1 406 5
 407:../Peripheral/src/ch32v30x_adc.c **** 
 408:../Peripheral/src/ch32v30x_adc.c ****     tmpreg1 = ADCx->CTLR1;
 457              		.loc 1 408 5
 458              		.loc 1 408 13 is_stmt 0
 459 0000 5C41     		lw	a5,4(a0)
 460              	.LVL38:
 409:../Peripheral/src/ch32v30x_adc.c ****     tmpreg1 &= CTLR1_DISCNUM_Reset;
 461              		.loc 1 409 5 is_stmt 1
 462              		.loc 1 409 13 is_stmt 0
 463 0002 4977     		li	a4,-57344
 464 0004 7D17     		addi	a4,a4,-1
 410:../Peripheral/src/ch32v30x_adc.c ****     tmpreg2 = Number - 1;
 465              		.loc 1 410 22
 466 0006 FD15     		addi	a1,a1,-1
 467              	.LVL39:
 409:../Peripheral/src/ch32v30x_adc.c ****     tmpreg1 &= CTLR1_DISCNUM_Reset;
 468              		.loc 1 409 13
 469 0008 F98F     		and	a5,a5,a4
 470              	.LVL40:
 471              		.loc 1 410 5 is_stmt 1
 411:../Peripheral/src/ch32v30x_adc.c ****     tmpreg1 |= tmpreg2 << 13;
 472              		.loc 1 411 5
 473              		.loc 1 411 24 is_stmt 0
 474 000a B605     		slli	a1,a1,13
 475              		.loc 1 411 13
 476 000c DD8D     		or	a1,a1,a5
 477              	.LVL41:
 412:../Peripheral/src/ch32v30x_adc.c ****     ADCx->CTLR1 = tmpreg1;
 478              		.loc 1 412 5 is_stmt 1
 479              		.loc 1 412 17 is_stmt 0
 480 000e 4CC1     		sw	a1,4(a0)
 413:../Peripheral/src/ch32v30x_adc.c **** }
 481              		.loc 1 413 1
 482 0010 8280     		ret
 483              		.cfi_endproc
 484              	.LFE41:
 486              		.section	.text.ADC_DiscModeCmd,"ax",@progbits
 487              		.align	1
 488              		.globl	ADC_DiscModeCmd
 490              	ADC_DiscModeCmd:
 491              	.LFB42:
 414:../Peripheral/src/ch32v30x_adc.c **** 
 415:../Peripheral/src/ch32v30x_adc.c **** /*********************************************************************
 416:../Peripheral/src/ch32v30x_adc.c ****  * @fn      ADC_DiscModeCmd
 417:../Peripheral/src/ch32v30x_adc.c ****  *
 418:../Peripheral/src/ch32v30x_adc.c ****  * @brief   Enables or disables the discontinuous mode on regular group
 419:../Peripheral/src/ch32v30x_adc.c ****  *        channel for the specified ADC.
 420:../Peripheral/src/ch32v30x_adc.c ****  *
 421:../Peripheral/src/ch32v30x_adc.c ****  * @param   ADCx - where x can be 1 or 2 to select the ADC peripheral.
 422:../Peripheral/src/ch32v30x_adc.c ****  *          NewState - ENABLE or DISABLE.
 423:../Peripheral/src/ch32v30x_adc.c ****  *
 424:../Peripheral/src/ch32v30x_adc.c ****  * @return  None
 425:../Peripheral/src/ch32v30x_adc.c ****  */
 426:../Peripheral/src/ch32v30x_adc.c **** void ADC_DiscModeCmd(ADC_TypeDef *ADCx, FunctionalState NewState)
 427:../Peripheral/src/ch32v30x_adc.c **** {
 492              		.loc 1 427 1 is_stmt 1
 493              		.cfi_startproc
 494              	.LVL42:
 428:../Peripheral/src/ch32v30x_adc.c ****     if(NewState != DISABLE)
 495              		.loc 1 428 5
 429:../Peripheral/src/ch32v30x_adc.c ****     {
 430:../Peripheral/src/ch32v30x_adc.c ****         ADCx->CTLR1 |= CTLR1_DISCEN_Set;
 496              		.loc 1 430 13 is_stmt 0
 497 0000 5C41     		lw	a5,4(a0)
 428:../Peripheral/src/ch32v30x_adc.c ****     if(NewState != DISABLE)
 498              		.loc 1 428 7
 499 0002 99C5     		beq	a1,zero,.L30
 500              		.loc 1 430 9 is_stmt 1
 501              		.loc 1 430 21 is_stmt 0
 502 0004 0567     		li	a4,4096
 503 0006 13070780 		addi	a4,a4,-2048
 504 000a D98F     		or	a5,a5,a4
 505              	.L32:
 431:../Peripheral/src/ch32v30x_adc.c ****     }
 432:../Peripheral/src/ch32v30x_adc.c ****     else
 433:../Peripheral/src/ch32v30x_adc.c ****     {
 434:../Peripheral/src/ch32v30x_adc.c ****         ADCx->CTLR1 &= CTLR1_DISCEN_Reset;
 506              		.loc 1 434 21
 507 000c 5CC1     		sw	a5,4(a0)
 435:../Peripheral/src/ch32v30x_adc.c ****     }
 436:../Peripheral/src/ch32v30x_adc.c **** }
 508              		.loc 1 436 1
 509 000e 8280     		ret
 510              	.L30:
 434:../Peripheral/src/ch32v30x_adc.c ****     }
 511              		.loc 1 434 9 is_stmt 1
 434:../Peripheral/src/ch32v30x_adc.c ****     }
 512              		.loc 1 434 21 is_stmt 0
 513 0010 7D77     		li	a4,-4096
 514 0012 1307F77F 		addi	a4,a4,2047
 515 0016 F98F     		and	a5,a5,a4
 516 0018 D5BF     		j	.L32
 517              		.cfi_endproc
 518              	.LFE42:
 520              		.section	.text.ADC_RegularChannelConfig,"ax",@progbits
 521              		.align	1
 522              		.globl	ADC_RegularChannelConfig
 524              	ADC_RegularChannelConfig:
 525              	.LFB43:
 437:../Peripheral/src/ch32v30x_adc.c **** 
 438:../Peripheral/src/ch32v30x_adc.c **** /*********************************************************************
 439:../Peripheral/src/ch32v30x_adc.c ****  * @fn      ADC_RegularChannelConfig
 440:../Peripheral/src/ch32v30x_adc.c ****  *
 441:../Peripheral/src/ch32v30x_adc.c ****  * @brief   Configures for the selected ADC regular channel its corresponding
 442:../Peripheral/src/ch32v30x_adc.c ****  *        rank in the sequencer and its sample time.
 443:../Peripheral/src/ch32v30x_adc.c ****  *
 444:../Peripheral/src/ch32v30x_adc.c ****  * @param   ADCx - where x can be 1 or 2 to select the ADC peripheral.
 445:../Peripheral/src/ch32v30x_adc.c ****  *          ADC_Channel - the ADC channel to configure.
 446:../Peripheral/src/ch32v30x_adc.c ****  *            ADC_Channel_0 - ADC Channel0 selected.
 447:../Peripheral/src/ch32v30x_adc.c ****  *            ADC_Channel_1 - ADC Channel1 selected.
 448:../Peripheral/src/ch32v30x_adc.c ****  *            ADC_Channel_2 - ADC Channel2 selected.
 449:../Peripheral/src/ch32v30x_adc.c ****  *            ADC_Channel_3 - ADC Channel3 selected.
 450:../Peripheral/src/ch32v30x_adc.c ****  *            ADC_Channel_4 - ADC Channel4 selected.
 451:../Peripheral/src/ch32v30x_adc.c ****  *            ADC_Channel_5 - ADC Channel5 selected.
 452:../Peripheral/src/ch32v30x_adc.c ****  *            ADC_Channel_6 - ADC Channel6 selected.
 453:../Peripheral/src/ch32v30x_adc.c ****  *            ADC_Channel_7 - ADC Channel7 selected.
 454:../Peripheral/src/ch32v30x_adc.c ****  *            ADC_Channel_8 - ADC Channel8 selected.
 455:../Peripheral/src/ch32v30x_adc.c ****  *            ADC_Channel_9 - ADC Channel9 selected.
 456:../Peripheral/src/ch32v30x_adc.c ****  *            ADC_Channel_10 - ADC Channel10 selected.
 457:../Peripheral/src/ch32v30x_adc.c ****  *            ADC_Channel_11 - ADC Channel11 selected.
 458:../Peripheral/src/ch32v30x_adc.c ****  *            ADC_Channel_12 - ADC Channel12 selected.
 459:../Peripheral/src/ch32v30x_adc.c ****  *            ADC_Channel_13 - ADC Channel13 selected.
 460:../Peripheral/src/ch32v30x_adc.c ****  *            ADC_Channel_14 - ADC Channel14 selected.
 461:../Peripheral/src/ch32v30x_adc.c ****  *            ADC_Channel_15 - ADC Channel15 selected.
 462:../Peripheral/src/ch32v30x_adc.c ****  *            ADC_Channel_16 - ADC Channel16 selected.
 463:../Peripheral/src/ch32v30x_adc.c ****  *            ADC_Channel_17 - ADC Channel17 selected.
 464:../Peripheral/src/ch32v30x_adc.c ****  *          Rank - The rank in the regular group sequencer.
 465:../Peripheral/src/ch32v30x_adc.c ****  *            This parameter must be between 1 to 16.
 466:../Peripheral/src/ch32v30x_adc.c ****  *          ADC_SampleTime - The sample time value to be set for the selected channel.
 467:../Peripheral/src/ch32v30x_adc.c ****  *            ADC_SampleTime_1Cycles5 - Sample time equal to 1.5 cycles.
 468:../Peripheral/src/ch32v30x_adc.c ****  *            ADC_SampleTime_7Cycles5 - Sample time equal to 7.5 cycles.
 469:../Peripheral/src/ch32v30x_adc.c ****  *            ADC_SampleTime_13Cycles5 - Sample time equal to 13.5 cycles.
 470:../Peripheral/src/ch32v30x_adc.c ****  *            ADC_SampleTime_28Cycles5 - Sample time equal to 28.5 cycles.
 471:../Peripheral/src/ch32v30x_adc.c ****  *            ADC_SampleTime_41Cycles5 - Sample time equal to 41.5 cycles.
 472:../Peripheral/src/ch32v30x_adc.c ****  *            ADC_SampleTime_55Cycles5 - Sample time equal to 55.5 cycles.
 473:../Peripheral/src/ch32v30x_adc.c ****  *            ADC_SampleTime_71Cycles5 - Sample time equal to 71.5 cycles.
 474:../Peripheral/src/ch32v30x_adc.c ****  *            ADC_SampleTime_239Cycles5 - Sample time equal to 239.5 cycles.
 475:../Peripheral/src/ch32v30x_adc.c ****  *
 476:../Peripheral/src/ch32v30x_adc.c ****  * @return  None
 477:../Peripheral/src/ch32v30x_adc.c ****  */
 478:../Peripheral/src/ch32v30x_adc.c **** void ADC_RegularChannelConfig(ADC_TypeDef *ADCx, uint8_t ADC_Channel, uint8_t Rank, uint8_t ADC_Sam
 479:../Peripheral/src/ch32v30x_adc.c **** {
 526              		.loc 1 479 1 is_stmt 1
 527              		.cfi_startproc
 528              	.LVL43:
 480:../Peripheral/src/ch32v30x_adc.c ****     uint32_t tmpreg1 = 0, tmpreg2 = 0;
 529              		.loc 1 480 5
 481:../Peripheral/src/ch32v30x_adc.c **** 
 482:../Peripheral/src/ch32v30x_adc.c ****     if(ADC_Channel > ADC_Channel_9)
 530              		.loc 1 482 5
 531              		.loc 1 482 7 is_stmt 0
 532 0000 A547     		li	a5,9
 533 0002 63F7B704 		bleu	a1,a5,.L34
 483:../Peripheral/src/ch32v30x_adc.c ****     {
 484:../Peripheral/src/ch32v30x_adc.c ****         tmpreg1 = ADCx->SAMPTR1;
 534              		.loc 1 484 9 is_stmt 1
 485:../Peripheral/src/ch32v30x_adc.c ****         tmpreg2 = SAMPTR1_SMP_Set << (3 * (ADC_Channel - 10));
 535              		.loc 1 485 41 is_stmt 0
 536 0006 8D47     		li	a5,3
 537              		.loc 1 485 56
 538 0008 138765FF 		addi	a4,a1,-10
 539              		.loc 1 485 41
 540 000c 3307F702 		mul	a4,a4,a5
 484:../Peripheral/src/ch32v30x_adc.c ****         tmpreg2 = SAMPTR1_SMP_Set << (3 * (ADC_Channel - 10));
 541              		.loc 1 484 17
 542 0010 0328C500 		lw	a6,12(a0)
 543              	.LVL44:
 544              		.loc 1 485 9 is_stmt 1
 486:../Peripheral/src/ch32v30x_adc.c ****         tmpreg1 &= ~tmpreg2;
 545              		.loc 1 486 9
 485:../Peripheral/src/ch32v30x_adc.c ****         tmpreg2 = SAMPTR1_SMP_Set << (3 * (ADC_Channel - 10));
 546              		.loc 1 485 17 is_stmt 0
 547 0014 9D47     		li	a5,7
 548 0016 B397E700 		sll	a5,a5,a4
 549              		.loc 1 486 20
 550 001a 93C7F7FF 		not	a5,a5
 551              		.loc 1 486 17
 552 001e B3F70701 		and	a5,a5,a6
 553              	.LVL45:
 487:../Peripheral/src/ch32v30x_adc.c ****         tmpreg2 = (uint32_t)ADC_SampleTime << (3 * (ADC_Channel - 10));
 554              		.loc 1 487 9 is_stmt 1
 488:../Peripheral/src/ch32v30x_adc.c ****         tmpreg1 |= tmpreg2;
 555              		.loc 1 488 9
 487:../Peripheral/src/ch32v30x_adc.c ****         tmpreg2 = (uint32_t)ADC_SampleTime << (3 * (ADC_Channel - 10));
 556              		.loc 1 487 17 is_stmt 0
 557 0022 B396E600 		sll	a3,a3,a4
 558              	.LVL46:
 559              		.loc 1 488 17
 560 0026 DD8E     		or	a3,a3,a5
 561              	.LVL47:
 489:../Peripheral/src/ch32v30x_adc.c ****         ADCx->SAMPTR1 = tmpreg1;
 562              		.loc 1 489 9 is_stmt 1
 563              		.loc 1 489 23 is_stmt 0
 564 0028 54C5     		sw	a3,12(a0)
 565              	.LVL48:
 566              	.L35:
 490:../Peripheral/src/ch32v30x_adc.c ****     }
 491:../Peripheral/src/ch32v30x_adc.c ****     else
 492:../Peripheral/src/ch32v30x_adc.c ****     {
 493:../Peripheral/src/ch32v30x_adc.c ****         tmpreg1 = ADCx->SAMPTR2;
 494:../Peripheral/src/ch32v30x_adc.c ****         tmpreg2 = SAMPTR2_SMP_Set << (3 * ADC_Channel);
 495:../Peripheral/src/ch32v30x_adc.c ****         tmpreg1 &= ~tmpreg2;
 496:../Peripheral/src/ch32v30x_adc.c ****         tmpreg2 = (uint32_t)ADC_SampleTime << (3 * ADC_Channel);
 497:../Peripheral/src/ch32v30x_adc.c ****         tmpreg1 |= tmpreg2;
 498:../Peripheral/src/ch32v30x_adc.c ****         ADCx->SAMPTR2 = tmpreg1;
 499:../Peripheral/src/ch32v30x_adc.c ****     }
 500:../Peripheral/src/ch32v30x_adc.c **** 
 501:../Peripheral/src/ch32v30x_adc.c ****     if(Rank < 7)
 567              		.loc 1 501 5 is_stmt 1
 568              		.loc 1 501 7 is_stmt 0
 569 002a 9947     		li	a5,6
 570 002c 63E3C704 		bgtu	a2,a5,.L36
 502:../Peripheral/src/ch32v30x_adc.c ****     {
 503:../Peripheral/src/ch32v30x_adc.c ****         tmpreg1 = ADCx->RSQR3;
 571              		.loc 1 503 9 is_stmt 1
 504:../Peripheral/src/ch32v30x_adc.c ****         tmpreg2 = RSQR3_SQ_Set << (5 * (Rank - 1));
 572              		.loc 1 504 38 is_stmt 0
 573 0030 9547     		li	a5,5
 574              		.loc 1 504 46
 575 0032 7D16     		addi	a2,a2,-1
 576              	.LVL49:
 577              		.loc 1 504 38
 578 0034 3306F602 		mul	a2,a2,a5
 503:../Peripheral/src/ch32v30x_adc.c ****         tmpreg2 = RSQR3_SQ_Set << (5 * (Rank - 1));
 579              		.loc 1 503 17
 580 0038 5859     		lw	a4,52(a0)
 581              	.LVL50:
 582              		.loc 1 504 9 is_stmt 1
 505:../Peripheral/src/ch32v30x_adc.c ****         tmpreg1 &= ~tmpreg2;
 583              		.loc 1 505 9
 504:../Peripheral/src/ch32v30x_adc.c ****         tmpreg2 = RSQR3_SQ_Set << (5 * (Rank - 1));
 584              		.loc 1 504 17 is_stmt 0
 585 003a FD47     		li	a5,31
 586 003c B397C700 		sll	a5,a5,a2
 587              		.loc 1 505 20
 588 0040 93C7F7FF 		not	a5,a5
 589              		.loc 1 505 17
 590 0044 F98F     		and	a5,a5,a4
 591              	.LVL51:
 506:../Peripheral/src/ch32v30x_adc.c ****         tmpreg2 = (uint32_t)ADC_Channel << (5 * (Rank - 1));
 592              		.loc 1 506 9 is_stmt 1
 507:../Peripheral/src/ch32v30x_adc.c ****         tmpreg1 |= tmpreg2;
 593              		.loc 1 507 9
 506:../Peripheral/src/ch32v30x_adc.c ****         tmpreg2 = (uint32_t)ADC_Channel << (5 * (Rank - 1));
 594              		.loc 1 506 17 is_stmt 0
 595 0046 3396C500 		sll	a2,a1,a2
 596              	.LVL52:
 597              		.loc 1 507 17
 598 004a 5D8E     		or	a2,a2,a5
 599              	.LVL53:
 508:../Peripheral/src/ch32v30x_adc.c ****         ADCx->RSQR3 = tmpreg1;
 600              		.loc 1 508 9 is_stmt 1
 601              		.loc 1 508 21 is_stmt 0
 602 004c 50D9     		sw	a2,52(a0)
 603 004e 8280     		ret
 604              	.LVL54:
 605              	.L34:
 493:../Peripheral/src/ch32v30x_adc.c ****         tmpreg2 = SAMPTR2_SMP_Set << (3 * ADC_Channel);
 606              		.loc 1 493 9 is_stmt 1
 494:../Peripheral/src/ch32v30x_adc.c ****         tmpreg1 &= ~tmpreg2;
 607              		.loc 1 494 41 is_stmt 0
 608 0050 0D47     		li	a4,3
 609 0052 3387E502 		mul	a4,a1,a4
 493:../Peripheral/src/ch32v30x_adc.c ****         tmpreg2 = SAMPTR2_SMP_Set << (3 * ADC_Channel);
 610              		.loc 1 493 17
 611 0056 03280501 		lw	a6,16(a0)
 612              	.LVL55:
 494:../Peripheral/src/ch32v30x_adc.c ****         tmpreg1 &= ~tmpreg2;
 613              		.loc 1 494 9 is_stmt 1
 495:../Peripheral/src/ch32v30x_adc.c ****         tmpreg2 = (uint32_t)ADC_SampleTime << (3 * ADC_Channel);
 614              		.loc 1 495 9
 494:../Peripheral/src/ch32v30x_adc.c ****         tmpreg1 &= ~tmpreg2;
 615              		.loc 1 494 17 is_stmt 0
 616 005a 9D47     		li	a5,7
 617 005c B397E700 		sll	a5,a5,a4
 495:../Peripheral/src/ch32v30x_adc.c ****         tmpreg2 = (uint32_t)ADC_SampleTime << (3 * ADC_Channel);
 618              		.loc 1 495 20
 619 0060 93C7F7FF 		not	a5,a5
 495:../Peripheral/src/ch32v30x_adc.c ****         tmpreg2 = (uint32_t)ADC_SampleTime << (3 * ADC_Channel);
 620              		.loc 1 495 17
 621 0064 B3F70701 		and	a5,a5,a6
 622              	.LVL56:
 496:../Peripheral/src/ch32v30x_adc.c ****         tmpreg1 |= tmpreg2;
 623              		.loc 1 496 9 is_stmt 1
 497:../Peripheral/src/ch32v30x_adc.c ****         ADCx->SAMPTR2 = tmpreg1;
 624              		.loc 1 497 9
 496:../Peripheral/src/ch32v30x_adc.c ****         tmpreg1 |= tmpreg2;
 625              		.loc 1 496 17 is_stmt 0
 626 0068 B396E600 		sll	a3,a3,a4
 627              	.LVL57:
 497:../Peripheral/src/ch32v30x_adc.c ****         ADCx->SAMPTR2 = tmpreg1;
 628              		.loc 1 497 17
 629 006c DD8E     		or	a3,a3,a5
 630              	.LVL58:
 498:../Peripheral/src/ch32v30x_adc.c ****     }
 631              		.loc 1 498 9 is_stmt 1
 498:../Peripheral/src/ch32v30x_adc.c ****     }
 632              		.loc 1 498 23 is_stmt 0
 633 006e 14C9     		sw	a3,16(a0)
 634 0070 6DBF     		j	.L35
 635              	.LVL59:
 636              	.L36:
 509:../Peripheral/src/ch32v30x_adc.c ****     }
 510:../Peripheral/src/ch32v30x_adc.c ****     else if(Rank < 13)
 637              		.loc 1 510 10 is_stmt 1
 638              		.loc 1 510 12 is_stmt 0
 639 0072 B147     		li	a5,12
 640 0074 63E2C702 		bgtu	a2,a5,.L38
 511:../Peripheral/src/ch32v30x_adc.c ****     {
 512:../Peripheral/src/ch32v30x_adc.c ****         tmpreg1 = ADCx->RSQR2;
 641              		.loc 1 512 9 is_stmt 1
 513:../Peripheral/src/ch32v30x_adc.c ****         tmpreg2 = RSQR2_SQ_Set << (5 * (Rank - 7));
 642              		.loc 1 513 38 is_stmt 0
 643 0078 9547     		li	a5,5
 644              		.loc 1 513 46
 645 007a 6516     		addi	a2,a2,-7
 646              	.LVL60:
 647              		.loc 1 513 38
 648 007c 3306F602 		mul	a2,a2,a5
 512:../Peripheral/src/ch32v30x_adc.c ****         tmpreg2 = RSQR2_SQ_Set << (5 * (Rank - 7));
 649              		.loc 1 512 17
 650 0080 1859     		lw	a4,48(a0)
 651              	.LVL61:
 652              		.loc 1 513 9 is_stmt 1
 514:../Peripheral/src/ch32v30x_adc.c ****         tmpreg1 &= ~tmpreg2;
 653              		.loc 1 514 9
 513:../Peripheral/src/ch32v30x_adc.c ****         tmpreg2 = RSQR2_SQ_Set << (5 * (Rank - 7));
 654              		.loc 1 513 17 is_stmt 0
 655 0082 FD47     		li	a5,31
 656 0084 B397C700 		sll	a5,a5,a2
 657              		.loc 1 514 20
 658 0088 93C7F7FF 		not	a5,a5
 659              		.loc 1 514 17
 660 008c F98F     		and	a5,a5,a4
 661              	.LVL62:
 515:../Peripheral/src/ch32v30x_adc.c ****         tmpreg2 = (uint32_t)ADC_Channel << (5 * (Rank - 7));
 662              		.loc 1 515 9 is_stmt 1
 516:../Peripheral/src/ch32v30x_adc.c ****         tmpreg1 |= tmpreg2;
 663              		.loc 1 516 9
 515:../Peripheral/src/ch32v30x_adc.c ****         tmpreg2 = (uint32_t)ADC_Channel << (5 * (Rank - 7));
 664              		.loc 1 515 17 is_stmt 0
 665 008e 3396C500 		sll	a2,a1,a2
 666              	.LVL63:
 667              		.loc 1 516 17
 668 0092 5D8E     		or	a2,a2,a5
 669              	.LVL64:
 517:../Peripheral/src/ch32v30x_adc.c ****         ADCx->RSQR2 = tmpreg1;
 670              		.loc 1 517 9 is_stmt 1
 671              		.loc 1 517 21 is_stmt 0
 672 0094 10D9     		sw	a2,48(a0)
 673 0096 8280     		ret
 674              	.LVL65:
 675              	.L38:
 518:../Peripheral/src/ch32v30x_adc.c ****     }
 519:../Peripheral/src/ch32v30x_adc.c ****     else
 520:../Peripheral/src/ch32v30x_adc.c ****     {
 521:../Peripheral/src/ch32v30x_adc.c ****         tmpreg1 = ADCx->RSQR1;
 676              		.loc 1 521 9 is_stmt 1
 522:../Peripheral/src/ch32v30x_adc.c ****         tmpreg2 = RSQR1_SQ_Set << (5 * (Rank - 13));
 677              		.loc 1 522 38 is_stmt 0
 678 0098 9547     		li	a5,5
 679              		.loc 1 522 46
 680 009a 4D16     		addi	a2,a2,-13
 681              	.LVL66:
 682              		.loc 1 522 38
 683 009c 3306F602 		mul	a2,a2,a5
 521:../Peripheral/src/ch32v30x_adc.c ****         tmpreg2 = RSQR1_SQ_Set << (5 * (Rank - 13));
 684              		.loc 1 521 17
 685 00a0 5855     		lw	a4,44(a0)
 686              	.LVL67:
 687              		.loc 1 522 9 is_stmt 1
 523:../Peripheral/src/ch32v30x_adc.c ****         tmpreg1 &= ~tmpreg2;
 688              		.loc 1 523 9
 522:../Peripheral/src/ch32v30x_adc.c ****         tmpreg2 = RSQR1_SQ_Set << (5 * (Rank - 13));
 689              		.loc 1 522 17 is_stmt 0
 690 00a2 FD47     		li	a5,31
 691 00a4 B397C700 		sll	a5,a5,a2
 692              		.loc 1 523 20
 693 00a8 93C7F7FF 		not	a5,a5
 694              		.loc 1 523 17
 695 00ac F98F     		and	a5,a5,a4
 696              	.LVL68:
 524:../Peripheral/src/ch32v30x_adc.c ****         tmpreg2 = (uint32_t)ADC_Channel << (5 * (Rank - 13));
 697              		.loc 1 524 9 is_stmt 1
 525:../Peripheral/src/ch32v30x_adc.c ****         tmpreg1 |= tmpreg2;
 698              		.loc 1 525 9
 524:../Peripheral/src/ch32v30x_adc.c ****         tmpreg2 = (uint32_t)ADC_Channel << (5 * (Rank - 13));
 699              		.loc 1 524 17 is_stmt 0
 700 00ae B395C500 		sll	a1,a1,a2
 701              	.LVL69:
 702              		.loc 1 525 17
 703 00b2 DD8D     		or	a1,a1,a5
 704              	.LVL70:
 526:../Peripheral/src/ch32v30x_adc.c ****         ADCx->RSQR1 = tmpreg1;
 705              		.loc 1 526 9 is_stmt 1
 706              		.loc 1 526 21 is_stmt 0
 707 00b4 4CD5     		sw	a1,44(a0)
 527:../Peripheral/src/ch32v30x_adc.c ****     }
 528:../Peripheral/src/ch32v30x_adc.c **** }
 708              		.loc 1 528 1
 709 00b6 8280     		ret
 710              		.cfi_endproc
 711              	.LFE43:
 713              		.section	.text.ADC_ExternalTrigConvCmd,"ax",@progbits
 714              		.align	1
 715              		.globl	ADC_ExternalTrigConvCmd
 717              	ADC_ExternalTrigConvCmd:
 718              	.LFB44:
 529:../Peripheral/src/ch32v30x_adc.c **** 
 530:../Peripheral/src/ch32v30x_adc.c **** /*********************************************************************
 531:../Peripheral/src/ch32v30x_adc.c ****  * @fn      ADC_ExternalTrigConvCmd
 532:../Peripheral/src/ch32v30x_adc.c ****  *
 533:../Peripheral/src/ch32v30x_adc.c ****  * @brief   Enables or disables the ADCx conversion through external trigger.
 534:../Peripheral/src/ch32v30x_adc.c ****  *
 535:../Peripheral/src/ch32v30x_adc.c ****  * @param   ADCx - where x can be 1 or 2 to select the ADC peripheral.
 536:../Peripheral/src/ch32v30x_adc.c ****  *          NewState - ENABLE or DISABLE.
 537:../Peripheral/src/ch32v30x_adc.c ****  *
 538:../Peripheral/src/ch32v30x_adc.c ****  * @return  None
 539:../Peripheral/src/ch32v30x_adc.c ****  */
 540:../Peripheral/src/ch32v30x_adc.c **** void ADC_ExternalTrigConvCmd(ADC_TypeDef *ADCx, FunctionalState NewState)
 541:../Peripheral/src/ch32v30x_adc.c **** {
 719              		.loc 1 541 1 is_stmt 1
 720              		.cfi_startproc
 721              	.LVL71:
 542:../Peripheral/src/ch32v30x_adc.c ****     if(NewState != DISABLE)
 722              		.loc 1 542 5
 543:../Peripheral/src/ch32v30x_adc.c ****     {
 544:../Peripheral/src/ch32v30x_adc.c ****         ADCx->CTLR2 |= CTLR2_EXTTRIG_Set;
 723              		.loc 1 544 13 is_stmt 0
 724 0000 1C45     		lw	a5,8(a0)
 542:../Peripheral/src/ch32v30x_adc.c ****     if(NewState != DISABLE)
 725              		.loc 1 542 7
 726 0002 91C5     		beq	a1,zero,.L40
 727              		.loc 1 544 9 is_stmt 1
 728              		.loc 1 544 21 is_stmt 0
 729 0004 37071000 		li	a4,1048576
 730 0008 D98F     		or	a5,a5,a4
 731              	.L42:
 545:../Peripheral/src/ch32v30x_adc.c ****     }
 546:../Peripheral/src/ch32v30x_adc.c ****     else
 547:../Peripheral/src/ch32v30x_adc.c ****     {
 548:../Peripheral/src/ch32v30x_adc.c ****         ADCx->CTLR2 &= CTLR2_EXTTRIG_Reset;
 732              		.loc 1 548 21
 733 000a 1CC5     		sw	a5,8(a0)
 549:../Peripheral/src/ch32v30x_adc.c ****     }
 550:../Peripheral/src/ch32v30x_adc.c **** }
 734              		.loc 1 550 1
 735 000c 8280     		ret
 736              	.L40:
 548:../Peripheral/src/ch32v30x_adc.c ****     }
 737              		.loc 1 548 9 is_stmt 1
 548:../Peripheral/src/ch32v30x_adc.c ****     }
 738              		.loc 1 548 21 is_stmt 0
 739 000e 3707F0FF 		li	a4,-1048576
 740 0012 7D17     		addi	a4,a4,-1
 741 0014 F98F     		and	a5,a5,a4
 742 0016 D5BF     		j	.L42
 743              		.cfi_endproc
 744              	.LFE44:
 746              		.section	.text.ADC_GetConversionValue,"ax",@progbits
 747              		.align	1
 748              		.globl	ADC_GetConversionValue
 750              	ADC_GetConversionValue:
 751              	.LFB45:
 551:../Peripheral/src/ch32v30x_adc.c **** 
 552:../Peripheral/src/ch32v30x_adc.c **** /*********************************************************************
 553:../Peripheral/src/ch32v30x_adc.c ****  * @fn      ADC_GetConversionValue
 554:../Peripheral/src/ch32v30x_adc.c ****  *
 555:../Peripheral/src/ch32v30x_adc.c ****  * @brief   Returns the last ADCx conversion result data for regular channel.
 556:../Peripheral/src/ch32v30x_adc.c ****  *
 557:../Peripheral/src/ch32v30x_adc.c ****  * @param   ADCx - where x can be 1 or 2 to select the ADC peripheral.
 558:../Peripheral/src/ch32v30x_adc.c ****  *
 559:../Peripheral/src/ch32v30x_adc.c ****  * @return  ADCx->RDATAR - The Data conversion value.
 560:../Peripheral/src/ch32v30x_adc.c ****  */
 561:../Peripheral/src/ch32v30x_adc.c **** uint16_t ADC_GetConversionValue(ADC_TypeDef *ADCx)
 562:../Peripheral/src/ch32v30x_adc.c **** {
 752              		.loc 1 562 1 is_stmt 1
 753              		.cfi_startproc
 754              	.LVL72:
 563:../Peripheral/src/ch32v30x_adc.c ****     return (uint16_t)ADCx->RDATAR;
 755              		.loc 1 563 5
 756              		.loc 1 563 26 is_stmt 0
 757 0000 6845     		lw	a0,76(a0)
 758              	.LVL73:
 564:../Peripheral/src/ch32v30x_adc.c **** }
 759              		.loc 1 564 1
 760 0002 4205     		slli	a0,a0,16
 761 0004 4181     		srli	a0,a0,16
 762 0006 8280     		ret
 763              		.cfi_endproc
 764              	.LFE45:
 766              		.section	.text.ADC_GetDualModeConversionValue,"ax",@progbits
 767              		.align	1
 768              		.globl	ADC_GetDualModeConversionValue
 770              	ADC_GetDualModeConversionValue:
 771              	.LFB46:
 565:../Peripheral/src/ch32v30x_adc.c **** 
 566:../Peripheral/src/ch32v30x_adc.c **** /*********************************************************************
 567:../Peripheral/src/ch32v30x_adc.c ****  * @fn      ADC_GetDualModeConversionValue
 568:../Peripheral/src/ch32v30x_adc.c ****  *
 569:../Peripheral/src/ch32v30x_adc.c ****  * @brief   Returns the last ADC1 and ADC2 conversion result data in dual mode.
 570:../Peripheral/src/ch32v30x_adc.c ****  *
 571:../Peripheral/src/ch32v30x_adc.c ****  * @return  RDATAR_ADDRESS - The Data conversion value.
 572:../Peripheral/src/ch32v30x_adc.c ****  */
 573:../Peripheral/src/ch32v30x_adc.c **** uint32_t ADC_GetDualModeConversionValue(void)
 574:../Peripheral/src/ch32v30x_adc.c **** {
 772              		.loc 1 574 1 is_stmt 1
 773              		.cfi_startproc
 575:../Peripheral/src/ch32v30x_adc.c ****     return (*(__IO uint32_t *)RDATAR_ADDRESS);
 774              		.loc 1 575 5
 775              		.loc 1 575 13 is_stmt 0
 776 0000 B7270140 		li	a5,1073815552
 777 0004 03A5C744 		lw	a0,1100(a5)
 576:../Peripheral/src/ch32v30x_adc.c **** }
 778              		.loc 1 576 1
 779 0008 8280     		ret
 780              		.cfi_endproc
 781              	.LFE46:
 783              		.section	.text.ADC_AutoInjectedConvCmd,"ax",@progbits
 784              		.align	1
 785              		.globl	ADC_AutoInjectedConvCmd
 787              	ADC_AutoInjectedConvCmd:
 788              	.LFB47:
 577:../Peripheral/src/ch32v30x_adc.c **** 
 578:../Peripheral/src/ch32v30x_adc.c **** /*********************************************************************
 579:../Peripheral/src/ch32v30x_adc.c ****  * @fn      ADC_AutoInjectedConvCmd
 580:../Peripheral/src/ch32v30x_adc.c ****  *
 581:../Peripheral/src/ch32v30x_adc.c ****  * @brief   Enables or disables the selected ADC automatic injected group
 582:../Peripheral/src/ch32v30x_adc.c ****  *        conversion after regular one.
 583:../Peripheral/src/ch32v30x_adc.c ****  *
 584:../Peripheral/src/ch32v30x_adc.c ****  * @param   ADCx - where x can be 1 or 2 to select the ADC peripheral.
 585:../Peripheral/src/ch32v30x_adc.c ****  *          NewState - ENABLE or DISABLE.
 586:../Peripheral/src/ch32v30x_adc.c ****  *
 587:../Peripheral/src/ch32v30x_adc.c ****  * @return  None
 588:../Peripheral/src/ch32v30x_adc.c ****  */
 589:../Peripheral/src/ch32v30x_adc.c **** void ADC_AutoInjectedConvCmd(ADC_TypeDef *ADCx, FunctionalState NewState)
 590:../Peripheral/src/ch32v30x_adc.c **** {
 789              		.loc 1 590 1 is_stmt 1
 790              		.cfi_startproc
 791              	.LVL74:
 591:../Peripheral/src/ch32v30x_adc.c ****     if(NewState != DISABLE)
 792              		.loc 1 591 5
 592:../Peripheral/src/ch32v30x_adc.c ****     {
 593:../Peripheral/src/ch32v30x_adc.c ****         ADCx->CTLR1 |= CTLR1_JAUTO_Set;
 793              		.loc 1 593 13 is_stmt 0
 794 0000 5C41     		lw	a5,4(a0)
 591:../Peripheral/src/ch32v30x_adc.c ****     if(NewState != DISABLE)
 795              		.loc 1 591 7
 796 0002 89C5     		beq	a1,zero,.L46
 797              		.loc 1 593 9 is_stmt 1
 798              		.loc 1 593 21 is_stmt 0
 799 0004 93E70740 		ori	a5,a5,1024
 800              	.L48:
 594:../Peripheral/src/ch32v30x_adc.c ****     }
 595:../Peripheral/src/ch32v30x_adc.c ****     else
 596:../Peripheral/src/ch32v30x_adc.c ****     {
 597:../Peripheral/src/ch32v30x_adc.c ****         ADCx->CTLR1 &= CTLR1_JAUTO_Reset;
 801              		.loc 1 597 21
 802 0008 5CC1     		sw	a5,4(a0)
 598:../Peripheral/src/ch32v30x_adc.c ****     }
 599:../Peripheral/src/ch32v30x_adc.c **** }
 803              		.loc 1 599 1
 804 000a 8280     		ret
 805              	.L46:
 597:../Peripheral/src/ch32v30x_adc.c ****     }
 806              		.loc 1 597 9 is_stmt 1
 597:../Peripheral/src/ch32v30x_adc.c ****     }
 807              		.loc 1 597 21 is_stmt 0
 808 000c 93F7F7BF 		andi	a5,a5,-1025
 809 0010 E5BF     		j	.L48
 810              		.cfi_endproc
 811              	.LFE47:
 813              		.section	.text.ADC_InjectedDiscModeCmd,"ax",@progbits
 814              		.align	1
 815              		.globl	ADC_InjectedDiscModeCmd
 817              	ADC_InjectedDiscModeCmd:
 818              	.LFB48:
 600:../Peripheral/src/ch32v30x_adc.c **** 
 601:../Peripheral/src/ch32v30x_adc.c **** /*********************************************************************
 602:../Peripheral/src/ch32v30x_adc.c ****  * @fn      ADC_InjectedDiscModeCmd
 603:../Peripheral/src/ch32v30x_adc.c ****  *
 604:../Peripheral/src/ch32v30x_adc.c ****  * @brief   Enables or disables the discontinuous mode for injected group
 605:../Peripheral/src/ch32v30x_adc.c ****  *        channel for the specified ADC.
 606:../Peripheral/src/ch32v30x_adc.c ****  *
 607:../Peripheral/src/ch32v30x_adc.c ****  * @param   ADCx - where x can be 1 or 2 to select the ADC peripheral.
 608:../Peripheral/src/ch32v30x_adc.c ****  *          NewState - ENABLE or DISABLE.
 609:../Peripheral/src/ch32v30x_adc.c ****  *
 610:../Peripheral/src/ch32v30x_adc.c ****  * @return  None
 611:../Peripheral/src/ch32v30x_adc.c ****  */
 612:../Peripheral/src/ch32v30x_adc.c **** void ADC_InjectedDiscModeCmd(ADC_TypeDef *ADCx, FunctionalState NewState)
 613:../Peripheral/src/ch32v30x_adc.c **** {
 819              		.loc 1 613 1 is_stmt 1
 820              		.cfi_startproc
 821              	.LVL75:
 614:../Peripheral/src/ch32v30x_adc.c ****     if(NewState != DISABLE)
 822              		.loc 1 614 5
 615:../Peripheral/src/ch32v30x_adc.c ****     {
 616:../Peripheral/src/ch32v30x_adc.c ****         ADCx->CTLR1 |= CTLR1_JDISCEN_Set;
 823              		.loc 1 616 13 is_stmt 0
 824 0000 5C41     		lw	a5,4(a0)
 614:../Peripheral/src/ch32v30x_adc.c ****     if(NewState != DISABLE)
 825              		.loc 1 614 7
 826 0002 89C5     		beq	a1,zero,.L50
 827              		.loc 1 616 9 is_stmt 1
 828              		.loc 1 616 21 is_stmt 0
 829 0004 0567     		li	a4,4096
 830 0006 D98F     		or	a5,a5,a4
 831              	.L52:
 617:../Peripheral/src/ch32v30x_adc.c ****     }
 618:../Peripheral/src/ch32v30x_adc.c ****     else
 619:../Peripheral/src/ch32v30x_adc.c ****     {
 620:../Peripheral/src/ch32v30x_adc.c ****         ADCx->CTLR1 &= CTLR1_JDISCEN_Reset;
 832              		.loc 1 620 21
 833 0008 5CC1     		sw	a5,4(a0)
 621:../Peripheral/src/ch32v30x_adc.c ****     }
 622:../Peripheral/src/ch32v30x_adc.c **** }
 834              		.loc 1 622 1
 835 000a 8280     		ret
 836              	.L50:
 620:../Peripheral/src/ch32v30x_adc.c ****     }
 837              		.loc 1 620 9 is_stmt 1
 620:../Peripheral/src/ch32v30x_adc.c ****     }
 838              		.loc 1 620 21 is_stmt 0
 839 000c 7D77     		li	a4,-4096
 840 000e 7D17     		addi	a4,a4,-1
 841 0010 F98F     		and	a5,a5,a4
 842 0012 DDBF     		j	.L52
 843              		.cfi_endproc
 844              	.LFE48:
 846              		.section	.text.ADC_ExternalTrigInjectedConvConfig,"ax",@progbits
 847              		.align	1
 848              		.globl	ADC_ExternalTrigInjectedConvConfig
 850              	ADC_ExternalTrigInjectedConvConfig:
 851              	.LFB49:
 623:../Peripheral/src/ch32v30x_adc.c **** 
 624:../Peripheral/src/ch32v30x_adc.c **** /*********************************************************************
 625:../Peripheral/src/ch32v30x_adc.c ****  * @fn      ADC_ExternalTrigInjectedConvConfig
 626:../Peripheral/src/ch32v30x_adc.c ****  *
 627:../Peripheral/src/ch32v30x_adc.c ****  * @brief   Configures the ADCx external trigger for injected channels conversion.
 628:../Peripheral/src/ch32v30x_adc.c ****  *
 629:../Peripheral/src/ch32v30x_adc.c ****  * @param   ADCx - where x can be 1 or 2 to select the ADC peripheral.
 630:../Peripheral/src/ch32v30x_adc.c ****  *          ADC_ExternalTrigInjecConv - specifies the ADC trigger to start
 631:../Peripheral/src/ch32v30x_adc.c ****  *        injected conversion.
 632:../Peripheral/src/ch32v30x_adc.c ****  *            ADC_ExternalTrigInjecConv_T1_TRGO - Timer1 TRGO event selected.
 633:../Peripheral/src/ch32v30x_adc.c ****  *            ADC_ExternalTrigInjecConv_T1_CC4 - Timer1 capture compare4 selected.
 634:../Peripheral/src/ch32v30x_adc.c ****  *            ADC_ExternalTrigInjecConv_T2_TRGO - Timer2 TRGO event selected.
 635:../Peripheral/src/ch32v30x_adc.c ****  *            ADC_ExternalTrigInjecConv_T2_CC1 - Timer2 capture compare1 selected.
 636:../Peripheral/src/ch32v30x_adc.c ****  *            ADC_ExternalTrigInjecConv_T3_CC4 - Timer3 capture compare4 selected.
 637:../Peripheral/src/ch32v30x_adc.c ****  *            ADC_ExternalTrigInjecConv_T4_TRGO - Timer4 TRGO event selected.
 638:../Peripheral/src/ch32v30x_adc.c ****  *            ADC_ExternalTrigInjecConv_Ext_IT15_TIM8_CC4 - External interrupt
 639:../Peripheral/src/ch32v30x_adc.c ****  *        line 15 event selected.
 640:../Peripheral/src/ch32v30x_adc.c ****  *            ADC_ExternalTrigInjecConv_None: Injected conversion started
 641:../Peripheral/src/ch32v30x_adc.c ****  *        by software and not by external trigger.
 642:../Peripheral/src/ch32v30x_adc.c ****  *
 643:../Peripheral/src/ch32v30x_adc.c ****  * @return  None
 644:../Peripheral/src/ch32v30x_adc.c ****  */
 645:../Peripheral/src/ch32v30x_adc.c **** void ADC_ExternalTrigInjectedConvConfig(ADC_TypeDef *ADCx, uint32_t ADC_ExternalTrigInjecConv)
 646:../Peripheral/src/ch32v30x_adc.c **** {
 852              		.loc 1 646 1 is_stmt 1
 853              		.cfi_startproc
 854              	.LVL76:
 647:../Peripheral/src/ch32v30x_adc.c ****     uint32_t tmpreg = 0;
 855              		.loc 1 647 5
 648:../Peripheral/src/ch32v30x_adc.c **** 
 649:../Peripheral/src/ch32v30x_adc.c ****     tmpreg = ADCx->CTLR2;
 856              		.loc 1 649 5
 857              		.loc 1 649 12 is_stmt 0
 858 0000 1C45     		lw	a5,8(a0)
 859              	.LVL77:
 650:../Peripheral/src/ch32v30x_adc.c ****     tmpreg &= CTLR2_JEXTSEL_Reset;
 860              		.loc 1 650 5 is_stmt 1
 861              		.loc 1 650 12 is_stmt 0
 862 0002 6577     		li	a4,-28672
 863 0004 7D17     		addi	a4,a4,-1
 864 0006 F98F     		and	a5,a5,a4
 865              	.LVL78:
 651:../Peripheral/src/ch32v30x_adc.c ****     tmpreg |= ADC_ExternalTrigInjecConv;
 866              		.loc 1 651 5 is_stmt 1
 867              		.loc 1 651 12 is_stmt 0
 868 0008 CD8F     		or	a5,a5,a1
 869              	.LVL79:
 652:../Peripheral/src/ch32v30x_adc.c ****     ADCx->CTLR2 = tmpreg;
 870              		.loc 1 652 5 is_stmt 1
 871              		.loc 1 652 17 is_stmt 0
 872 000a 1CC5     		sw	a5,8(a0)
 653:../Peripheral/src/ch32v30x_adc.c **** }
 873              		.loc 1 653 1
 874 000c 8280     		ret
 875              		.cfi_endproc
 876              	.LFE49:
 878              		.section	.text.ADC_ExternalTrigInjectedConvCmd,"ax",@progbits
 879              		.align	1
 880              		.globl	ADC_ExternalTrigInjectedConvCmd
 882              	ADC_ExternalTrigInjectedConvCmd:
 883              	.LFB50:
 654:../Peripheral/src/ch32v30x_adc.c **** 
 655:../Peripheral/src/ch32v30x_adc.c **** /*********************************************************************
 656:../Peripheral/src/ch32v30x_adc.c ****  * @fn      ADC_ExternalTrigInjectedConvCmd
 657:../Peripheral/src/ch32v30x_adc.c ****  *
 658:../Peripheral/src/ch32v30x_adc.c ****  * @brief   Enables or disables the ADCx injected channels conversion through
 659:../Peripheral/src/ch32v30x_adc.c ****  *        external trigger.
 660:../Peripheral/src/ch32v30x_adc.c ****  *
 661:../Peripheral/src/ch32v30x_adc.c ****  * @param   ADCx - where x can be 1 or 2 to select the ADC peripheral.
 662:../Peripheral/src/ch32v30x_adc.c ****  *          NewState - ENABLE or DISABLE.
 663:../Peripheral/src/ch32v30x_adc.c ****  *
 664:../Peripheral/src/ch32v30x_adc.c ****  * @return  None
 665:../Peripheral/src/ch32v30x_adc.c ****  */
 666:../Peripheral/src/ch32v30x_adc.c **** void ADC_ExternalTrigInjectedConvCmd(ADC_TypeDef *ADCx, FunctionalState NewState)
 667:../Peripheral/src/ch32v30x_adc.c **** {
 884              		.loc 1 667 1 is_stmt 1
 885              		.cfi_startproc
 886              	.LVL80:
 668:../Peripheral/src/ch32v30x_adc.c ****     if(NewState != DISABLE)
 887              		.loc 1 668 5
 669:../Peripheral/src/ch32v30x_adc.c ****     {
 670:../Peripheral/src/ch32v30x_adc.c ****         ADCx->CTLR2 |= CTLR2_JEXTTRIG_Set;
 888              		.loc 1 670 13 is_stmt 0
 889 0000 1C45     		lw	a5,8(a0)
 668:../Peripheral/src/ch32v30x_adc.c ****     if(NewState != DISABLE)
 890              		.loc 1 668 7
 891 0002 89C5     		beq	a1,zero,.L55
 892              		.loc 1 670 9 is_stmt 1
 893              		.loc 1 670 21 is_stmt 0
 894 0004 2167     		li	a4,32768
 895 0006 D98F     		or	a5,a5,a4
 896              	.L57:
 671:../Peripheral/src/ch32v30x_adc.c ****     }
 672:../Peripheral/src/ch32v30x_adc.c ****     else
 673:../Peripheral/src/ch32v30x_adc.c ****     {
 674:../Peripheral/src/ch32v30x_adc.c ****         ADCx->CTLR2 &= CTLR2_JEXTTRIG_Reset;
 897              		.loc 1 674 21
 898 0008 1CC5     		sw	a5,8(a0)
 675:../Peripheral/src/ch32v30x_adc.c ****     }
 676:../Peripheral/src/ch32v30x_adc.c **** }
 899              		.loc 1 676 1
 900 000a 8280     		ret
 901              	.L55:
 674:../Peripheral/src/ch32v30x_adc.c ****     }
 902              		.loc 1 674 9 is_stmt 1
 674:../Peripheral/src/ch32v30x_adc.c ****     }
 903              		.loc 1 674 21 is_stmt 0
 904 000c 6177     		li	a4,-32768
 905 000e 7D17     		addi	a4,a4,-1
 906 0010 F98F     		and	a5,a5,a4
 907 0012 DDBF     		j	.L57
 908              		.cfi_endproc
 909              	.LFE50:
 911              		.section	.text.ADC_SoftwareStartInjectedConvCmd,"ax",@progbits
 912              		.align	1
 913              		.globl	ADC_SoftwareStartInjectedConvCmd
 915              	ADC_SoftwareStartInjectedConvCmd:
 916              	.LFB51:
 677:../Peripheral/src/ch32v30x_adc.c **** 
 678:../Peripheral/src/ch32v30x_adc.c **** /*********************************************************************
 679:../Peripheral/src/ch32v30x_adc.c ****  * @fn      ADC_SoftwareStartInjectedConvCmd
 680:../Peripheral/src/ch32v30x_adc.c ****  *
 681:../Peripheral/src/ch32v30x_adc.c ****  * @brief   Enables or disables the selected ADC start of the injected
 682:../Peripheral/src/ch32v30x_adc.c ****  *        channels conversion.
 683:../Peripheral/src/ch32v30x_adc.c ****  *
 684:../Peripheral/src/ch32v30x_adc.c ****  * @param   ADCx - where x can be 1 or 2 to select the ADC peripheral.
 685:../Peripheral/src/ch32v30x_adc.c ****  *          NewState - ENABLE or DISABLE.
 686:../Peripheral/src/ch32v30x_adc.c ****  *
 687:../Peripheral/src/ch32v30x_adc.c ****  * @return  None
 688:../Peripheral/src/ch32v30x_adc.c ****  */
 689:../Peripheral/src/ch32v30x_adc.c **** void ADC_SoftwareStartInjectedConvCmd(ADC_TypeDef *ADCx, FunctionalState NewState)
 690:../Peripheral/src/ch32v30x_adc.c **** {
 917              		.loc 1 690 1 is_stmt 1
 918              		.cfi_startproc
 919              	.LVL81:
 691:../Peripheral/src/ch32v30x_adc.c ****     if(NewState != DISABLE)
 920              		.loc 1 691 5
 692:../Peripheral/src/ch32v30x_adc.c ****     {
 693:../Peripheral/src/ch32v30x_adc.c ****         ADCx->CTLR2 |= CTLR2_JEXTTRIG_JSWSTART_Set;
 921              		.loc 1 693 13 is_stmt 0
 922 0000 1C45     		lw	a5,8(a0)
 691:../Peripheral/src/ch32v30x_adc.c ****     if(NewState != DISABLE)
 923              		.loc 1 691 7
 924 0002 91C5     		beq	a1,zero,.L59
 925              		.loc 1 693 9 is_stmt 1
 926              		.loc 1 693 21 is_stmt 0
 927 0004 37872000 		li	a4,2129920
 928 0008 D98F     		or	a5,a5,a4
 929              	.L61:
 694:../Peripheral/src/ch32v30x_adc.c ****     }
 695:../Peripheral/src/ch32v30x_adc.c ****     else
 696:../Peripheral/src/ch32v30x_adc.c ****     {
 697:../Peripheral/src/ch32v30x_adc.c ****         ADCx->CTLR2 &= CTLR2_JEXTTRIG_JSWSTART_Reset;
 930              		.loc 1 697 21
 931 000a 1CC5     		sw	a5,8(a0)
 698:../Peripheral/src/ch32v30x_adc.c ****     }
 699:../Peripheral/src/ch32v30x_adc.c **** }
 932              		.loc 1 699 1
 933 000c 8280     		ret
 934              	.L59:
 697:../Peripheral/src/ch32v30x_adc.c ****     }
 935              		.loc 1 697 9 is_stmt 1
 697:../Peripheral/src/ch32v30x_adc.c ****     }
 936              		.loc 1 697 21 is_stmt 0
 937 000e 3787DFFF 		li	a4,-2129920
 938 0012 7D17     		addi	a4,a4,-1
 939 0014 F98F     		and	a5,a5,a4
 940 0016 D5BF     		j	.L61
 941              		.cfi_endproc
 942              	.LFE51:
 944              		.section	.text.ADC_GetSoftwareStartInjectedConvCmdStatus,"ax",@progbits
 945              		.align	1
 946              		.globl	ADC_GetSoftwareStartInjectedConvCmdStatus
 948              	ADC_GetSoftwareStartInjectedConvCmdStatus:
 949              	.LFB52:
 700:../Peripheral/src/ch32v30x_adc.c **** 
 701:../Peripheral/src/ch32v30x_adc.c **** /*********************************************************************
 702:../Peripheral/src/ch32v30x_adc.c ****  * @fn      ADC_GetSoftwareStartInjectedConvCmdStatus
 703:../Peripheral/src/ch32v30x_adc.c ****  *
 704:../Peripheral/src/ch32v30x_adc.c ****  * @brief   Gets the selected ADC Software start injected conversion Status.
 705:../Peripheral/src/ch32v30x_adc.c ****  *
 706:../Peripheral/src/ch32v30x_adc.c ****  * @param   ADCx - where x can be 1 or 2 to select the ADC peripheral.
 707:../Peripheral/src/ch32v30x_adc.c ****  *
 708:../Peripheral/src/ch32v30x_adc.c ****  * @return  FlagStatus: SET or RESET.
 709:../Peripheral/src/ch32v30x_adc.c ****  */
 710:../Peripheral/src/ch32v30x_adc.c **** FlagStatus ADC_GetSoftwareStartInjectedConvCmdStatus(ADC_TypeDef *ADCx)
 711:../Peripheral/src/ch32v30x_adc.c **** {
 950              		.loc 1 711 1 is_stmt 1
 951              		.cfi_startproc
 952              	.LVL82:
 712:../Peripheral/src/ch32v30x_adc.c ****     FlagStatus bitstatus = RESET;
 953              		.loc 1 712 5
 713:../Peripheral/src/ch32v30x_adc.c **** 
 714:../Peripheral/src/ch32v30x_adc.c ****     if((ADCx->CTLR2 & CTLR2_JSWSTART_Set) != (uint32_t)RESET)
 954              		.loc 1 714 5
 955              		.loc 1 714 13 is_stmt 0
 956 0000 0845     		lw	a0,8(a0)
 957              	.LVL83:
 715:../Peripheral/src/ch32v30x_adc.c ****     {
 716:../Peripheral/src/ch32v30x_adc.c ****         bitstatus = SET;
 717:../Peripheral/src/ch32v30x_adc.c ****     }
 718:../Peripheral/src/ch32v30x_adc.c ****     else
 719:../Peripheral/src/ch32v30x_adc.c ****     {
 720:../Peripheral/src/ch32v30x_adc.c ****         bitstatus = RESET;
 721:../Peripheral/src/ch32v30x_adc.c ****     }
 722:../Peripheral/src/ch32v30x_adc.c **** 
 723:../Peripheral/src/ch32v30x_adc.c ****     return bitstatus;
 958              		.loc 1 723 5 is_stmt 1
 714:../Peripheral/src/ch32v30x_adc.c ****     {
 959              		.loc 1 714 7 is_stmt 0
 960 0002 5581     		srli	a0,a0,21
 961              	.LVL84:
 724:../Peripheral/src/ch32v30x_adc.c **** }
 962              		.loc 1 724 1
 963 0004 0589     		andi	a0,a0,1
 964 0006 8280     		ret
 965              		.cfi_endproc
 966              	.LFE52:
 968              		.section	.text.ADC_InjectedChannelConfig,"ax",@progbits
 969              		.align	1
 970              		.globl	ADC_InjectedChannelConfig
 972              	ADC_InjectedChannelConfig:
 973              	.LFB53:
 725:../Peripheral/src/ch32v30x_adc.c **** 
 726:../Peripheral/src/ch32v30x_adc.c **** /*********************************************************************
 727:../Peripheral/src/ch32v30x_adc.c ****  * @fn      ADC_InjectedChannelConfig
 728:../Peripheral/src/ch32v30x_adc.c ****  *
 729:../Peripheral/src/ch32v30x_adc.c ****  * @brief   Configures for the selected ADC injected channel its corresponding
 730:../Peripheral/src/ch32v30x_adc.c ****  *        rank in the sequencer and its sample time.
 731:../Peripheral/src/ch32v30x_adc.c ****  *
 732:../Peripheral/src/ch32v30x_adc.c ****  * @param   ADCx - where x can be 1 or 2 to select the ADC peripheral.
 733:../Peripheral/src/ch32v30x_adc.c ****  *          ADC_Channel - the ADC channel to configure.
 734:../Peripheral/src/ch32v30x_adc.c ****  *            ADC_Channel_0 - ADC Channel0 selected.
 735:../Peripheral/src/ch32v30x_adc.c ****  *            ADC_Channel_1 - ADC Channel1 selected.
 736:../Peripheral/src/ch32v30x_adc.c ****  *            ADC_Channel_2 - ADC Channel2 selected.
 737:../Peripheral/src/ch32v30x_adc.c ****  *            ADC_Channel_3 - ADC Channel3 selected.
 738:../Peripheral/src/ch32v30x_adc.c ****  *            ADC_Channel_4 - ADC Channel4 selected.
 739:../Peripheral/src/ch32v30x_adc.c ****  *            ADC_Channel_5 - ADC Channel5 selected.
 740:../Peripheral/src/ch32v30x_adc.c ****  *            ADC_Channel_6 - ADC Channel6 selected.
 741:../Peripheral/src/ch32v30x_adc.c ****  *            ADC_Channel_7 - ADC Channel7 selected.
 742:../Peripheral/src/ch32v30x_adc.c ****  *            ADC_Channel_8 - ADC Channel8 selected.
 743:../Peripheral/src/ch32v30x_adc.c ****  *            ADC_Channel_9 - ADC Channel9 selected.
 744:../Peripheral/src/ch32v30x_adc.c ****  *            ADC_Channel_10 - ADC Channel10 selected.
 745:../Peripheral/src/ch32v30x_adc.c ****  *            ADC_Channel_11 - ADC Channel11 selected.
 746:../Peripheral/src/ch32v30x_adc.c ****  *            ADC_Channel_12 - ADC Channel12 selected.
 747:../Peripheral/src/ch32v30x_adc.c ****  *            ADC_Channel_13 - ADC Channel13 selected.
 748:../Peripheral/src/ch32v30x_adc.c ****  *            ADC_Channel_14 - ADC Channel14 selected.
 749:../Peripheral/src/ch32v30x_adc.c ****  *            ADC_Channel_15 - ADC Channel15 selected.
 750:../Peripheral/src/ch32v30x_adc.c ****  *            ADC_Channel_16 - ADC Channel16 selected.
 751:../Peripheral/src/ch32v30x_adc.c ****  *            ADC_Channel_17 - ADC Channel17 selected.
 752:../Peripheral/src/ch32v30x_adc.c ****  *          Rank - The rank in the regular group sequencer.
 753:../Peripheral/src/ch32v30x_adc.c ****  *            This parameter must be between 1 to 4.
 754:../Peripheral/src/ch32v30x_adc.c ****  *          ADC_SampleTime - The sample time value to be set for the selected channel.
 755:../Peripheral/src/ch32v30x_adc.c ****  *            ADC_SampleTime_1Cycles5 - Sample time equal to 1.5 cycles.
 756:../Peripheral/src/ch32v30x_adc.c ****  *            ADC_SampleTime_7Cycles5 - Sample time equal to 7.5 cycles.
 757:../Peripheral/src/ch32v30x_adc.c ****  *            ADC_SampleTime_13Cycles5 - Sample time equal to 13.5 cycles.
 758:../Peripheral/src/ch32v30x_adc.c ****  *            ADC_SampleTime_28Cycles5 - Sample time equal to 28.5 cycles.
 759:../Peripheral/src/ch32v30x_adc.c ****  *            ADC_SampleTime_41Cycles5 - Sample time equal to 41.5 cycles.
 760:../Peripheral/src/ch32v30x_adc.c ****  *            ADC_SampleTime_55Cycles5 - Sample time equal to 55.5 cycles.
 761:../Peripheral/src/ch32v30x_adc.c ****  *            ADC_SampleTime_71Cycles5 - Sample time equal to 71.5 cycles.
 762:../Peripheral/src/ch32v30x_adc.c ****  *            ADC_SampleTime_239Cycles5 - Sample time equal to 239.5 cycles.
 763:../Peripheral/src/ch32v30x_adc.c ****  *
 764:../Peripheral/src/ch32v30x_adc.c ****  * @return  None
 765:../Peripheral/src/ch32v30x_adc.c ****  */
 766:../Peripheral/src/ch32v30x_adc.c **** void ADC_InjectedChannelConfig(ADC_TypeDef *ADCx, uint8_t ADC_Channel, uint8_t Rank, uint8_t ADC_Sa
 767:../Peripheral/src/ch32v30x_adc.c **** {
 974              		.loc 1 767 1 is_stmt 1
 975              		.cfi_startproc
 976              	.LVL85:
 768:../Peripheral/src/ch32v30x_adc.c ****     uint32_t tmpreg1 = 0, tmpreg2 = 0, tmpreg3 = 0;
 977              		.loc 1 768 5
 769:../Peripheral/src/ch32v30x_adc.c **** 
 770:../Peripheral/src/ch32v30x_adc.c ****     if(ADC_Channel > ADC_Channel_9)
 978              		.loc 1 770 5
 979              		.loc 1 770 7 is_stmt 0
 980 0000 A547     		li	a5,9
 981 0002 63FBB704 		bleu	a1,a5,.L64
 771:../Peripheral/src/ch32v30x_adc.c ****     {
 772:../Peripheral/src/ch32v30x_adc.c ****         tmpreg1 = ADCx->SAMPTR1;
 982              		.loc 1 772 9 is_stmt 1
 773:../Peripheral/src/ch32v30x_adc.c ****         tmpreg2 = SAMPTR1_SMP_Set << (3 * (ADC_Channel - 10));
 983              		.loc 1 773 41 is_stmt 0
 984 0006 8D47     		li	a5,3
 985              		.loc 1 773 56
 986 0008 138765FF 		addi	a4,a1,-10
 987              		.loc 1 773 41
 988 000c 3307F702 		mul	a4,a4,a5
 772:../Peripheral/src/ch32v30x_adc.c ****         tmpreg2 = SAMPTR1_SMP_Set << (3 * (ADC_Channel - 10));
 989              		.loc 1 772 17
 990 0010 0328C500 		lw	a6,12(a0)
 991              	.LVL86:
 992              		.loc 1 773 9 is_stmt 1
 774:../Peripheral/src/ch32v30x_adc.c ****         tmpreg1 &= ~tmpreg2;
 993              		.loc 1 774 9
 773:../Peripheral/src/ch32v30x_adc.c ****         tmpreg2 = SAMPTR1_SMP_Set << (3 * (ADC_Channel - 10));
 994              		.loc 1 773 17 is_stmt 0
 995 0014 9D47     		li	a5,7
 996 0016 B397E700 		sll	a5,a5,a4
 997              		.loc 1 774 20
 998 001a 93C7F7FF 		not	a5,a5
 999              		.loc 1 774 17
 1000 001e B3F70701 		and	a5,a5,a6
 1001              	.LVL87:
 775:../Peripheral/src/ch32v30x_adc.c ****         tmpreg2 = (uint32_t)ADC_SampleTime << (3 * (ADC_Channel - 10));
 1002              		.loc 1 775 9 is_stmt 1
 776:../Peripheral/src/ch32v30x_adc.c ****         tmpreg1 |= tmpreg2;
 1003              		.loc 1 776 9
 775:../Peripheral/src/ch32v30x_adc.c ****         tmpreg2 = (uint32_t)ADC_SampleTime << (3 * (ADC_Channel - 10));
 1004              		.loc 1 775 17 is_stmt 0
 1005 0022 B396E600 		sll	a3,a3,a4
 1006              	.LVL88:
 1007              		.loc 1 776 17
 1008 0026 DD8E     		or	a3,a3,a5
 1009              	.LVL89:
 777:../Peripheral/src/ch32v30x_adc.c ****         ADCx->SAMPTR1 = tmpreg1;
 1010              		.loc 1 777 9 is_stmt 1
 1011              		.loc 1 777 23 is_stmt 0
 1012 0028 54C5     		sw	a3,12(a0)
 1013              	.LVL90:
 1014              	.L65:
 778:../Peripheral/src/ch32v30x_adc.c ****     }
 779:../Peripheral/src/ch32v30x_adc.c ****     else
 780:../Peripheral/src/ch32v30x_adc.c ****     {
 781:../Peripheral/src/ch32v30x_adc.c ****         tmpreg1 = ADCx->SAMPTR2;
 782:../Peripheral/src/ch32v30x_adc.c ****         tmpreg2 = SAMPTR2_SMP_Set << (3 * ADC_Channel);
 783:../Peripheral/src/ch32v30x_adc.c ****         tmpreg1 &= ~tmpreg2;
 784:../Peripheral/src/ch32v30x_adc.c ****         tmpreg2 = (uint32_t)ADC_SampleTime << (3 * ADC_Channel);
 785:../Peripheral/src/ch32v30x_adc.c ****         tmpreg1 |= tmpreg2;
 786:../Peripheral/src/ch32v30x_adc.c ****         ADCx->SAMPTR2 = tmpreg1;
 787:../Peripheral/src/ch32v30x_adc.c ****     }
 788:../Peripheral/src/ch32v30x_adc.c **** 
 789:../Peripheral/src/ch32v30x_adc.c ****     tmpreg1 = ADCx->ISQR;
 1015              		.loc 1 789 5 is_stmt 1
 1016              		.loc 1 789 13 is_stmt 0
 1017 002a 145D     		lw	a3,56(a0)
 1018              	.LVL91:
 790:../Peripheral/src/ch32v30x_adc.c ****     tmpreg3 = (tmpreg1 & ISQR_JL_Set) >> 20;
 1019              		.loc 1 790 5 is_stmt 1
 791:../Peripheral/src/ch32v30x_adc.c ****     tmpreg2 = ISQR_JSQ_Set << (5 * (uint8_t)((Rank + 3) - (tmpreg3 + 1)));
 1020              		.loc 1 791 5
 1021              		.loc 1 791 36 is_stmt 0
 1022 002c 93072600 		addi	a5,a2,2
 790:../Peripheral/src/ch32v30x_adc.c ****     tmpreg3 = (tmpreg1 & ISQR_JL_Set) >> 20;
 1023              		.loc 1 790 39
 1024 0030 13D74601 		srli	a4,a3,20
 790:../Peripheral/src/ch32v30x_adc.c ****     tmpreg3 = (tmpreg1 & ISQR_JL_Set) >> 20;
 1025              		.loc 1 790 13
 1026 0034 0D8B     		andi	a4,a4,3
 1027              	.LVL92:
 1028              		.loc 1 791 36
 1029 0036 998F     		sub	a5,a5,a4
 1030 0038 93F7F70F 		andi	a5,a5,0xff
 1031              		.loc 1 791 34
 1032 003c 1547     		li	a4,5
 1033              	.LVL93:
 1034 003e B387E702 		mul	a5,a5,a4
 1035              	.LVL94:
 792:../Peripheral/src/ch32v30x_adc.c ****     tmpreg1 &= ~tmpreg2;
 1036              		.loc 1 792 5 is_stmt 1
 791:../Peripheral/src/ch32v30x_adc.c ****     tmpreg2 = ISQR_JSQ_Set << (5 * (uint8_t)((Rank + 3) - (tmpreg3 + 1)));
 1037              		.loc 1 791 13 is_stmt 0
 1038 0042 7D47     		li	a4,31
 1039 0044 3317F700 		sll	a4,a4,a5
 1040              		.loc 1 792 16
 1041 0048 1347F7FF 		not	a4,a4
 1042              		.loc 1 792 13
 1043 004c 758F     		and	a4,a4,a3
 1044              	.LVL95:
 793:../Peripheral/src/ch32v30x_adc.c ****     tmpreg2 = (uint32_t)ADC_Channel << (5 * (uint8_t)((Rank + 3) - (tmpreg3 + 1)));
 1045              		.loc 1 793 5 is_stmt 1
 794:../Peripheral/src/ch32v30x_adc.c ****     tmpreg1 |= tmpreg2;
 1046              		.loc 1 794 5
 793:../Peripheral/src/ch32v30x_adc.c ****     tmpreg2 = (uint32_t)ADC_Channel << (5 * (uint8_t)((Rank + 3) - (tmpreg3 + 1)));
 1047              		.loc 1 793 13 is_stmt 0
 1048 004e B395F500 		sll	a1,a1,a5
 1049              	.LVL96:
 1050              		.loc 1 794 13
 1051 0052 D98D     		or	a1,a1,a4
 1052              	.LVL97:
 795:../Peripheral/src/ch32v30x_adc.c ****     ADCx->ISQR = tmpreg1;
 1053              		.loc 1 795 5 is_stmt 1
 1054              		.loc 1 795 16 is_stmt 0
 1055 0054 0CDD     		sw	a1,56(a0)
 796:../Peripheral/src/ch32v30x_adc.c **** }
 1056              		.loc 1 796 1
 1057 0056 8280     		ret
 1058              	.LVL98:
 1059              	.L64:
 781:../Peripheral/src/ch32v30x_adc.c ****         tmpreg2 = SAMPTR2_SMP_Set << (3 * ADC_Channel);
 1060              		.loc 1 781 9 is_stmt 1
 782:../Peripheral/src/ch32v30x_adc.c ****         tmpreg1 &= ~tmpreg2;
 1061              		.loc 1 782 41 is_stmt 0
 1062 0058 0D47     		li	a4,3
 1063 005a 3387E502 		mul	a4,a1,a4
 781:../Peripheral/src/ch32v30x_adc.c ****         tmpreg2 = SAMPTR2_SMP_Set << (3 * ADC_Channel);
 1064              		.loc 1 781 17
 1065 005e 03280501 		lw	a6,16(a0)
 1066              	.LVL99:
 782:../Peripheral/src/ch32v30x_adc.c ****         tmpreg1 &= ~tmpreg2;
 1067              		.loc 1 782 9 is_stmt 1
 783:../Peripheral/src/ch32v30x_adc.c ****         tmpreg2 = (uint32_t)ADC_SampleTime << (3 * ADC_Channel);
 1068              		.loc 1 783 9
 782:../Peripheral/src/ch32v30x_adc.c ****         tmpreg1 &= ~tmpreg2;
 1069              		.loc 1 782 17 is_stmt 0
 1070 0062 9D47     		li	a5,7
 1071 0064 B397E700 		sll	a5,a5,a4
 783:../Peripheral/src/ch32v30x_adc.c ****         tmpreg2 = (uint32_t)ADC_SampleTime << (3 * ADC_Channel);
 1072              		.loc 1 783 20
 1073 0068 93C7F7FF 		not	a5,a5
 783:../Peripheral/src/ch32v30x_adc.c ****         tmpreg2 = (uint32_t)ADC_SampleTime << (3 * ADC_Channel);
 1074              		.loc 1 783 17
 1075 006c B3F70701 		and	a5,a5,a6
 1076              	.LVL100:
 784:../Peripheral/src/ch32v30x_adc.c ****         tmpreg1 |= tmpreg2;
 1077              		.loc 1 784 9 is_stmt 1
 785:../Peripheral/src/ch32v30x_adc.c ****         ADCx->SAMPTR2 = tmpreg1;
 1078              		.loc 1 785 9
 784:../Peripheral/src/ch32v30x_adc.c ****         tmpreg1 |= tmpreg2;
 1079              		.loc 1 784 17 is_stmt 0
 1080 0070 B396E600 		sll	a3,a3,a4
 1081              	.LVL101:
 785:../Peripheral/src/ch32v30x_adc.c ****         ADCx->SAMPTR2 = tmpreg1;
 1082              		.loc 1 785 17
 1083 0074 DD8E     		or	a3,a3,a5
 1084              	.LVL102:
 786:../Peripheral/src/ch32v30x_adc.c ****     }
 1085              		.loc 1 786 9 is_stmt 1
 786:../Peripheral/src/ch32v30x_adc.c ****     }
 1086              		.loc 1 786 23 is_stmt 0
 1087 0076 14C9     		sw	a3,16(a0)
 1088 0078 4DBF     		j	.L65
 1089              		.cfi_endproc
 1090              	.LFE53:
 1092              		.section	.text.ADC_InjectedSequencerLengthConfig,"ax",@progbits
 1093              		.align	1
 1094              		.globl	ADC_InjectedSequencerLengthConfig
 1096              	ADC_InjectedSequencerLengthConfig:
 1097              	.LFB54:
 797:../Peripheral/src/ch32v30x_adc.c **** 
 798:../Peripheral/src/ch32v30x_adc.c **** /*********************************************************************
 799:../Peripheral/src/ch32v30x_adc.c ****  * @fn      ADC_InjectedSequencerLengthConfig
 800:../Peripheral/src/ch32v30x_adc.c ****  *
 801:../Peripheral/src/ch32v30x_adc.c ****  * @brief   Configures the sequencer length for injected channels.
 802:../Peripheral/src/ch32v30x_adc.c ****  *
 803:../Peripheral/src/ch32v30x_adc.c ****  * @param   ADCx - where x can be 1 or 2 to select the ADC peripheral.
 804:../Peripheral/src/ch32v30x_adc.c ****  *          Length - The sequencer length.
 805:../Peripheral/src/ch32v30x_adc.c ****  *            This parameter must be a number between 1 to 4.
 806:../Peripheral/src/ch32v30x_adc.c ****  *
 807:../Peripheral/src/ch32v30x_adc.c ****  * @return  None
 808:../Peripheral/src/ch32v30x_adc.c ****  */
 809:../Peripheral/src/ch32v30x_adc.c **** void ADC_InjectedSequencerLengthConfig(ADC_TypeDef *ADCx, uint8_t Length)
 810:../Peripheral/src/ch32v30x_adc.c **** {
 1098              		.loc 1 810 1 is_stmt 1
 1099              		.cfi_startproc
 1100              	.LVL103:
 811:../Peripheral/src/ch32v30x_adc.c ****     uint32_t tmpreg1 = 0;
 1101              		.loc 1 811 5
 812:../Peripheral/src/ch32v30x_adc.c ****     uint32_t tmpreg2 = 0;
 1102              		.loc 1 812 5
 813:../Peripheral/src/ch32v30x_adc.c **** 
 814:../Peripheral/src/ch32v30x_adc.c ****     tmpreg1 = ADCx->ISQR;
 1103              		.loc 1 814 5
 1104              		.loc 1 814 13 is_stmt 0
 1105 0000 1C5D     		lw	a5,56(a0)
 1106              	.LVL104:
 815:../Peripheral/src/ch32v30x_adc.c ****     tmpreg1 &= ISQR_JL_Reset;
 1107              		.loc 1 815 5 is_stmt 1
 1108              		.loc 1 815 13 is_stmt 0
 1109 0002 3707D0FF 		li	a4,-3145728
 1110 0006 7D17     		addi	a4,a4,-1
 816:../Peripheral/src/ch32v30x_adc.c ****     tmpreg2 = Length - 1;
 1111              		.loc 1 816 22
 1112 0008 FD15     		addi	a1,a1,-1
 1113              	.LVL105:
 815:../Peripheral/src/ch32v30x_adc.c ****     tmpreg1 &= ISQR_JL_Reset;
 1114              		.loc 1 815 13
 1115 000a F98F     		and	a5,a5,a4
 1116              	.LVL106:
 1117              		.loc 1 816 5 is_stmt 1
 817:../Peripheral/src/ch32v30x_adc.c ****     tmpreg1 |= tmpreg2 << 20;
 1118              		.loc 1 817 5
 1119              		.loc 1 817 24 is_stmt 0
 1120 000c D205     		slli	a1,a1,20
 1121              		.loc 1 817 13
 1122 000e DD8D     		or	a1,a1,a5
 1123              	.LVL107:
 818:../Peripheral/src/ch32v30x_adc.c ****     ADCx->ISQR = tmpreg1;
 1124              		.loc 1 818 5 is_stmt 1
 1125              		.loc 1 818 16 is_stmt 0
 1126 0010 0CDD     		sw	a1,56(a0)
 819:../Peripheral/src/ch32v30x_adc.c **** }
 1127              		.loc 1 819 1
 1128 0012 8280     		ret
 1129              		.cfi_endproc
 1130              	.LFE54:
 1132              		.section	.text.ADC_SetInjectedOffset,"ax",@progbits
 1133              		.align	1
 1134              		.globl	ADC_SetInjectedOffset
 1136              	ADC_SetInjectedOffset:
 1137              	.LFB55:
 820:../Peripheral/src/ch32v30x_adc.c **** 
 821:../Peripheral/src/ch32v30x_adc.c **** /*********************************************************************
 822:../Peripheral/src/ch32v30x_adc.c ****  * @fn      ADC_SetInjectedOffset
 823:../Peripheral/src/ch32v30x_adc.c ****  *
 824:../Peripheral/src/ch32v30x_adc.c ****  * @brief   Set the injected channels conversion value offset.
 825:../Peripheral/src/ch32v30x_adc.c ****  *
 826:../Peripheral/src/ch32v30x_adc.c ****  * @param   ADCx - where x can be 1 or 2 to select the ADC peripheral.
 827:../Peripheral/src/ch32v30x_adc.c ****  *          ADC_InjectedChannel: the ADC injected channel to set its offset.
 828:../Peripheral/src/ch32v30x_adc.c ****  *            ADC_InjectedChannel_1 - Injected Channel1 selected.
 829:../Peripheral/src/ch32v30x_adc.c ****  *            ADC_InjectedChannel_2 - Injected Channel2 selected.
 830:../Peripheral/src/ch32v30x_adc.c ****  *            ADC_InjectedChannel_3 - Injected Channel3 selected.
 831:../Peripheral/src/ch32v30x_adc.c ****  *            ADC_InjectedChannel_4 - Injected Channel4 selected.
 832:../Peripheral/src/ch32v30x_adc.c ****  *          Offset - the offset value for the selected ADC injected channel.
 833:../Peripheral/src/ch32v30x_adc.c ****  *            This parameter must be a 12bit value.
 834:../Peripheral/src/ch32v30x_adc.c ****  *
 835:../Peripheral/src/ch32v30x_adc.c ****  * @return  None
 836:../Peripheral/src/ch32v30x_adc.c ****  */
 837:../Peripheral/src/ch32v30x_adc.c **** void ADC_SetInjectedOffset(ADC_TypeDef *ADCx, uint8_t ADC_InjectedChannel, uint16_t Offset)
 838:../Peripheral/src/ch32v30x_adc.c **** {
 1138              		.loc 1 838 1 is_stmt 1
 1139              		.cfi_startproc
 1140              	.LVL108:
 839:../Peripheral/src/ch32v30x_adc.c ****     __IO uint32_t tmp = 0;
 1141              		.loc 1 839 5
 838:../Peripheral/src/ch32v30x_adc.c ****     __IO uint32_t tmp = 0;
 1142              		.loc 1 838 1 is_stmt 0
 1143 0000 4111     		addi	sp,sp,-16
 1144              		.cfi_def_cfa_offset 16
 1145              		.loc 1 839 19
 1146 0002 02C6     		sw	zero,12(sp)
 840:../Peripheral/src/ch32v30x_adc.c **** 
 841:../Peripheral/src/ch32v30x_adc.c ****     tmp = (uint32_t)ADCx;
 1147              		.loc 1 841 5 is_stmt 1
 1148              		.loc 1 841 9 is_stmt 0
 1149 0004 2AC6     		sw	a0,12(sp)
 842:../Peripheral/src/ch32v30x_adc.c ****     tmp += ADC_InjectedChannel;
 1150              		.loc 1 842 5 is_stmt 1
 1151              		.loc 1 842 9 is_stmt 0
 1152 0006 B247     		lw	a5,12(sp)
 1153 0008 BE95     		add	a1,a1,a5
 1154              	.LVL109:
 1155 000a 2EC6     		sw	a1,12(sp)
 843:../Peripheral/src/ch32v30x_adc.c **** 
 844:../Peripheral/src/ch32v30x_adc.c ****     *(__IO uint32_t *)tmp = (uint32_t)Offset;
 1156              		.loc 1 844 5 is_stmt 1
 1157              		.loc 1 844 6 is_stmt 0
 1158 000c B247     		lw	a5,12(sp)
 1159              		.loc 1 844 27
 1160 000e 90C3     		sw	a2,0(a5)
 845:../Peripheral/src/ch32v30x_adc.c **** }
 1161              		.loc 1 845 1
 1162 0010 4101     		addi	sp,sp,16
 1163              		.cfi_def_cfa_offset 0
 1164 0012 8280     		jr	ra
 1165              		.cfi_endproc
 1166              	.LFE55:
 1168              		.section	.text.ADC_GetInjectedConversionValue,"ax",@progbits
 1169              		.align	1
 1170              		.globl	ADC_GetInjectedConversionValue
 1172              	ADC_GetInjectedConversionValue:
 1173              	.LFB56:
 846:../Peripheral/src/ch32v30x_adc.c **** 
 847:../Peripheral/src/ch32v30x_adc.c **** /*********************************************************************
 848:../Peripheral/src/ch32v30x_adc.c ****  * @fn      ADC_GetInjectedConversionValue
 849:../Peripheral/src/ch32v30x_adc.c ****  *
 850:../Peripheral/src/ch32v30x_adc.c ****  * @brief   Returns the ADC injected channel conversion result.
 851:../Peripheral/src/ch32v30x_adc.c ****  *
 852:../Peripheral/src/ch32v30x_adc.c ****  * @param   ADCx - where x can be 1 or 2 to select the ADC peripheral.
 853:../Peripheral/src/ch32v30x_adc.c ****  *          ADC_InjectedChannel - the ADC injected channel to set its offset.
 854:../Peripheral/src/ch32v30x_adc.c ****  *            ADC_InjectedChannel_1 - Injected Channel1 selected.
 855:../Peripheral/src/ch32v30x_adc.c ****  *            ADC_InjectedChannel_2 - Injected Channel2 selected.
 856:../Peripheral/src/ch32v30x_adc.c ****  *            ADC_InjectedChannel_3 - Injected Channel3 selected.
 857:../Peripheral/src/ch32v30x_adc.c ****  *            ADC_InjectedChannel_4 - Injected Channel4 selected.
 858:../Peripheral/src/ch32v30x_adc.c ****  *
 859:../Peripheral/src/ch32v30x_adc.c ****  * @return  tmp - The Data conversion value.
 860:../Peripheral/src/ch32v30x_adc.c ****  */
 861:../Peripheral/src/ch32v30x_adc.c **** uint16_t ADC_GetInjectedConversionValue(ADC_TypeDef *ADCx, uint8_t ADC_InjectedChannel)
 862:../Peripheral/src/ch32v30x_adc.c **** {
 1174              		.loc 1 862 1 is_stmt 1
 1175              		.cfi_startproc
 1176              	.LVL110:
 863:../Peripheral/src/ch32v30x_adc.c ****     __IO uint32_t tmp = 0;
 1177              		.loc 1 863 5
 862:../Peripheral/src/ch32v30x_adc.c ****     __IO uint32_t tmp = 0;
 1178              		.loc 1 862 1 is_stmt 0
 1179 0000 4111     		addi	sp,sp,-16
 1180              		.cfi_def_cfa_offset 16
 1181              		.loc 1 863 19
 1182 0002 02C6     		sw	zero,12(sp)
 864:../Peripheral/src/ch32v30x_adc.c **** 
 865:../Peripheral/src/ch32v30x_adc.c ****     tmp = (uint32_t)ADCx;
 1183              		.loc 1 865 5 is_stmt 1
 1184              		.loc 1 865 9 is_stmt 0
 1185 0004 2AC6     		sw	a0,12(sp)
 866:../Peripheral/src/ch32v30x_adc.c ****     tmp += ADC_InjectedChannel + IDATAR_Offset;
 1186              		.loc 1 866 5 is_stmt 1
 1187              		.loc 1 866 9 is_stmt 0
 1188 0006 B247     		lw	a5,12(sp)
 1189 0008 93878702 		addi	a5,a5,40
 1190 000c AE97     		add	a5,a5,a1
 1191 000e 3EC6     		sw	a5,12(sp)
 867:../Peripheral/src/ch32v30x_adc.c **** 
 868:../Peripheral/src/ch32v30x_adc.c ****     return (uint16_t)(*(__IO uint32_t *)tmp);
 1192              		.loc 1 868 5 is_stmt 1
 1193              		.loc 1 868 24 is_stmt 0
 1194 0010 B247     		lw	a5,12(sp)
 1195              		.loc 1 868 23
 1196 0012 8843     		lw	a0,0(a5)
 1197              	.LVL111:
 869:../Peripheral/src/ch32v30x_adc.c **** }
 1198              		.loc 1 869 1
 1199 0014 4101     		addi	sp,sp,16
 1200              		.cfi_def_cfa_offset 0
 1201 0016 4205     		slli	a0,a0,16
 1202 0018 4181     		srli	a0,a0,16
 1203 001a 8280     		jr	ra
 1204              		.cfi_endproc
 1205              	.LFE56:
 1207              		.section	.text.ADC_AnalogWatchdogCmd,"ax",@progbits
 1208              		.align	1
 1209              		.globl	ADC_AnalogWatchdogCmd
 1211              	ADC_AnalogWatchdogCmd:
 1212              	.LFB57:
 870:../Peripheral/src/ch32v30x_adc.c **** 
 871:../Peripheral/src/ch32v30x_adc.c **** /*********************************************************************
 872:../Peripheral/src/ch32v30x_adc.c ****  * @fn      ADC_AnalogWatchdogCmd
 873:../Peripheral/src/ch32v30x_adc.c ****  *
 874:../Peripheral/src/ch32v30x_adc.c ****  * @brief   Enables or disables the analog watchdog on single/all regular
 875:../Peripheral/src/ch32v30x_adc.c ****  *        or injected channels.
 876:../Peripheral/src/ch32v30x_adc.c ****  *
 877:../Peripheral/src/ch32v30x_adc.c ****  * @param   ADCx - where x can be 1 or 2 to select the ADC peripheral.
 878:../Peripheral/src/ch32v30x_adc.c ****  *          ADC_AnalogWatchdog - the ADC analog watchdog configuration.
 879:../Peripheral/src/ch32v30x_adc.c ****  *            ADC_AnalogWatchdog_SingleRegEnable - Analog watchdog on a
 880:../Peripheral/src/ch32v30x_adc.c ****  *        single regular channel.
 881:../Peripheral/src/ch32v30x_adc.c ****  *            ADC_AnalogWatchdog_SingleInjecEnable - Analog watchdog on a
 882:../Peripheral/src/ch32v30x_adc.c ****  *        single injected channel.
 883:../Peripheral/src/ch32v30x_adc.c ****  *            ADC_AnalogWatchdog_SingleRegOrInjecEnable - Analog watchdog
 884:../Peripheral/src/ch32v30x_adc.c ****  *        on a single regular or injected channel.
 885:../Peripheral/src/ch32v30x_adc.c ****  *            ADC_AnalogWatchdog_AllRegEnable - Analog watchdog on  all
 886:../Peripheral/src/ch32v30x_adc.c ****  *        regular channel.
 887:../Peripheral/src/ch32v30x_adc.c ****  *            ADC_AnalogWatchdog_AllInjecEnable - Analog watchdog on  all
 888:../Peripheral/src/ch32v30x_adc.c ****  *        injected channel.
 889:../Peripheral/src/ch32v30x_adc.c ****  *            ADC_AnalogWatchdog_AllRegAllInjecEnable - Analog watchdog on
 890:../Peripheral/src/ch32v30x_adc.c ****  *        all regular and injected channels.
 891:../Peripheral/src/ch32v30x_adc.c ****  *            ADC_AnalogWatchdog_None - No channel guarded by the analog
 892:../Peripheral/src/ch32v30x_adc.c ****  *        watchdog.
 893:../Peripheral/src/ch32v30x_adc.c ****  *
 894:../Peripheral/src/ch32v30x_adc.c ****  * @return  none
 895:../Peripheral/src/ch32v30x_adc.c ****  */
 896:../Peripheral/src/ch32v30x_adc.c **** void ADC_AnalogWatchdogCmd(ADC_TypeDef *ADCx, uint32_t ADC_AnalogWatchdog)
 897:../Peripheral/src/ch32v30x_adc.c **** {
 1213              		.loc 1 897 1 is_stmt 1
 1214              		.cfi_startproc
 1215              	.LVL112:
 898:../Peripheral/src/ch32v30x_adc.c ****     uint32_t tmpreg = 0;
 1216              		.loc 1 898 5
 899:../Peripheral/src/ch32v30x_adc.c **** 
 900:../Peripheral/src/ch32v30x_adc.c ****     tmpreg = ADCx->CTLR1;
 1217              		.loc 1 900 5
 1218              		.loc 1 900 12 is_stmt 0
 1219 0000 5C41     		lw	a5,4(a0)
 1220              	.LVL113:
 901:../Peripheral/src/ch32v30x_adc.c ****     tmpreg &= CTLR1_AWDMode_Reset;
 1221              		.loc 1 901 5 is_stmt 1
 1222              		.loc 1 901 12 is_stmt 0
 1223 0002 370740FF 		li	a4,-12582912
 1224 0006 1307F7DF 		addi	a4,a4,-513
 1225 000a F98F     		and	a5,a5,a4
 1226              	.LVL114:
 902:../Peripheral/src/ch32v30x_adc.c ****     tmpreg |= ADC_AnalogWatchdog;
 1227              		.loc 1 902 5 is_stmt 1
 1228              		.loc 1 902 12 is_stmt 0
 1229 000c CD8F     		or	a5,a5,a1
 1230              	.LVL115:
 903:../Peripheral/src/ch32v30x_adc.c ****     ADCx->CTLR1 = tmpreg;
 1231              		.loc 1 903 5 is_stmt 1
 1232              		.loc 1 903 17 is_stmt 0
 1233 000e 5CC1     		sw	a5,4(a0)
 904:../Peripheral/src/ch32v30x_adc.c **** }
 1234              		.loc 1 904 1
 1235 0010 8280     		ret
 1236              		.cfi_endproc
 1237              	.LFE57:
 1239              		.section	.text.ADC_AnalogWatchdogThresholdsConfig,"ax",@progbits
 1240              		.align	1
 1241              		.globl	ADC_AnalogWatchdogThresholdsConfig
 1243              	ADC_AnalogWatchdogThresholdsConfig:
 1244              	.LFB58:
 905:../Peripheral/src/ch32v30x_adc.c **** 
 906:../Peripheral/src/ch32v30x_adc.c **** /*********************************************************************
 907:../Peripheral/src/ch32v30x_adc.c ****  * @fn      ADC_AnalogWatchdogThresholdsConfig
 908:../Peripheral/src/ch32v30x_adc.c ****  *
 909:../Peripheral/src/ch32v30x_adc.c ****  * @brief   Configures the high and low thresholds of the analog watchdog.
 910:../Peripheral/src/ch32v30x_adc.c ****  *
 911:../Peripheral/src/ch32v30x_adc.c ****  * @param   ADCx - where x can be 1 or 2 to select the ADC peripheral.
 912:../Peripheral/src/ch32v30x_adc.c ****  *          HighThreshold - the ADC analog watchdog High threshold value.
 913:../Peripheral/src/ch32v30x_adc.c ****  *            This parameter must be a 12bit value.
 914:../Peripheral/src/ch32v30x_adc.c ****  *          LowThreshold - the ADC analog watchdog Low threshold value.
 915:../Peripheral/src/ch32v30x_adc.c ****  *            This parameter must be a 12bit value.
 916:../Peripheral/src/ch32v30x_adc.c ****  *
 917:../Peripheral/src/ch32v30x_adc.c ****  * @return  none
 918:../Peripheral/src/ch32v30x_adc.c ****  */
 919:../Peripheral/src/ch32v30x_adc.c **** void ADC_AnalogWatchdogThresholdsConfig(ADC_TypeDef *ADCx, uint16_t HighThreshold,
 920:../Peripheral/src/ch32v30x_adc.c ****                                         uint16_t LowThreshold)
 921:../Peripheral/src/ch32v30x_adc.c **** {
 1245              		.loc 1 921 1 is_stmt 1
 1246              		.cfi_startproc
 1247              	.LVL116:
 922:../Peripheral/src/ch32v30x_adc.c ****     ADCx->WDHTR = HighThreshold;
 1248              		.loc 1 922 5
 1249              		.loc 1 922 17 is_stmt 0
 1250 0000 4CD1     		sw	a1,36(a0)
 923:../Peripheral/src/ch32v30x_adc.c ****     ADCx->WDLTR = LowThreshold;
 1251              		.loc 1 923 5 is_stmt 1
 1252              		.loc 1 923 17 is_stmt 0
 1253 0002 10D5     		sw	a2,40(a0)
 924:../Peripheral/src/ch32v30x_adc.c **** }
 1254              		.loc 1 924 1
 1255 0004 8280     		ret
 1256              		.cfi_endproc
 1257              	.LFE58:
 1259              		.section	.text.ADC_AnalogWatchdogSingleChannelConfig,"ax",@progbits
 1260              		.align	1
 1261              		.globl	ADC_AnalogWatchdogSingleChannelConfig
 1263              	ADC_AnalogWatchdogSingleChannelConfig:
 1264              	.LFB59:
 925:../Peripheral/src/ch32v30x_adc.c **** 
 926:../Peripheral/src/ch32v30x_adc.c **** /*********************************************************************
 927:../Peripheral/src/ch32v30x_adc.c ****  * @fn      ADC_AnalogWatchdogSingleChannelConfig
 928:../Peripheral/src/ch32v30x_adc.c ****  *
 929:../Peripheral/src/ch32v30x_adc.c ****  * @brief   Configures the analog watchdog guarded single channel.
 930:../Peripheral/src/ch32v30x_adc.c ****  *
 931:../Peripheral/src/ch32v30x_adc.c ****  * @param   ADCx - where x can be 1 or 2 to select the ADC peripheral.
 932:../Peripheral/src/ch32v30x_adc.c ****  *          ADC_Channel - the ADC channel to configure.
 933:../Peripheral/src/ch32v30x_adc.c ****  *            ADC_Channel_0 - ADC Channel0 selected.
 934:../Peripheral/src/ch32v30x_adc.c ****  *            ADC_Channel_1 - ADC Channel1 selected.
 935:../Peripheral/src/ch32v30x_adc.c ****  *            ADC_Channel_2 - ADC Channel2 selected.
 936:../Peripheral/src/ch32v30x_adc.c ****  *            ADC_Channel_3 - ADC Channel3 selected.
 937:../Peripheral/src/ch32v30x_adc.c ****  *            ADC_Channel_4 - ADC Channel4 selected.
 938:../Peripheral/src/ch32v30x_adc.c ****  *            ADC_Channel_5 - ADC Channel5 selected.
 939:../Peripheral/src/ch32v30x_adc.c ****  *            ADC_Channel_6 - ADC Channel6 selected.
 940:../Peripheral/src/ch32v30x_adc.c ****  *            ADC_Channel_7 - ADC Channel7 selected.
 941:../Peripheral/src/ch32v30x_adc.c ****  *            ADC_Channel_8 - ADC Channel8 selected.
 942:../Peripheral/src/ch32v30x_adc.c ****  *            ADC_Channel_9 - ADC Channel9 selected.
 943:../Peripheral/src/ch32v30x_adc.c ****  *            ADC_Channel_10 - ADC Channel10 selected.
 944:../Peripheral/src/ch32v30x_adc.c ****  *            ADC_Channel_11 - ADC Channel11 selected.
 945:../Peripheral/src/ch32v30x_adc.c ****  *            ADC_Channel_12 - ADC Channel12 selected.
 946:../Peripheral/src/ch32v30x_adc.c ****  *            ADC_Channel_13 - ADC Channel13 selected.
 947:../Peripheral/src/ch32v30x_adc.c ****  *            ADC_Channel_14 - ADC Channel14 selected.
 948:../Peripheral/src/ch32v30x_adc.c ****  *            ADC_Channel_15 - ADC Channel15 selected.
 949:../Peripheral/src/ch32v30x_adc.c ****  *            ADC_Channel_16 - ADC Channel16 selected.
 950:../Peripheral/src/ch32v30x_adc.c ****  *            ADC_Channel_17 - ADC Channel17 selected.
 951:../Peripheral/src/ch32v30x_adc.c ****  *
 952:../Peripheral/src/ch32v30x_adc.c ****  * @return  None
 953:../Peripheral/src/ch32v30x_adc.c ****  */
 954:../Peripheral/src/ch32v30x_adc.c **** void ADC_AnalogWatchdogSingleChannelConfig(ADC_TypeDef *ADCx, uint8_t ADC_Channel)
 955:../Peripheral/src/ch32v30x_adc.c **** {
 1265              		.loc 1 955 1 is_stmt 1
 1266              		.cfi_startproc
 1267              	.LVL117:
 956:../Peripheral/src/ch32v30x_adc.c ****     uint32_t tmpreg = 0;
 1268              		.loc 1 956 5
 957:../Peripheral/src/ch32v30x_adc.c **** 
 958:../Peripheral/src/ch32v30x_adc.c ****     tmpreg = ADCx->CTLR1;
 1269              		.loc 1 958 5
 1270              		.loc 1 958 12 is_stmt 0
 1271 0000 5C41     		lw	a5,4(a0)
 1272              	.LVL118:
 959:../Peripheral/src/ch32v30x_adc.c ****     tmpreg &= CTLR1_AWDCH_Reset;
 1273              		.loc 1 959 5 is_stmt 1
 1274              		.loc 1 959 12 is_stmt 0
 1275 0002 819B     		andi	a5,a5,-32
 1276              	.LVL119:
 960:../Peripheral/src/ch32v30x_adc.c ****     tmpreg |= ADC_Channel;
 1277              		.loc 1 960 5 is_stmt 1
 1278              		.loc 1 960 12 is_stmt 0
 1279 0004 DD8D     		or	a1,a1,a5
 1280              	.LVL120:
 961:../Peripheral/src/ch32v30x_adc.c ****     ADCx->CTLR1 = tmpreg;
 1281              		.loc 1 961 5 is_stmt 1
 1282              		.loc 1 961 17 is_stmt 0
 1283 0006 4CC1     		sw	a1,4(a0)
 962:../Peripheral/src/ch32v30x_adc.c **** }
 1284              		.loc 1 962 1
 1285 0008 8280     		ret
 1286              		.cfi_endproc
 1287              	.LFE59:
 1289              		.section	.text.ADC_TempSensorVrefintCmd,"ax",@progbits
 1290              		.align	1
 1291              		.globl	ADC_TempSensorVrefintCmd
 1293              	ADC_TempSensorVrefintCmd:
 1294              	.LFB60:
 963:../Peripheral/src/ch32v30x_adc.c **** 
 964:../Peripheral/src/ch32v30x_adc.c **** /*********************************************************************
 965:../Peripheral/src/ch32v30x_adc.c ****  * @fn      ADC_TempSensorVrefintCmd
 966:../Peripheral/src/ch32v30x_adc.c ****  *
 967:../Peripheral/src/ch32v30x_adc.c ****  * @brief   Enables or disables the temperature sensor and Vrefint channel.
 968:../Peripheral/src/ch32v30x_adc.c ****  *
 969:../Peripheral/src/ch32v30x_adc.c ****  * @param   NewState - ENABLE or DISABLE.
 970:../Peripheral/src/ch32v30x_adc.c ****  *
 971:../Peripheral/src/ch32v30x_adc.c ****  * @return  none
 972:../Peripheral/src/ch32v30x_adc.c ****  */
 973:../Peripheral/src/ch32v30x_adc.c **** void ADC_TempSensorVrefintCmd(FunctionalState NewState)
 974:../Peripheral/src/ch32v30x_adc.c **** {
 1295              		.loc 1 974 1 is_stmt 1
 1296              		.cfi_startproc
 1297              	.LVL121:
 975:../Peripheral/src/ch32v30x_adc.c ****     if(NewState != DISABLE)
 1298              		.loc 1 975 5
 1299 0000 B7270140 		li	a5,1073815552
 1300 0004 93870740 		addi	a5,a5,1024
 976:../Peripheral/src/ch32v30x_adc.c ****     {
 977:../Peripheral/src/ch32v30x_adc.c ****         ADC1->CTLR2 |= CTLR2_TSVREFE_Set;
 1301              		.loc 1 977 13 is_stmt 0
 1302 0008 9847     		lw	a4,8(a5)
 975:../Peripheral/src/ch32v30x_adc.c ****     if(NewState != DISABLE)
 1303              		.loc 1 975 7
 1304 000a 11C5     		beq	a0,zero,.L75
 1305              		.loc 1 977 9 is_stmt 1
 1306              		.loc 1 977 21 is_stmt 0
 1307 000c B7068000 		li	a3,8388608
 1308 0010 558F     		or	a4,a4,a3
 1309              	.L77:
 978:../Peripheral/src/ch32v30x_adc.c ****     }
 979:../Peripheral/src/ch32v30x_adc.c ****     else
 980:../Peripheral/src/ch32v30x_adc.c ****     {
 981:../Peripheral/src/ch32v30x_adc.c ****         ADC1->CTLR2 &= CTLR2_TSVREFE_Reset;
 1310              		.loc 1 981 21
 1311 0012 98C7     		sw	a4,8(a5)
 982:../Peripheral/src/ch32v30x_adc.c ****     }
 983:../Peripheral/src/ch32v30x_adc.c **** }
 1312              		.loc 1 983 1
 1313 0014 8280     		ret
 1314              	.L75:
 981:../Peripheral/src/ch32v30x_adc.c ****     }
 1315              		.loc 1 981 9 is_stmt 1
 981:../Peripheral/src/ch32v30x_adc.c ****     }
 1316              		.loc 1 981 21 is_stmt 0
 1317 0016 B70680FF 		li	a3,-8388608
 1318 001a FD16     		addi	a3,a3,-1
 1319 001c 758F     		and	a4,a4,a3
 1320 001e D5BF     		j	.L77
 1321              		.cfi_endproc
 1322              	.LFE60:
 1324              		.section	.text.ADC_GetFlagStatus,"ax",@progbits
 1325              		.align	1
 1326              		.globl	ADC_GetFlagStatus
 1328              	ADC_GetFlagStatus:
 1329              	.LFB61:
 984:../Peripheral/src/ch32v30x_adc.c **** 
 985:../Peripheral/src/ch32v30x_adc.c **** /*********************************************************************
 986:../Peripheral/src/ch32v30x_adc.c ****  * @fn      ADC_GetFlagStatus
 987:../Peripheral/src/ch32v30x_adc.c ****  *
 988:../Peripheral/src/ch32v30x_adc.c ****  * @brief   Checks whether the specified ADC flag is set or not.
 989:../Peripheral/src/ch32v30x_adc.c ****  *
 990:../Peripheral/src/ch32v30x_adc.c ****  * @param   ADCx - where x can be 1 or 2 to select the ADC peripheral.
 991:../Peripheral/src/ch32v30x_adc.c ****  *          ADC_FLAG - specifies the flag to check.
 992:../Peripheral/src/ch32v30x_adc.c ****  *            ADC_FLAG_AWD - Analog watchdog flag.
 993:../Peripheral/src/ch32v30x_adc.c ****  *            ADC_FLAG_EOC - End of conversion flag.
 994:../Peripheral/src/ch32v30x_adc.c ****  *            ADC_FLAG_JEOC - End of injected group conversion flag.
 995:../Peripheral/src/ch32v30x_adc.c ****  *            ADC_FLAG_JSTRT - Start of injected group conversion flag.
 996:../Peripheral/src/ch32v30x_adc.c ****  *            ADC_FLAG_STRT - Start of regular group conversion flag.
 997:../Peripheral/src/ch32v30x_adc.c ****  *
 998:../Peripheral/src/ch32v30x_adc.c ****  * @return  FlagStatus: SET or RESET.
 999:../Peripheral/src/ch32v30x_adc.c ****  */
1000:../Peripheral/src/ch32v30x_adc.c **** FlagStatus ADC_GetFlagStatus(ADC_TypeDef *ADCx, uint8_t ADC_FLAG)
1001:../Peripheral/src/ch32v30x_adc.c **** {
 1330              		.loc 1 1001 1 is_stmt 1
 1331              		.cfi_startproc
 1332              	.LVL122:
1002:../Peripheral/src/ch32v30x_adc.c ****     FlagStatus bitstatus = RESET;
 1333              		.loc 1 1002 5
1003:../Peripheral/src/ch32v30x_adc.c **** 
1004:../Peripheral/src/ch32v30x_adc.c ****     if((ADCx->STATR & ADC_FLAG) != (uint8_t)RESET)
 1334              		.loc 1 1004 5
 1335              		.loc 1 1004 13 is_stmt 0
 1336 0000 1C41     		lw	a5,0(a0)
 1337              	.LVL123:
1005:../Peripheral/src/ch32v30x_adc.c ****     {
1006:../Peripheral/src/ch32v30x_adc.c ****         bitstatus = SET;
1007:../Peripheral/src/ch32v30x_adc.c ****     }
1008:../Peripheral/src/ch32v30x_adc.c ****     else
1009:../Peripheral/src/ch32v30x_adc.c ****     {
1010:../Peripheral/src/ch32v30x_adc.c ****         bitstatus = RESET;
1011:../Peripheral/src/ch32v30x_adc.c ****     }
1012:../Peripheral/src/ch32v30x_adc.c **** 
1013:../Peripheral/src/ch32v30x_adc.c ****     return bitstatus;
 1338              		.loc 1 1013 5 is_stmt 1
1004:../Peripheral/src/ch32v30x_adc.c ****     {
 1339              		.loc 1 1004 21 is_stmt 0
 1340 0002 33F5F500 		and	a0,a1,a5
 1341              	.LVL124:
1014:../Peripheral/src/ch32v30x_adc.c **** }
 1342              		.loc 1 1014 1
 1343 0006 3335A000 		snez	a0,a0
 1344 000a 8280     		ret
 1345              		.cfi_endproc
 1346              	.LFE61:
 1348              		.section	.text.ADC_ClearFlag,"ax",@progbits
 1349              		.align	1
 1350              		.globl	ADC_ClearFlag
 1352              	ADC_ClearFlag:
 1353              	.LFB62:
1015:../Peripheral/src/ch32v30x_adc.c **** 
1016:../Peripheral/src/ch32v30x_adc.c **** /*********************************************************************
1017:../Peripheral/src/ch32v30x_adc.c ****  * @fn      ADC_ClearFlag
1018:../Peripheral/src/ch32v30x_adc.c ****  *
1019:../Peripheral/src/ch32v30x_adc.c ****  * @brief   Clears the ADCx's pending flags.
1020:../Peripheral/src/ch32v30x_adc.c ****  *
1021:../Peripheral/src/ch32v30x_adc.c ****  * @param   ADCx - where x can be 1 or 2 to select the ADC peripheral.
1022:../Peripheral/src/ch32v30x_adc.c ****  *          ADC_FLAG - specifies the flag to clear.
1023:../Peripheral/src/ch32v30x_adc.c ****  *            ADC_FLAG_AWD - Analog watchdog flag.
1024:../Peripheral/src/ch32v30x_adc.c ****  *            ADC_FLAG_EOC - End of conversion flag.
1025:../Peripheral/src/ch32v30x_adc.c ****  *            ADC_FLAG_JEOC - End of injected group conversion flag.
1026:../Peripheral/src/ch32v30x_adc.c ****  *            ADC_FLAG_JSTRT - Start of injected group conversion flag.
1027:../Peripheral/src/ch32v30x_adc.c ****  *            ADC_FLAG_STRT - Start of regular group conversion flag.
1028:../Peripheral/src/ch32v30x_adc.c ****  *
1029:../Peripheral/src/ch32v30x_adc.c ****  * @return  none
1030:../Peripheral/src/ch32v30x_adc.c ****  */
1031:../Peripheral/src/ch32v30x_adc.c **** void ADC_ClearFlag(ADC_TypeDef *ADCx, uint8_t ADC_FLAG)
1032:../Peripheral/src/ch32v30x_adc.c **** {
 1354              		.loc 1 1032 1 is_stmt 1
 1355              		.cfi_startproc
 1356              	.LVL125:
1033:../Peripheral/src/ch32v30x_adc.c ****     ADCx->STATR = ~(uint32_t)ADC_FLAG;
 1357              		.loc 1 1033 5
 1358              		.loc 1 1033 19 is_stmt 0
 1359 0000 93C5F5FF 		not	a1,a1
 1360              	.LVL126:
 1361              		.loc 1 1033 17
 1362 0004 0CC1     		sw	a1,0(a0)
1034:../Peripheral/src/ch32v30x_adc.c **** }
 1363              		.loc 1 1034 1
 1364 0006 8280     		ret
 1365              		.cfi_endproc
 1366              	.LFE62:
 1368              		.section	.text.ADC_GetITStatus,"ax",@progbits
 1369              		.align	1
 1370              		.globl	ADC_GetITStatus
 1372              	ADC_GetITStatus:
 1373              	.LFB63:
1035:../Peripheral/src/ch32v30x_adc.c **** 
1036:../Peripheral/src/ch32v30x_adc.c **** /*********************************************************************
1037:../Peripheral/src/ch32v30x_adc.c ****  * @fn      ADC_GetITStatus
1038:../Peripheral/src/ch32v30x_adc.c ****  *
1039:../Peripheral/src/ch32v30x_adc.c ****  * @brief   Checks whether the specified ADC interrupt has occurred or not.
1040:../Peripheral/src/ch32v30x_adc.c ****  *
1041:../Peripheral/src/ch32v30x_adc.c ****  * @param   ADCx - where x can be 1 or 2 to select the ADC peripheral.
1042:../Peripheral/src/ch32v30x_adc.c ****  *          ADC_IT - specifies the ADC interrupt source to check.
1043:../Peripheral/src/ch32v30x_adc.c ****  *            ADC_IT_EOC - End of conversion interrupt mask.
1044:../Peripheral/src/ch32v30x_adc.c ****  *            ADC_IT_AWD - Analog watchdog interrupt mask.
1045:../Peripheral/src/ch32v30x_adc.c ****  *            ADC_IT_JEOC - End of injected conversion interrupt mask.
1046:../Peripheral/src/ch32v30x_adc.c ****  *
1047:../Peripheral/src/ch32v30x_adc.c ****  * @return  FlagStatus: SET or RESET.
1048:../Peripheral/src/ch32v30x_adc.c ****  */
1049:../Peripheral/src/ch32v30x_adc.c **** ITStatus ADC_GetITStatus(ADC_TypeDef *ADCx, uint16_t ADC_IT)
1050:../Peripheral/src/ch32v30x_adc.c **** {
 1374              		.loc 1 1050 1 is_stmt 1
 1375              		.cfi_startproc
 1376              	.LVL127:
1051:../Peripheral/src/ch32v30x_adc.c ****     ITStatus bitstatus = RESET;
 1377              		.loc 1 1051 5
1052:../Peripheral/src/ch32v30x_adc.c ****     uint32_t itmask = 0, enablestatus = 0;
 1378              		.loc 1 1052 5
1053:../Peripheral/src/ch32v30x_adc.c **** 
1054:../Peripheral/src/ch32v30x_adc.c ****     itmask = ADC_IT >> 8;
 1379              		.loc 1 1054 5
1055:../Peripheral/src/ch32v30x_adc.c ****     enablestatus = (ADCx->CTLR1 & (uint8_t)ADC_IT);
 1380              		.loc 1 1055 5
 1381              		.loc 1 1055 25 is_stmt 0
 1382 0000 5C41     		lw	a5,4(a0)
 1383              	.LVL128:
1056:../Peripheral/src/ch32v30x_adc.c **** 
1057:../Peripheral/src/ch32v30x_adc.c ****     if(((ADCx->STATR & itmask) != (uint32_t)RESET) && enablestatus)
 1384              		.loc 1 1057 5 is_stmt 1
 1385              		.loc 1 1057 14 is_stmt 0
 1386 0002 1841     		lw	a4,0(a0)
1054:../Peripheral/src/ch32v30x_adc.c ****     enablestatus = (ADCx->CTLR1 & (uint8_t)ADC_IT);
 1387              		.loc 1 1054 12
 1388 0004 13D58500 		srli	a0,a1,8
 1389              	.LVL129:
 1390              		.loc 1 1057 22
 1391 0008 798D     		and	a0,a0,a4
 1392              		.loc 1 1057 7
 1393 000a 11C5     		beq	a0,zero,.L80
1055:../Peripheral/src/ch32v30x_adc.c ****     enablestatus = (ADCx->CTLR1 & (uint8_t)ADC_IT);
 1394              		.loc 1 1055 35 discriminator 1
 1395 000c 93F5F50F 		andi	a1,a1,0xff
 1396              	.LVL130:
1055:../Peripheral/src/ch32v30x_adc.c ****     enablestatus = (ADCx->CTLR1 & (uint8_t)ADC_IT);
 1397              		.loc 1 1055 18 discriminator 1
 1398 0010 FD8D     		and	a1,a1,a5
 1399              	.LVL131:
 1400              		.loc 1 1057 52 discriminator 1
 1401 0012 3335B000 		snez	a0,a1
 1402              	.LVL132:
1058:../Peripheral/src/ch32v30x_adc.c ****     {
1059:../Peripheral/src/ch32v30x_adc.c ****         bitstatus = SET;
1060:../Peripheral/src/ch32v30x_adc.c ****     }
1061:../Peripheral/src/ch32v30x_adc.c ****     else
1062:../Peripheral/src/ch32v30x_adc.c ****     {
1063:../Peripheral/src/ch32v30x_adc.c ****         bitstatus = RESET;
1064:../Peripheral/src/ch32v30x_adc.c ****     }
1065:../Peripheral/src/ch32v30x_adc.c **** 
1066:../Peripheral/src/ch32v30x_adc.c ****     return bitstatus;
 1403              		.loc 1 1066 5 is_stmt 1 discriminator 1
 1404              	.L80:
1067:../Peripheral/src/ch32v30x_adc.c **** }
 1405              		.loc 1 1067 1 is_stmt 0
 1406 0016 8280     		ret
 1407              		.cfi_endproc
 1408              	.LFE63:
 1410              		.section	.text.ADC_ClearITPendingBit,"ax",@progbits
 1411              		.align	1
 1412              		.globl	ADC_ClearITPendingBit
 1414              	ADC_ClearITPendingBit:
 1415              	.LFB64:
1068:../Peripheral/src/ch32v30x_adc.c **** 
1069:../Peripheral/src/ch32v30x_adc.c **** /*********************************************************************
1070:../Peripheral/src/ch32v30x_adc.c ****  * @fn      ADC_ClearITPendingBit
1071:../Peripheral/src/ch32v30x_adc.c ****  *
1072:../Peripheral/src/ch32v30x_adc.c ****  * @brief   Clears the ADCx's interrupt pending bits.
1073:../Peripheral/src/ch32v30x_adc.c ****  *
1074:../Peripheral/src/ch32v30x_adc.c ****  * @param   ADCx - where x can be 1 or 2 to select the ADC peripheral.
1075:../Peripheral/src/ch32v30x_adc.c ****  *          ADC_IT - specifies the ADC interrupt pending bit to clear.
1076:../Peripheral/src/ch32v30x_adc.c ****  *            ADC_IT_EOC - End of conversion interrupt mask.
1077:../Peripheral/src/ch32v30x_adc.c ****  *            ADC_IT_AWD - Analog watchdog interrupt mask.
1078:../Peripheral/src/ch32v30x_adc.c ****  *            ADC_IT_JEOC - End of injected conversion interrupt mask.
1079:../Peripheral/src/ch32v30x_adc.c ****  *
1080:../Peripheral/src/ch32v30x_adc.c ****  * @return  none
1081:../Peripheral/src/ch32v30x_adc.c ****  */
1082:../Peripheral/src/ch32v30x_adc.c **** void ADC_ClearITPendingBit(ADC_TypeDef *ADCx, uint16_t ADC_IT)
1083:../Peripheral/src/ch32v30x_adc.c **** {
 1416              		.loc 1 1083 1 is_stmt 1
 1417              		.cfi_startproc
 1418              	.LVL133:
1084:../Peripheral/src/ch32v30x_adc.c ****     uint8_t itmask = 0;
 1419              		.loc 1 1084 5
1085:../Peripheral/src/ch32v30x_adc.c **** 
1086:../Peripheral/src/ch32v30x_adc.c ****     itmask = (uint8_t)(ADC_IT >> 8);
 1420              		.loc 1 1086 5
1087:../Peripheral/src/ch32v30x_adc.c ****     ADCx->STATR = ~(uint32_t)itmask;
 1421              		.loc 1 1087 5
 1422              		.loc 1 1087 20 is_stmt 0
 1423 0000 A181     		srli	a1,a1,8
 1424              	.LVL134:
 1425              		.loc 1 1087 19
 1426 0002 93C5F5FF 		not	a1,a1
 1427              		.loc 1 1087 17
 1428 0006 0CC1     		sw	a1,0(a0)
1088:../Peripheral/src/ch32v30x_adc.c **** }
 1429              		.loc 1 1088 1
 1430 0008 8280     		ret
 1431              		.cfi_endproc
 1432              	.LFE64:
 1434              		.section	.text.TempSensor_Volt_To_Temper,"ax",@progbits
 1435              		.align	1
 1436              		.globl	TempSensor_Volt_To_Temper
 1438              	TempSensor_Volt_To_Temper:
 1439              	.LFB65:
1089:../Peripheral/src/ch32v30x_adc.c **** 
1090:../Peripheral/src/ch32v30x_adc.c **** /*********************************************************************
1091:../Peripheral/src/ch32v30x_adc.c ****  * @fn      TempSensor_Volt_To_Temper
1092:../Peripheral/src/ch32v30x_adc.c ****  *
1093:../Peripheral/src/ch32v30x_adc.c ****  * @brief   Internal Temperature Sensor Voltage to temperature.
1094:../Peripheral/src/ch32v30x_adc.c ****  *
1095:../Peripheral/src/ch32v30x_adc.c ****  * @param   Value - Voltage Value(mv).
1096:../Peripheral/src/ch32v30x_adc.c ****  *
1097:../Peripheral/src/ch32v30x_adc.c ****  * @return  Temper - Temperature Value.
1098:../Peripheral/src/ch32v30x_adc.c ****  */
1099:../Peripheral/src/ch32v30x_adc.c **** s32 TempSensor_Volt_To_Temper(s32 Value)
1100:../Peripheral/src/ch32v30x_adc.c **** {
 1440              		.loc 1 1100 1 is_stmt 1
 1441              		.cfi_startproc
 1442              	.LVL135:
1101:../Peripheral/src/ch32v30x_adc.c ****     s32 Temper, Refer_Volt, Refer_Temper;
 1443              		.loc 1 1101 5
1102:../Peripheral/src/ch32v30x_adc.c ****     s32 k = 43;
 1444              		.loc 1 1102 5
1103:../Peripheral/src/ch32v30x_adc.c **** 
1104:../Peripheral/src/ch32v30x_adc.c ****     Refer_Volt = (s32)((*(u32 *)0x1FFFF720) & 0x0000FFFF);
 1445              		.loc 1 1104 5
 1446              		.loc 1 1104 25 is_stmt 0
 1447 0000 B7F7FF1F 		li	a5,536866816
 1448 0004 83A70772 		lw	a5,1824(a5)
 1449              	.LVL136:
1105:../Peripheral/src/ch32v30x_adc.c ****     Refer_Temper = (s32)(((*(u32 *)0x1FFFF720) >> 16) & 0x0000FFFF);
 1450              		.loc 1 1105 5 is_stmt 1
1106:../Peripheral/src/ch32v30x_adc.c **** 
1107:../Peripheral/src/ch32v30x_adc.c ****     Temper = Refer_Temper - ((Value - Refer_Volt) * 10 + (k >> 1)) / k;
 1451              		.loc 1 1107 5
1108:../Peripheral/src/ch32v30x_adc.c **** 
1109:../Peripheral/src/ch32v30x_adc.c ****     return Temper;
 1452              		.loc 1 1109 5
1105:../Peripheral/src/ch32v30x_adc.c **** 
 1453              		.loc 1 1105 48 is_stmt 0
 1454 0008 13D70701 		srli	a4,a5,16
 1455              	.LVL137:
1104:../Peripheral/src/ch32v30x_adc.c ****     Refer_Temper = (s32)(((*(u32 *)0x1FFFF720) >> 16) & 0x0000FFFF);
 1456              		.loc 1 1104 16
 1457 000c C207     		slli	a5,a5,16
 1458              	.LVL138:
 1459 000e C183     		srli	a5,a5,16
1107:../Peripheral/src/ch32v30x_adc.c **** 
 1460              		.loc 1 1107 37
 1461 0010 1D8D     		sub	a0,a0,a5
 1462              	.LVL139:
1107:../Peripheral/src/ch32v30x_adc.c **** 
 1463              		.loc 1 1107 51
 1464 0012 A947     		li	a5,10
 1465 0014 3305F502 		mul	a0,a0,a5
1107:../Peripheral/src/ch32v30x_adc.c **** 
 1466              		.loc 1 1107 68
 1467 0018 9307B002 		li	a5,43
1107:../Peripheral/src/ch32v30x_adc.c **** 
 1468              		.loc 1 1107 56
 1469 001c 5505     		addi	a0,a0,21
1107:../Peripheral/src/ch32v30x_adc.c **** 
 1470              		.loc 1 1107 68
 1471 001e 3345F502 		div	a0,a0,a5
1110:../Peripheral/src/ch32v30x_adc.c **** }
 1472              		.loc 1 1110 1
 1473 0022 3305A740 		sub	a0,a4,a0
 1474 0026 8280     		ret
 1475              		.cfi_endproc
 1476              	.LFE65:
 1478              		.section	.text.ADC_BufferCmd,"ax",@progbits
 1479              		.align	1
 1480              		.globl	ADC_BufferCmd
 1482              	ADC_BufferCmd:
 1483              	.LFB66:
1111:../Peripheral/src/ch32v30x_adc.c **** 
1112:../Peripheral/src/ch32v30x_adc.c **** /*********************************************************************
1113:../Peripheral/src/ch32v30x_adc.c ****  * @fn      ADC_BufferCmd
1114:../Peripheral/src/ch32v30x_adc.c ****  *
1115:../Peripheral/src/ch32v30x_adc.c ****  * @brief   Enables or disables the ADCx buffer.
1116:../Peripheral/src/ch32v30x_adc.c ****  *
1117:../Peripheral/src/ch32v30x_adc.c ****  * @param   ADCx - where x can be 1 or 2 to select the ADC peripheral.
1118:../Peripheral/src/ch32v30x_adc.c ****  *          NewState - ENABLE or DISABLE.
1119:../Peripheral/src/ch32v30x_adc.c ****  *
1120:../Peripheral/src/ch32v30x_adc.c ****  * @return  none
1121:../Peripheral/src/ch32v30x_adc.c ****  */
1122:../Peripheral/src/ch32v30x_adc.c **** void ADC_BufferCmd(ADC_TypeDef *ADCx, FunctionalState NewState)
1123:../Peripheral/src/ch32v30x_adc.c **** {
 1484              		.loc 1 1123 1 is_stmt 1
 1485              		.cfi_startproc
 1486              	.LVL140:
1124:../Peripheral/src/ch32v30x_adc.c ****     if(NewState != DISABLE)
 1487              		.loc 1 1124 5
1125:../Peripheral/src/ch32v30x_adc.c ****     {
1126:../Peripheral/src/ch32v30x_adc.c ****         ADCx->CTLR1 |= (1 << 26);
 1488              		.loc 1 1126 13 is_stmt 0
 1489 0000 5C41     		lw	a5,4(a0)
1124:../Peripheral/src/ch32v30x_adc.c ****     if(NewState != DISABLE)
 1490              		.loc 1 1124 7
 1491 0002 91C5     		beq	a1,zero,.L88
 1492              		.loc 1 1126 9 is_stmt 1
 1493              		.loc 1 1126 21 is_stmt 0
 1494 0004 37070004 		li	a4,67108864
 1495 0008 D98F     		or	a5,a5,a4
 1496              	.L90:
1127:../Peripheral/src/ch32v30x_adc.c ****     }
1128:../Peripheral/src/ch32v30x_adc.c ****     else
1129:../Peripheral/src/ch32v30x_adc.c ****     {
1130:../Peripheral/src/ch32v30x_adc.c ****         ADCx->CTLR1 &= ~(1 << 26);
 1497              		.loc 1 1130 21
 1498 000a 5CC1     		sw	a5,4(a0)
1131:../Peripheral/src/ch32v30x_adc.c ****     }
1132:../Peripheral/src/ch32v30x_adc.c **** }
 1499              		.loc 1 1132 1
 1500 000c 8280     		ret
 1501              	.L88:
1130:../Peripheral/src/ch32v30x_adc.c ****     }
 1502              		.loc 1 1130 9 is_stmt 1
1130:../Peripheral/src/ch32v30x_adc.c ****     }
 1503              		.loc 1 1130 21 is_stmt 0
 1504 000e 370700FC 		li	a4,-67108864
 1505 0012 7D17     		addi	a4,a4,-1
 1506 0014 F98F     		and	a5,a5,a4
 1507 0016 D5BF     		j	.L90
 1508              		.cfi_endproc
 1509              	.LFE66:
 1511              		.section	.text.Get_CalibrationValue,"ax",@progbits
 1512              		.align	1
 1513              		.globl	Get_CalibrationValue
 1515              	Get_CalibrationValue:
 1516              	.LFB67:
1133:../Peripheral/src/ch32v30x_adc.c **** 
1134:../Peripheral/src/ch32v30x_adc.c **** /*********************************************************************
1135:../Peripheral/src/ch32v30x_adc.c ****  * @fn      Get_CalibrationValue
1136:../Peripheral/src/ch32v30x_adc.c ****  *
1137:../Peripheral/src/ch32v30x_adc.c ****  * @brief   Get ADCx Calibration Value.
1138:../Peripheral/src/ch32v30x_adc.c ****  *
1139:../Peripheral/src/ch32v30x_adc.c ****  * @param   ADCx - where x can be 1 or 2 to select the ADC peripheral.
1140:../Peripheral/src/ch32v30x_adc.c ****  *
1141:../Peripheral/src/ch32v30x_adc.c ****  * @return  CalibrationValue
1142:../Peripheral/src/ch32v30x_adc.c ****  */
1143:../Peripheral/src/ch32v30x_adc.c **** int16_t Get_CalibrationValue(ADC_TypeDef *ADCx)
1144:../Peripheral/src/ch32v30x_adc.c **** {
 1517              		.loc 1 1144 1 is_stmt 1
 1518              		.cfi_startproc
 1519              	.LVL141:
 1520 0000 17030000 		call	t0,__riscv_save_2
 1520      E7020300 
 1521              		.cfi_offset 9, -12
 1522              		.cfi_offset 8, -8
 1523              		.cfi_offset 1, -4
 1524              		.cfi_def_cfa_offset 16
1145:../Peripheral/src/ch32v30x_adc.c ****     __IO uint8_t  i, j;
 1525              		.loc 1 1145 5
1146:../Peripheral/src/ch32v30x_adc.c ****     uint16_t      buf[10];
 1526              		.loc 1 1146 5
1147:../Peripheral/src/ch32v30x_adc.c ****     __IO uint16_t t;
 1527              		.loc 1 1147 5
1148:../Peripheral/src/ch32v30x_adc.c **** 
1149:../Peripheral/src/ch32v30x_adc.c ****     for(i = 0; i < 10; i++)
 1528              		.loc 1 1149 5
1144:../Peripheral/src/ch32v30x_adc.c ****     __IO uint8_t  i, j;
 1529              		.loc 1 1144 1 is_stmt 0
 1530 0008 0111     		addi	sp,sp,-32
 1531              		.cfi_def_cfa_offset 48
1144:../Peripheral/src/ch32v30x_adc.c ****     __IO uint8_t  i, j;
 1532              		.loc 1 1144 1
 1533 000a 2A84     		mv	s0,a0
 1534              		.loc 1 1149 11
 1535 000c 23040100 		sb	zero,8(sp)
 1536              		.loc 1 1149 18
 1537 0010 A544     		li	s1,9
 1538              	.LVL142:
 1539              	.L92:
 1540              		.loc 1 1149 18 is_stmt 1 discriminator 1
 1541 0012 1C84     		lbu	a5,8(sp)
 1542 0014 63FBF404 		bleu	a5,s1,.L95
1150:../Peripheral/src/ch32v30x_adc.c ****     {
1151:../Peripheral/src/ch32v30x_adc.c ****         ADC_ResetCalibration(ADCx);
1152:../Peripheral/src/ch32v30x_adc.c ****         while(ADC_GetResetCalibrationStatus(ADCx))
1153:../Peripheral/src/ch32v30x_adc.c ****             ;
1154:../Peripheral/src/ch32v30x_adc.c ****         ADC_StartCalibration(ADCx);
1155:../Peripheral/src/ch32v30x_adc.c ****         while(ADC_GetCalibrationStatus(ADCx))
1156:../Peripheral/src/ch32v30x_adc.c ****             ;
1157:../Peripheral/src/ch32v30x_adc.c ****         buf[i] = ADCx->RDATAR;
1158:../Peripheral/src/ch32v30x_adc.c ****     }
1159:../Peripheral/src/ch32v30x_adc.c **** 
1160:../Peripheral/src/ch32v30x_adc.c ****     for(i = 0; i < 10; i++)
 1543              		.loc 1 1160 5
 1544              		.loc 1 1160 11 is_stmt 0
 1545 0018 23040100 		sb	zero,8(sp)
 1546              		.loc 1 1160 18
 1547 001c A546     		li	a3,9
1161:../Peripheral/src/ch32v30x_adc.c ****     {
1162:../Peripheral/src/ch32v30x_adc.c ****         for(j = 0; j < 9; j++)
 1548              		.loc 1 1162 22
 1549 001e 2146     		li	a2,8
 1550              	.L96:
1160:../Peripheral/src/ch32v30x_adc.c ****     {
 1551              		.loc 1 1160 18 is_stmt 1 discriminator 1
 1552 0020 1C84     		lbu	a5,8(sp)
 1553 0022 63F6F608 		bleu	a5,a3,.L100
1163:../Peripheral/src/ch32v30x_adc.c ****         {
1164:../Peripheral/src/ch32v30x_adc.c ****             if(buf[j] > buf[j + 1])
1165:../Peripheral/src/ch32v30x_adc.c ****             {
1166:../Peripheral/src/ch32v30x_adc.c ****                 t = buf[j];
1167:../Peripheral/src/ch32v30x_adc.c ****                 buf[j] = buf[j + 1];
1168:../Peripheral/src/ch32v30x_adc.c ****                 buf[j + 1] = t;
1169:../Peripheral/src/ch32v30x_adc.c ****             }
1170:../Peripheral/src/ch32v30x_adc.c ****         }
1171:../Peripheral/src/ch32v30x_adc.c ****     }
1172:../Peripheral/src/ch32v30x_adc.c **** 
1173:../Peripheral/src/ch32v30x_adc.c ****     t = 0;
 1554              		.loc 1 1173 5
 1555              		.loc 1 1173 7 is_stmt 0
 1556 0026 23150100 		sh	zero,10(sp)
1174:../Peripheral/src/ch32v30x_adc.c ****     for(i = 0; i < 6; i++)
 1557              		.loc 1 1174 5 is_stmt 1
 1558              		.loc 1 1174 11 is_stmt 0
 1559 002a 23040100 		sb	zero,8(sp)
 1560              		.loc 1 1174 18
 1561 002e 9546     		li	a3,5
 1562              	.L101:
 1563              		.loc 1 1174 18 is_stmt 1 discriminator 1
 1564 0030 1C84     		lbu	a5,8(sp)
 1565 0032 63F1F610 		bleu	a5,a3,.L102
1175:../Peripheral/src/ch32v30x_adc.c ****     {
1176:../Peripheral/src/ch32v30x_adc.c ****         t += buf[i + 2];
1177:../Peripheral/src/ch32v30x_adc.c ****     }
1178:../Peripheral/src/ch32v30x_adc.c **** 
1179:../Peripheral/src/ch32v30x_adc.c ****     t = (t / 6) + ((t % 6) / 3);
 1566              		.loc 1 1179 5
 1567              		.loc 1 1179 17 is_stmt 0
 1568 0036 3885     		lhu	a4,10(sp)
 1569 0038 3C85     		lhu	a5,10(sp)
 1570 003a 9946     		li	a3,6
 1571 003c 0D46     		li	a2,3
 1572 003e B3F7D702 		remu	a5,a5,a3
1180:../Peripheral/src/ch32v30x_adc.c **** 
1181:../Peripheral/src/ch32v30x_adc.c ****     return (int16_t)(2048 - (int16_t)t);
 1573              		.loc 1 1181 27
 1574 0042 0565     		li	a0,4096
 1575 0044 13050580 		addi	a0,a0,-2048
1179:../Peripheral/src/ch32v30x_adc.c **** 
 1576              		.loc 1 1179 17
 1577 0048 B3D7C702 		divu	a5,a5,a2
 1578 004c 3357D702 		divu	a4,a4,a3
 1579 0050 BA97     		add	a5,a5,a4
 1580 0052 C207     		slli	a5,a5,16
 1581 0054 C183     		srli	a5,a5,16
1179:../Peripheral/src/ch32v30x_adc.c **** 
 1582              		.loc 1 1179 7
 1583 0056 7C85     		sh	a5,10(sp)
 1584              		.loc 1 1181 5 is_stmt 1
 1585              		.loc 1 1181 29 is_stmt 0
 1586 0058 3C85     		lhu	a5,10(sp)
1182:../Peripheral/src/ch32v30x_adc.c **** }
 1587              		.loc 1 1182 1
 1588 005a 0561     		addi	sp,sp,32
 1589              		.cfi_remember_state
 1590              		.cfi_def_cfa_offset 0
1181:../Peripheral/src/ch32v30x_adc.c **** }
 1591              		.loc 1 1181 27
 1592 005c 1D8D     		sub	a0,a0,a5
 1593              		.loc 1 1182 1
 1594 005e 4205     		slli	a0,a0,16
 1595 0060 4185     		srai	a0,a0,16
 1596 0062 17030000 		tail	__riscv_restore_2
 1596      67000300 
 1597              		.cfi_restore 9
 1598              		.cfi_restore 8
 1599              		.cfi_restore 1
 1600              		.cfi_def_cfa_offset -16
 1601              	.L95:
 1602              		.cfi_restore_state
1151:../Peripheral/src/ch32v30x_adc.c ****         while(ADC_GetResetCalibrationStatus(ADCx))
 1603              		.loc 1 1151 9 is_stmt 1
 1604              	.LVL143:
 1605              	.LBB6:
 1606              	.LBB7:
 277:../Peripheral/src/ch32v30x_adc.c **** }
 1607              		.loc 1 277 5
 277:../Peripheral/src/ch32v30x_adc.c **** }
 1608              		.loc 1 277 9 is_stmt 0
 1609 006a 1C44     		lw	a5,8(s0)
 277:../Peripheral/src/ch32v30x_adc.c **** }
 1610              		.loc 1 277 17
 1611 006c 93E78700 		ori	a5,a5,8
 1612 0070 1CC4     		sw	a5,8(s0)
 1613              	.LVL144:
 1614              	.L93:
 1615              	.LBE7:
 1616              	.LBE6:
1152:../Peripheral/src/ch32v30x_adc.c ****             ;
 1617              		.loc 1 1152 15 is_stmt 1 discriminator 1
 1618 0072 2285     		mv	a0,s0
 1619 0074 97000000 		call	ADC_GetResetCalibrationStatus
 1619      E7800000 
 1620              	.LVL145:
 1621 007c 7DF9     		bne	a0,zero,.L93
1154:../Peripheral/src/ch32v30x_adc.c ****         while(ADC_GetCalibrationStatus(ADCx))
 1622              		.loc 1 1154 9
 1623              	.LVL146:
 1624              	.LBB8:
 1625              	.LBB9:
 316:../Peripheral/src/ch32v30x_adc.c **** }
 1626              		.loc 1 316 5
 316:../Peripheral/src/ch32v30x_adc.c **** }
 1627              		.loc 1 316 9 is_stmt 0
 1628 007e 1C44     		lw	a5,8(s0)
 316:../Peripheral/src/ch32v30x_adc.c **** }
 1629              		.loc 1 316 17
 1630 0080 93E74700 		ori	a5,a5,4
 1631 0084 1CC4     		sw	a5,8(s0)
 1632              	.LVL147:
 1633              	.L94:
 1634              	.LBE9:
 1635              	.LBE8:
1155:../Peripheral/src/ch32v30x_adc.c ****             ;
 1636              		.loc 1 1155 15 is_stmt 1 discriminator 1
 1637 0086 2285     		mv	a0,s0
 1638 0088 97000000 		call	ADC_GetCalibrationStatus
 1638      E7800000 
 1639              	.LVL148:
 1640 0090 7DF9     		bne	a0,zero,.L94
1157:../Peripheral/src/ch32v30x_adc.c ****     }
 1641              		.loc 1 1157 9 discriminator 2
1157:../Peripheral/src/ch32v30x_adc.c ****     }
 1642              		.loc 1 1157 22 is_stmt 0 discriminator 2
 1643 0092 7844     		lw	a4,76(s0)
1157:../Peripheral/src/ch32v30x_adc.c ****     }
 1644              		.loc 1 1157 12 discriminator 2
 1645 0094 1C84     		lbu	a5,8(sp)
1157:../Peripheral/src/ch32v30x_adc.c ****     }
 1646              		.loc 1 1157 16 discriminator 2
 1647 0096 8607     		slli	a5,a5,1
 1648 0098 93870702 		addi	a5,a5,32
 1649 009c 8A97     		add	a5,a5,sp
 1650 009e 2396E7FE 		sh	a4,-20(a5)
1149:../Peripheral/src/ch32v30x_adc.c ****     {
 1651              		.loc 1 1149 25 is_stmt 1 discriminator 2
 1652 00a2 1C84     		lbu	a5,8(sp)
 1653 00a4 8507     		addi	a5,a5,1
 1654 00a6 93F7F70F 		andi	a5,a5,0xff
 1655 00aa 5C84     		sb	a5,8(sp)
 1656 00ac 9DB7     		j	.L92
 1657              	.L100:
1162:../Peripheral/src/ch32v30x_adc.c ****         {
 1658              		.loc 1 1162 9
1162:../Peripheral/src/ch32v30x_adc.c ****         {
 1659              		.loc 1 1162 15 is_stmt 0
 1660 00ae A3040100 		sb	zero,9(sp)
 1661              	.L97:
1162:../Peripheral/src/ch32v30x_adc.c ****         {
 1662              		.loc 1 1162 22 is_stmt 1 discriminator 1
 1663 00b2 9C84     		lbu	a5,9(sp)
 1664 00b4 6378F600 		bleu	a5,a2,.L99
1160:../Peripheral/src/ch32v30x_adc.c ****     {
 1665              		.loc 1 1160 25 discriminator 2
 1666 00b8 1C84     		lbu	a5,8(sp)
 1667 00ba 8507     		addi	a5,a5,1
 1668 00bc 93F7F70F 		andi	a5,a5,0xff
 1669 00c0 5C84     		sb	a5,8(sp)
 1670 00c2 B9BF     		j	.L96
 1671              	.L99:
1164:../Peripheral/src/ch32v30x_adc.c ****             {
 1672              		.loc 1 1164 13
1164:../Peripheral/src/ch32v30x_adc.c ****             {
 1673              		.loc 1 1164 19 is_stmt 0
 1674 00c4 9884     		lbu	a4,9(sp)
1164:../Peripheral/src/ch32v30x_adc.c ****             {
 1675              		.loc 1 1164 31
 1676 00c6 9C84     		lbu	a5,9(sp)
1164:../Peripheral/src/ch32v30x_adc.c ****             {
 1677              		.loc 1 1164 19
 1678 00c8 0607     		slli	a4,a4,1
1164:../Peripheral/src/ch32v30x_adc.c ****             {
 1679              		.loc 1 1164 28
 1680 00ca 8507     		addi	a5,a5,1
 1681 00cc 8607     		slli	a5,a5,1
1164:../Peripheral/src/ch32v30x_adc.c ****             {
 1682              		.loc 1 1164 19
 1683 00ce 13070702 		addi	a4,a4,32
1164:../Peripheral/src/ch32v30x_adc.c ****             {
 1684              		.loc 1 1164 28
 1685 00d2 93870702 		addi	a5,a5,32
1164:../Peripheral/src/ch32v30x_adc.c ****             {
 1686              		.loc 1 1164 19
 1687 00d6 0A97     		add	a4,a4,sp
1164:../Peripheral/src/ch32v30x_adc.c ****             {
 1688              		.loc 1 1164 28
 1689 00d8 8A97     		add	a5,a5,sp
1164:../Peripheral/src/ch32v30x_adc.c ****             {
 1690              		.loc 1 1164 15
 1691 00da 0357C7FE 		lhu	a4,-20(a4)
 1692 00de 83D7C7FE 		lhu	a5,-20(a5)
 1693 00e2 63F3E704 		bleu	a4,a5,.L98
1166:../Peripheral/src/ch32v30x_adc.c ****                 buf[j] = buf[j + 1];
 1694              		.loc 1 1166 17 is_stmt 1
1166:../Peripheral/src/ch32v30x_adc.c ****                 buf[j] = buf[j + 1];
 1695              		.loc 1 1166 24 is_stmt 0
 1696 00e6 9C84     		lbu	a5,9(sp)
 1697 00e8 8607     		slli	a5,a5,1
 1698 00ea 93870702 		addi	a5,a5,32
 1699 00ee 8A97     		add	a5,a5,sp
 1700 00f0 83D7C7FE 		lhu	a5,-20(a5)
1166:../Peripheral/src/ch32v30x_adc.c ****                 buf[j] = buf[j + 1];
 1701              		.loc 1 1166 19
 1702 00f4 7C85     		sh	a5,10(sp)
1167:../Peripheral/src/ch32v30x_adc.c ****                 buf[j + 1] = t;
 1703              		.loc 1 1167 17 is_stmt 1
1167:../Peripheral/src/ch32v30x_adc.c ****                 buf[j + 1] = t;
 1704              		.loc 1 1167 32 is_stmt 0
 1705 00f6 9C84     		lbu	a5,9(sp)
1167:../Peripheral/src/ch32v30x_adc.c ****                 buf[j + 1] = t;
 1706              		.loc 1 1167 20
 1707 00f8 9884     		lbu	a4,9(sp)
1167:../Peripheral/src/ch32v30x_adc.c ****                 buf[j + 1] = t;
 1708              		.loc 1 1167 29
 1709 00fa 8507     		addi	a5,a5,1
 1710 00fc 8607     		slli	a5,a5,1
 1711 00fe 93870702 		addi	a5,a5,32
 1712 0102 8A97     		add	a5,a5,sp
 1713 0104 83D5C7FE 		lhu	a1,-20(a5)
1167:../Peripheral/src/ch32v30x_adc.c ****                 buf[j + 1] = t;
 1714              		.loc 1 1167 24
 1715 0108 93171700 		slli	a5,a4,1
 1716 010c 93870702 		addi	a5,a5,32
 1717 0110 8A97     		add	a5,a5,sp
 1718 0112 2396B7FE 		sh	a1,-20(a5)
1168:../Peripheral/src/ch32v30x_adc.c ****             }
 1719              		.loc 1 1168 17 is_stmt 1
1168:../Peripheral/src/ch32v30x_adc.c ****             }
 1720              		.loc 1 1168 23 is_stmt 0
 1721 0116 9C84     		lbu	a5,9(sp)
1168:../Peripheral/src/ch32v30x_adc.c ****             }
 1722              		.loc 1 1168 28
 1723 0118 3885     		lhu	a4,10(sp)
 1724 011a 8507     		addi	a5,a5,1
 1725 011c 8607     		slli	a5,a5,1
 1726 011e 93870702 		addi	a5,a5,32
 1727 0122 8A97     		add	a5,a5,sp
 1728 0124 2396E7FE 		sh	a4,-20(a5)
 1729              	.L98:
1162:../Peripheral/src/ch32v30x_adc.c ****         {
 1730              		.loc 1 1162 28 is_stmt 1 discriminator 2
 1731 0128 9C84     		lbu	a5,9(sp)
 1732 012a 8507     		addi	a5,a5,1
 1733 012c 93F7F70F 		andi	a5,a5,0xff
 1734 0130 DC84     		sb	a5,9(sp)
 1735 0132 41B7     		j	.L97
 1736              	.L102:
1176:../Peripheral/src/ch32v30x_adc.c ****     }
 1737              		.loc 1 1176 9 discriminator 3
1176:../Peripheral/src/ch32v30x_adc.c ****     }
 1738              		.loc 1 1176 20 is_stmt 0 discriminator 3
 1739 0134 1C84     		lbu	a5,8(sp)
1176:../Peripheral/src/ch32v30x_adc.c ****     }
 1740              		.loc 1 1176 11 discriminator 3
 1741 0136 3885     		lhu	a4,10(sp)
1176:../Peripheral/src/ch32v30x_adc.c ****     }
 1742              		.loc 1 1176 17 discriminator 3
 1743 0138 8907     		addi	a5,a5,2
 1744 013a 8607     		slli	a5,a5,1
 1745 013c 93870702 		addi	a5,a5,32
 1746 0140 8A97     		add	a5,a5,sp
1176:../Peripheral/src/ch32v30x_adc.c ****     }
 1747              		.loc 1 1176 11 discriminator 3
 1748 0142 83D7C7FE 		lhu	a5,-20(a5)
 1749 0146 BA97     		add	a5,a4,a5
 1750 0148 C207     		slli	a5,a5,16
 1751 014a C183     		srli	a5,a5,16
 1752 014c 7C85     		sh	a5,10(sp)
1174:../Peripheral/src/ch32v30x_adc.c ****     {
 1753              		.loc 1 1174 24 is_stmt 1 discriminator 3
 1754 014e 1C84     		lbu	a5,8(sp)
 1755 0150 8507     		addi	a5,a5,1
 1756 0152 93F7F70F 		andi	a5,a5,0xff
 1757 0156 5C84     		sb	a5,8(sp)
 1758 0158 E1BD     		j	.L101
 1759              		.cfi_endproc
 1760              	.LFE67:
 1762              		.text
 1763              	.Letext0:
 1764              		.file 2 "d:\\software\\mounriver_studio\\toolchain\\risc-v embedded gcc12\\riscv-none-elf\\include
 1765              		.file 3 "d:\\software\\mounriver_studio\\toolchain\\risc-v embedded gcc12\\riscv-none-elf\\include
 1766              		.file 4 "C:\\Users\\localhost\\Documents\\turbomoskal-repo\\qqexpert\\firmware\\MasterController\\
 1767              		.file 5 "C:\\Users\\localhost\\Documents\\turbomoskal-repo\\qqexpert\\firmware\\MasterController\\
 1768              		.file 6 "C:\\Users\\localhost\\Documents\\turbomoskal-repo\\qqexpert\\firmware\\MasterController\\
 1769              		.file 7 "C:\\Users\\localhost\\Documents\\turbomoskal-repo\\qqexpert\\firmware\\MasterController\\