   1              		.file	"ch32v30x_wwdg.c"
   2              		.option nopic
   3              		.attribute arch, "rv32i2p0_m2p0_a2p0_f2p0_c2p0_xw"
   4              		.attribute unaligned_access, 0
   5              		.attribute stack_align, 16
   6              		.text
   7              	.Ltext0:
   8              		.cfi_sections	.debug_frame
   9              		.file 0 "C:\\Users\\localhost\\Documents\\turbomoskal-repo\\qqexpert\\firmware\\MasterController\\
  10              		.section	.text.WWDG_DeInit,"ax",@progbits
  11              		.align	1
  12              		.globl	WWDG_DeInit
  14              	WWDG_DeInit:
  15              	.LFB29:
  16              		.file 1 "../Peripheral/src/ch32v30x_wwdg.c"
   1:../Peripheral/src/ch32v30x_wwdg.c **** /********************************** (C) COPYRIGHT *******************************
   2:../Peripheral/src/ch32v30x_wwdg.c **** * File Name          : ch32v30x_wwdg.c
   3:../Peripheral/src/ch32v30x_wwdg.c **** * Author             : WCH
   4:../Peripheral/src/ch32v30x_wwdg.c **** * Version            : V1.0.0
   5:../Peripheral/src/ch32v30x_wwdg.c **** * Date               : 2021/06/06
   6:../Peripheral/src/ch32v30x_wwdg.c **** * Description        : This file provides all the WWDG firmware functions.
   7:../Peripheral/src/ch32v30x_wwdg.c **** *********************************************************************************
   8:../Peripheral/src/ch32v30x_wwdg.c **** * Copyright (c) 2021 Nanjing Qinheng Microelectronics Co., Ltd.
   9:../Peripheral/src/ch32v30x_wwdg.c **** * Attention: This software (modified or not) and binary are used for 
  10:../Peripheral/src/ch32v30x_wwdg.c **** * microcontroller manufactured by Nanjing Qinheng Microelectronics.
  11:../Peripheral/src/ch32v30x_wwdg.c **** *******************************************************************************/
  12:../Peripheral/src/ch32v30x_wwdg.c **** #include "ch32v30x_wwdg.h"
  13:../Peripheral/src/ch32v30x_wwdg.c **** #include "ch32v30x_rcc.h"
  14:../Peripheral/src/ch32v30x_wwdg.c **** 
  15:../Peripheral/src/ch32v30x_wwdg.c **** /* CTLR register bit mask */
  16:../Peripheral/src/ch32v30x_wwdg.c **** #define CTLR_WDGA_Set      ((uint32_t)0x00000080)
  17:../Peripheral/src/ch32v30x_wwdg.c **** 
  18:../Peripheral/src/ch32v30x_wwdg.c **** /* CFGR register bit mask */
  19:../Peripheral/src/ch32v30x_wwdg.c **** #define CFGR_WDGTB_Mask    ((uint32_t)0xFFFFFE7F)
  20:../Peripheral/src/ch32v30x_wwdg.c **** #define CFGR_W_Mask        ((uint32_t)0xFFFFFF80)
  21:../Peripheral/src/ch32v30x_wwdg.c **** #define BIT_Mask           ((uint8_t)0x7F)
  22:../Peripheral/src/ch32v30x_wwdg.c **** 
  23:../Peripheral/src/ch32v30x_wwdg.c **** /*********************************************************************
  24:../Peripheral/src/ch32v30x_wwdg.c ****  * @fn      WWDG_DeInit
  25:../Peripheral/src/ch32v30x_wwdg.c ****  *
  26:../Peripheral/src/ch32v30x_wwdg.c ****  * @brief   Deinitializes the WWDG peripheral registers to their default reset values
  27:../Peripheral/src/ch32v30x_wwdg.c ****  *
  28:../Peripheral/src/ch32v30x_wwdg.c ****  * @return  none
  29:../Peripheral/src/ch32v30x_wwdg.c ****  */
  30:../Peripheral/src/ch32v30x_wwdg.c **** void WWDG_DeInit(void)
  31:../Peripheral/src/ch32v30x_wwdg.c **** {
  17              		.loc 1 31 1
  18              		.cfi_startproc
  19 0000 17030000 		call	t0,__riscv_save_1
  19      E7020300 
  20              		.cfi_offset 8, -8
  21              		.cfi_offset 1, -4
  22              		.cfi_def_cfa_offset 16
  32:../Peripheral/src/ch32v30x_wwdg.c ****     RCC_APB1PeriphResetCmd(RCC_APB1Periph_WWDG, ENABLE);
  23              		.loc 1 32 5
  24 0008 0564     		li	s0,4096
  25 000a 13050480 		addi	a0,s0,-2048
  26 000e 8545     		li	a1,1
  27 0010 97000000 		call	RCC_APB1PeriphResetCmd
  27      E7800000 
  28              	.LVL0:
  33:../Peripheral/src/ch32v30x_wwdg.c ****     RCC_APB1PeriphResetCmd(RCC_APB1Periph_WWDG, DISABLE);
  29              		.loc 1 33 5
  30 0018 8145     		li	a1,0
  31 001a 13050480 		addi	a0,s0,-2048
  32 001e 97000000 		call	RCC_APB1PeriphResetCmd
  32      E7800000 
  33              	.LVL1:
  34:../Peripheral/src/ch32v30x_wwdg.c **** }
  34              		.loc 1 34 1 is_stmt 0
  35 0026 17030000 		tail	__riscv_restore_1
  35      67000300 
  36              		.cfi_restore 8
  37              		.cfi_restore 1
  38              		.cfi_def_cfa_offset 0
  39              		.cfi_endproc
  40              	.LFE29:
  42              		.section	.text.WWDG_SetPrescaler,"ax",@progbits
  43              		.align	1
  44              		.globl	WWDG_SetPrescaler
  46              	WWDG_SetPrescaler:
  47              	.LFB30:
  35:../Peripheral/src/ch32v30x_wwdg.c **** 
  36:../Peripheral/src/ch32v30x_wwdg.c **** /*********************************************************************
  37:../Peripheral/src/ch32v30x_wwdg.c ****  * @fn      WWDG_SetPrescaler
  38:../Peripheral/src/ch32v30x_wwdg.c ****  *
  39:../Peripheral/src/ch32v30x_wwdg.c ****  * @brief   Sets the WWDG Prescaler
  40:../Peripheral/src/ch32v30x_wwdg.c ****  *
  41:../Peripheral/src/ch32v30x_wwdg.c ****  * @param   WWDG_Prescaler - specifies the WWDG Prescaler
  42:../Peripheral/src/ch32v30x_wwdg.c ****  *            WWDG_Prescaler_1 - WWDG counter clock = (PCLK1/4096)/1
  43:../Peripheral/src/ch32v30x_wwdg.c ****  *            WWDG_Prescaler_2 - WWDG counter clock = (PCLK1/4096)/2
  44:../Peripheral/src/ch32v30x_wwdg.c ****  *            WWDG_Prescaler_4 - WWDG counter clock = (PCLK1/4096)/4
  45:../Peripheral/src/ch32v30x_wwdg.c ****  *            WWDG_Prescaler_8 - WWDG counter clock = (PCLK1/4096)/8
  46:../Peripheral/src/ch32v30x_wwdg.c ****  *
  47:../Peripheral/src/ch32v30x_wwdg.c ****  * @return  none
  48:../Peripheral/src/ch32v30x_wwdg.c ****  */
  49:../Peripheral/src/ch32v30x_wwdg.c **** void WWDG_SetPrescaler(uint32_t WWDG_Prescaler)
  50:../Peripheral/src/ch32v30x_wwdg.c **** {
  48              		.loc 1 50 1 is_stmt 1
  49              		.cfi_startproc
  50              	.LVL2:
  51:../Peripheral/src/ch32v30x_wwdg.c ****     uint32_t tmpreg = 0;
  51              		.loc 1 51 5
  52:../Peripheral/src/ch32v30x_wwdg.c ****     tmpreg = WWDG->CFGR & CFGR_WDGTB_Mask;
  52              		.loc 1 52 5
  53              		.loc 1 52 18 is_stmt 0
  54 0000 37370040 		li	a4,1073754112
  55 0004 130707C0 		addi	a4,a4,-1024
  56 0008 5C43     		lw	a5,4(a4)
  57              		.loc 1 52 12
  58 000a 93F7F7E7 		andi	a5,a5,-385
  59              	.LVL3:
  53:../Peripheral/src/ch32v30x_wwdg.c ****     tmpreg |= WWDG_Prescaler;
  60              		.loc 1 53 5 is_stmt 1
  61              		.loc 1 53 12 is_stmt 0
  62 000e C98F     		or	a5,a5,a0
  63              	.LVL4:
  54:../Peripheral/src/ch32v30x_wwdg.c ****     WWDG->CFGR = tmpreg;
  64              		.loc 1 54 5 is_stmt 1
  65              		.loc 1 54 16 is_stmt 0
  66 0010 5CC3     		sw	a5,4(a4)
  55:../Peripheral/src/ch32v30x_wwdg.c **** }
  67              		.loc 1 55 1
  68 0012 8280     		ret
  69              		.cfi_endproc
  70              	.LFE30:
  72              		.section	.text.WWDG_SetWindowValue,"ax",@progbits
  73              		.align	1
  74              		.globl	WWDG_SetWindowValue
  76              	WWDG_SetWindowValue:
  77              	.LFB31:
  56:../Peripheral/src/ch32v30x_wwdg.c **** 
  57:../Peripheral/src/ch32v30x_wwdg.c **** /*********************************************************************
  58:../Peripheral/src/ch32v30x_wwdg.c ****  * @fn      WWDG_SetWindowValue
  59:../Peripheral/src/ch32v30x_wwdg.c ****  *
  60:../Peripheral/src/ch32v30x_wwdg.c ****  * @brief   Sets the WWDG window value
  61:../Peripheral/src/ch32v30x_wwdg.c ****  *
  62:../Peripheral/src/ch32v30x_wwdg.c ****  * @param   WindowValue - specifies the window value to be compared to the
  63:../Peripheral/src/ch32v30x_wwdg.c ****  *        downcounter,which must be lower than 0x80
  64:../Peripheral/src/ch32v30x_wwdg.c ****  *
  65:../Peripheral/src/ch32v30x_wwdg.c ****  * @return  none
  66:../Peripheral/src/ch32v30x_wwdg.c ****  */
  67:../Peripheral/src/ch32v30x_wwdg.c **** void WWDG_SetWindowValue(uint8_t WindowValue)
  68:../Peripheral/src/ch32v30x_wwdg.c **** {
  78              		.loc 1 68 1 is_stmt 1
  79              		.cfi_startproc
  80              	.LVL5:
  69:../Peripheral/src/ch32v30x_wwdg.c ****     __IO uint32_t tmpreg = 0;
  81              		.loc 1 69 5
  68:../Peripheral/src/ch32v30x_wwdg.c ****     __IO uint32_t tmpreg = 0;
  82              		.loc 1 68 1 is_stmt 0
  83 0000 4111     		addi	sp,sp,-16
  84              		.cfi_def_cfa_offset 16
  70:../Peripheral/src/ch32v30x_wwdg.c **** 
  71:../Peripheral/src/ch32v30x_wwdg.c ****     tmpreg = WWDG->CFGR & CFGR_W_Mask;
  85              		.loc 1 71 18
  86 0002 B7370040 		li	a5,1073754112
  69:../Peripheral/src/ch32v30x_wwdg.c **** 
  87              		.loc 1 69 19
  88 0006 02C6     		sw	zero,12(sp)
  89              		.loc 1 71 5 is_stmt 1
  90              		.loc 1 71 18 is_stmt 0
  91 0008 938707C0 		addi	a5,a5,-1024
  92 000c D843     		lw	a4,4(a5)
  72:../Peripheral/src/ch32v30x_wwdg.c **** 
  73:../Peripheral/src/ch32v30x_wwdg.c ****     tmpreg |= WindowValue & (uint32_t)BIT_Mask;
  93              		.loc 1 73 27
  94 000e 1375F507 		andi	a0,a0,127
  95              	.LVL6:
  71:../Peripheral/src/ch32v30x_wwdg.c **** 
  96              		.loc 1 71 25
  97 0012 137707F8 		andi	a4,a4,-128
  71:../Peripheral/src/ch32v30x_wwdg.c **** 
  98              		.loc 1 71 12
  99 0016 3AC6     		sw	a4,12(sp)
 100              		.loc 1 73 5 is_stmt 1
 101              		.loc 1 73 12 is_stmt 0
 102 0018 3247     		lw	a4,12(sp)
 103 001a 598D     		or	a0,a0,a4
 104 001c 2AC6     		sw	a0,12(sp)
  74:../Peripheral/src/ch32v30x_wwdg.c **** 
  75:../Peripheral/src/ch32v30x_wwdg.c ****     WWDG->CFGR = tmpreg;
 105              		.loc 1 75 5 is_stmt 1
 106              		.loc 1 75 16 is_stmt 0
 107 001e 3247     		lw	a4,12(sp)
 108 0020 D8C3     		sw	a4,4(a5)
  76:../Peripheral/src/ch32v30x_wwdg.c **** }
 109              		.loc 1 76 1
 110 0022 4101     		addi	sp,sp,16
 111              		.cfi_def_cfa_offset 0
 112 0024 8280     		jr	ra
 113              		.cfi_endproc
 114              	.LFE31:
 116              		.section	.text.WWDG_EnableIT,"ax",@progbits
 117              		.align	1
 118              		.globl	WWDG_EnableIT
 120              	WWDG_EnableIT:
 121              	.LFB32:
  77:../Peripheral/src/ch32v30x_wwdg.c **** 
  78:../Peripheral/src/ch32v30x_wwdg.c **** /*********************************************************************
  79:../Peripheral/src/ch32v30x_wwdg.c ****  * @fn      WWDG_EnableIT
  80:../Peripheral/src/ch32v30x_wwdg.c ****  *
  81:../Peripheral/src/ch32v30x_wwdg.c ****  * @brief   Enables the WWDG Early Wakeup interrupt(EWI)
  82:../Peripheral/src/ch32v30x_wwdg.c ****  *
  83:../Peripheral/src/ch32v30x_wwdg.c ****  * @return  none
  84:../Peripheral/src/ch32v30x_wwdg.c ****  */
  85:../Peripheral/src/ch32v30x_wwdg.c **** void WWDG_EnableIT(void)
  86:../Peripheral/src/ch32v30x_wwdg.c **** {
 122              		.loc 1 86 1 is_stmt 1
 123              		.cfi_startproc
  87:../Peripheral/src/ch32v30x_wwdg.c ****     WWDG->CFGR |= (1 << 9);
 124              		.loc 1 87 5
 125              		.loc 1 87 9 is_stmt 0
 126 0000 B7370040 		li	a5,1073754112
 127 0004 938707C0 		addi	a5,a5,-1024
 128 0008 D843     		lw	a4,4(a5)
 129              		.loc 1 87 16
 130 000a 13670720 		ori	a4,a4,512
 131 000e D8C3     		sw	a4,4(a5)
  88:../Peripheral/src/ch32v30x_wwdg.c **** }
 132              		.loc 1 88 1
 133 0010 8280     		ret
 134              		.cfi_endproc
 135              	.LFE32:
 137              		.section	.text.WWDG_SetCounter,"ax",@progbits
 138              		.align	1
 139              		.globl	WWDG_SetCounter
 141              	WWDG_SetCounter:
 142              	.LFB33:
  89:../Peripheral/src/ch32v30x_wwdg.c **** 
  90:../Peripheral/src/ch32v30x_wwdg.c **** /*********************************************************************
  91:../Peripheral/src/ch32v30x_wwdg.c ****  * @fn      WWDG_SetCounter
  92:../Peripheral/src/ch32v30x_wwdg.c ****  *
  93:../Peripheral/src/ch32v30x_wwdg.c ****  * @brief   Sets the WWDG counter value
  94:../Peripheral/src/ch32v30x_wwdg.c ****  *
  95:../Peripheral/src/ch32v30x_wwdg.c ****  * @param   Counter - specifies the watchdog counter value,which must be a
  96:../Peripheral/src/ch32v30x_wwdg.c ****  *        number between 0x40 and 0x7F
  97:../Peripheral/src/ch32v30x_wwdg.c ****  *
  98:../Peripheral/src/ch32v30x_wwdg.c ****  * @return  none
  99:../Peripheral/src/ch32v30x_wwdg.c ****  */
 100:../Peripheral/src/ch32v30x_wwdg.c **** void WWDG_SetCounter(uint8_t Counter)
 101:../Peripheral/src/ch32v30x_wwdg.c **** {
 143              		.loc 1 101 1 is_stmt 1
 144              		.cfi_startproc
 145              	.LVL7:
 102:../Peripheral/src/ch32v30x_wwdg.c ****     WWDG->CTLR = Counter & BIT_Mask;
 146              		.loc 1 102 5
 147              		.loc 1 102 26 is_stmt 0
 148 0000 1375F507 		andi	a0,a0,127
 149              	.LVL8:
 150              		.loc 1 102 16
 151 0004 B7370040 		li	a5,1073754112
 152 0008 23A0A7C0 		sw	a0,-1024(a5)
 103:../Peripheral/src/ch32v30x_wwdg.c **** }
 153              		.loc 1 103 1
 154 000c 8280     		ret
 155              		.cfi_endproc
 156              	.LFE33:
 158              		.section	.text.WWDG_Enable,"ax",@progbits
 159              		.align	1
 160              		.globl	WWDG_Enable
 162              	WWDG_Enable:
 163              	.LFB34:
 104:../Peripheral/src/ch32v30x_wwdg.c **** 
 105:../Peripheral/src/ch32v30x_wwdg.c **** /*********************************************************************
 106:../Peripheral/src/ch32v30x_wwdg.c ****  * @fn      WWDG_Enable
 107:../Peripheral/src/ch32v30x_wwdg.c ****  *
 108:../Peripheral/src/ch32v30x_wwdg.c ****  * @brief   Enables WWDG and load the counter value
 109:../Peripheral/src/ch32v30x_wwdg.c ****  *
 110:../Peripheral/src/ch32v30x_wwdg.c ****  * @param   Counter - specifies the watchdog counter value,which must be a
 111:../Peripheral/src/ch32v30x_wwdg.c ****  *        number between 0x40 and 0x7F
 112:../Peripheral/src/ch32v30x_wwdg.c ****  * @return  none
 113:../Peripheral/src/ch32v30x_wwdg.c ****  */
 114:../Peripheral/src/ch32v30x_wwdg.c **** void WWDG_Enable(uint8_t Counter)
 115:../Peripheral/src/ch32v30x_wwdg.c **** {
 164              		.loc 1 115 1 is_stmt 1
 165              		.cfi_startproc
 166              	.LVL9:
 116:../Peripheral/src/ch32v30x_wwdg.c ****     WWDG->CTLR = CTLR_WDGA_Set | Counter;
 167              		.loc 1 116 5
 168              		.loc 1 116 32 is_stmt 0
 169 0000 13650508 		ori	a0,a0,128
 170              	.LVL10:
 171              		.loc 1 116 16
 172 0004 B7370040 		li	a5,1073754112
 173 0008 23A0A7C0 		sw	a0,-1024(a5)
 117:../Peripheral/src/ch32v30x_wwdg.c **** }
 174              		.loc 1 117 1
 175 000c 8280     		ret
 176              		.cfi_endproc
 177              	.LFE34:
 179              		.section	.text.WWDG_GetFlagStatus,"ax",@progbits
 180              		.align	1
 181              		.globl	WWDG_GetFlagStatus
 183              	WWDG_GetFlagStatus:
 184              	.LFB35:
 118:../Peripheral/src/ch32v30x_wwdg.c **** 
 119:../Peripheral/src/ch32v30x_wwdg.c **** /*********************************************************************
 120:../Peripheral/src/ch32v30x_wwdg.c ****  * @fn      WWDG_GetFlagStatus
 121:../Peripheral/src/ch32v30x_wwdg.c ****  *
 122:../Peripheral/src/ch32v30x_wwdg.c ****  * @brief   Checks whether the Early Wakeup interrupt flag is set or not
 123:../Peripheral/src/ch32v30x_wwdg.c ****  *
 124:../Peripheral/src/ch32v30x_wwdg.c ****  * @return  The new state of the Early Wakeup interrupt flag (SET or RESET)
 125:../Peripheral/src/ch32v30x_wwdg.c ****  */
 126:../Peripheral/src/ch32v30x_wwdg.c **** FlagStatus WWDG_GetFlagStatus(void)
 127:../Peripheral/src/ch32v30x_wwdg.c **** {
 185              		.loc 1 127 1 is_stmt 1
 186              		.cfi_startproc
 128:../Peripheral/src/ch32v30x_wwdg.c ****     return (FlagStatus)(WWDG->STATR);
 187              		.loc 1 128 5
 188              		.loc 1 128 12 is_stmt 0
 189 0000 B7370040 		li	a5,1073754112
 190 0004 938707C0 		addi	a5,a5,-1024
 191 0008 8847     		lw	a0,8(a5)
 129:../Peripheral/src/ch32v30x_wwdg.c **** }
 192              		.loc 1 129 1
 193 000a 8280     		ret
 194              		.cfi_endproc
 195              	.LFE35:
 197              		.section	.text.WWDG_ClearFlag,"ax",@progbits
 198              		.align	1
 199              		.globl	WWDG_ClearFlag
 201              	WWDG_ClearFlag:
 202              	.LFB36:
 130:../Peripheral/src/ch32v30x_wwdg.c **** 
 131:../Peripheral/src/ch32v30x_wwdg.c **** /*********************************************************************
 132:../Peripheral/src/ch32v30x_wwdg.c ****  * @fn      WWDG_ClearFlag
 133:../Peripheral/src/ch32v30x_wwdg.c ****  *
 134:../Peripheral/src/ch32v30x_wwdg.c ****  * @brief   Clears Early Wakeup interrupt flag
 135:../Peripheral/src/ch32v30x_wwdg.c ****  *
 136:../Peripheral/src/ch32v30x_wwdg.c ****  * @return  none
 137:../Peripheral/src/ch32v30x_wwdg.c ****  */
 138:../Peripheral/src/ch32v30x_wwdg.c **** void WWDG_ClearFlag(void)
 139:../Peripheral/src/ch32v30x_wwdg.c **** {
 203              		.loc 1 139 1 is_stmt 1
 204              		.cfi_startproc
 140:../Peripheral/src/ch32v30x_wwdg.c ****     WWDG->STATR = (uint32_t)RESET;
 205              		.loc 1 140 5
 206              		.loc 1 140 17 is_stmt 0
 207 0000 B7370040 		li	a5,1073754112
 208 0004 938707C0 		addi	a5,a5,-1024
 209 0008 23A40700 		sw	zero,8(a5)
 141:../Peripheral/src/ch32v30x_wwdg.c **** }
 210              		.loc 1 141 1
 211 000c 8280     		ret
 212              		.cfi_endproc
 213              	.LFE36:
 215              		.text
 216              	.Letext0:
 217              		.file 2 "d:\\software\\mounriver_studio\\toolchain\\risc-v embedded gcc12\\riscv-none-elf\\include
 218              		.file 3 "d:\\software\\mounriver_studio\\toolchain\\risc-v embedded gcc12\\riscv-none-elf\\include
 219              		.file 4 "C:\\Users\\localhost\\Documents\\turbomoskal-repo\\qqexpert\\firmware\\MasterController\\
 220              		.file 5 "C:\\Users\\localhost\\Documents\\turbomoskal-repo\\qqexpert\\firmware\\MasterController\\
 221              		.file 6 "C:\\Users\\localhost\\Documents\\turbomoskal-repo\\qqexpert\\firmware\\MasterController\\
DEFINED SYMBOLS
                            *ABS*:0000000000000000 ch32v30x_wwdg.c
C:\Users\LOCALH~1\AppData\Local\Temp\cczDwJ89.s:14     .text.WWDG_DeInit:0000000000000000 WWDG_DeInit
C:\Users\LOCALH~1\AppData\Local\Temp\cczDwJ89.s:18     .text.WWDG_DeInit:0000000000000000 .L0 
C:\Users\LOCALH~1\AppData\Local\Temp\cczDwJ89.s:19     .text.WWDG_DeInit:0000000000000000 $x
C:\Users\LOCALH~1\AppData\Local\Temp\cczDwJ89.s:19     .text.WWDG_DeInit:0000000000000000 .L0 
C:\Users\LOCALH~1\AppData\Local\Temp\cczDwJ89.s:20     .text.WWDG_DeInit:0000000000000008 .L0 
C:\Users\LOCALH~1\AppData\Local\Temp\cczDwJ89.s:21     .text.WWDG_DeInit:0000000000000008 .L0 
C:\Users\LOCALH~1\AppData\Local\Temp\cczDwJ89.s:22     .text.WWDG_DeInit:0000000000000008 .L0 
C:\Users\LOCALH~1\AppData\Local\Temp\cczDwJ89.s:24     .text.WWDG_DeInit:0000000000000008 .L0 
C:\Users\LOCALH~1\AppData\Local\Temp\cczDwJ89.s:30     .text.WWDG_DeInit:0000000000000018 .L0 
C:\Users\LOCALH~1\AppData\Local\Temp\cczDwJ89.s:35     .text.WWDG_DeInit:0000000000000026 .L0 
C:\Users\LOCALH~1\AppData\Local\Temp\cczDwJ89.s:36     .text.WWDG_DeInit:000000000000002e .L0 
C:\Users\LOCALH~1\AppData\Local\Temp\cczDwJ89.s:37     .text.WWDG_DeInit:000000000000002e .L0 
C:\Users\LOCALH~1\AppData\Local\Temp\cczDwJ89.s:38     .text.WWDG_DeInit:000000000000002e .L0 
C:\Users\LOCALH~1\AppData\Local\Temp\cczDwJ89.s:39     .text.WWDG_DeInit:000000000000002e .L0 
C:\Users\LOCALH~1\AppData\Local\Temp\cczDwJ89.s:46     .text.WWDG_SetPrescaler:0000000000000000 WWDG_SetPrescaler
C:\Users\LOCALH~1\AppData\Local\Temp\cczDwJ89.s:49     .text.WWDG_SetPrescaler:0000000000000000 .L0 
C:\Users\LOCALH~1\AppData\Local\Temp\cczDwJ89.s:51     .text.WWDG_SetPrescaler:0000000000000000 .L0 
C:\Users\LOCALH~1\AppData\Local\Temp\cczDwJ89.s:52     .text.WWDG_SetPrescaler:0000000000000000 .L0 
C:\Users\LOCALH~1\AppData\Local\Temp\cczDwJ89.s:53     .text.WWDG_SetPrescaler:0000000000000000 .L0 
C:\Users\LOCALH~1\AppData\Local\Temp\cczDwJ89.s:54     .text.WWDG_SetPrescaler:0000000000000000 $x
C:\Users\LOCALH~1\AppData\Local\Temp\cczDwJ89.s:54     .text.WWDG_SetPrescaler:0000000000000000 .L0 
C:\Users\LOCALH~1\AppData\Local\Temp\cczDwJ89.s:58     .text.WWDG_SetPrescaler:000000000000000a .L0 
C:\Users\LOCALH~1\AppData\Local\Temp\cczDwJ89.s:61     .text.WWDG_SetPrescaler:000000000000000e .L0 
C:\Users\LOCALH~1\AppData\Local\Temp\cczDwJ89.s:62     .text.WWDG_SetPrescaler:000000000000000e .L0 
C:\Users\LOCALH~1\AppData\Local\Temp\cczDwJ89.s:65     .text.WWDG_SetPrescaler:0000000000000010 .L0 
C:\Users\LOCALH~1\AppData\Local\Temp\cczDwJ89.s:66     .text.WWDG_SetPrescaler:0000000000000010 .L0 
C:\Users\LOCALH~1\AppData\Local\Temp\cczDwJ89.s:68     .text.WWDG_SetPrescaler:0000000000000012 .L0 
C:\Users\LOCALH~1\AppData\Local\Temp\cczDwJ89.s:69     .text.WWDG_SetPrescaler:0000000000000014 .L0 
C:\Users\LOCALH~1\AppData\Local\Temp\cczDwJ89.s:76     .text.WWDG_SetWindowValue:0000000000000000 WWDG_SetWindowValue
C:\Users\LOCALH~1\AppData\Local\Temp\cczDwJ89.s:79     .text.WWDG_SetWindowValue:0000000000000000 .L0 
C:\Users\LOCALH~1\AppData\Local\Temp\cczDwJ89.s:81     .text.WWDG_SetWindowValue:0000000000000000 .L0 
C:\Users\LOCALH~1\AppData\Local\Temp\cczDwJ89.s:82     .text.WWDG_SetWindowValue:0000000000000000 .L0 
C:\Users\LOCALH~1\AppData\Local\Temp\cczDwJ89.s:83     .text.WWDG_SetWindowValue:0000000000000000 $x
C:\Users\LOCALH~1\AppData\Local\Temp\cczDwJ89.s:83     .text.WWDG_SetWindowValue:0000000000000000 .L0 
C:\Users\LOCALH~1\AppData\Local\Temp\cczDwJ89.s:84     .text.WWDG_SetWindowValue:0000000000000002 .L0 
C:\Users\LOCALH~1\AppData\Local\Temp\cczDwJ89.s:86     .text.WWDG_SetWindowValue:0000000000000002 .L0 
C:\Users\LOCALH~1\AppData\Local\Temp\cczDwJ89.s:88     .text.WWDG_SetWindowValue:0000000000000006 .L0 
C:\Users\LOCALH~1\AppData\Local\Temp\cczDwJ89.s:90     .text.WWDG_SetWindowValue:0000000000000008 .L0 
C:\Users\LOCALH~1\AppData\Local\Temp\cczDwJ89.s:91     .text.WWDG_SetWindowValue:0000000000000008 .L0 
C:\Users\LOCALH~1\AppData\Local\Temp\cczDwJ89.s:94     .text.WWDG_SetWindowValue:000000000000000e .L0 
C:\Users\LOCALH~1\AppData\Local\Temp\cczDwJ89.s:97     .text.WWDG_SetWindowValue:0000000000000012 .L0 
C:\Users\LOCALH~1\AppData\Local\Temp\cczDwJ89.s:99     .text.WWDG_SetWindowValue:0000000000000016 .L0 
C:\Users\LOCALH~1\AppData\Local\Temp\cczDwJ89.s:101    .text.WWDG_SetWindowValue:0000000000000018 .L0 
C:\Users\LOCALH~1\AppData\Local\Temp\cczDwJ89.s:102    .text.WWDG_SetWindowValue:0000000000000018 .L0 
C:\Users\LOCALH~1\AppData\Local\Temp\cczDwJ89.s:106    .text.WWDG_SetWindowValue:000000000000001e .L0 
C:\Users\LOCALH~1\AppData\Local\Temp\cczDwJ89.s:107    .text.WWDG_SetWindowValue:000000000000001e .L0 
C:\Users\LOCALH~1\AppData\Local\Temp\cczDwJ89.s:110    .text.WWDG_SetWindowValue:0000000000000022 .L0 
C:\Users\LOCALH~1\AppData\Local\Temp\cczDwJ89.s:111    .text.WWDG_SetWindowValue:0000000000000024 .L0 
C:\Users\LOCALH~1\AppData\Local\Temp\cczDwJ89.s:113    .text.WWDG_SetWindowValue:0000000000000026 .L0 
C:\Users\LOCALH~1\AppData\Local\Temp\cczDwJ89.s:120    .text.WWDG_EnableIT:0000000000000000 WWDG_EnableIT
C:\Users\LOCALH~1\AppData\Local\Temp\cczDwJ89.s:123    .text.WWDG_EnableIT:0000000000000000 .L0 
C:\Users\LOCALH~1\AppData\Local\Temp\cczDwJ89.s:124    .text.WWDG_EnableIT:0000000000000000 .L0 
C:\Users\LOCALH~1\AppData\Local\Temp\cczDwJ89.s:125    .text.WWDG_EnableIT:0000000000000000 .L0 
C:\Users\LOCALH~1\AppData\Local\Temp\cczDwJ89.s:126    .text.WWDG_EnableIT:0000000000000000 $x
C:\Users\LOCALH~1\AppData\Local\Temp\cczDwJ89.s:126    .text.WWDG_EnableIT:0000000000000000 .L0 
C:\Users\LOCALH~1\AppData\Local\Temp\cczDwJ89.s:130    .text.WWDG_EnableIT:000000000000000a .L0 
C:\Users\LOCALH~1\AppData\Local\Temp\cczDwJ89.s:133    .text.WWDG_EnableIT:0000000000000010 .L0 
C:\Users\LOCALH~1\AppData\Local\Temp\cczDwJ89.s:134    .text.WWDG_EnableIT:0000000000000012 .L0 
C:\Users\LOCALH~1\AppData\Local\Temp\cczDwJ89.s:141    .text.WWDG_SetCounter:0000000000000000 WWDG_SetCounter
C:\Users\LOCALH~1\AppData\Local\Temp\cczDwJ89.s:144    .text.WWDG_SetCounter:0000000000000000 .L0 
C:\Users\LOCALH~1\AppData\Local\Temp\cczDwJ89.s:146    .text.WWDG_SetCounter:0000000000000000 .L0 
C:\Users\LOCALH~1\AppData\Local\Temp\cczDwJ89.s:147    .text.WWDG_SetCounter:0000000000000000 .L0 
C:\Users\LOCALH~1\AppData\Local\Temp\cczDwJ89.s:148    .text.WWDG_SetCounter:0000000000000000 $x
C:\Users\LOCALH~1\AppData\Local\Temp\cczDwJ89.s:148    .text.WWDG_SetCounter:0000000000000000 .L0 
C:\Users\LOCALH~1\AppData\Local\Temp\cczDwJ89.s:151    .text.WWDG_SetCounter:0000000000000004 .L0 
C:\Users\LOCALH~1\AppData\Local\Temp\cczDwJ89.s:154    .text.WWDG_SetCounter:000000000000000c .L0 
C:\Users\LOCALH~1\AppData\Local\Temp\cczDwJ89.s:155    .text.WWDG_SetCounter:000000000000000e .L0 
C:\Users\LOCALH~1\AppData\Local\Temp\cczDwJ89.s:162    .text.WWDG_Enable:0000000000000000 WWDG_Enable
C:\Users\LOCALH~1\AppData\Local\Temp\cczDwJ89.s:165    .text.WWDG_Enable:0000000000000000 .L0 
C:\Users\LOCALH~1\AppData\Local\Temp\cczDwJ89.s:167    .text.WWDG_Enable:0000000000000000 .L0 
C:\Users\LOCALH~1\AppData\Local\Temp\cczDwJ89.s:168    .text.WWDG_Enable:0000000000000000 .L0 
C:\Users\LOCALH~1\AppData\Local\Temp\cczDwJ89.s:169    .text.WWDG_Enable:0000000000000000 $x
C:\Users\LOCALH~1\AppData\Local\Temp\cczDwJ89.s:169    .text.WWDG_Enable:0000000000000000 .L0 
C:\Users\LOCALH~1\AppData\Local\Temp\cczDwJ89.s:172    .text.WWDG_Enable:0000000000000004 .L0 
C:\Users\LOCALH~1\AppData\Local\Temp\cczDwJ89.s:175    .text.WWDG_Enable:000000000000000c .L0 
C:\Users\LOCALH~1\AppData\Local\Temp\cczDwJ89.s:176    .text.WWDG_Enable:000000000000000e .L0 
C:\Users\LOCALH~1\AppData\Local\Temp\cczDwJ89.s:183    .text.WWDG_GetFlagStatus:0000000000000000 WWDG_GetFlagStatus
C:\Users\LOCALH~1\AppData\Local\Temp\cczDwJ89.s:186    .text.WWDG_GetFlagStatus:0000000000000000 .L0 
C:\Users\LOCALH~1\AppData\Local\Temp\cczDwJ89.s:187    .text.WWDG_GetFlagStatus:0000000000000000 .L0 
C:\Users\LOCALH~1\AppData\Local\Temp\cczDwJ89.s:188    .text.WWDG_GetFlagStatus:0000000000000000 .L0 
C:\Users\LOCALH~1\AppData\Local\Temp\cczDwJ89.s:189    .text.WWDG_GetFlagStatus:0000000000000000 $x
C:\Users\LOCALH~1\AppData\Local\Temp\cczDwJ89.s:189    .text.WWDG_GetFlagStatus:0000000000000000 .L0 
C:\Users\LOCALH~1\AppData\Local\Temp\cczDwJ89.s:193    .text.WWDG_GetFlagStatus:000000000000000a .L0 
C:\Users\LOCALH~1\AppData\Local\Temp\cczDwJ89.s:194    .text.WWDG_GetFlagStatus:000000000000000c .L0 
C:\Users\LOCALH~1\AppData\Local\Temp\cczDwJ89.s:201    .text.WWDG_ClearFlag:0000000000000000 WWDG_ClearFlag
C:\Users\LOCALH~1\AppData\Local\Temp\cczDwJ89.s:204    .text.WWDG_ClearFlag:0000000000000000 .L0 
C:\Users\LOCALH~1\AppData\Local\Temp\cczDwJ89.s:205    .text.WWDG_ClearFlag:0000000000000000 .L0 
C:\Users\LOCALH~1\AppData\Local\Temp\cczDwJ89.s:206    .text.WWDG_ClearFlag:0000000000000000 .L0 
C:\Users\LOCALH~1\AppData\Local\Temp\cczDwJ89.s:207    .text.WWDG_ClearFlag:0000000000000000 $x
C:\Users\LOCALH~1\AppData\Local\Temp\cczDwJ89.s:207    .text.WWDG_ClearFlag:0000000000000000 .L0 
C:\Users\LOCALH~1\AppData\Local\Temp\cczDwJ89.s:211    .text.WWDG_ClearFlag:000000000000000c .L0 
C:\Users\LOCALH~1\AppData\Local\Temp\cczDwJ89.s:212    .text.WWDG_ClearFlag:000000000000000e .L0 
C:\Users\LOCALH~1\AppData\Local\Temp\cczDwJ89.s:1130   .debug_line_str:0000000000000077 .L0 
C:\Users\LOCALH~1\AppData\Local\Temp\cczDwJ89.s:1130   .debug_line_str:00000000000000cc .L0 
C:\Users\LOCALH~1\AppData\Local\Temp\cczDwJ89.s:1130   .debug_line_str:00000000000000de .L0 
C:\Users\LOCALH~1\AppData\Local\Temp\cczDwJ89.s:1130   .debug_line_str:000000000000013a .L0 
C:\Users\LOCALH~1\AppData\Local\Temp\cczDwJ89.s:1130   .debug_line_str:0000000000000192 .L0 
C:\Users\LOCALH~1\AppData\Local\Temp\cczDwJ89.s:1130   .debug_line_str:00000000000001e8 .L0 
C:\Users\LOCALH~1\AppData\Local\Temp\cczDwJ89.s:1130   .debug_line_str:0000000000000248 .L0 
C:\Users\LOCALH~1\AppData\Local\Temp\cczDwJ89.s:1130   .debug_line_str:0000000000000258 .L0 
C:\Users\LOCALH~1\AppData\Local\Temp\cczDwJ89.s:1130   .debug_line_str:0000000000000268 .L0 
C:\Users\LOCALH~1\AppData\Local\Temp\cczDwJ89.s:1130   .debug_line_str:0000000000000279 .L0 
C:\Users\LOCALH~1\AppData\Local\Temp\cczDwJ89.s:1130   .debug_line_str:0000000000000283 .L0 
C:\Users\LOCALH~1\AppData\Local\Temp\cczDwJ89.s:1130   .debug_line_str:0000000000000290 .L0 
C:\Users\LOCALH~1\AppData\Local\Temp\cczDwJ89.s:1130   .debug_line_str:000000000000029b .L0 
C:\Users\LOCALH~1\AppData\Local\Temp\cczDwJ89.s:42     .text.WWDG_DeInit:000000000000002e .L0 
C:\Users\LOCALH~1\AppData\Local\Temp\cczDwJ89.s:72     .text.WWDG_SetPrescaler:0000000000000014 .L0 
C:\Users\LOCALH~1\AppData\Local\Temp\cczDwJ89.s:116    .text.WWDG_SetWindowValue:0000000000000026 .L0 
C:\Users\LOCALH~1\AppData\Local\Temp\cczDwJ89.s:137    .text.WWDG_EnableIT:0000000000000012 .L0 
C:\Users\LOCALH~1\AppData\Local\Temp\cczDwJ89.s:158    .text.WWDG_SetCounter:000000000000000e .L0 
C:\Users\LOCALH~1\AppData\Local\Temp\cczDwJ89.s:179    .text.WWDG_Enable:000000000000000e .L0 
C:\Users\LOCALH~1\AppData\Local\Temp\cczDwJ89.s:197    .text.WWDG_GetFlagStatus:000000000000000c .L0 
C:\Users\LOCALH~1\AppData\Local\Temp\cczDwJ89.s:215    .text.WWDG_ClearFlag:000000000000000e .L0 
                     .debug_frame:0000000000000000 .L0 
C:\Users\LOCALH~1\AppData\Local\Temp\cczDwJ89.s:529    .debug_abbrev:0000000000000000 .Ldebug_abbrev0
C:\Users\LOCALH~1\AppData\Local\Temp\cczDwJ89.s:1117   .debug_str:00000000000001a6 .LASF36
C:\Users\LOCALH~1\AppData\Local\Temp\cczDwJ89.s:1128   .debug_line_str:0000000000000055 .LASF0
C:\Users\LOCALH~1\AppData\Local\Temp\cczDwJ89.s:1126   .debug_line_str:0000000000000000 .LASF1
C:\Users\LOCALH~1\AppData\Local\Temp\cczDwJ89.s:1019   .debug_rnglists:000000000000000c .LLRL4
C:\Users\LOCALH~1\AppData\Local\Temp\cczDwJ89.s:1047   .debug_line:0000000000000000 .Ldebug_line0
C:\Users\LOCALH~1\AppData\Local\Temp\cczDwJ89.s:1095   .debug_str:0000000000000118 .LASF2
C:\Users\LOCALH~1\AppData\Local\Temp\cczDwJ89.s:1123   .debug_str:00000000000002bc .LASF3
C:\Users\LOCALH~1\AppData\Local\Temp\cczDwJ89.s:1051   .debug_str:000000000000000e .LASF8
C:\Users\LOCALH~1\AppData\Local\Temp\cczDwJ89.s:1071   .debug_str:0000000000000090 .LASF4
C:\Users\LOCALH~1\AppData\Local\Temp\cczDwJ89.s:1109   .debug_str:000000000000017a .LASF5
C:\Users\LOCALH~1\AppData\Local\Temp\cczDwJ89.s:1057   .debug_str:000000000000002b .LASF6
C:\Users\LOCALH~1\AppData\Local\Temp\cczDwJ89.s:1119   .debug_str:00000000000002a7 .LASF7
C:\Users\LOCALH~1\AppData\Local\Temp\cczDwJ89.s:1083   .debug_str:00000000000000de .LASF9
C:\Users\LOCALH~1\AppData\Local\Temp\cczDwJ89.s:1075   .debug_str:00000000000000b5 .LASF10
C:\Users\LOCALH~1\AppData\Local\Temp\cczDwJ89.s:1049   .debug_str:0000000000000000 .LASF11
C:\Users\LOCALH~1\AppData\Local\Temp\cczDwJ89.s:1069   .debug_str:0000000000000079 .LASF12
C:\Users\LOCALH~1\AppData\Local\Temp\cczDwJ89.s:1059   .debug_str:000000000000003e .LASF13
C:\Users\LOCALH~1\AppData\Local\Temp\cczDwJ89.s:1079   .debug_str:00000000000000cd .LASF14
C:\Users\LOCALH~1\AppData\Local\Temp\cczDwJ89.s:1081   .debug_str:00000000000000d6 .LASF15
C:\Users\LOCALH~1\AppData\Local\Temp\cczDwJ89.s:1067   .debug_str:0000000000000072 .LASF16
C:\Users\LOCALH~1\AppData\Local\Temp\cczDwJ89.s:1085   .debug_str:00000000000000e9 .LASF17
C:\Users\LOCALH~1\AppData\Local\Temp\cczDwJ89.s:1077   .debug_str:00000000000000c7 .LASF18
C:\Users\LOCALH~1\AppData\Local\Temp\cczDwJ89.s:1063   .debug_str:0000000000000053 .LASF19
C:\Users\LOCALH~1\AppData\Local\Temp\cczDwJ89.s:1093   .debug_str:0000000000000113 .LASF20
C:\Users\LOCALH~1\AppData\Local\Temp\cczDwJ89.s:1053   .debug_str:0000000000000018 .LASF21
C:\Users\LOCALH~1\AppData\Local\Temp\cczDwJ89.s:1087   .debug_str:00000000000000f9 .LASF22
C:\Users\LOCALH~1\AppData\Local\Temp\cczDwJ89.s:1061   .debug_str:0000000000000046 .LASF23
C:\Users\LOCALH~1\AppData\Local\Temp\cczDwJ89.s:1121   .debug_str:00000000000002b0 .LASF24
C:\Users\LOCALH~1\AppData\Local\Temp\cczDwJ89.s:1097   .debug_str:0000000000000125 .LASF25
C:\Users\LOCALH~1\AppData\Local\Temp\cczDwJ89.s:1073   .debug_str:000000000000009e .LASF37
C:\Users\LOCALH~1\AppData\Local\Temp\cczDwJ89.s:1113   .debug_str:000000000000018b .LASF29
C:\Users\LOCALH~1\AppData\Local\Temp\cczDwJ89.s:202    .text.WWDG_ClearFlag:0000000000000000 .LFB36
C:\Users\LOCALH~1\AppData\Local\Temp\cczDwJ89.s:213    .text.WWDG_ClearFlag:000000000000000e .LFE36
C:\Users\LOCALH~1\AppData\Local\Temp\cczDwJ89.s:1099   .debug_str:000000000000012a .LASF38
C:\Users\LOCALH~1\AppData\Local\Temp\cczDwJ89.s:184    .text.WWDG_GetFlagStatus:0000000000000000 .LFB35
C:\Users\LOCALH~1\AppData\Local\Temp\cczDwJ89.s:195    .text.WWDG_GetFlagStatus:000000000000000c .LFE35
C:\Users\LOCALH~1\AppData\Local\Temp\cczDwJ89.s:1103   .debug_str:000000000000014f .LASF26
C:\Users\LOCALH~1\AppData\Local\Temp\cczDwJ89.s:163    .text.WWDG_Enable:0000000000000000 .LFB34
C:\Users\LOCALH~1\AppData\Local\Temp\cczDwJ89.s:177    .text.WWDG_Enable:000000000000000e .LFE34
C:\Users\LOCALH~1\AppData\Local\Temp\cczDwJ89.s:1091   .debug_str:000000000000010b .LASF28
C:\Users\LOCALH~1\AppData\Local\Temp\cczDwJ89.s:926    .debug_loclists:000000000000000c .LLST3
C:\Users\LOCALH~1\AppData\Local\Temp\cczDwJ89.s:1107   .debug_str:000000000000016a .LASF27
C:\Users\LOCALH~1\AppData\Local\Temp\cczDwJ89.s:142    .text.WWDG_SetCounter:0000000000000000 .LFB33
C:\Users\LOCALH~1\AppData\Local\Temp\cczDwJ89.s:156    .text.WWDG_SetCounter:000000000000000e .LFE33
C:\Users\LOCALH~1\AppData\Local\Temp\cczDwJ89.s:941    .debug_loclists:0000000000000026 .LLST2
C:\Users\LOCALH~1\AppData\Local\Temp\cczDwJ89.s:1055   .debug_str:000000000000001d .LASF30
C:\Users\LOCALH~1\AppData\Local\Temp\cczDwJ89.s:121    .text.WWDG_EnableIT:0000000000000000 .LFB32
C:\Users\LOCALH~1\AppData\Local\Temp\cczDwJ89.s:135    .text.WWDG_EnableIT:0000000000000012 .LFE32
C:\Users\LOCALH~1\AppData\Local\Temp\cczDwJ89.s:1065   .debug_str:000000000000005e .LASF31
C:\Users\LOCALH~1\AppData\Local\Temp\cczDwJ89.s:77     .text.WWDG_SetWindowValue:0000000000000000 .LFB31
C:\Users\LOCALH~1\AppData\Local\Temp\cczDwJ89.s:114    .text.WWDG_SetWindowValue:0000000000000026 .LFE31
C:\Users\LOCALH~1\AppData\Local\Temp\cczDwJ89.s:1089   .debug_str:00000000000000ff .LASF32
C:\Users\LOCALH~1\AppData\Local\Temp\cczDwJ89.s:956    .debug_loclists:0000000000000040 .LLST1
C:\Users\LOCALH~1\AppData\Local\Temp\cczDwJ89.s:1111   .debug_str:0000000000000184 .LASF35
C:\Users\LOCALH~1\AppData\Local\Temp\cczDwJ89.s:1101   .debug_str:000000000000013d .LASF33
C:\Users\LOCALH~1\AppData\Local\Temp\cczDwJ89.s:47     .text.WWDG_SetPrescaler:0000000000000000 .LFB30
C:\Users\LOCALH~1\AppData\Local\Temp\cczDwJ89.s:70     .text.WWDG_SetPrescaler:0000000000000014 .LFE30
C:\Users\LOCALH~1\AppData\Local\Temp\cczDwJ89.s:1105   .debug_str:000000000000015b .LASF34
C:\Users\LOCALH~1\AppData\Local\Temp\cczDwJ89.s:971    .debug_loclists:000000000000005a .LLST0
C:\Users\LOCALH~1\AppData\Local\Temp\cczDwJ89.s:1115   .debug_str:000000000000019a .LASF39
C:\Users\LOCALH~1\AppData\Local\Temp\cczDwJ89.s:15     .text.WWDG_DeInit:0000000000000000 .LFB29
C:\Users\LOCALH~1\AppData\Local\Temp\cczDwJ89.s:40     .text.WWDG_DeInit:000000000000002e .LFE29
C:\Users\LOCALH~1\AppData\Local\Temp\cczDwJ89.s:28     .text.WWDG_DeInit:0000000000000018 .LVL0
C:\Users\LOCALH~1\AppData\Local\Temp\cczDwJ89.s:33     .text.WWDG_DeInit:0000000000000026 .LVL1
C:\Users\LOCALH~1\AppData\Local\Temp\cczDwJ89.s:166    .text.WWDG_Enable:0000000000000000 .LVL9
C:\Users\LOCALH~1\AppData\Local\Temp\cczDwJ89.s:170    .text.WWDG_Enable:0000000000000004 .LVL10
C:\Users\LOCALH~1\AppData\Local\Temp\cczDwJ89.s:145    .text.WWDG_SetCounter:0000000000000000 .LVL7
C:\Users\LOCALH~1\AppData\Local\Temp\cczDwJ89.s:149    .text.WWDG_SetCounter:0000000000000004 .LVL8
C:\Users\LOCALH~1\AppData\Local\Temp\cczDwJ89.s:80     .text.WWDG_SetWindowValue:0000000000000000 .LVL5
C:\Users\LOCALH~1\AppData\Local\Temp\cczDwJ89.s:95     .text.WWDG_SetWindowValue:0000000000000012 .LVL6
C:\Users\LOCALH~1\AppData\Local\Temp\cczDwJ89.s:50     .text.WWDG_SetPrescaler:0000000000000000 .LVL2
C:\Users\LOCALH~1\AppData\Local\Temp\cczDwJ89.s:59     .text.WWDG_SetPrescaler:000000000000000e .LVL3
C:\Users\LOCALH~1\AppData\Local\Temp\cczDwJ89.s:223    .debug_info:0000000000000000 .Ldebug_info0

UNDEFINED SYMBOLS
__riscv_save_1
RCC_APB1PeriphResetCmd
__riscv_restore_1
