   1              		.file	"ch32v30x_exti.c"
   2              		.option nopic
   3              		.attribute arch, "rv32i2p0_m2p0_a2p0_f2p0_c2p0_xw"
   4              		.attribute unaligned_access, 0
   5              		.attribute stack_align, 16
   6              		.text
   7              	.Ltext0:
   8              		.cfi_sections	.debug_frame
   9              		.file 0 "C:\\Users\\localhost\\Documents\\turbomoskal-repo\\qqexpert\\firmware\\MasterController\\
  10              		.section	.text.EXTI_DeInit,"ax",@progbits
  11              		.align	1
  12              		.globl	EXTI_DeInit
  14              	EXTI_DeInit:
  15              	.LFB29:
  16              		.file 1 "../Peripheral/src/ch32v30x_exti.c"
   1:../Peripheral/src/ch32v30x_exti.c **** /********************************** (C) COPYRIGHT  *******************************
   2:../Peripheral/src/ch32v30x_exti.c **** * File Name          : ch32v30x_exti.c
   3:../Peripheral/src/ch32v30x_exti.c **** * Author             : WCH
   4:../Peripheral/src/ch32v30x_exti.c **** * Version            : V1.0.0
   5:../Peripheral/src/ch32v30x_exti.c **** * Date               : 2021/06/06
   6:../Peripheral/src/ch32v30x_exti.c **** * Description        : This file provides all the EXTI firmware functions.
   7:../Peripheral/src/ch32v30x_exti.c **** *********************************************************************************
   8:../Peripheral/src/ch32v30x_exti.c **** * Copyright (c) 2021 Nanjing Qinheng Microelectronics Co., Ltd.
   9:../Peripheral/src/ch32v30x_exti.c **** * Attention: This software (modified or not) and binary are used for 
  10:../Peripheral/src/ch32v30x_exti.c **** * microcontroller manufactured by Nanjing Qinheng Microelectronics.
  11:../Peripheral/src/ch32v30x_exti.c **** *******************************************************************************/
  12:../Peripheral/src/ch32v30x_exti.c **** #include "ch32v30x_exti.h"
  13:../Peripheral/src/ch32v30x_exti.c **** 
  14:../Peripheral/src/ch32v30x_exti.c **** /* No interrupt selected */
  15:../Peripheral/src/ch32v30x_exti.c **** #define EXTI_LINENONE    ((uint32_t)0x00000)
  16:../Peripheral/src/ch32v30x_exti.c **** 
  17:../Peripheral/src/ch32v30x_exti.c **** /*********************************************************************
  18:../Peripheral/src/ch32v30x_exti.c ****  * @fn      EXTI_DeInit
  19:../Peripheral/src/ch32v30x_exti.c ****  *
  20:../Peripheral/src/ch32v30x_exti.c ****  * @brief   Deinitializes the EXTI peripheral registers to their default
  21:../Peripheral/src/ch32v30x_exti.c ****  *        reset values.
  22:../Peripheral/src/ch32v30x_exti.c ****  *
  23:../Peripheral/src/ch32v30x_exti.c ****  * @return  none.
  24:../Peripheral/src/ch32v30x_exti.c ****  */
  25:../Peripheral/src/ch32v30x_exti.c **** void EXTI_DeInit(void)
  26:../Peripheral/src/ch32v30x_exti.c **** {
  17              		.loc 1 26 1
  18              		.cfi_startproc
  27:../Peripheral/src/ch32v30x_exti.c ****     EXTI->INTENR = 0x00000000;
  19              		.loc 1 27 5
  20              		.loc 1 27 18 is_stmt 0
  21 0000 B7070140 		li	a5,1073807360
  22 0004 93870740 		addi	a5,a5,1024
  23 0008 23A00700 		sw	zero,0(a5)
  28:../Peripheral/src/ch32v30x_exti.c ****     EXTI->EVENR = 0x00000000;
  24              		.loc 1 28 5 is_stmt 1
  25              		.loc 1 28 17 is_stmt 0
  26 000c 23A20700 		sw	zero,4(a5)
  29:../Peripheral/src/ch32v30x_exti.c ****     EXTI->RTENR = 0x00000000;
  27              		.loc 1 29 5 is_stmt 1
  28              		.loc 1 29 17 is_stmt 0
  29 0010 23A40700 		sw	zero,8(a5)
  30:../Peripheral/src/ch32v30x_exti.c ****     EXTI->FTENR = 0x00000000;
  30              		.loc 1 30 5 is_stmt 1
  31:../Peripheral/src/ch32v30x_exti.c ****     EXTI->INTFR = 0x000FFFFF;
  31              		.loc 1 31 17 is_stmt 0
  32 0014 37071000 		li	a4,1048576
  30:../Peripheral/src/ch32v30x_exti.c ****     EXTI->FTENR = 0x00000000;
  33              		.loc 1 30 17
  34 0018 23A60700 		sw	zero,12(a5)
  35              		.loc 1 31 5 is_stmt 1
  36              		.loc 1 31 17 is_stmt 0
  37 001c 7D17     		addi	a4,a4,-1
  38 001e D8CB     		sw	a4,20(a5)
  32:../Peripheral/src/ch32v30x_exti.c **** }
  39              		.loc 1 32 1
  40 0020 8280     		ret
  41              		.cfi_endproc
  42              	.LFE29:
  44              		.section	.text.EXTI_Init,"ax",@progbits
  45              		.align	1
  46              		.globl	EXTI_Init
  48              	EXTI_Init:
  49              	.LFB30:
  33:../Peripheral/src/ch32v30x_exti.c **** 
  34:../Peripheral/src/ch32v30x_exti.c **** /*********************************************************************
  35:../Peripheral/src/ch32v30x_exti.c ****  * @fn      EXTI_Init
  36:../Peripheral/src/ch32v30x_exti.c ****  *
  37:../Peripheral/src/ch32v30x_exti.c ****  * @brief   Initializes the EXTI peripheral according to the specified
  38:../Peripheral/src/ch32v30x_exti.c ****  *        parameters in the EXTI_InitStruct.
  39:../Peripheral/src/ch32v30x_exti.c ****  *
  40:../Peripheral/src/ch32v30x_exti.c ****  * @param   EXTI_InitStruct - pointer to a EXTI_InitTypeDef structure
  41:../Peripheral/src/ch32v30x_exti.c ****  *
  42:../Peripheral/src/ch32v30x_exti.c ****  * @return  none.
  43:../Peripheral/src/ch32v30x_exti.c ****  */
  44:../Peripheral/src/ch32v30x_exti.c **** void EXTI_Init(EXTI_InitTypeDef *EXTI_InitStruct)
  45:../Peripheral/src/ch32v30x_exti.c **** {
  50              		.loc 1 45 1 is_stmt 1
  51              		.cfi_startproc
  52              	.LVL0:
  46:../Peripheral/src/ch32v30x_exti.c ****     uint32_t tmp = 0;
  53              		.loc 1 46 5
  47:../Peripheral/src/ch32v30x_exti.c **** 
  48:../Peripheral/src/ch32v30x_exti.c ****     tmp = (uint32_t)EXTI_BASE;
  54              		.loc 1 48 5
  49:../Peripheral/src/ch32v30x_exti.c ****     if(EXTI_InitStruct->EXTI_LineCmd != DISABLE)
  55              		.loc 1 49 5
  50:../Peripheral/src/ch32v30x_exti.c ****     {
  51:../Peripheral/src/ch32v30x_exti.c ****         EXTI->INTENR &= ~EXTI_InitStruct->EXTI_Line;
  52:../Peripheral/src/ch32v30x_exti.c ****         EXTI->EVENR &= ~EXTI_InitStruct->EXTI_Line;
  53:../Peripheral/src/ch32v30x_exti.c ****         tmp += EXTI_InitStruct->EXTI_Mode;
  56              		.loc 1 53 13 is_stmt 0
  57 0000 5841     		lw	a4,4(a0)
  51:../Peripheral/src/ch32v30x_exti.c ****         EXTI->EVENR &= ~EXTI_InitStruct->EXTI_Line;
  58              		.loc 1 51 41
  59 0002 0C41     		lw	a1,0(a0)
  49:../Peripheral/src/ch32v30x_exti.c ****     if(EXTI_InitStruct->EXTI_LineCmd != DISABLE)
  60              		.loc 1 49 7
  61 0004 5045     		lw	a2,12(a0)
  62              		.loc 1 53 13
  63 0006 B7070140 		li	a5,1073807360
  64 000a 93870740 		addi	a5,a5,1024
  65 000e 3E97     		add	a4,a4,a5
  51:../Peripheral/src/ch32v30x_exti.c ****         EXTI->EVENR &= ~EXTI_InitStruct->EXTI_Line;
  66              		.loc 1 51 25
  67 0010 93C6F5FF 		not	a3,a1
  49:../Peripheral/src/ch32v30x_exti.c ****     if(EXTI_InitStruct->EXTI_LineCmd != DISABLE)
  68              		.loc 1 49 7
  69 0014 39C2     		beq	a2,zero,.L3
  51:../Peripheral/src/ch32v30x_exti.c ****         EXTI->EVENR &= ~EXTI_InitStruct->EXTI_Line;
  70              		.loc 1 51 9 is_stmt 1
  51:../Peripheral/src/ch32v30x_exti.c ****         EXTI->EVENR &= ~EXTI_InitStruct->EXTI_Line;
  71              		.loc 1 51 13 is_stmt 0
  72 0016 9043     		lw	a2,0(a5)
  51:../Peripheral/src/ch32v30x_exti.c ****         EXTI->EVENR &= ~EXTI_InitStruct->EXTI_Line;
  73              		.loc 1 51 22
  74 0018 758E     		and	a2,a2,a3
  75 001a 90C3     		sw	a2,0(a5)
  52:../Peripheral/src/ch32v30x_exti.c ****         tmp += EXTI_InitStruct->EXTI_Mode;
  76              		.loc 1 52 9 is_stmt 1
  52:../Peripheral/src/ch32v30x_exti.c ****         tmp += EXTI_InitStruct->EXTI_Mode;
  77              		.loc 1 52 13 is_stmt 0
  78 001c D043     		lw	a2,4(a5)
  52:../Peripheral/src/ch32v30x_exti.c ****         tmp += EXTI_InitStruct->EXTI_Mode;
  79              		.loc 1 52 21
  80 001e F18E     		and	a3,a2,a3
  81 0020 D4C3     		sw	a3,4(a5)
  82              		.loc 1 53 9 is_stmt 1
  83              	.LVL1:
  54:../Peripheral/src/ch32v30x_exti.c ****         *(__IO uint32_t *)tmp |= EXTI_InitStruct->EXTI_Line;
  84              		.loc 1 54 9
  85 0022 1443     		lw	a3,0(a4)
  86              		.loc 1 54 31 is_stmt 0
  87 0024 CD8E     		or	a3,a3,a1
  88 0026 14C3     		sw	a3,0(a4)
  55:../Peripheral/src/ch32v30x_exti.c ****         EXTI->RTENR &= ~EXTI_InitStruct->EXTI_Line;
  89              		.loc 1 55 9 is_stmt 1
  90              		.loc 1 55 40 is_stmt 0
  91 0028 1841     		lw	a4,0(a0)
  92              		.loc 1 55 13
  93 002a 9047     		lw	a2,8(a5)
  94              		.loc 1 55 24
  95 002c 9346F7FF 		not	a3,a4
  96              		.loc 1 55 21
  97 0030 758E     		and	a2,a2,a3
  98 0032 90C7     		sw	a2,8(a5)
  56:../Peripheral/src/ch32v30x_exti.c ****         EXTI->FTENR &= ~EXTI_InitStruct->EXTI_Line;
  99              		.loc 1 56 9 is_stmt 1
 100              		.loc 1 56 13 is_stmt 0
 101 0034 D047     		lw	a2,12(a5)
 102              		.loc 1 56 21
 103 0036 F18E     		and	a3,a3,a2
 104 0038 D4C7     		sw	a3,12(a5)
  57:../Peripheral/src/ch32v30x_exti.c ****         if(EXTI_InitStruct->EXTI_Trigger == EXTI_Trigger_Rising_Falling)
 105              		.loc 1 57 9 is_stmt 1
 106              		.loc 1 57 27 is_stmt 0
 107 003a 1445     		lw	a3,8(a0)
 108              		.loc 1 57 11
 109 003c 4146     		li	a2,16
 110 003e 6399C600 		bne	a3,a2,.L4
  58:../Peripheral/src/ch32v30x_exti.c ****         {
  59:../Peripheral/src/ch32v30x_exti.c ****             EXTI->RTENR |= EXTI_InitStruct->EXTI_Line;
 111              		.loc 1 59 13 is_stmt 1
 112              		.loc 1 59 17 is_stmt 0
 113 0042 9447     		lw	a3,8(a5)
 114              		.loc 1 59 25
 115 0044 D98E     		or	a3,a4,a3
 116 0046 94C7     		sw	a3,8(a5)
  60:../Peripheral/src/ch32v30x_exti.c ****             EXTI->FTENR |= EXTI_InitStruct->EXTI_Line;
 117              		.loc 1 60 13 is_stmt 1
 118              		.loc 1 60 17 is_stmt 0
 119 0048 D447     		lw	a3,12(a5)
 120              		.loc 1 60 25
 121 004a 558F     		or	a4,a4,a3
 122 004c D8C7     		sw	a4,12(a5)
 123 004e 8280     		ret
 124              	.L4:
  61:../Peripheral/src/ch32v30x_exti.c ****         }
  62:../Peripheral/src/ch32v30x_exti.c ****         else
  63:../Peripheral/src/ch32v30x_exti.c ****         {
  64:../Peripheral/src/ch32v30x_exti.c ****             tmp = (uint32_t)EXTI_BASE;
 125              		.loc 1 64 13 is_stmt 1
 126              	.LVL2:
  65:../Peripheral/src/ch32v30x_exti.c ****             tmp += EXTI_InitStruct->EXTI_Trigger;
 127              		.loc 1 65 13
  66:../Peripheral/src/ch32v30x_exti.c ****             *(__IO uint32_t *)tmp |= EXTI_InitStruct->EXTI_Line;
 128              		.loc 1 66 13
  65:../Peripheral/src/ch32v30x_exti.c ****             tmp += EXTI_InitStruct->EXTI_Trigger;
 129              		.loc 1 65 17 is_stmt 0
 130 0050 B697     		add	a5,a3,a5
 131              		.loc 1 66 13
 132 0052 9443     		lw	a3,0(a5)
 133              	.LVL3:
 134              		.loc 1 66 35
 135 0054 558F     		or	a4,a4,a3
 136 0056 98C3     		sw	a4,0(a5)
 137 0058 8280     		ret
 138              	.LVL4:
 139              	.L3:
  67:../Peripheral/src/ch32v30x_exti.c ****         }
  68:../Peripheral/src/ch32v30x_exti.c ****     }
  69:../Peripheral/src/ch32v30x_exti.c ****     else
  70:../Peripheral/src/ch32v30x_exti.c ****     {
  71:../Peripheral/src/ch32v30x_exti.c ****         tmp += EXTI_InitStruct->EXTI_Mode;
 140              		.loc 1 71 9 is_stmt 1
  72:../Peripheral/src/ch32v30x_exti.c ****         *(__IO uint32_t *)tmp &= ~EXTI_InitStruct->EXTI_Line;
 141              		.loc 1 72 9
 142 005a 1C43     		lw	a5,0(a4)
 143              		.loc 1 72 31 is_stmt 0
 144 005c F58F     		and	a5,a5,a3
 145 005e 1CC3     		sw	a5,0(a4)
  73:../Peripheral/src/ch32v30x_exti.c ****     }
  74:../Peripheral/src/ch32v30x_exti.c **** }
 146              		.loc 1 74 1
 147 0060 8280     		ret
 148              		.cfi_endproc
 149              	.LFE30:
 151              		.section	.text.EXTI_StructInit,"ax",@progbits
 152              		.align	1
 153              		.globl	EXTI_StructInit
 155              	EXTI_StructInit:
 156              	.LFB31:
  75:../Peripheral/src/ch32v30x_exti.c **** 
  76:../Peripheral/src/ch32v30x_exti.c **** /*********************************************************************
  77:../Peripheral/src/ch32v30x_exti.c ****  * @fn      EXTI_StructInit
  78:../Peripheral/src/ch32v30x_exti.c ****  *
  79:../Peripheral/src/ch32v30x_exti.c ****  * @brief   Fills each EXTI_InitStruct member with its reset value.
  80:../Peripheral/src/ch32v30x_exti.c ****  *
  81:../Peripheral/src/ch32v30x_exti.c ****  * @param   EXTI_InitStruct - pointer to a EXTI_InitTypeDef structure
  82:../Peripheral/src/ch32v30x_exti.c ****  *
  83:../Peripheral/src/ch32v30x_exti.c ****  * @return  none.
  84:../Peripheral/src/ch32v30x_exti.c ****  */
  85:../Peripheral/src/ch32v30x_exti.c **** void EXTI_StructInit(EXTI_InitTypeDef *EXTI_InitStruct)
  86:../Peripheral/src/ch32v30x_exti.c **** {
 157              		.loc 1 86 1 is_stmt 1
 158              		.cfi_startproc
 159              	.LVL5:
  87:../Peripheral/src/ch32v30x_exti.c ****     EXTI_InitStruct->EXTI_Line = EXTI_LINENONE;
 160              		.loc 1 87 5
  88:../Peripheral/src/ch32v30x_exti.c ****     EXTI_InitStruct->EXTI_Mode = EXTI_Mode_Interrupt;
  89:../Peripheral/src/ch32v30x_exti.c ****     EXTI_InitStruct->EXTI_Trigger = EXTI_Trigger_Falling;
 161              		.loc 1 89 35 is_stmt 0
 162 0000 B147     		li	a5,12
  87:../Peripheral/src/ch32v30x_exti.c ****     EXTI_InitStruct->EXTI_Line = EXTI_LINENONE;
 163              		.loc 1 87 32
 164 0002 23200500 		sw	zero,0(a0)
  88:../Peripheral/src/ch32v30x_exti.c ****     EXTI_InitStruct->EXTI_Mode = EXTI_Mode_Interrupt;
 165              		.loc 1 88 5 is_stmt 1
  88:../Peripheral/src/ch32v30x_exti.c ****     EXTI_InitStruct->EXTI_Mode = EXTI_Mode_Interrupt;
 166              		.loc 1 88 32 is_stmt 0
 167 0006 23220500 		sw	zero,4(a0)
 168              		.loc 1 89 5 is_stmt 1
 169              		.loc 1 89 35 is_stmt 0
 170 000a 1CC5     		sw	a5,8(a0)
  90:../Peripheral/src/ch32v30x_exti.c ****     EXTI_InitStruct->EXTI_LineCmd = DISABLE;
 171              		.loc 1 90 5 is_stmt 1
 172              		.loc 1 90 35 is_stmt 0
 173 000c 23260500 		sw	zero,12(a0)
  91:../Peripheral/src/ch32v30x_exti.c **** }
 174              		.loc 1 91 1
 175 0010 8280     		ret
 176              		.cfi_endproc
 177              	.LFE31:
 179              		.section	.text.EXTI_GenerateSWInterrupt,"ax",@progbits
 180              		.align	1
 181              		.globl	EXTI_GenerateSWInterrupt
 183              	EXTI_GenerateSWInterrupt:
 184              	.LFB32:
  92:../Peripheral/src/ch32v30x_exti.c **** 
  93:../Peripheral/src/ch32v30x_exti.c **** /*********************************************************************
  94:../Peripheral/src/ch32v30x_exti.c ****  * @fn      EXTI_GenerateSWInterrupt
  95:../Peripheral/src/ch32v30x_exti.c ****  *
  96:../Peripheral/src/ch32v30x_exti.c ****  * @brief   Generates a Software interrupt.
  97:../Peripheral/src/ch32v30x_exti.c ****  *
  98:../Peripheral/src/ch32v30x_exti.c ****  * @param   EXTI_Line - specifies the EXTI lines to be enabled or disabled.
  99:../Peripheral/src/ch32v30x_exti.c ****  *
 100:../Peripheral/src/ch32v30x_exti.c ****  * @return  none.
 101:../Peripheral/src/ch32v30x_exti.c ****  */
 102:../Peripheral/src/ch32v30x_exti.c **** void EXTI_GenerateSWInterrupt(uint32_t EXTI_Line)
 103:../Peripheral/src/ch32v30x_exti.c **** {
 185              		.loc 1 103 1 is_stmt 1
 186              		.cfi_startproc
 187              	.LVL6:
 104:../Peripheral/src/ch32v30x_exti.c ****     EXTI->SWIEVR |= EXTI_Line;
 188              		.loc 1 104 5
 189              		.loc 1 104 9 is_stmt 0
 190 0000 B7070140 		li	a5,1073807360
 191 0004 93870740 		addi	a5,a5,1024
 192 0008 984B     		lw	a4,16(a5)
 193              		.loc 1 104 18
 194 000a 498F     		or	a4,a4,a0
 195 000c 98CB     		sw	a4,16(a5)
 105:../Peripheral/src/ch32v30x_exti.c **** }
 196              		.loc 1 105 1
 197 000e 8280     		ret
 198              		.cfi_endproc
 199              	.LFE32:
 201              		.section	.text.EXTI_GetFlagStatus,"ax",@progbits
 202              		.align	1
 203              		.globl	EXTI_GetFlagStatus
 205              	EXTI_GetFlagStatus:
 206              	.LFB33:
 106:../Peripheral/src/ch32v30x_exti.c **** 
 107:../Peripheral/src/ch32v30x_exti.c **** /*********************************************************************
 108:../Peripheral/src/ch32v30x_exti.c ****  * @fn      EXTI_GetFlagStatus
 109:../Peripheral/src/ch32v30x_exti.c ****  *
 110:../Peripheral/src/ch32v30x_exti.c ****  * @brief   Checks whether the specified EXTI line flag is set or not.
 111:../Peripheral/src/ch32v30x_exti.c ****  *
 112:../Peripheral/src/ch32v30x_exti.c ****  * @param   EXTI_Line - specifies the EXTI lines to be enabled or disabled.
 113:../Peripheral/src/ch32v30x_exti.c ****  *
 114:../Peripheral/src/ch32v30x_exti.c ****  * @return  The new state of EXTI_Line (SET or RESET).
 115:../Peripheral/src/ch32v30x_exti.c ****  */
 116:../Peripheral/src/ch32v30x_exti.c **** FlagStatus EXTI_GetFlagStatus(uint32_t EXTI_Line)
 117:../Peripheral/src/ch32v30x_exti.c **** {
 207              		.loc 1 117 1 is_stmt 1
 208              		.cfi_startproc
 209              	.LVL7:
 118:../Peripheral/src/ch32v30x_exti.c ****     FlagStatus bitstatus = RESET;
 210              		.loc 1 118 5
 119:../Peripheral/src/ch32v30x_exti.c ****     if((EXTI->INTFR & EXTI_Line) != (uint32_t)RESET)
 211              		.loc 1 119 5
 212              		.loc 1 119 13 is_stmt 0
 213 0000 B7070140 		li	a5,1073807360
 214 0004 93870740 		addi	a5,a5,1024
 215 0008 DC4B     		lw	a5,20(a5)
 216              	.LVL8:
 120:../Peripheral/src/ch32v30x_exti.c ****     {
 121:../Peripheral/src/ch32v30x_exti.c ****         bitstatus = SET;
 122:../Peripheral/src/ch32v30x_exti.c ****     }
 123:../Peripheral/src/ch32v30x_exti.c ****     else
 124:../Peripheral/src/ch32v30x_exti.c ****     {
 125:../Peripheral/src/ch32v30x_exti.c ****         bitstatus = RESET;
 126:../Peripheral/src/ch32v30x_exti.c ****     }
 127:../Peripheral/src/ch32v30x_exti.c ****     return bitstatus;
 217              		.loc 1 127 5 is_stmt 1
 119:../Peripheral/src/ch32v30x_exti.c ****     if((EXTI->INTFR & EXTI_Line) != (uint32_t)RESET)
 218              		.loc 1 119 21 is_stmt 0
 219 000a 7D8D     		and	a0,a5,a0
 220              	.LVL9:
 128:../Peripheral/src/ch32v30x_exti.c **** }
 221              		.loc 1 128 1
 222 000c 3335A000 		snez	a0,a0
 223 0010 8280     		ret
 224              		.cfi_endproc
 225              	.LFE33:
 227              		.section	.text.EXTI_ClearFlag,"ax",@progbits
 228              		.align	1
 229              		.globl	EXTI_ClearFlag
 231              	EXTI_ClearFlag:
 232              	.LFB34:
 129:../Peripheral/src/ch32v30x_exti.c **** 
 130:../Peripheral/src/ch32v30x_exti.c **** /*********************************************************************
 131:../Peripheral/src/ch32v30x_exti.c ****  * @fn      EXTI_ClearFlag
 132:../Peripheral/src/ch32v30x_exti.c ****  *
 133:../Peripheral/src/ch32v30x_exti.c ****  * @brief   Clears the EXTI's line pending flags.
 134:../Peripheral/src/ch32v30x_exti.c ****  *
 135:../Peripheral/src/ch32v30x_exti.c ****  * @param   EXTI_Line - specifies the EXTI lines to be enabled or disabled.
 136:../Peripheral/src/ch32v30x_exti.c ****  *
 137:../Peripheral/src/ch32v30x_exti.c ****  * @return  None
 138:../Peripheral/src/ch32v30x_exti.c ****  */
 139:../Peripheral/src/ch32v30x_exti.c **** void EXTI_ClearFlag(uint32_t EXTI_Line)
 140:../Peripheral/src/ch32v30x_exti.c **** {
 233              		.loc 1 140 1 is_stmt 1
 234              		.cfi_startproc
 235              	.LVL10:
 141:../Peripheral/src/ch32v30x_exti.c ****     EXTI->INTFR = EXTI_Line;
 236              		.loc 1 141 5
 237              		.loc 1 141 17 is_stmt 0
 238 0000 B7070140 		li	a5,1073807360
 239 0004 93870740 		addi	a5,a5,1024
 240 0008 C8CB     		sw	a0,20(a5)
 142:../Peripheral/src/ch32v30x_exti.c **** }
 241              		.loc 1 142 1
 242 000a 8280     		ret
 243              		.cfi_endproc
 244              	.LFE34:
 246              		.section	.text.EXTI_GetITStatus,"ax",@progbits
 247              		.align	1
 248              		.globl	EXTI_GetITStatus
 250              	EXTI_GetITStatus:
 251              	.LFB35:
 143:../Peripheral/src/ch32v30x_exti.c **** 
 144:../Peripheral/src/ch32v30x_exti.c **** /*********************************************************************
 145:../Peripheral/src/ch32v30x_exti.c ****  * @fn      EXTI_GetITStatus
 146:../Peripheral/src/ch32v30x_exti.c ****  *
 147:../Peripheral/src/ch32v30x_exti.c ****  * @brief   Checks whether the specified EXTI line is asserted or not.
 148:../Peripheral/src/ch32v30x_exti.c ****  *
 149:../Peripheral/src/ch32v30x_exti.c ****  * @param   EXTI_Line - specifies the EXTI lines to be enabled or disabled.
 150:../Peripheral/src/ch32v30x_exti.c ****  *
 151:../Peripheral/src/ch32v30x_exti.c ****  * @return  The new state of EXTI_Line (SET or RESET).
 152:../Peripheral/src/ch32v30x_exti.c ****  */
 153:../Peripheral/src/ch32v30x_exti.c **** ITStatus EXTI_GetITStatus(uint32_t EXTI_Line)
 154:../Peripheral/src/ch32v30x_exti.c **** {
 252              		.loc 1 154 1 is_stmt 1
 253              		.cfi_startproc
 254              	.LVL11:
 155:../Peripheral/src/ch32v30x_exti.c ****     ITStatus bitstatus = RESET;
 255              		.loc 1 155 5
 156:../Peripheral/src/ch32v30x_exti.c ****     uint32_t enablestatus = 0;
 256              		.loc 1 156 5
 157:../Peripheral/src/ch32v30x_exti.c **** 
 158:../Peripheral/src/ch32v30x_exti.c ****     enablestatus = EXTI->INTENR & EXTI_Line;
 257              		.loc 1 158 5
 258              		.loc 1 158 24 is_stmt 0
 259 0000 B7070140 		li	a5,1073807360
 260 0004 93870740 		addi	a5,a5,1024
 261 0008 9443     		lw	a3,0(a5)
 262              	.LVL12:
 159:../Peripheral/src/ch32v30x_exti.c ****     if(((EXTI->INTFR & EXTI_Line) != (uint32_t)RESET) && (enablestatus != (uint32_t)RESET))
 263              		.loc 1 159 5 is_stmt 1
 264              		.loc 1 159 14 is_stmt 0
 265 000a DC4B     		lw	a5,20(a5)
 154:../Peripheral/src/ch32v30x_exti.c ****     ITStatus bitstatus = RESET;
 266              		.loc 1 154 1
 267 000c 2A87     		mv	a4,a0
 268              		.loc 1 159 22
 269 000e 7D8D     		and	a0,a5,a0
 270              	.LVL13:
 271              		.loc 1 159 7
 272 0010 01C5     		beq	a0,zero,.L10
 158:../Peripheral/src/ch32v30x_exti.c ****     if(((EXTI->INTFR & EXTI_Line) != (uint32_t)RESET) && (enablestatus != (uint32_t)RESET))
 273              		.loc 1 158 18 discriminator 1
 274 0012 F98E     		and	a3,a3,a4
 275              	.LVL14:
 276              		.loc 1 159 55 discriminator 1
 277 0014 3335D000 		snez	a0,a3
 278              	.LVL15:
 160:../Peripheral/src/ch32v30x_exti.c ****     {
 161:../Peripheral/src/ch32v30x_exti.c ****         bitstatus = SET;
 162:../Peripheral/src/ch32v30x_exti.c ****     }
 163:../Peripheral/src/ch32v30x_exti.c ****     else
 164:../Peripheral/src/ch32v30x_exti.c ****     {
 165:../Peripheral/src/ch32v30x_exti.c ****         bitstatus = RESET;
 166:../Peripheral/src/ch32v30x_exti.c ****     }
 167:../Peripheral/src/ch32v30x_exti.c ****     return bitstatus;
 279              		.loc 1 167 5 is_stmt 1 discriminator 1
 280              	.L10:
 168:../Peripheral/src/ch32v30x_exti.c **** }
 281              		.loc 1 168 1 is_stmt 0
 282 0018 8280     		ret
 283              		.cfi_endproc
 284              	.LFE35:
 286              		.section	.text.EXTI_ClearITPendingBit,"ax",@progbits
 287              		.align	1
 288              		.globl	EXTI_ClearITPendingBit
 290              	EXTI_ClearITPendingBit:
 291              	.LFB38:
 292              		.cfi_startproc
 169:../Peripheral/src/ch32v30x_exti.c **** 
 170:../Peripheral/src/ch32v30x_exti.c **** /*********************************************************************
 171:../Peripheral/src/ch32v30x_exti.c ****  * @fn      EXTI_ClearITPendingBit
 172:../Peripheral/src/ch32v30x_exti.c ****  *
 173:../Peripheral/src/ch32v30x_exti.c ****  * @brief   Clears the EXTI's line pending bits.
 174:../Peripheral/src/ch32v30x_exti.c ****  *
 175:../Peripheral/src/ch32v30x_exti.c ****  * @param   EXTI_Line - specifies the EXTI lines to be enabled or disabled.
 176:../Peripheral/src/ch32v30x_exti.c ****  *
 177:../Peripheral/src/ch32v30x_exti.c ****  * @return  none
 178:../Peripheral/src/ch32v30x_exti.c ****  */
 179:../Peripheral/src/ch32v30x_exti.c **** void EXTI_ClearITPendingBit(uint32_t EXTI_Line)
 293              		.loc 1 179 6 is_stmt 1
 294 0000 B7070140 		li	a5,1073807360
 295 0004 93870740 		addi	a5,a5,1024
 296 0008 C8CB     		sw	a0,20(a5)
 297 000a 8280     		ret
 298              		.cfi_endproc
 299              	.LFE38:
 301              		.text
 302              	.Letext0:
 303              		.file 2 "d:\\software\\mounriver_studio\\toolchain\\risc-v embedded gcc12\\riscv-none-elf\\include
 304              		.file 3 "d:\\software\\mounriver_studio\\toolchain\\risc-v embedded gcc12\\riscv-none-elf\\include
 305              		.file 4 "C:\\Users\\localhost\\Documents\\turbomoskal-repo\\qqexpert\\firmware\\MasterController\\
 306              		.file 5 "C:\\Users\\localhost\\Documents\\turbomoskal-repo\\qqexpert\\firmware\\MasterController\\
 307              		.file 6 "C:\\Users\\localhost\\Documents\\turbomoskal-repo\\qqexpert\\firmware\\MasterController\\
DEFINED SYMBOLS
                            *ABS*:0000000000000000 ch32v30x_exti.c
C:\Users\LOCALH~1\AppData\Local\Temp\cci7FKoo.s:14     .text.EXTI_DeInit:0000000000000000 EXTI_DeInit
C:\Users\LOCALH~1\AppData\Local\Temp\cci7FKoo.s:18     .text.EXTI_DeInit:0000000000000000 .L0 
C:\Users\LOCALH~1\AppData\Local\Temp\cci7FKoo.s:19     .text.EXTI_DeInit:0000000000000000 .L0 
C:\Users\LOCALH~1\AppData\Local\Temp\cci7FKoo.s:20     .text.EXTI_DeInit:0000000000000000 .L0 
C:\Users\LOCALH~1\AppData\Local\Temp\cci7FKoo.s:21     .text.EXTI_DeInit:0000000000000000 $x
C:\Users\LOCALH~1\AppData\Local\Temp\cci7FKoo.s:21     .text.EXTI_DeInit:0000000000000000 .L0 
C:\Users\LOCALH~1\AppData\Local\Temp\cci7FKoo.s:25     .text.EXTI_DeInit:000000000000000c .L0 
C:\Users\LOCALH~1\AppData\Local\Temp\cci7FKoo.s:26     .text.EXTI_DeInit:000000000000000c .L0 
C:\Users\LOCALH~1\AppData\Local\Temp\cci7FKoo.s:28     .text.EXTI_DeInit:0000000000000010 .L0 
C:\Users\LOCALH~1\AppData\Local\Temp\cci7FKoo.s:29     .text.EXTI_DeInit:0000000000000010 .L0 
C:\Users\LOCALH~1\AppData\Local\Temp\cci7FKoo.s:31     .text.EXTI_DeInit:0000000000000014 .L0 
C:\Users\LOCALH~1\AppData\Local\Temp\cci7FKoo.s:32     .text.EXTI_DeInit:0000000000000014 .L0 
C:\Users\LOCALH~1\AppData\Local\Temp\cci7FKoo.s:34     .text.EXTI_DeInit:0000000000000018 .L0 
C:\Users\LOCALH~1\AppData\Local\Temp\cci7FKoo.s:36     .text.EXTI_DeInit:000000000000001c .L0 
C:\Users\LOCALH~1\AppData\Local\Temp\cci7FKoo.s:37     .text.EXTI_DeInit:000000000000001c .L0 
C:\Users\LOCALH~1\AppData\Local\Temp\cci7FKoo.s:40     .text.EXTI_DeInit:0000000000000020 .L0 
C:\Users\LOCALH~1\AppData\Local\Temp\cci7FKoo.s:41     .text.EXTI_DeInit:0000000000000022 .L0 
C:\Users\LOCALH~1\AppData\Local\Temp\cci7FKoo.s:48     .text.EXTI_Init:0000000000000000 EXTI_Init
C:\Users\LOCALH~1\AppData\Local\Temp\cci7FKoo.s:51     .text.EXTI_Init:0000000000000000 .L0 
C:\Users\LOCALH~1\AppData\Local\Temp\cci7FKoo.s:53     .text.EXTI_Init:0000000000000000 .L0 
C:\Users\LOCALH~1\AppData\Local\Temp\cci7FKoo.s:54     .text.EXTI_Init:0000000000000000 .L0 
C:\Users\LOCALH~1\AppData\Local\Temp\cci7FKoo.s:55     .text.EXTI_Init:0000000000000000 .L0 
C:\Users\LOCALH~1\AppData\Local\Temp\cci7FKoo.s:56     .text.EXTI_Init:0000000000000000 .L0 
C:\Users\LOCALH~1\AppData\Local\Temp\cci7FKoo.s:57     .text.EXTI_Init:0000000000000000 $x
C:\Users\LOCALH~1\AppData\Local\Temp\cci7FKoo.s:57     .text.EXTI_Init:0000000000000000 .L0 
C:\Users\LOCALH~1\AppData\Local\Temp\cci7FKoo.s:59     .text.EXTI_Init:0000000000000002 .L0 
C:\Users\LOCALH~1\AppData\Local\Temp\cci7FKoo.s:61     .text.EXTI_Init:0000000000000004 .L0 
C:\Users\LOCALH~1\AppData\Local\Temp\cci7FKoo.s:63     .text.EXTI_Init:0000000000000006 .L0 
C:\Users\LOCALH~1\AppData\Local\Temp\cci7FKoo.s:67     .text.EXTI_Init:0000000000000010 .L0 
C:\Users\LOCALH~1\AppData\Local\Temp\cci7FKoo.s:69     .text.EXTI_Init:0000000000000014 .L0 
C:\Users\LOCALH~1\AppData\Local\Temp\cci7FKoo.s:71     .text.EXTI_Init:0000000000000016 .L0 
C:\Users\LOCALH~1\AppData\Local\Temp\cci7FKoo.s:72     .text.EXTI_Init:0000000000000016 .L0 
C:\Users\LOCALH~1\AppData\Local\Temp\cci7FKoo.s:74     .text.EXTI_Init:0000000000000018 .L0 
C:\Users\LOCALH~1\AppData\Local\Temp\cci7FKoo.s:77     .text.EXTI_Init:000000000000001c .L0 
C:\Users\LOCALH~1\AppData\Local\Temp\cci7FKoo.s:78     .text.EXTI_Init:000000000000001c .L0 
C:\Users\LOCALH~1\AppData\Local\Temp\cci7FKoo.s:80     .text.EXTI_Init:000000000000001e .L0 
C:\Users\LOCALH~1\AppData\Local\Temp\cci7FKoo.s:84     .text.EXTI_Init:0000000000000022 .L0 
C:\Users\LOCALH~1\AppData\Local\Temp\cci7FKoo.s:85     .text.EXTI_Init:0000000000000022 .L0 
C:\Users\LOCALH~1\AppData\Local\Temp\cci7FKoo.s:87     .text.EXTI_Init:0000000000000024 .L0 
C:\Users\LOCALH~1\AppData\Local\Temp\cci7FKoo.s:90     .text.EXTI_Init:0000000000000028 .L0 
C:\Users\LOCALH~1\AppData\Local\Temp\cci7FKoo.s:91     .text.EXTI_Init:0000000000000028 .L0 
C:\Users\LOCALH~1\AppData\Local\Temp\cci7FKoo.s:93     .text.EXTI_Init:000000000000002a .L0 
C:\Users\LOCALH~1\AppData\Local\Temp\cci7FKoo.s:95     .text.EXTI_Init:000000000000002c .L0 
C:\Users\LOCALH~1\AppData\Local\Temp\cci7FKoo.s:97     .text.EXTI_Init:0000000000000030 .L0 
C:\Users\LOCALH~1\AppData\Local\Temp\cci7FKoo.s:100    .text.EXTI_Init:0000000000000034 .L0 
C:\Users\LOCALH~1\AppData\Local\Temp\cci7FKoo.s:101    .text.EXTI_Init:0000000000000034 .L0 
C:\Users\LOCALH~1\AppData\Local\Temp\cci7FKoo.s:103    .text.EXTI_Init:0000000000000036 .L0 
C:\Users\LOCALH~1\AppData\Local\Temp\cci7FKoo.s:106    .text.EXTI_Init:000000000000003a .L0 
C:\Users\LOCALH~1\AppData\Local\Temp\cci7FKoo.s:107    .text.EXTI_Init:000000000000003a .L0 
C:\Users\LOCALH~1\AppData\Local\Temp\cci7FKoo.s:109    .text.EXTI_Init:000000000000003c .L0 
C:\Users\LOCALH~1\AppData\Local\Temp\cci7FKoo.s:112    .text.EXTI_Init:0000000000000042 .L0 
C:\Users\LOCALH~1\AppData\Local\Temp\cci7FKoo.s:113    .text.EXTI_Init:0000000000000042 .L0 
C:\Users\LOCALH~1\AppData\Local\Temp\cci7FKoo.s:115    .text.EXTI_Init:0000000000000044 .L0 
C:\Users\LOCALH~1\AppData\Local\Temp\cci7FKoo.s:118    .text.EXTI_Init:0000000000000048 .L0 
C:\Users\LOCALH~1\AppData\Local\Temp\cci7FKoo.s:119    .text.EXTI_Init:0000000000000048 .L0 
C:\Users\LOCALH~1\AppData\Local\Temp\cci7FKoo.s:121    .text.EXTI_Init:000000000000004a .L0 
C:\Users\LOCALH~1\AppData\Local\Temp\cci7FKoo.s:127    .text.EXTI_Init:0000000000000050 .L0 
C:\Users\LOCALH~1\AppData\Local\Temp\cci7FKoo.s:128    .text.EXTI_Init:0000000000000050 .L0 
C:\Users\LOCALH~1\AppData\Local\Temp\cci7FKoo.s:129    .text.EXTI_Init:0000000000000050 .L0 
C:\Users\LOCALH~1\AppData\Local\Temp\cci7FKoo.s:130    .text.EXTI_Init:0000000000000050 .L0 
C:\Users\LOCALH~1\AppData\Local\Temp\cci7FKoo.s:132    .text.EXTI_Init:0000000000000052 .L0 
C:\Users\LOCALH~1\AppData\Local\Temp\cci7FKoo.s:135    .text.EXTI_Init:0000000000000054 .L0 
C:\Users\LOCALH~1\AppData\Local\Temp\cci7FKoo.s:141    .text.EXTI_Init:000000000000005a .L0 
C:\Users\LOCALH~1\AppData\Local\Temp\cci7FKoo.s:142    .text.EXTI_Init:000000000000005a .L0 
C:\Users\LOCALH~1\AppData\Local\Temp\cci7FKoo.s:144    .text.EXTI_Init:000000000000005c .L0 
C:\Users\LOCALH~1\AppData\Local\Temp\cci7FKoo.s:147    .text.EXTI_Init:0000000000000060 .L0 
C:\Users\LOCALH~1\AppData\Local\Temp\cci7FKoo.s:148    .text.EXTI_Init:0000000000000062 .L0 
C:\Users\LOCALH~1\AppData\Local\Temp\cci7FKoo.s:155    .text.EXTI_StructInit:0000000000000000 EXTI_StructInit
C:\Users\LOCALH~1\AppData\Local\Temp\cci7FKoo.s:158    .text.EXTI_StructInit:0000000000000000 .L0 
C:\Users\LOCALH~1\AppData\Local\Temp\cci7FKoo.s:160    .text.EXTI_StructInit:0000000000000000 .L0 
C:\Users\LOCALH~1\AppData\Local\Temp\cci7FKoo.s:161    .text.EXTI_StructInit:0000000000000000 .L0 
C:\Users\LOCALH~1\AppData\Local\Temp\cci7FKoo.s:162    .text.EXTI_StructInit:0000000000000000 $x
C:\Users\LOCALH~1\AppData\Local\Temp\cci7FKoo.s:162    .text.EXTI_StructInit:0000000000000000 .L0 
C:\Users\LOCALH~1\AppData\Local\Temp\cci7FKoo.s:164    .text.EXTI_StructInit:0000000000000002 .L0 
C:\Users\LOCALH~1\AppData\Local\Temp\cci7FKoo.s:166    .text.EXTI_StructInit:0000000000000006 .L0 
C:\Users\LOCALH~1\AppData\Local\Temp\cci7FKoo.s:167    .text.EXTI_StructInit:0000000000000006 .L0 
C:\Users\LOCALH~1\AppData\Local\Temp\cci7FKoo.s:169    .text.EXTI_StructInit:000000000000000a .L0 
C:\Users\LOCALH~1\AppData\Local\Temp\cci7FKoo.s:170    .text.EXTI_StructInit:000000000000000a .L0 
C:\Users\LOCALH~1\AppData\Local\Temp\cci7FKoo.s:172    .text.EXTI_StructInit:000000000000000c .L0 
C:\Users\LOCALH~1\AppData\Local\Temp\cci7FKoo.s:173    .text.EXTI_StructInit:000000000000000c .L0 
C:\Users\LOCALH~1\AppData\Local\Temp\cci7FKoo.s:175    .text.EXTI_StructInit:0000000000000010 .L0 
C:\Users\LOCALH~1\AppData\Local\Temp\cci7FKoo.s:176    .text.EXTI_StructInit:0000000000000012 .L0 
C:\Users\LOCALH~1\AppData\Local\Temp\cci7FKoo.s:183    .text.EXTI_GenerateSWInterrupt:0000000000000000 EXTI_GenerateSWInterrupt
C:\Users\LOCALH~1\AppData\Local\Temp\cci7FKoo.s:186    .text.EXTI_GenerateSWInterrupt:0000000000000000 .L0 
C:\Users\LOCALH~1\AppData\Local\Temp\cci7FKoo.s:188    .text.EXTI_GenerateSWInterrupt:0000000000000000 .L0 
C:\Users\LOCALH~1\AppData\Local\Temp\cci7FKoo.s:189    .text.EXTI_GenerateSWInterrupt:0000000000000000 .L0 
C:\Users\LOCALH~1\AppData\Local\Temp\cci7FKoo.s:190    .text.EXTI_GenerateSWInterrupt:0000000000000000 $x
C:\Users\LOCALH~1\AppData\Local\Temp\cci7FKoo.s:190    .text.EXTI_GenerateSWInterrupt:0000000000000000 .L0 
C:\Users\LOCALH~1\AppData\Local\Temp\cci7FKoo.s:194    .text.EXTI_GenerateSWInterrupt:000000000000000a .L0 
C:\Users\LOCALH~1\AppData\Local\Temp\cci7FKoo.s:197    .text.EXTI_GenerateSWInterrupt:000000000000000e .L0 
C:\Users\LOCALH~1\AppData\Local\Temp\cci7FKoo.s:198    .text.EXTI_GenerateSWInterrupt:0000000000000010 .L0 
C:\Users\LOCALH~1\AppData\Local\Temp\cci7FKoo.s:205    .text.EXTI_GetFlagStatus:0000000000000000 EXTI_GetFlagStatus
C:\Users\LOCALH~1\AppData\Local\Temp\cci7FKoo.s:208    .text.EXTI_GetFlagStatus:0000000000000000 .L0 
C:\Users\LOCALH~1\AppData\Local\Temp\cci7FKoo.s:210    .text.EXTI_GetFlagStatus:0000000000000000 .L0 
C:\Users\LOCALH~1\AppData\Local\Temp\cci7FKoo.s:211    .text.EXTI_GetFlagStatus:0000000000000000 .L0 
C:\Users\LOCALH~1\AppData\Local\Temp\cci7FKoo.s:212    .text.EXTI_GetFlagStatus:0000000000000000 .L0 
C:\Users\LOCALH~1\AppData\Local\Temp\cci7FKoo.s:213    .text.EXTI_GetFlagStatus:0000000000000000 $x
C:\Users\LOCALH~1\AppData\Local\Temp\cci7FKoo.s:213    .text.EXTI_GetFlagStatus:0000000000000000 .L0 
C:\Users\LOCALH~1\AppData\Local\Temp\cci7FKoo.s:218    .text.EXTI_GetFlagStatus:000000000000000a .L0 
C:\Users\LOCALH~1\AppData\Local\Temp\cci7FKoo.s:219    .text.EXTI_GetFlagStatus:000000000000000a .L0 
C:\Users\LOCALH~1\AppData\Local\Temp\cci7FKoo.s:222    .text.EXTI_GetFlagStatus:000000000000000c .L0 
C:\Users\LOCALH~1\AppData\Local\Temp\cci7FKoo.s:224    .text.EXTI_GetFlagStatus:0000000000000012 .L0 
C:\Users\LOCALH~1\AppData\Local\Temp\cci7FKoo.s:231    .text.EXTI_ClearFlag:0000000000000000 EXTI_ClearFlag
C:\Users\LOCALH~1\AppData\Local\Temp\cci7FKoo.s:234    .text.EXTI_ClearFlag:0000000000000000 .L0 
C:\Users\LOCALH~1\AppData\Local\Temp\cci7FKoo.s:236    .text.EXTI_ClearFlag:0000000000000000 .L0 
C:\Users\LOCALH~1\AppData\Local\Temp\cci7FKoo.s:237    .text.EXTI_ClearFlag:0000000000000000 .L0 
C:\Users\LOCALH~1\AppData\Local\Temp\cci7FKoo.s:238    .text.EXTI_ClearFlag:0000000000000000 $x
C:\Users\LOCALH~1\AppData\Local\Temp\cci7FKoo.s:238    .text.EXTI_ClearFlag:0000000000000000 .L0 
C:\Users\LOCALH~1\AppData\Local\Temp\cci7FKoo.s:242    .text.EXTI_ClearFlag:000000000000000a .L0 
C:\Users\LOCALH~1\AppData\Local\Temp\cci7FKoo.s:243    .text.EXTI_ClearFlag:000000000000000c .L0 
C:\Users\LOCALH~1\AppData\Local\Temp\cci7FKoo.s:250    .text.EXTI_GetITStatus:0000000000000000 EXTI_GetITStatus
C:\Users\LOCALH~1\AppData\Local\Temp\cci7FKoo.s:253    .text.EXTI_GetITStatus:0000000000000000 .L0 
C:\Users\LOCALH~1\AppData\Local\Temp\cci7FKoo.s:255    .text.EXTI_GetITStatus:0000000000000000 .L0 
C:\Users\LOCALH~1\AppData\Local\Temp\cci7FKoo.s:256    .text.EXTI_GetITStatus:0000000000000000 .L0 
C:\Users\LOCALH~1\AppData\Local\Temp\cci7FKoo.s:257    .text.EXTI_GetITStatus:0000000000000000 .L0 
C:\Users\LOCALH~1\AppData\Local\Temp\cci7FKoo.s:258    .text.EXTI_GetITStatus:0000000000000000 .L0 
C:\Users\LOCALH~1\AppData\Local\Temp\cci7FKoo.s:259    .text.EXTI_GetITStatus:0000000000000000 $x
C:\Users\LOCALH~1\AppData\Local\Temp\cci7FKoo.s:259    .text.EXTI_GetITStatus:0000000000000000 .L0 
C:\Users\LOCALH~1\AppData\Local\Temp\cci7FKoo.s:264    .text.EXTI_GetITStatus:000000000000000a .L0 
C:\Users\LOCALH~1\AppData\Local\Temp\cci7FKoo.s:265    .text.EXTI_GetITStatus:000000000000000a .L0 
C:\Users\LOCALH~1\AppData\Local\Temp\cci7FKoo.s:267    .text.EXTI_GetITStatus:000000000000000c .L0 
C:\Users\LOCALH~1\AppData\Local\Temp\cci7FKoo.s:269    .text.EXTI_GetITStatus:000000000000000e .L0 
C:\Users\LOCALH~1\AppData\Local\Temp\cci7FKoo.s:272    .text.EXTI_GetITStatus:0000000000000010 .L0 
C:\Users\LOCALH~1\AppData\Local\Temp\cci7FKoo.s:274    .text.EXTI_GetITStatus:0000000000000012 .L0 
C:\Users\LOCALH~1\AppData\Local\Temp\cci7FKoo.s:277    .text.EXTI_GetITStatus:0000000000000014 .L0 
C:\Users\LOCALH~1\AppData\Local\Temp\cci7FKoo.s:281    .text.EXTI_GetITStatus:0000000000000018 .L0 
C:\Users\LOCALH~1\AppData\Local\Temp\cci7FKoo.s:282    .text.EXTI_GetITStatus:0000000000000018 .L0 
C:\Users\LOCALH~1\AppData\Local\Temp\cci7FKoo.s:283    .text.EXTI_GetITStatus:000000000000001a .L0 
C:\Users\LOCALH~1\AppData\Local\Temp\cci7FKoo.s:290    .text.EXTI_ClearITPendingBit:0000000000000000 EXTI_ClearITPendingBit
C:\Users\LOCALH~1\AppData\Local\Temp\cci7FKoo.s:292    .text.EXTI_ClearITPendingBit:0000000000000000 .L0 
C:\Users\LOCALH~1\AppData\Local\Temp\cci7FKoo.s:294    .text.EXTI_ClearITPendingBit:0000000000000000 $x
C:\Users\LOCALH~1\AppData\Local\Temp\cci7FKoo.s:294    .text.EXTI_ClearITPendingBit:0000000000000000 .L0 
C:\Users\LOCALH~1\AppData\Local\Temp\cci7FKoo.s:298    .text.EXTI_ClearITPendingBit:000000000000000c .L0 
C:\Users\LOCALH~1\AppData\Local\Temp\cci7FKoo.s:1468   .debug_line_str:0000000000000077 .L0 
C:\Users\LOCALH~1\AppData\Local\Temp\cci7FKoo.s:1468   .debug_line_str:00000000000000cc .L0 
C:\Users\LOCALH~1\AppData\Local\Temp\cci7FKoo.s:1468   .debug_line_str:00000000000000de .L0 
C:\Users\LOCALH~1\AppData\Local\Temp\cci7FKoo.s:1468   .debug_line_str:000000000000013a .L0 
C:\Users\LOCALH~1\AppData\Local\Temp\cci7FKoo.s:1468   .debug_line_str:0000000000000192 .L0 
C:\Users\LOCALH~1\AppData\Local\Temp\cci7FKoo.s:1468   .debug_line_str:00000000000001e8 .L0 
C:\Users\LOCALH~1\AppData\Local\Temp\cci7FKoo.s:1468   .debug_line_str:0000000000000248 .L0 
C:\Users\LOCALH~1\AppData\Local\Temp\cci7FKoo.s:1468   .debug_line_str:0000000000000258 .L0 
C:\Users\LOCALH~1\AppData\Local\Temp\cci7FKoo.s:1468   .debug_line_str:0000000000000268 .L0 
C:\Users\LOCALH~1\AppData\Local\Temp\cci7FKoo.s:1468   .debug_line_str:0000000000000279 .L0 
C:\Users\LOCALH~1\AppData\Local\Temp\cci7FKoo.s:1468   .debug_line_str:0000000000000283 .L0 
C:\Users\LOCALH~1\AppData\Local\Temp\cci7FKoo.s:1468   .debug_line_str:0000000000000290 .L0 
C:\Users\LOCALH~1\AppData\Local\Temp\cci7FKoo.s:1468   .debug_line_str:000000000000029b .L0 
C:\Users\LOCALH~1\AppData\Local\Temp\cci7FKoo.s:44     .text.EXTI_DeInit:0000000000000022 .L0 
C:\Users\LOCALH~1\AppData\Local\Temp\cci7FKoo.s:151    .text.EXTI_Init:0000000000000062 .L0 
C:\Users\LOCALH~1\AppData\Local\Temp\cci7FKoo.s:179    .text.EXTI_StructInit:0000000000000012 .L0 
C:\Users\LOCALH~1\AppData\Local\Temp\cci7FKoo.s:201    .text.EXTI_GenerateSWInterrupt:0000000000000010 .L0 
C:\Users\LOCALH~1\AppData\Local\Temp\cci7FKoo.s:227    .text.EXTI_GetFlagStatus:0000000000000012 .L0 
C:\Users\LOCALH~1\AppData\Local\Temp\cci7FKoo.s:246    .text.EXTI_ClearFlag:000000000000000c .L0 
C:\Users\LOCALH~1\AppData\Local\Temp\cci7FKoo.s:286    .text.EXTI_GetITStatus:000000000000001a .L0 
C:\Users\LOCALH~1\AppData\Local\Temp\cci7FKoo.s:301    .text.EXTI_ClearITPendingBit:000000000000000c .L0 
                     .debug_frame:0000000000000000 .L0 
C:\Users\LOCALH~1\AppData\Local\Temp\cci7FKoo.s:139    .text.EXTI_Init:000000000000005a .L3
C:\Users\LOCALH~1\AppData\Local\Temp\cci7FKoo.s:124    .text.EXTI_Init:0000000000000050 .L4
C:\Users\LOCALH~1\AppData\Local\Temp\cci7FKoo.s:280    .text.EXTI_GetITStatus:0000000000000018 .L10
C:\Users\LOCALH~1\AppData\Local\Temp\cci7FKoo.s:707    .debug_abbrev:0000000000000000 .Ldebug_abbrev0
C:\Users\LOCALH~1\AppData\Local\Temp\cci7FKoo.s:1447   .debug_str:0000000000000234 .LASF48
C:\Users\LOCALH~1\AppData\Local\Temp\cci7FKoo.s:1466   .debug_line_str:0000000000000055 .LASF0
C:\Users\LOCALH~1\AppData\Local\Temp\cci7FKoo.s:1464   .debug_line_str:0000000000000000 .LASF1
C:\Users\LOCALH~1\AppData\Local\Temp\cci7FKoo.s:1333   .debug_rnglists:000000000000000c .LLRL6
C:\Users\LOCALH~1\AppData\Local\Temp\cci7FKoo.s:1361   .debug_line:0000000000000000 .Ldebug_line0
C:\Users\LOCALH~1\AppData\Local\Temp\cci7FKoo.s:1427   .debug_str:00000000000001af .LASF2
C:\Users\LOCALH~1\AppData\Local\Temp\cci7FKoo.s:1453   .debug_str:000000000000034a .LASF3
C:\Users\LOCALH~1\AppData\Local\Temp\cci7FKoo.s:1397   .debug_str:00000000000000f2 .LASF4
C:\Users\LOCALH~1\AppData\Local\Temp\cci7FKoo.s:1445   .debug_str:000000000000022a .LASF5
C:\Users\LOCALH~1\AppData\Local\Temp\cci7FKoo.s:1381   .debug_str:0000000000000070 .LASF6
C:\Users\LOCALH~1\AppData\Local\Temp\cci7FKoo.s:1449   .debug_str:0000000000000335 .LASF7
C:\Users\LOCALH~1\AppData\Local\Temp\cci7FKoo.s:1419   .debug_str:000000000000016e .LASF11
C:\Users\LOCALH~1\AppData\Local\Temp\cci7FKoo.s:1405   .debug_str:0000000000000121 .LASF8
C:\Users\LOCALH~1\AppData\Local\Temp\cci7FKoo.s:1439   .debug_str:00000000000001f4 .LASF9
C:\Users\LOCALH~1\AppData\Local\Temp\cci7FKoo.s:1459   .debug_str:0000000000000370 .LASF10
C:\Users\LOCALH~1\AppData\Local\Temp\cci7FKoo.s:1417   .debug_str:0000000000000165 .LASF12
C:\Users\LOCALH~1\AppData\Local\Temp\cci7FKoo.s:1413   .debug_str:0000000000000157 .LASF13
C:\Users\LOCALH~1\AppData\Local\Temp\cci7FKoo.s:1393   .debug_str:00000000000000d7 .LASF14
C:\Users\LOCALH~1\AppData\Local\Temp\cci7FKoo.s:1383   .debug_str:0000000000000083 .LASF15
C:\Users\LOCALH~1\AppData\Local\Temp\cci7FKoo.s:1407   .debug_str:0000000000000133 .LASF16
C:\Users\LOCALH~1\AppData\Local\Temp\cci7FKoo.s:1401   .debug_str:0000000000000107 .LASF17
C:\Users\LOCALH~1\AppData\Local\Temp\cci7FKoo.s:1369   .debug_str:000000000000001b .LASF18
C:\Users\LOCALH~1\AppData\Local\Temp\cci7FKoo.s:1399   .debug_str:0000000000000100 .LASF19
C:\Users\LOCALH~1\AppData\Local\Temp\cci7FKoo.s:1425   .debug_str:00000000000001a9 .LASF20
C:\Users\LOCALH~1\AppData\Local\Temp\cci7FKoo.s:1415   .debug_str:000000000000015f .LASF21
C:\Users\LOCALH~1\AppData\Local\Temp\cci7FKoo.s:1437   .debug_str:00000000000001ee .LASF22
C:\Users\LOCALH~1\AppData\Local\Temp\cci7FKoo.s:1367   .debug_str:0000000000000014 .LASF23
C:\Users\LOCALH~1\AppData\Local\Temp\cci7FKoo.s:1457   .debug_str:000000000000036a .LASF24
C:\Users\LOCALH~1\AppData\Local\Temp\cci7FKoo.s:1411   .debug_str:000000000000014a .LASF25
C:\Users\LOCALH~1\AppData\Local\Temp\cci7FKoo.s:1451   .debug_str:000000000000033e .LASF26
C:\Users\LOCALH~1\AppData\Local\Temp\cci7FKoo.s:1433   .debug_str:00000000000001d9 .LASF27
C:\Users\LOCALH~1\AppData\Local\Temp\cci7FKoo.s:1395   .debug_str:00000000000000de .LASF28
C:\Users\LOCALH~1\AppData\Local\Temp\cci7FKoo.s:1379   .debug_str:0000000000000060 .LASF29
C:\Users\LOCALH~1\AppData\Local\Temp\cci7FKoo.s:1409   .debug_str:0000000000000139 .LASF30
C:\Users\LOCALH~1\AppData\Local\Temp\cci7FKoo.s:1421   .debug_str:0000000000000179 .LASF31
C:\Users\LOCALH~1\AppData\Local\Temp\cci7FKoo.s:1377   .debug_str:000000000000004b .LASF32
C:\Users\LOCALH~1\AppData\Local\Temp\cci7FKoo.s:1423   .debug_str:000000000000018d .LASF33
C:\Users\LOCALH~1\AppData\Local\Temp\cci7FKoo.s:1455   .debug_str:0000000000000356 .LASF34
C:\Users\LOCALH~1\AppData\Local\Temp\cci7FKoo.s:1363   .debug_str:0000000000000000 .LASF35
C:\Users\LOCALH~1\AppData\Local\Temp\cci7FKoo.s:1365   .debug_str:000000000000000a .LASF36
C:\Users\LOCALH~1\AppData\Local\Temp\cci7FKoo.s:1375   .debug_str:000000000000003e .LASF37
C:\Users\LOCALH~1\AppData\Local\Temp\cci7FKoo.s:1373   .debug_str:0000000000000031 .LASF38
C:\Users\LOCALH~1\AppData\Local\Temp\cci7FKoo.s:1389   .debug_str:00000000000000b6 .LASF39
C:\Users\LOCALH~1\AppData\Local\Temp\cci7FKoo.s:1443   .debug_str:0000000000000213 .LASF49
C:\Users\LOCALH~1\AppData\Local\Temp\cci7FKoo.s:1441   .debug_str:0000000000000202 .LASF42
C:\Users\LOCALH~1\AppData\Local\Temp\cci7FKoo.s:251    .text.EXTI_GetITStatus:0000000000000000 .LFB35
C:\Users\LOCALH~1\AppData\Local\Temp\cci7FKoo.s:284    .text.EXTI_GetITStatus:000000000000001a .LFE35
C:\Users\LOCALH~1\AppData\Local\Temp\cci7FKoo.s:1145   .debug_loclists:000000000000000c .LLST3
C:\Users\LOCALH~1\AppData\Local\Temp\cci7FKoo.s:1385   .debug_str:0000000000000093 .LASF40
C:\Users\LOCALH~1\AppData\Local\Temp\cci7FKoo.s:1157   .debug_loclists:0000000000000023 .LLST4
C:\Users\LOCALH~1\AppData\Local\Temp\cci7FKoo.s:1371   .debug_str:0000000000000024 .LASF41
C:\Users\LOCALH~1\AppData\Local\Temp\cci7FKoo.s:1165   .debug_loclists:0000000000000030 .LLST5
C:\Users\LOCALH~1\AppData\Local\Temp\cci7FKoo.s:1403   .debug_str:0000000000000112 .LASF50
C:\Users\LOCALH~1\AppData\Local\Temp\cci7FKoo.s:1431   .debug_str:00000000000001c6 .LASF43
C:\Users\LOCALH~1\AppData\Local\Temp\cci7FKoo.s:206    .text.EXTI_GetFlagStatus:0000000000000000 .LFB33
C:\Users\LOCALH~1\AppData\Local\Temp\cci7FKoo.s:225    .text.EXTI_GetFlagStatus:0000000000000012 .LFE33
C:\Users\LOCALH~1\AppData\Local\Temp\cci7FKoo.s:1198   .debug_loclists:0000000000000068 .LLST1
C:\Users\LOCALH~1\AppData\Local\Temp\cci7FKoo.s:1213   .debug_loclists:0000000000000082 .LLST2
C:\Users\LOCALH~1\AppData\Local\Temp\cci7FKoo.s:1387   .debug_str:000000000000009d .LASF44
C:\Users\LOCALH~1\AppData\Local\Temp\cci7FKoo.s:184    .text.EXTI_GenerateSWInterrupt:0000000000000000 .LFB32
C:\Users\LOCALH~1\AppData\Local\Temp\cci7FKoo.s:199    .text.EXTI_GenerateSWInterrupt:0000000000000010 .LFE32
C:\Users\LOCALH~1\AppData\Local\Temp\cci7FKoo.s:1435   .debug_str:00000000000001de .LASF45
C:\Users\LOCALH~1\AppData\Local\Temp\cci7FKoo.s:156    .text.EXTI_StructInit:0000000000000000 .LFB31
C:\Users\LOCALH~1\AppData\Local\Temp\cci7FKoo.s:177    .text.EXTI_StructInit:0000000000000012 .LFE31
C:\Users\LOCALH~1\AppData\Local\Temp\cci7FKoo.s:1391   .debug_str:00000000000000c7 .LASF46
C:\Users\LOCALH~1\AppData\Local\Temp\cci7FKoo.s:1429   .debug_str:00000000000001bc .LASF47
C:\Users\LOCALH~1\AppData\Local\Temp\cci7FKoo.s:49     .text.EXTI_Init:0000000000000000 .LFB30
C:\Users\LOCALH~1\AppData\Local\Temp\cci7FKoo.s:149    .text.EXTI_Init:0000000000000062 .LFE30
C:\Users\LOCALH~1\AppData\Local\Temp\cci7FKoo.s:1252   .debug_loclists:00000000000000ba .LLST0
C:\Users\LOCALH~1\AppData\Local\Temp\cci7FKoo.s:1461   .debug_str:0000000000000387 .LASF51
C:\Users\LOCALH~1\AppData\Local\Temp\cci7FKoo.s:15     .text.EXTI_DeInit:0000000000000000 .LFB29
C:\Users\LOCALH~1\AppData\Local\Temp\cci7FKoo.s:42     .text.EXTI_DeInit:0000000000000022 .LFE29
C:\Users\LOCALH~1\AppData\Local\Temp\cci7FKoo.s:232    .text.EXTI_ClearFlag:0000000000000000 .LFB34
C:\Users\LOCALH~1\AppData\Local\Temp\cci7FKoo.s:244    .text.EXTI_ClearFlag:000000000000000c .LFE34
C:\Users\LOCALH~1\AppData\Local\Temp\cci7FKoo.s:254    .text.EXTI_GetITStatus:0000000000000000 .LVL11
C:\Users\LOCALH~1\AppData\Local\Temp\cci7FKoo.s:270    .text.EXTI_GetITStatus:0000000000000010 .LVL13
C:\Users\LOCALH~1\AppData\Local\Temp\cci7FKoo.s:278    .text.EXTI_GetITStatus:0000000000000018 .LVL15
C:\Users\LOCALH~1\AppData\Local\Temp\cci7FKoo.s:262    .text.EXTI_GetITStatus:000000000000000a .LVL12
C:\Users\LOCALH~1\AppData\Local\Temp\cci7FKoo.s:275    .text.EXTI_GetITStatus:0000000000000014 .LVL14
C:\Users\LOCALH~1\AppData\Local\Temp\cci7FKoo.s:209    .text.EXTI_GetFlagStatus:0000000000000000 .LVL7
C:\Users\LOCALH~1\AppData\Local\Temp\cci7FKoo.s:220    .text.EXTI_GetFlagStatus:000000000000000c .LVL9
C:\Users\LOCALH~1\AppData\Local\Temp\cci7FKoo.s:216    .text.EXTI_GetFlagStatus:000000000000000a .LVL8
C:\Users\LOCALH~1\AppData\Local\Temp\cci7FKoo.s:52     .text.EXTI_Init:0000000000000000 .LVL0
C:\Users\LOCALH~1\AppData\Local\Temp\cci7FKoo.s:83     .text.EXTI_Init:0000000000000022 .LVL1
C:\Users\LOCALH~1\AppData\Local\Temp\cci7FKoo.s:126    .text.EXTI_Init:0000000000000050 .LVL2
C:\Users\LOCALH~1\AppData\Local\Temp\cci7FKoo.s:133    .text.EXTI_Init:0000000000000054 .LVL3
C:\Users\LOCALH~1\AppData\Local\Temp\cci7FKoo.s:138    .text.EXTI_Init:000000000000005a .LVL4
C:\Users\LOCALH~1\AppData\Local\Temp\cci7FKoo.s:309    .debug_info:0000000000000000 .Ldebug_info0
C:\Users\LOCALH~1\AppData\Local\Temp\cci7FKoo.s:291    .text.EXTI_ClearITPendingBit:0000000000000000 .LFB38
C:\Users\LOCALH~1\AppData\Local\Temp\cci7FKoo.s:299    .text.EXTI_ClearITPendingBit:000000000000000c .LFE38

NO UNDEFINED SYMBOLS
