   1              		.file	"ch32v30x_dac.c"
   2              		.option nopic
   3              		.attribute arch, "rv32i2p0_m2p0_a2p0_f2p0_c2p0_xw"
   4              		.attribute unaligned_access, 0
   5              		.attribute stack_align, 16
   6              		.text
   7              	.Ltext0:
   8              		.cfi_sections	.debug_frame
   9              		.file 0 "C:\\Users\\localhost\\Documents\\turbomoskal-repo\\qqexpert\\firmware\\MasterController\\
  10              		.section	.text.DAC_DeInit,"ax",@progbits
  11              		.align	1
  12              		.globl	DAC_DeInit
  14              	DAC_DeInit:
  15              	.LFB29:
  16              		.file 1 "../Peripheral/src/ch32v30x_dac.c"
   1:../Peripheral/src/ch32v30x_dac.c **** /********************************** (C) COPYRIGHT  *******************************
   2:../Peripheral/src/ch32v30x_dac.c **** * File Name          : ch32v30x_dac.c
   3:../Peripheral/src/ch32v30x_dac.c **** * Author             : WCH
   4:../Peripheral/src/ch32v30x_dac.c **** * Version            : V1.0.0
   5:../Peripheral/src/ch32v30x_dac.c **** * Date               : 2021/06/06
   6:../Peripheral/src/ch32v30x_dac.c **** * Description        : This file provides all the DAC firmware functions.
   7:../Peripheral/src/ch32v30x_dac.c **** *********************************************************************************
   8:../Peripheral/src/ch32v30x_dac.c **** * Copyright (c) 2021 Nanjing Qinheng Microelectronics Co., Ltd.
   9:../Peripheral/src/ch32v30x_dac.c **** * Attention: This software (modified or not) and binary are used for 
  10:../Peripheral/src/ch32v30x_dac.c **** * microcontroller manufactured by Nanjing Qinheng Microelectronics.
  11:../Peripheral/src/ch32v30x_dac.c **** *******************************************************************************/
  12:../Peripheral/src/ch32v30x_dac.c **** #include "ch32v30x_dac.h"
  13:../Peripheral/src/ch32v30x_dac.c **** #include "ch32v30x_rcc.h"
  14:../Peripheral/src/ch32v30x_dac.c **** 
  15:../Peripheral/src/ch32v30x_dac.c **** /* CTLR register Mask */
  16:../Peripheral/src/ch32v30x_dac.c **** #define CTLR_CLEAR_MASK    ((uint32_t)0x00000FFE)
  17:../Peripheral/src/ch32v30x_dac.c **** 
  18:../Peripheral/src/ch32v30x_dac.c **** /* DAC Dual Channels SWTR masks */
  19:../Peripheral/src/ch32v30x_dac.c **** #define DUAL_SWTR_SET      ((uint32_t)0x00000003)
  20:../Peripheral/src/ch32v30x_dac.c **** #define DUAL_SWTR_RESET    ((uint32_t)0xFFFFFFFC)
  21:../Peripheral/src/ch32v30x_dac.c **** 
  22:../Peripheral/src/ch32v30x_dac.c **** /* DHR registers offsets */
  23:../Peripheral/src/ch32v30x_dac.c **** #define DHR12R1_OFFSET     ((uint32_t)0x00000008)
  24:../Peripheral/src/ch32v30x_dac.c **** #define DHR12R2_OFFSET     ((uint32_t)0x00000014)
  25:../Peripheral/src/ch32v30x_dac.c **** #define DHR12RD_OFFSET     ((uint32_t)0x00000020)
  26:../Peripheral/src/ch32v30x_dac.c **** 
  27:../Peripheral/src/ch32v30x_dac.c **** /* DOR register offset */
  28:../Peripheral/src/ch32v30x_dac.c **** #define DOR_OFFSET         ((uint32_t)0x0000002C)
  29:../Peripheral/src/ch32v30x_dac.c **** 
  30:../Peripheral/src/ch32v30x_dac.c **** /*********************************************************************
  31:../Peripheral/src/ch32v30x_dac.c ****  * @fn      DAC_DeInit
  32:../Peripheral/src/ch32v30x_dac.c ****  *
  33:../Peripheral/src/ch32v30x_dac.c ****  * @brief   Deinitializes the DAC peripheral registers to their default reset values.
  34:../Peripheral/src/ch32v30x_dac.c ****  *
  35:../Peripheral/src/ch32v30x_dac.c ****  * @return  none
  36:../Peripheral/src/ch32v30x_dac.c ****  */
  37:../Peripheral/src/ch32v30x_dac.c **** void DAC_DeInit(void)
  38:../Peripheral/src/ch32v30x_dac.c **** {
  17              		.loc 1 38 1
  18              		.cfi_startproc
  19 0000 17030000 		call	t0,__riscv_save_0
  19      E7020300 
  20              		.cfi_offset 1, -4
  21              		.cfi_def_cfa_offset 16
  39:../Peripheral/src/ch32v30x_dac.c ****     RCC_APB1PeriphResetCmd(RCC_APB1Periph_DAC, ENABLE);
  22              		.loc 1 39 5
  23 0008 8545     		li	a1,1
  24 000a 37050020 		li	a0,536870912
  25 000e 97000000 		call	RCC_APB1PeriphResetCmd
  25      E7800000 
  26              	.LVL0:
  40:../Peripheral/src/ch32v30x_dac.c ****     RCC_APB1PeriphResetCmd(RCC_APB1Periph_DAC, DISABLE);
  27              		.loc 1 40 5
  28 0016 8145     		li	a1,0
  29 0018 37050020 		li	a0,536870912
  30 001c 97000000 		call	RCC_APB1PeriphResetCmd
  30      E7800000 
  31              	.LVL1:
  41:../Peripheral/src/ch32v30x_dac.c **** }
  32              		.loc 1 41 1 is_stmt 0
  33 0024 17030000 		tail	__riscv_restore_0
  33      67000300 
  34              		.cfi_restore 1
  35              		.cfi_def_cfa_offset 0
  36              		.cfi_endproc
  37              	.LFE29:
  39              		.section	.text.DAC_Init,"ax",@progbits
  40              		.align	1
  41              		.globl	DAC_Init
  43              	DAC_Init:
  44              	.LFB30:
  42:../Peripheral/src/ch32v30x_dac.c **** 
  43:../Peripheral/src/ch32v30x_dac.c **** /*********************************************************************
  44:../Peripheral/src/ch32v30x_dac.c ****  * @fn      DAC_Init
  45:../Peripheral/src/ch32v30x_dac.c ****  *
  46:../Peripheral/src/ch32v30x_dac.c ****  * @brief   Initializes the DAC peripheral according to the specified parameters in
  47:../Peripheral/src/ch32v30x_dac.c ****  *        the DAC_InitStruct.
  48:../Peripheral/src/ch32v30x_dac.c ****  *
  49:../Peripheral/src/ch32v30x_dac.c ****  * @param   DAC_Channel - the selected DAC channel.
  50:../Peripheral/src/ch32v30x_dac.c ****  *            DAC_Channel_1 - DAC Channel1 selected
  51:../Peripheral/src/ch32v30x_dac.c ****  *            DAC_Channel_2 - DAC Channel2 selected
  52:../Peripheral/src/ch32v30x_dac.c ****  *          DAC_InitStruct - pointer to a DAC_InitTypeDef structure.
  53:../Peripheral/src/ch32v30x_dac.c ****  *
  54:../Peripheral/src/ch32v30x_dac.c ****  * @return  none
  55:../Peripheral/src/ch32v30x_dac.c ****  */
  56:../Peripheral/src/ch32v30x_dac.c **** void DAC_Init(uint32_t DAC_Channel, DAC_InitTypeDef *DAC_InitStruct)
  57:../Peripheral/src/ch32v30x_dac.c **** {
  45              		.loc 1 57 1 is_stmt 1
  46              		.cfi_startproc
  47              	.LVL2:
  58:../Peripheral/src/ch32v30x_dac.c ****     uint32_t tmpreg1 = 0, tmpreg2 = 0;
  48              		.loc 1 58 5
  59:../Peripheral/src/ch32v30x_dac.c **** 
  60:../Peripheral/src/ch32v30x_dac.c ****     tmpreg1 = DAC->CTLR;
  49              		.loc 1 60 5
  50              		.loc 1 60 13 is_stmt 0
  51 0000 B7760040 		li	a3,1073770496
  52 0004 93860640 		addi	a3,a3,1024
  61:../Peripheral/src/ch32v30x_dac.c ****     tmpreg1 &= ~(CTLR_CLEAR_MASK << DAC_Channel);
  53              		.loc 1 61 34
  54 0008 0567     		li	a4,4096
  60:../Peripheral/src/ch32v30x_dac.c ****     tmpreg1 &= ~(CTLR_CLEAR_MASK << DAC_Channel);
  55              		.loc 1 60 13
  56 000a 9C42     		lw	a5,0(a3)
  57              	.LVL3:
  58              		.loc 1 61 5 is_stmt 1
  59              		.loc 1 61 34 is_stmt 0
  60 000c 7917     		addi	a4,a4,-2
  61 000e 3317A700 		sll	a4,a4,a0
  62              		.loc 1 61 16
  63 0012 1347F7FF 		not	a4,a4
  62:../Peripheral/src/ch32v30x_dac.c ****     tmpreg2 = (DAC_InitStruct->DAC_Trigger | DAC_InitStruct->DAC_WaveGeneration |
  64              		.loc 1 62 44
  65 0016 D041     		lw	a2,4(a1)
  61:../Peripheral/src/ch32v30x_dac.c ****     tmpreg1 &= ~(CTLR_CLEAR_MASK << DAC_Channel);
  66              		.loc 1 61 13
  67 0018 7D8F     		and	a4,a4,a5
  68              	.LVL4:
  69              		.loc 1 62 5 is_stmt 1
  63:../Peripheral/src/ch32v30x_dac.c ****                DAC_InitStruct->DAC_LFSRUnmask_TriangleAmplitude | DAC_InitStruct->DAC_OutputBuffer)
  64:../Peripheral/src/ch32v30x_dac.c ****     tmpreg1 |= tmpreg2 << DAC_Channel;
  70              		.loc 1 64 5
  62:../Peripheral/src/ch32v30x_dac.c ****     tmpreg2 = (DAC_InitStruct->DAC_Trigger | DAC_InitStruct->DAC_WaveGeneration |
  71              		.loc 1 62 44 is_stmt 0
  72 001a 9C41     		lw	a5,0(a1)
  73 001c D18F     		or	a5,a5,a2
  62:../Peripheral/src/ch32v30x_dac.c ****     tmpreg2 = (DAC_InitStruct->DAC_Trigger | DAC_InitStruct->DAC_WaveGeneration |
  74              		.loc 1 62 81
  75 001e 9045     		lw	a2,8(a1)
  76 0020 D18F     		or	a5,a5,a2
  62:../Peripheral/src/ch32v30x_dac.c ****     tmpreg2 = (DAC_InitStruct->DAC_Trigger | DAC_InitStruct->DAC_WaveGeneration |
  77              		.loc 1 62 13
  78 0022 D045     		lw	a2,12(a1)
  79 0024 D18F     		or	a5,a5,a2
  80              		.loc 1 64 24
  81 0026 3395A700 		sll	a0,a5,a0
  82              	.LVL5:
  83              		.loc 1 64 13
  84 002a 598D     		or	a0,a0,a4
  85              	.LVL6:
  65:../Peripheral/src/ch32v30x_dac.c ****     DAC->CTLR = tmpreg1;
  86              		.loc 1 65 5 is_stmt 1
  87              		.loc 1 65 15 is_stmt 0
  88 002c 88C2     		sw	a0,0(a3)
  89              	.LVL7:
  66:../Peripheral/src/ch32v30x_dac.c **** }
  90              		.loc 1 66 1
  91 002e 8280     		ret
  92              		.cfi_endproc
  93              	.LFE30:
  95              		.section	.text.DAC_StructInit,"ax",@progbits
  96              		.align	1
  97              		.globl	DAC_StructInit
  99              	DAC_StructInit:
 100              	.LFB31:
  67:../Peripheral/src/ch32v30x_dac.c **** 
  68:../Peripheral/src/ch32v30x_dac.c **** /*********************************************************************
  69:../Peripheral/src/ch32v30x_dac.c ****  * @fn      DAC_StructInit
  70:../Peripheral/src/ch32v30x_dac.c ****  *
  71:../Peripheral/src/ch32v30x_dac.c ****  * @brief   Fills each DAC_InitStruct member with its default value.
  72:../Peripheral/src/ch32v30x_dac.c ****  *
  73:../Peripheral/src/ch32v30x_dac.c ****  * @param   DAC_InitStruct - pointer to a DAC_InitTypeDef structure which will be initialized.
  74:../Peripheral/src/ch32v30x_dac.c ****  *
  75:../Peripheral/src/ch32v30x_dac.c ****  * @return  none
  76:../Peripheral/src/ch32v30x_dac.c ****  */
  77:../Peripheral/src/ch32v30x_dac.c **** void DAC_StructInit(DAC_InitTypeDef *DAC_InitStruct)
  78:../Peripheral/src/ch32v30x_dac.c **** {
 101              		.loc 1 78 1 is_stmt 1
 102              		.cfi_startproc
 103              	.LVL8:
  79:../Peripheral/src/ch32v30x_dac.c ****     DAC_InitStruct->DAC_Trigger = DAC_Trigger_None;
 104              		.loc 1 79 5
 105              		.loc 1 79 33 is_stmt 0
 106 0000 23200500 		sw	zero,0(a0)
  80:../Peripheral/src/ch32v30x_dac.c ****     DAC_InitStruct->DAC_WaveGeneration = DAC_WaveGeneration_None;
 107              		.loc 1 80 5 is_stmt 1
 108              		.loc 1 80 40 is_stmt 0
 109 0004 23220500 		sw	zero,4(a0)
  81:../Peripheral/src/ch32v30x_dac.c ****     DAC_InitStruct->DAC_LFSRUnmask_TriangleAmplitude = DAC_LFSRUnmask_Bit0;
 110              		.loc 1 81 5 is_stmt 1
 111              		.loc 1 81 54 is_stmt 0
 112 0008 23240500 		sw	zero,8(a0)
  82:../Peripheral/src/ch32v30x_dac.c ****     DAC_InitStruct->DAC_OutputBuffer = DAC_OutputBuffer_Enable;
 113              		.loc 1 82 5 is_stmt 1
 114              		.loc 1 82 38 is_stmt 0
 115 000c 23260500 		sw	zero,12(a0)
  83:../Peripheral/src/ch32v30x_dac.c **** }
 116              		.loc 1 83 1
 117 0010 8280     		ret
 118              		.cfi_endproc
 119              	.LFE31:
 121              		.section	.text.DAC_Cmd,"ax",@progbits
 122              		.align	1
 123              		.globl	DAC_Cmd
 125              	DAC_Cmd:
 126              	.LFB32:
  84:../Peripheral/src/ch32v30x_dac.c **** 
  85:../Peripheral/src/ch32v30x_dac.c **** /*********************************************************************
  86:../Peripheral/src/ch32v30x_dac.c ****  * @fn      DAC_Cmd
  87:../Peripheral/src/ch32v30x_dac.c ****  *
  88:../Peripheral/src/ch32v30x_dac.c ****  * @brief   Enables or disables the specified DAC channel.
  89:../Peripheral/src/ch32v30x_dac.c ****  *
  90:../Peripheral/src/ch32v30x_dac.c ****  * @param   DAC_Channel - the selected DAC channel.
  91:../Peripheral/src/ch32v30x_dac.c ****  *            DAC_Channel_1 - DAC Channel1 selected
  92:../Peripheral/src/ch32v30x_dac.c ****  *            DAC_Channel_2 - DAC Channel2 selected
  93:../Peripheral/src/ch32v30x_dac.c ****  *          NewState - new state of the DAC channel(ENABLE or DISABLE).
  94:../Peripheral/src/ch32v30x_dac.c ****  *
  95:../Peripheral/src/ch32v30x_dac.c ****  * @return  none
  96:../Peripheral/src/ch32v30x_dac.c ****  */
  97:../Peripheral/src/ch32v30x_dac.c **** void DAC_Cmd(uint32_t DAC_Channel, FunctionalState NewState)
  98:../Peripheral/src/ch32v30x_dac.c **** {
 127              		.loc 1 98 1 is_stmt 1
 128              		.cfi_startproc
 129              	.LVL9:
  99:../Peripheral/src/ch32v30x_dac.c ****     if(NewState != DISABLE)
 130              		.loc 1 99 5
 100:../Peripheral/src/ch32v30x_dac.c ****     {
 101:../Peripheral/src/ch32v30x_dac.c ****         DAC->CTLR |= (DAC_EN1 << DAC_Channel);
 131              		.loc 1 101 31 is_stmt 0
 132 0000 8547     		li	a5,1
 133 0002 3395A700 		sll	a0,a5,a0
 134              	.LVL10:
 135 0006 B7770040 		li	a5,1073770496
 136 000a 93870740 		addi	a5,a5,1024
 137              		.loc 1 101 12
 138 000e 9843     		lw	a4,0(a5)
  99:../Peripheral/src/ch32v30x_dac.c ****     if(NewState != DISABLE)
 139              		.loc 1 99 7
 140 0010 81C5     		beq	a1,zero,.L6
 141              		.loc 1 101 9 is_stmt 1
 142              		.loc 1 101 19 is_stmt 0
 143 0012 498F     		or	a4,a4,a0
 144 0014 98C3     		sw	a4,0(a5)
 145 0016 8280     		ret
 146              	.L6:
 102:../Peripheral/src/ch32v30x_dac.c ****     }
 103:../Peripheral/src/ch32v30x_dac.c ****     else
 104:../Peripheral/src/ch32v30x_dac.c ****     {
 105:../Peripheral/src/ch32v30x_dac.c ****         DAC->CTLR &= ~(DAC_EN1 << DAC_Channel);
 147              		.loc 1 105 9 is_stmt 1
 148              		.loc 1 105 22 is_stmt 0
 149 0018 1345F5FF 		not	a0,a0
 150              		.loc 1 105 19
 151 001c 798D     		and	a0,a0,a4
 152 001e 88C3     		sw	a0,0(a5)
 106:../Peripheral/src/ch32v30x_dac.c ****     }
 107:../Peripheral/src/ch32v30x_dac.c **** }
 153              		.loc 1 107 1
 154 0020 8280     		ret
 155              		.cfi_endproc
 156              	.LFE32:
 158              		.section	.text.DAC_DMACmd,"ax",@progbits
 159              		.align	1
 160              		.globl	DAC_DMACmd
 162              	DAC_DMACmd:
 163              	.LFB33:
 108:../Peripheral/src/ch32v30x_dac.c **** 
 109:../Peripheral/src/ch32v30x_dac.c **** /*********************************************************************
 110:../Peripheral/src/ch32v30x_dac.c ****  * @fn      DAC_DMACmd
 111:../Peripheral/src/ch32v30x_dac.c ****  *
 112:../Peripheral/src/ch32v30x_dac.c ****  * @brief   Enables or disables the specified DAC channel DMA request.
 113:../Peripheral/src/ch32v30x_dac.c ****  *
 114:../Peripheral/src/ch32v30x_dac.c ****  * @param   DAC_Channel - the selected DAC channel.
 115:../Peripheral/src/ch32v30x_dac.c ****  *            DAC_Channel_1 - DAC Channel1 selected
 116:../Peripheral/src/ch32v30x_dac.c ****  *            DAC_Channel_2 - DAC Channel2 selected
 117:../Peripheral/src/ch32v30x_dac.c ****  *          NewState - new state of the DAC channel(ENABLE or DISABLE).
 118:../Peripheral/src/ch32v30x_dac.c ****  *
 119:../Peripheral/src/ch32v30x_dac.c ****  * @return  none
 120:../Peripheral/src/ch32v30x_dac.c ****  */
 121:../Peripheral/src/ch32v30x_dac.c **** void DAC_DMACmd(uint32_t DAC_Channel, FunctionalState NewState)
 122:../Peripheral/src/ch32v30x_dac.c **** {
 164              		.loc 1 122 1 is_stmt 1
 165              		.cfi_startproc
 166              	.LVL11:
 123:../Peripheral/src/ch32v30x_dac.c ****     if(NewState != DISABLE)
 167              		.loc 1 123 5
 124:../Peripheral/src/ch32v30x_dac.c ****     {
 125:../Peripheral/src/ch32v30x_dac.c ****         DAC->CTLR |= (DAC_DMAEN1 << DAC_Channel);
 168              		.loc 1 125 34 is_stmt 0
 169 0000 8567     		li	a5,4096
 170 0002 3395A700 		sll	a0,a5,a0
 171              	.LVL12:
 172 0006 B7770040 		li	a5,1073770496
 173 000a 93870740 		addi	a5,a5,1024
 174              		.loc 1 125 12
 175 000e 9843     		lw	a4,0(a5)
 123:../Peripheral/src/ch32v30x_dac.c ****     if(NewState != DISABLE)
 176              		.loc 1 123 7
 177 0010 81C5     		beq	a1,zero,.L9
 178              		.loc 1 125 9 is_stmt 1
 179              		.loc 1 125 19 is_stmt 0
 180 0012 498F     		or	a4,a4,a0
 181 0014 98C3     		sw	a4,0(a5)
 182 0016 8280     		ret
 183              	.L9:
 126:../Peripheral/src/ch32v30x_dac.c ****     }
 127:../Peripheral/src/ch32v30x_dac.c ****     else
 128:../Peripheral/src/ch32v30x_dac.c ****     {
 129:../Peripheral/src/ch32v30x_dac.c ****         DAC->CTLR &= ~(DAC_DMAEN1 << DAC_Channel);
 184              		.loc 1 129 9 is_stmt 1
 185              		.loc 1 129 22 is_stmt 0
 186 0018 1345F5FF 		not	a0,a0
 187              		.loc 1 129 19
 188 001c 798D     		and	a0,a0,a4
 189 001e 88C3     		sw	a0,0(a5)
 130:../Peripheral/src/ch32v30x_dac.c ****     }
 131:../Peripheral/src/ch32v30x_dac.c **** }
 190              		.loc 1 131 1
 191 0020 8280     		ret
 192              		.cfi_endproc
 193              	.LFE33:
 195              		.section	.text.DAC_SoftwareTriggerCmd,"ax",@progbits
 196              		.align	1
 197              		.globl	DAC_SoftwareTriggerCmd
 199              	DAC_SoftwareTriggerCmd:
 200              	.LFB34:
 132:../Peripheral/src/ch32v30x_dac.c **** 
 133:../Peripheral/src/ch32v30x_dac.c **** /*********************************************************************
 134:../Peripheral/src/ch32v30x_dac.c ****  * @fn      DAC_SoftwareTriggerCmd
 135:../Peripheral/src/ch32v30x_dac.c ****  *
 136:../Peripheral/src/ch32v30x_dac.c ****  * @brief   Enables or disables the selected DAC channel software trigger.
 137:../Peripheral/src/ch32v30x_dac.c ****  *
 138:../Peripheral/src/ch32v30x_dac.c ****  * @param   DAC_Channel - the selected DAC channel.
 139:../Peripheral/src/ch32v30x_dac.c ****  *            DAC_Channel_1 - DAC Channel1 selected
 140:../Peripheral/src/ch32v30x_dac.c ****  *            DAC_Channel_2 - DAC Channel2 selected
 141:../Peripheral/src/ch32v30x_dac.c ****  *          NewState - new state of the DAC channel(ENABLE or DISABLE).
 142:../Peripheral/src/ch32v30x_dac.c ****  *
 143:../Peripheral/src/ch32v30x_dac.c ****  * @return  none
 144:../Peripheral/src/ch32v30x_dac.c ****  */
 145:../Peripheral/src/ch32v30x_dac.c **** void DAC_SoftwareTriggerCmd(uint32_t DAC_Channel, FunctionalState NewState)
 146:../Peripheral/src/ch32v30x_dac.c **** {
 201              		.loc 1 146 1 is_stmt 1
 202              		.cfi_startproc
 203              	.LVL13:
 147:../Peripheral/src/ch32v30x_dac.c ****     if(NewState != DISABLE)
 204              		.loc 1 147 5
 205 0000 37770040 		li	a4,1073770496
 206 0004 13070740 		addi	a4,a4,1024
 148:../Peripheral/src/ch32v30x_dac.c ****     {
 149:../Peripheral/src/ch32v30x_dac.c ****         DAC->SWTR |= (uint32_t)DAC_SWTRIG1 << (DAC_Channel >> 4);
 207              		.loc 1 149 12 is_stmt 0
 208 0008 5443     		lw	a3,4(a4)
 209              		.loc 1 149 60
 210 000a 1181     		srli	a0,a0,4
 211              	.LVL14:
 212              		.loc 1 149 44
 213 000c 8547     		li	a5,1
 214 000e B397A700 		sll	a5,a5,a0
 147:../Peripheral/src/ch32v30x_dac.c ****     if(NewState != DISABLE)
 215              		.loc 1 147 7
 216 0012 81C5     		beq	a1,zero,.L12
 217              		.loc 1 149 9 is_stmt 1
 218              		.loc 1 149 19 is_stmt 0
 219 0014 D58F     		or	a5,a3,a5
 220              	.L14:
 150:../Peripheral/src/ch32v30x_dac.c ****     }
 151:../Peripheral/src/ch32v30x_dac.c ****     else
 152:../Peripheral/src/ch32v30x_dac.c ****     {
 153:../Peripheral/src/ch32v30x_dac.c ****         DAC->SWTR &= ~((uint32_t)DAC_SWTRIG1 << (DAC_Channel >> 4));
 221              		.loc 1 153 19
 222 0016 5CC3     		sw	a5,4(a4)
 154:../Peripheral/src/ch32v30x_dac.c ****     }
 155:../Peripheral/src/ch32v30x_dac.c **** }
 223              		.loc 1 155 1
 224 0018 8280     		ret
 225              	.L12:
 153:../Peripheral/src/ch32v30x_dac.c ****     }
 226              		.loc 1 153 9 is_stmt 1
 153:../Peripheral/src/ch32v30x_dac.c ****     }
 227              		.loc 1 153 22 is_stmt 0
 228 001a 93C7F7FF 		not	a5,a5
 153:../Peripheral/src/ch32v30x_dac.c ****     }
 229              		.loc 1 153 19
 230 001e F58F     		and	a5,a5,a3
 231 0020 DDBF     		j	.L14
 232              		.cfi_endproc
 233              	.LFE34:
 235              		.section	.text.DAC_DualSoftwareTriggerCmd,"ax",@progbits
 236              		.align	1
 237              		.globl	DAC_DualSoftwareTriggerCmd
 239              	DAC_DualSoftwareTriggerCmd:
 240              	.LFB35:
 156:../Peripheral/src/ch32v30x_dac.c **** 
 157:../Peripheral/src/ch32v30x_dac.c **** /*********************************************************************
 158:../Peripheral/src/ch32v30x_dac.c ****  * @fn      DAC_DualSoftwareTriggerCmd
 159:../Peripheral/src/ch32v30x_dac.c ****  *
 160:../Peripheral/src/ch32v30x_dac.c ****  * @brief   Enables or disables the two DAC channel software trigger.
 161:../Peripheral/src/ch32v30x_dac.c ****  *
 162:../Peripheral/src/ch32v30x_dac.c ****  * @param   NewState - new state of the DAC channel(ENABLE or DISABLE).
 163:../Peripheral/src/ch32v30x_dac.c ****  *
 164:../Peripheral/src/ch32v30x_dac.c ****  * @return  none
 165:../Peripheral/src/ch32v30x_dac.c ****  */
 166:../Peripheral/src/ch32v30x_dac.c **** void DAC_DualSoftwareTriggerCmd(FunctionalState NewState)
 167:../Peripheral/src/ch32v30x_dac.c **** {
 241              		.loc 1 167 1 is_stmt 1
 242              		.cfi_startproc
 243              	.LVL15:
 168:../Peripheral/src/ch32v30x_dac.c ****     if(NewState != DISABLE)
 244              		.loc 1 168 5
 245 0000 B7770040 		li	a5,1073770496
 246 0004 93870740 		addi	a5,a5,1024
 169:../Peripheral/src/ch32v30x_dac.c ****     {
 170:../Peripheral/src/ch32v30x_dac.c ****         DAC->SWTR |= DUAL_SWTR_SET;
 247              		.loc 1 170 12 is_stmt 0
 248 0008 D843     		lw	a4,4(a5)
 168:../Peripheral/src/ch32v30x_dac.c ****     if(NewState != DISABLE)
 249              		.loc 1 168 7
 250 000a 09C5     		beq	a0,zero,.L16
 251              		.loc 1 170 9 is_stmt 1
 252              		.loc 1 170 19 is_stmt 0
 253 000c 13673700 		ori	a4,a4,3
 254              	.L18:
 171:../Peripheral/src/ch32v30x_dac.c ****     }
 172:../Peripheral/src/ch32v30x_dac.c ****     else
 173:../Peripheral/src/ch32v30x_dac.c ****     {
 174:../Peripheral/src/ch32v30x_dac.c ****         DAC->SWTR &= DUAL_SWTR_RESET;
 255              		.loc 1 174 19
 256 0010 D8C3     		sw	a4,4(a5)
 175:../Peripheral/src/ch32v30x_dac.c ****     }
 176:../Peripheral/src/ch32v30x_dac.c **** }
 257              		.loc 1 176 1
 258 0012 8280     		ret
 259              	.L16:
 174:../Peripheral/src/ch32v30x_dac.c ****     }
 260              		.loc 1 174 9 is_stmt 1
 174:../Peripheral/src/ch32v30x_dac.c ****     }
 261              		.loc 1 174 19 is_stmt 0
 262 0014 719B     		andi	a4,a4,-4
 263 0016 EDBF     		j	.L18
 264              		.cfi_endproc
 265              	.LFE35:
 267              		.section	.text.DAC_WaveGenerationCmd,"ax",@progbits
 268              		.align	1
 269              		.globl	DAC_WaveGenerationCmd
 271              	DAC_WaveGenerationCmd:
 272              	.LFB36:
 177:../Peripheral/src/ch32v30x_dac.c **** 
 178:../Peripheral/src/ch32v30x_dac.c **** /*********************************************************************
 179:../Peripheral/src/ch32v30x_dac.c ****  * @fn      DAC_WaveGenerationCmd
 180:../Peripheral/src/ch32v30x_dac.c ****  *
 181:../Peripheral/src/ch32v30x_dac.c ****  * @brief   Enables or disables the selected DAC channel wave generation.
 182:../Peripheral/src/ch32v30x_dac.c ****  *
 183:../Peripheral/src/ch32v30x_dac.c ****  * @param   DAC_Channel - the selected DAC channel.
 184:../Peripheral/src/ch32v30x_dac.c ****  *            DAC_Channel_1 - DAC Channel1 selected
 185:../Peripheral/src/ch32v30x_dac.c ****  *            DAC_Channel_2 - DAC Channel2 selected
 186:../Peripheral/src/ch32v30x_dac.c ****  *          DAC_Wave - Specifies the wave type to enable or disable.
 187:../Peripheral/src/ch32v30x_dac.c ****  *            DAC_Wave_Noise - noise wave generation
 188:../Peripheral/src/ch32v30x_dac.c ****  *            DAC_Wave_Triangle - triangle wave generation
 189:../Peripheral/src/ch32v30x_dac.c ****  *          NewState - new state of the DAC channel(ENABLE or DISABLE).
 190:../Peripheral/src/ch32v30x_dac.c ****  *
 191:../Peripheral/src/ch32v30x_dac.c ****  * @return  none
 192:../Peripheral/src/ch32v30x_dac.c ****  */
 193:../Peripheral/src/ch32v30x_dac.c **** void DAC_WaveGenerationCmd(uint32_t DAC_Channel, uint32_t DAC_Wave, FunctionalState NewState)
 194:../Peripheral/src/ch32v30x_dac.c **** {
 273              		.loc 1 194 1 is_stmt 1
 274              		.cfi_startproc
 275              	.LVL16:
 195:../Peripheral/src/ch32v30x_dac.c ****     if(NewState != DISABLE)
 276              		.loc 1 195 5
 277 0000 B7770040 		li	a5,1073770496
 278 0004 93870740 		addi	a5,a5,1024
 196:../Peripheral/src/ch32v30x_dac.c ****     {
 197:../Peripheral/src/ch32v30x_dac.c ****         DAC->CTLR |= DAC_Wave << DAC_Channel;
 279              		.loc 1 197 12 is_stmt 0
 280 0008 9843     		lw	a4,0(a5)
 281              		.loc 1 197 31
 282 000a B395A500 		sll	a1,a1,a0
 283              	.LVL17:
 195:../Peripheral/src/ch32v30x_dac.c ****     if(NewState != DISABLE)
 284              		.loc 1 195 7
 285 000e 01C6     		beq	a2,zero,.L20
 286              		.loc 1 197 9 is_stmt 1
 287              		.loc 1 197 19 is_stmt 0
 288 0010 4D8F     		or	a4,a4,a1
 289 0012 98C3     		sw	a4,0(a5)
 290 0014 8280     		ret
 291              	.L20:
 198:../Peripheral/src/ch32v30x_dac.c ****     }
 199:../Peripheral/src/ch32v30x_dac.c ****     else
 200:../Peripheral/src/ch32v30x_dac.c ****     {
 201:../Peripheral/src/ch32v30x_dac.c ****         DAC->CTLR &= ~(DAC_Wave << DAC_Channel);
 292              		.loc 1 201 9 is_stmt 1
 293              		.loc 1 201 22 is_stmt 0
 294 0016 93C5F5FF 		not	a1,a1
 295              		.loc 1 201 19
 296 001a F98D     		and	a1,a1,a4
 297 001c 8CC3     		sw	a1,0(a5)
 202:../Peripheral/src/ch32v30x_dac.c ****     }
 203:../Peripheral/src/ch32v30x_dac.c **** }
 298              		.loc 1 203 1
 299 001e 8280     		ret
 300              		.cfi_endproc
 301              	.LFE36:
 303              		.section	.text.DAC_SetChannel1Data,"ax",@progbits
 304              		.align	1
 305              		.globl	DAC_SetChannel1Data
 307              	DAC_SetChannel1Data:
 308              	.LFB37:
 204:../Peripheral/src/ch32v30x_dac.c **** 
 205:../Peripheral/src/ch32v30x_dac.c **** /*********************************************************************
 206:../Peripheral/src/ch32v30x_dac.c ****  * @fn      DAC_SetChannel1Data
 207:../Peripheral/src/ch32v30x_dac.c ****  *
 208:../Peripheral/src/ch32v30x_dac.c ****  * @brief   Set the specified data holding register value for DAC channel1.
 209:../Peripheral/src/ch32v30x_dac.c ****  *
 210:../Peripheral/src/ch32v30x_dac.c ****  * @param   DAC_Align - Specifies the data alignment for DAC channel1.
 211:../Peripheral/src/ch32v30x_dac.c ****  *            DAC_Align_8b_R - 8bit right data alignment selected
 212:../Peripheral/src/ch32v30x_dac.c ****  *            DAC_Align_12b_L - 12bit left data alignment selected
 213:../Peripheral/src/ch32v30x_dac.c ****  *            DAC_Align_12b_R - 12bit right data alignment selected
 214:../Peripheral/src/ch32v30x_dac.c ****  *          Data - Data to be loaded in the selected data holding register.
 215:../Peripheral/src/ch32v30x_dac.c ****  *
 216:../Peripheral/src/ch32v30x_dac.c ****  * @return  none
 217:../Peripheral/src/ch32v30x_dac.c ****  */
 218:../Peripheral/src/ch32v30x_dac.c **** void DAC_SetChannel1Data(uint32_t DAC_Align, uint16_t Data)
 219:../Peripheral/src/ch32v30x_dac.c **** {
 309              		.loc 1 219 1 is_stmt 1
 310              		.cfi_startproc
 311              	.LVL18:
 220:../Peripheral/src/ch32v30x_dac.c ****     __IO uint32_t tmp = 0;
 312              		.loc 1 220 5
 219:../Peripheral/src/ch32v30x_dac.c ****     __IO uint32_t tmp = 0;
 313              		.loc 1 219 1 is_stmt 0
 314 0000 4111     		addi	sp,sp,-16
 315              		.cfi_def_cfa_offset 16
 221:../Peripheral/src/ch32v30x_dac.c **** 
 222:../Peripheral/src/ch32v30x_dac.c ****     tmp = (uint32_t)DAC_BASE;
 316              		.loc 1 222 9
 317 0002 B7770040 		li	a5,1073770496
 220:../Peripheral/src/ch32v30x_dac.c **** 
 318              		.loc 1 220 19
 319 0006 02C6     		sw	zero,12(sp)
 320              		.loc 1 222 5 is_stmt 1
 321              		.loc 1 222 9 is_stmt 0
 322 0008 93870740 		addi	a5,a5,1024
 323 000c 3EC6     		sw	a5,12(sp)
 223:../Peripheral/src/ch32v30x_dac.c ****     tmp += DHR12R1_OFFSET + DAC_Align;
 324              		.loc 1 223 5 is_stmt 1
 325              		.loc 1 223 9 is_stmt 0
 326 000e B247     		lw	a5,12(sp)
 327 0010 A107     		addi	a5,a5,8
 328 0012 AA97     		add	a5,a5,a0
 329 0014 3EC6     		sw	a5,12(sp)
 224:../Peripheral/src/ch32v30x_dac.c **** 
 225:../Peripheral/src/ch32v30x_dac.c ****     *(__IO uint32_t *)tmp = Data;
 330              		.loc 1 225 5 is_stmt 1
 331              		.loc 1 225 6 is_stmt 0
 332 0016 B247     		lw	a5,12(sp)
 333              		.loc 1 225 27
 334 0018 8CC3     		sw	a1,0(a5)
 226:../Peripheral/src/ch32v30x_dac.c **** }
 335              		.loc 1 226 1
 336 001a 4101     		addi	sp,sp,16
 337              		.cfi_def_cfa_offset 0
 338 001c 8280     		jr	ra
 339              		.cfi_endproc
 340              	.LFE37:
 342              		.section	.text.DAC_SetChannel2Data,"ax",@progbits
 343              		.align	1
 344              		.globl	DAC_SetChannel2Data
 346              	DAC_SetChannel2Data:
 347              	.LFB38:
 227:../Peripheral/src/ch32v30x_dac.c **** 
 228:../Peripheral/src/ch32v30x_dac.c **** /*********************************************************************
 229:../Peripheral/src/ch32v30x_dac.c ****  * @fn      DAC_SetChannel2Data
 230:../Peripheral/src/ch32v30x_dac.c ****  *
 231:../Peripheral/src/ch32v30x_dac.c ****  * @brief   Set the specified data holding register value for DAC channel2.
 232:../Peripheral/src/ch32v30x_dac.c ****  *
 233:../Peripheral/src/ch32v30x_dac.c ****  * @param   DAC_Align - Specifies the data alignment for DAC channel1.
 234:../Peripheral/src/ch32v30x_dac.c ****  *            DAC_Align_8b_R - 8bit right data alignment selected
 235:../Peripheral/src/ch32v30x_dac.c ****  *            DAC_Align_12b_L - 12bit left data alignment selected
 236:../Peripheral/src/ch32v30x_dac.c ****  *            DAC_Align_12b_R - 12bit right data alignment selected
 237:../Peripheral/src/ch32v30x_dac.c ****  *            Data - Data to be loaded in the selected data holding register.
 238:../Peripheral/src/ch32v30x_dac.c ****  *
 239:../Peripheral/src/ch32v30x_dac.c ****  * @return  none
 240:../Peripheral/src/ch32v30x_dac.c ****  */
 241:../Peripheral/src/ch32v30x_dac.c **** void DAC_SetChannel2Data(uint32_t DAC_Align, uint16_t Data)
 242:../Peripheral/src/ch32v30x_dac.c **** {
 348              		.loc 1 242 1 is_stmt 1
 349              		.cfi_startproc
 350              	.LVL19:
 243:../Peripheral/src/ch32v30x_dac.c ****     __IO uint32_t tmp = 0;
 351              		.loc 1 243 5
 242:../Peripheral/src/ch32v30x_dac.c ****     __IO uint32_t tmp = 0;
 352              		.loc 1 242 1 is_stmt 0
 353 0000 4111     		addi	sp,sp,-16
 354              		.cfi_def_cfa_offset 16
 244:../Peripheral/src/ch32v30x_dac.c **** 
 245:../Peripheral/src/ch32v30x_dac.c ****     tmp = (uint32_t)DAC_BASE;
 355              		.loc 1 245 9
 356 0002 B7770040 		li	a5,1073770496
 243:../Peripheral/src/ch32v30x_dac.c **** 
 357              		.loc 1 243 19
 358 0006 02C6     		sw	zero,12(sp)
 359              		.loc 1 245 5 is_stmt 1
 360              		.loc 1 245 9 is_stmt 0
 361 0008 93870740 		addi	a5,a5,1024
 362 000c 3EC6     		sw	a5,12(sp)
 246:../Peripheral/src/ch32v30x_dac.c ****     tmp += DHR12R2_OFFSET + DAC_Align;
 363              		.loc 1 246 5 is_stmt 1
 364              		.loc 1 246 9 is_stmt 0
 365 000e B247     		lw	a5,12(sp)
 366 0010 D107     		addi	a5,a5,20
 367 0012 AA97     		add	a5,a5,a0
 368 0014 3EC6     		sw	a5,12(sp)
 247:../Peripheral/src/ch32v30x_dac.c **** 
 248:../Peripheral/src/ch32v30x_dac.c ****     *(__IO uint32_t *)tmp = Data;
 369              		.loc 1 248 5 is_stmt 1
 370              		.loc 1 248 6 is_stmt 0
 371 0016 B247     		lw	a5,12(sp)
 372              		.loc 1 248 27
 373 0018 8CC3     		sw	a1,0(a5)
 249:../Peripheral/src/ch32v30x_dac.c **** }
 374              		.loc 1 249 1
 375 001a 4101     		addi	sp,sp,16
 376              		.cfi_def_cfa_offset 0
 377 001c 8280     		jr	ra
 378              		.cfi_endproc
 379              	.LFE38:
 381              		.section	.text.DAC_SetDualChannelData,"ax",@progbits
 382              		.align	1
 383              		.globl	DAC_SetDualChannelData
 385              	DAC_SetDualChannelData:
 386              	.LFB39:
 250:../Peripheral/src/ch32v30x_dac.c **** 
 251:../Peripheral/src/ch32v30x_dac.c **** /*********************************************************************
 252:../Peripheral/src/ch32v30x_dac.c ****  * @fn      DAC_SetDualChannelData
 253:../Peripheral/src/ch32v30x_dac.c ****  *
 254:../Peripheral/src/ch32v30x_dac.c ****  * @brief   Set the specified data holding register value for two DAC.
 255:../Peripheral/src/ch32v30x_dac.c ****  *
 256:../Peripheral/src/ch32v30x_dac.c ****  * @param   DAC_Align - Specifies the data alignment for DAC channel1.
 257:../Peripheral/src/ch32v30x_dac.c ****  *            DAC_Align_8b_R - 8bit right data alignment selected
 258:../Peripheral/src/ch32v30x_dac.c ****  *            DAC_Align_12b_L - 12bit left data alignment selected
 259:../Peripheral/src/ch32v30x_dac.c ****  *            DAC_Align_12b_R - 12bit right data alignment selected
 260:../Peripheral/src/ch32v30x_dac.c ****  *            Data - Data to be loaded in the selected data holding register.
 261:../Peripheral/src/ch32v30x_dac.c ****  *          Data1 - Data for DAC Channel1.
 262:../Peripheral/src/ch32v30x_dac.c ****  *          Data2 - Data for DAC Channel2
 263:../Peripheral/src/ch32v30x_dac.c ****  *
 264:../Peripheral/src/ch32v30x_dac.c ****  * @return  none
 265:../Peripheral/src/ch32v30x_dac.c ****  */
 266:../Peripheral/src/ch32v30x_dac.c **** void DAC_SetDualChannelData(uint32_t DAC_Align, uint16_t Data2, uint16_t Data1)
 267:../Peripheral/src/ch32v30x_dac.c **** {
 387              		.loc 1 267 1 is_stmt 1
 388              		.cfi_startproc
 389              	.LVL20:
 268:../Peripheral/src/ch32v30x_dac.c ****     uint32_t data = 0, tmp = 0;
 390              		.loc 1 268 5
 269:../Peripheral/src/ch32v30x_dac.c **** 
 270:../Peripheral/src/ch32v30x_dac.c ****     if(DAC_Align == DAC_Align_8b_R)
 391              		.loc 1 270 5
 392              		.loc 1 270 7 is_stmt 0
 393 0000 A147     		li	a5,8
 394 0002 631BF500 		bne	a0,a5,.L27
 271:../Peripheral/src/ch32v30x_dac.c ****     {
 272:../Peripheral/src/ch32v30x_dac.c ****         data = ((uint32_t)Data2 << 8) | Data1;
 395              		.loc 1 272 9 is_stmt 1
 396              		.loc 1 272 33 is_stmt 0
 397 0006 A205     		slli	a1,a1,8
 398              	.LVL21:
 399              	.L29:
 273:../Peripheral/src/ch32v30x_dac.c ****     }
 274:../Peripheral/src/ch32v30x_dac.c ****     else
 275:../Peripheral/src/ch32v30x_dac.c ****     {
 276:../Peripheral/src/ch32v30x_dac.c ****         data = ((uint32_t)Data2 << 16) | Data1;
 277:../Peripheral/src/ch32v30x_dac.c ****     }
 278:../Peripheral/src/ch32v30x_dac.c **** 
 279:../Peripheral/src/ch32v30x_dac.c ****     tmp = (uint32_t)DAC_BASE;
 280:../Peripheral/src/ch32v30x_dac.c ****     tmp += DHR12RD_OFFSET + DAC_Align;
 400              		.loc 1 280 9
 401 0008 B7770040 		li	a5,1073770496
 402 000c 93870742 		addi	a5,a5,1056
 276:../Peripheral/src/ch32v30x_dac.c ****     }
 403              		.loc 1 276 14
 404 0010 4D8E     		or	a2,a1,a2
 405              	.LVL22:
 279:../Peripheral/src/ch32v30x_dac.c ****     tmp += DHR12RD_OFFSET + DAC_Align;
 406              		.loc 1 279 5 is_stmt 1
 407              		.loc 1 280 5
 281:../Peripheral/src/ch32v30x_dac.c **** 
 282:../Peripheral/src/ch32v30x_dac.c ****     *(__IO uint32_t *)tmp = data;
 408              		.loc 1 282 5
 280:../Peripheral/src/ch32v30x_dac.c **** 
 409              		.loc 1 280 9 is_stmt 0
 410 0012 3E95     		add	a0,a0,a5
 411              	.LVL23:
 412              		.loc 1 282 27
 413 0014 10C1     		sw	a2,0(a0)
 283:../Peripheral/src/ch32v30x_dac.c **** }
 414              		.loc 1 283 1
 415 0016 8280     		ret
 416              	.LVL24:
 417              	.L27:
 276:../Peripheral/src/ch32v30x_dac.c ****     }
 418              		.loc 1 276 9 is_stmt 1
 276:../Peripheral/src/ch32v30x_dac.c ****     }
 419              		.loc 1 276 33 is_stmt 0
 420 0018 C205     		slli	a1,a1,16
 421              	.LVL25:
 422 001a FDB7     		j	.L29
 423              		.cfi_endproc
 424              	.LFE39:
 426              		.section	.text.DAC_GetDataOutputValue,"ax",@progbits
 427              		.align	1
 428              		.globl	DAC_GetDataOutputValue
 430              	DAC_GetDataOutputValue:
 431              	.LFB40:
 284:../Peripheral/src/ch32v30x_dac.c **** 
 285:../Peripheral/src/ch32v30x_dac.c **** /*********************************************************************
 286:../Peripheral/src/ch32v30x_dac.c ****  * @fn      DAC_GetDataOutputValue
 287:../Peripheral/src/ch32v30x_dac.c ****  *
 288:../Peripheral/src/ch32v30x_dac.c ****  * @brief   Returns the last data output value of the selected DAC channel.
 289:../Peripheral/src/ch32v30x_dac.c ****  *
 290:../Peripheral/src/ch32v30x_dac.c ****  * @param   DAC_Channel - the selected DAC channel.
 291:../Peripheral/src/ch32v30x_dac.c ****  *            DAC_Channel_1 - DAC Channel1 selected
 292:../Peripheral/src/ch32v30x_dac.c ****  *            DAC_Channel_2 - DAC Channel2 selected
 293:../Peripheral/src/ch32v30x_dac.c ****  *
 294:../Peripheral/src/ch32v30x_dac.c ****  * @return  none
 295:../Peripheral/src/ch32v30x_dac.c ****  */
 296:../Peripheral/src/ch32v30x_dac.c **** uint16_t DAC_GetDataOutputValue(uint32_t DAC_Channel)
 297:../Peripheral/src/ch32v30x_dac.c **** {
 432              		.loc 1 297 1 is_stmt 1
 433              		.cfi_startproc
 434              	.LVL26:
 298:../Peripheral/src/ch32v30x_dac.c ****     __IO uint32_t tmp = 0;
 435              		.loc 1 298 5
 297:../Peripheral/src/ch32v30x_dac.c ****     __IO uint32_t tmp = 0;
 436              		.loc 1 297 1 is_stmt 0
 437 0000 4111     		addi	sp,sp,-16
 438              		.cfi_def_cfa_offset 16
 299:../Peripheral/src/ch32v30x_dac.c **** 
 300:../Peripheral/src/ch32v30x_dac.c ****     tmp = (uint32_t)DAC_BASE;
 439              		.loc 1 300 9
 440 0002 B7770040 		li	a5,1073770496
 298:../Peripheral/src/ch32v30x_dac.c **** 
 441              		.loc 1 298 19
 442 0006 02C6     		sw	zero,12(sp)
 443              		.loc 1 300 5 is_stmt 1
 444              		.loc 1 300 9 is_stmt 0
 445 0008 93870740 		addi	a5,a5,1024
 446 000c 3EC6     		sw	a5,12(sp)
 301:../Peripheral/src/ch32v30x_dac.c ****     tmp += DOR_OFFSET + ((uint32_t)DAC_Channel >> 2);
 447              		.loc 1 301 5 is_stmt 1
 448              		.loc 1 301 9 is_stmt 0
 449 000e B247     		lw	a5,12(sp)
 450              		.loc 1 301 48
 451 0010 0981     		srli	a0,a0,2
 452              	.LVL27:
 453              		.loc 1 301 9
 454 0012 9387C702 		addi	a5,a5,44
 455 0016 3E95     		add	a0,a0,a5
 456 0018 2AC6     		sw	a0,12(sp)
 302:../Peripheral/src/ch32v30x_dac.c **** 
 303:../Peripheral/src/ch32v30x_dac.c ****     return (uint16_t)(*(__IO uint32_t *)tmp);
 457              		.loc 1 303 5 is_stmt 1
 458              		.loc 1 303 24 is_stmt 0
 459 001a B247     		lw	a5,12(sp)
 460              		.loc 1 303 23
 461 001c 8843     		lw	a0,0(a5)
 304:../Peripheral/src/ch32v30x_dac.c **** }
 462              		.loc 1 304 1
 463 001e 4101     		addi	sp,sp,16
 464              		.cfi_def_cfa_offset 0
 465 0020 4205     		slli	a0,a0,16
 466 0022 4181     		srli	a0,a0,16
 467 0024 8280     		jr	ra
 468              		.cfi_endproc
 469              	.LFE40:
 471              		.text
 472              	.Letext0:
 473              		.file 2 "d:\\software\\mounriver_studio\\toolchain\\risc-v embedded gcc12\\riscv-none-elf\\include
 474              		.file 3 "d:\\software\\mounriver_studio\\toolchain\\risc-v embedded gcc12\\riscv-none-elf\\include
 475              		.file 4 "C:\\Users\\localhost\\Documents\\turbomoskal-repo\\qqexpert\\firmware\\MasterController\\
 476              		.file 5 "C:\\Users\\localhost\\Documents\\turbomoskal-repo\\qqexpert\\firmware\\MasterController\\
 477              		.file 6 "C:\\Users\\localhost\\Documents\\turbomoskal-repo\\qqexpert\\firmware\\MasterController\\
 478              		.file 7 "C:\\Users\\localhost\\Documents\\turbomoskal-repo\\qqexpert\\firmware\\MasterController\\