   1              		.file	"ch32v30x_i2c.c"
   2              		.option nopic
   3              		.attribute arch, "rv32i2p0_m2p0_a2p0_f2p0_c2p0_xw"
   4              		.attribute unaligned_access, 0
   5              		.attribute stack_align, 16
   6              		.text
   7              	.Ltext0:
   8              		.cfi_sections	.debug_frame
   9              		.file 0 "C:\\Users\\localhost\\Documents\\turbomoskal-repo\\qqexpert\\firmware\\MasterController\\
  10              		.section	.text.I2C_DeInit,"ax",@progbits
  11              		.align	1
  12              		.globl	I2C_DeInit
  14              	I2C_DeInit:
  15              	.LFB29:
  16              		.file 1 "../Peripheral/src/ch32v30x_i2c.c"
   1:../Peripheral/src/ch32v30x_i2c.c **** /********************************** (C) COPYRIGHT  *******************************
   2:../Peripheral/src/ch32v30x_i2c.c **** * File Name          : ch32v30x_i2c.c
   3:../Peripheral/src/ch32v30x_i2c.c **** * Author             : WCH
   4:../Peripheral/src/ch32v30x_i2c.c **** * Version            : V1.0.0
   5:../Peripheral/src/ch32v30x_i2c.c **** * Date               : 2024/03/06
   6:../Peripheral/src/ch32v30x_i2c.c **** * Description        : This file provides all the I2C firmware functions.
   7:../Peripheral/src/ch32v30x_i2c.c **** *********************************************************************************
   8:../Peripheral/src/ch32v30x_i2c.c **** * Copyright (c) 2021 Nanjing Qinheng Microelectronics Co., Ltd.
   9:../Peripheral/src/ch32v30x_i2c.c **** * Attention: This software (modified or not) and binary are used for 
  10:../Peripheral/src/ch32v30x_i2c.c **** * microcontroller manufactured by Nanjing Qinheng Microelectronics.
  11:../Peripheral/src/ch32v30x_i2c.c **** *******************************************************************************/
  12:../Peripheral/src/ch32v30x_i2c.c **** #include "ch32v30x_i2c.h"
  13:../Peripheral/src/ch32v30x_i2c.c **** #include "ch32v30x_rcc.h"
  14:../Peripheral/src/ch32v30x_i2c.c **** 
  15:../Peripheral/src/ch32v30x_i2c.c **** /* I2C SPE mask */
  16:../Peripheral/src/ch32v30x_i2c.c **** #define CTLR1_PE_Set             ((uint16_t)0x0001)
  17:../Peripheral/src/ch32v30x_i2c.c **** #define CTLR1_PE_Reset           ((uint16_t)0xFFFE)
  18:../Peripheral/src/ch32v30x_i2c.c **** 
  19:../Peripheral/src/ch32v30x_i2c.c **** /* I2C START mask */
  20:../Peripheral/src/ch32v30x_i2c.c **** #define CTLR1_START_Set          ((uint16_t)0x0100)
  21:../Peripheral/src/ch32v30x_i2c.c **** #define CTLR1_START_Reset        ((uint16_t)0xFEFF)
  22:../Peripheral/src/ch32v30x_i2c.c **** 
  23:../Peripheral/src/ch32v30x_i2c.c **** /* I2C STOP mask */
  24:../Peripheral/src/ch32v30x_i2c.c **** #define CTLR1_STOP_Set           ((uint16_t)0x0200)
  25:../Peripheral/src/ch32v30x_i2c.c **** #define CTLR1_STOP_Reset         ((uint16_t)0xFDFF)
  26:../Peripheral/src/ch32v30x_i2c.c **** 
  27:../Peripheral/src/ch32v30x_i2c.c **** /* I2C ACK mask */
  28:../Peripheral/src/ch32v30x_i2c.c **** #define CTLR1_ACK_Set            ((uint16_t)0x0400)
  29:../Peripheral/src/ch32v30x_i2c.c **** #define CTLR1_ACK_Reset          ((uint16_t)0xFBFF)
  30:../Peripheral/src/ch32v30x_i2c.c **** 
  31:../Peripheral/src/ch32v30x_i2c.c **** /* I2C ENGC mask */
  32:../Peripheral/src/ch32v30x_i2c.c **** #define CTLR1_ENGC_Set           ((uint16_t)0x0040)
  33:../Peripheral/src/ch32v30x_i2c.c **** #define CTLR1_ENGC_Reset         ((uint16_t)0xFFBF)
  34:../Peripheral/src/ch32v30x_i2c.c **** 
  35:../Peripheral/src/ch32v30x_i2c.c **** /* I2C SWRST mask */
  36:../Peripheral/src/ch32v30x_i2c.c **** #define CTLR1_SWRST_Set          ((uint16_t)0x8000)
  37:../Peripheral/src/ch32v30x_i2c.c **** #define CTLR1_SWRST_Reset        ((uint16_t)0x7FFF)
  38:../Peripheral/src/ch32v30x_i2c.c **** 
  39:../Peripheral/src/ch32v30x_i2c.c **** /* I2C PEC mask */
  40:../Peripheral/src/ch32v30x_i2c.c **** #define CTLR1_PEC_Set            ((uint16_t)0x1000)
  41:../Peripheral/src/ch32v30x_i2c.c **** #define CTLR1_PEC_Reset          ((uint16_t)0xEFFF)
  42:../Peripheral/src/ch32v30x_i2c.c **** 
  43:../Peripheral/src/ch32v30x_i2c.c **** /* I2C ENPEC mask */
  44:../Peripheral/src/ch32v30x_i2c.c **** #define CTLR1_ENPEC_Set          ((uint16_t)0x0020)
  45:../Peripheral/src/ch32v30x_i2c.c **** #define CTLR1_ENPEC_Reset        ((uint16_t)0xFFDF)
  46:../Peripheral/src/ch32v30x_i2c.c **** 
  47:../Peripheral/src/ch32v30x_i2c.c **** /* I2C ENARP mask */
  48:../Peripheral/src/ch32v30x_i2c.c **** #define CTLR1_ENARP_Set          ((uint16_t)0x0010)
  49:../Peripheral/src/ch32v30x_i2c.c **** #define CTLR1_ENARP_Reset        ((uint16_t)0xFFEF)
  50:../Peripheral/src/ch32v30x_i2c.c **** 
  51:../Peripheral/src/ch32v30x_i2c.c **** /* I2C NOSTRETCH mask */
  52:../Peripheral/src/ch32v30x_i2c.c **** #define CTLR1_NOSTRETCH_Set      ((uint16_t)0x0080)
  53:../Peripheral/src/ch32v30x_i2c.c **** #define CTLR1_NOSTRETCH_Reset    ((uint16_t)0xFF7F)
  54:../Peripheral/src/ch32v30x_i2c.c **** 
  55:../Peripheral/src/ch32v30x_i2c.c **** /* I2C registers Masks */
  56:../Peripheral/src/ch32v30x_i2c.c **** #define CTLR1_CLEAR_Mask         ((uint16_t)0xFBF5)
  57:../Peripheral/src/ch32v30x_i2c.c **** 
  58:../Peripheral/src/ch32v30x_i2c.c **** /* I2C DMAEN mask */
  59:../Peripheral/src/ch32v30x_i2c.c **** #define CTLR2_DMAEN_Set          ((uint16_t)0x0800)
  60:../Peripheral/src/ch32v30x_i2c.c **** #define CTLR2_DMAEN_Reset        ((uint16_t)0xF7FF)
  61:../Peripheral/src/ch32v30x_i2c.c **** 
  62:../Peripheral/src/ch32v30x_i2c.c **** /* I2C LAST mask */
  63:../Peripheral/src/ch32v30x_i2c.c **** #define CTLR2_LAST_Set           ((uint16_t)0x1000)
  64:../Peripheral/src/ch32v30x_i2c.c **** #define CTLR2_LAST_Reset         ((uint16_t)0xEFFF)
  65:../Peripheral/src/ch32v30x_i2c.c **** 
  66:../Peripheral/src/ch32v30x_i2c.c **** /* I2C FREQ mask */
  67:../Peripheral/src/ch32v30x_i2c.c **** #define CTLR2_FREQ_Reset         ((uint16_t)0xFFC0)
  68:../Peripheral/src/ch32v30x_i2c.c **** 
  69:../Peripheral/src/ch32v30x_i2c.c **** /* I2C ADD0 mask */
  70:../Peripheral/src/ch32v30x_i2c.c **** #define OADDR1_ADD0_Set          ((uint16_t)0x0001)
  71:../Peripheral/src/ch32v30x_i2c.c **** #define OADDR1_ADD0_Reset        ((uint16_t)0xFFFE)
  72:../Peripheral/src/ch32v30x_i2c.c **** 
  73:../Peripheral/src/ch32v30x_i2c.c **** /* I2C ENDUAL mask */
  74:../Peripheral/src/ch32v30x_i2c.c **** #define OADDR2_ENDUAL_Set        ((uint16_t)0x0001)
  75:../Peripheral/src/ch32v30x_i2c.c **** #define OADDR2_ENDUAL_Reset      ((uint16_t)0xFFFE)
  76:../Peripheral/src/ch32v30x_i2c.c **** 
  77:../Peripheral/src/ch32v30x_i2c.c **** /* I2C ADD2 mask */
  78:../Peripheral/src/ch32v30x_i2c.c **** #define OADDR2_ADD2_Reset        ((uint16_t)0xFF01)
  79:../Peripheral/src/ch32v30x_i2c.c **** 
  80:../Peripheral/src/ch32v30x_i2c.c **** /* I2C F/S mask */
  81:../Peripheral/src/ch32v30x_i2c.c **** #define CKCFGR_FS_Set            ((uint16_t)0x8000)
  82:../Peripheral/src/ch32v30x_i2c.c **** 
  83:../Peripheral/src/ch32v30x_i2c.c **** /* I2C CCR mask */
  84:../Peripheral/src/ch32v30x_i2c.c **** #define CKCFGR_CCR_Set           ((uint16_t)0x0FFF)
  85:../Peripheral/src/ch32v30x_i2c.c **** 
  86:../Peripheral/src/ch32v30x_i2c.c **** /* I2C FLAG mask */
  87:../Peripheral/src/ch32v30x_i2c.c **** #define FLAG_Mask                ((uint32_t)0x00FFFFFF)
  88:../Peripheral/src/ch32v30x_i2c.c **** 
  89:../Peripheral/src/ch32v30x_i2c.c **** /* I2C Interrupt Enable mask */
  90:../Peripheral/src/ch32v30x_i2c.c **** #define ITEN_Mask                ((uint32_t)0x07000000)
  91:../Peripheral/src/ch32v30x_i2c.c **** 
  92:../Peripheral/src/ch32v30x_i2c.c **** /*********************************************************************
  93:../Peripheral/src/ch32v30x_i2c.c ****  * @fn      I2C_DeInit
  94:../Peripheral/src/ch32v30x_i2c.c ****  *
  95:../Peripheral/src/ch32v30x_i2c.c ****  * @brief   Deinitializes the I2Cx peripheral registers to their default
  96:../Peripheral/src/ch32v30x_i2c.c ****  *        reset values.
  97:../Peripheral/src/ch32v30x_i2c.c ****  *
  98:../Peripheral/src/ch32v30x_i2c.c ****  * @param   I2Cx - where x can be 1 or 2 to select the I2C peripheral.
  99:../Peripheral/src/ch32v30x_i2c.c ****  *
 100:../Peripheral/src/ch32v30x_i2c.c ****  * @return  none
 101:../Peripheral/src/ch32v30x_i2c.c ****  */
 102:../Peripheral/src/ch32v30x_i2c.c **** void I2C_DeInit(I2C_TypeDef *I2Cx)
 103:../Peripheral/src/ch32v30x_i2c.c **** {
  17              		.loc 1 103 1
  18              		.cfi_startproc
  19              	.LVL0:
  20 0000 17030000 		call	t0,__riscv_save_0
  20      E7020300 
  21              		.cfi_offset 1, -4
  22              		.cfi_def_cfa_offset 16
 104:../Peripheral/src/ch32v30x_i2c.c ****     if(I2Cx == I2C1)
  23              		.loc 1 104 5
  24              		.loc 1 104 7 is_stmt 0
  25 0008 B7570040 		li	a5,1073762304
  26 000c 93870740 		addi	a5,a5,1024
 105:../Peripheral/src/ch32v30x_i2c.c ****     {
 106:../Peripheral/src/ch32v30x_i2c.c ****         RCC_APB1PeriphResetCmd(RCC_APB1Periph_I2C1, ENABLE);
  27              		.loc 1 106 9
  28 0010 8545     		li	a1,1
 104:../Peripheral/src/ch32v30x_i2c.c ****     if(I2Cx == I2C1)
  29              		.loc 1 104 7
  30 0012 6313F502 		bne	a0,a5,.L2
  31              		.loc 1 106 9 is_stmt 1
  32 0016 37052000 		li	a0,2097152
  33              	.LVL1:
  34 001a 97000000 		call	RCC_APB1PeriphResetCmd
  34      E7800000 
  35              	.LVL2:
 107:../Peripheral/src/ch32v30x_i2c.c ****         RCC_APB1PeriphResetCmd(RCC_APB1Periph_I2C1, DISABLE);
  36              		.loc 1 107 9
  37 0022 8145     		li	a1,0
  38 0024 37052000 		li	a0,2097152
  39              	.L5:
 108:../Peripheral/src/ch32v30x_i2c.c ****     }
 109:../Peripheral/src/ch32v30x_i2c.c ****     else
 110:../Peripheral/src/ch32v30x_i2c.c ****     {
 111:../Peripheral/src/ch32v30x_i2c.c ****         RCC_APB1PeriphResetCmd(RCC_APB1Periph_I2C2, ENABLE);
 112:../Peripheral/src/ch32v30x_i2c.c ****         RCC_APB1PeriphResetCmd(RCC_APB1Periph_I2C2, DISABLE);
  40              		.loc 1 112 9 is_stmt 0
  41 0028 97000000 		call	RCC_APB1PeriphResetCmd
  41      E7800000 
  42              	.LVL3:
 113:../Peripheral/src/ch32v30x_i2c.c ****     }
 114:../Peripheral/src/ch32v30x_i2c.c **** }
  43              		.loc 1 114 1
  44 0030 17030000 		tail	__riscv_restore_0
  44      67000300 
  45              		.cfi_remember_state
  46              		.cfi_restore 1
  47              		.cfi_def_cfa_offset 0
  48              	.LVL4:
  49              	.L2:
  50              		.cfi_restore_state
 111:../Peripheral/src/ch32v30x_i2c.c ****         RCC_APB1PeriphResetCmd(RCC_APB1Periph_I2C2, DISABLE);
  51              		.loc 1 111 9 is_stmt 1
  52 0038 37054000 		li	a0,4194304
  53              	.LVL5:
  54 003c 97000000 		call	RCC_APB1PeriphResetCmd
  54      E7800000 
  55              	.LVL6:
 112:../Peripheral/src/ch32v30x_i2c.c ****     }
  56              		.loc 1 112 9
  57 0044 8145     		li	a1,0
  58 0046 37054000 		li	a0,4194304
  59 004a F9BF     		j	.L5
  60              		.cfi_endproc
  61              	.LFE29:
  63              		.section	.text.I2C_Init,"ax",@progbits
  64              		.align	1
  65              		.globl	I2C_Init
  67              	I2C_Init:
  68              	.LFB30:
 115:../Peripheral/src/ch32v30x_i2c.c **** 
 116:../Peripheral/src/ch32v30x_i2c.c **** /*********************************************************************
 117:../Peripheral/src/ch32v30x_i2c.c ****  * @fn      I2C_Init
 118:../Peripheral/src/ch32v30x_i2c.c ****  *
 119:../Peripheral/src/ch32v30x_i2c.c ****  * @brief   Initializes the I2Cx peripheral according to the specified
 120:../Peripheral/src/ch32v30x_i2c.c ****  *        parameters in the I2C_InitStruct.
 121:../Peripheral/src/ch32v30x_i2c.c ****  * @param   I2Cx - where x can be 1 or 2 to select the I2C peripheral.
 122:../Peripheral/src/ch32v30x_i2c.c ****  *          I2C_InitStruct - pointer to a I2C_InitTypeDef structure that
 123:../Peripheral/src/ch32v30x_i2c.c ****  *        contains the configuration information for the specified I2C peripheral.
 124:../Peripheral/src/ch32v30x_i2c.c ****  *
 125:../Peripheral/src/ch32v30x_i2c.c ****  * @return  none
 126:../Peripheral/src/ch32v30x_i2c.c ****  */
 127:../Peripheral/src/ch32v30x_i2c.c **** void I2C_Init(I2C_TypeDef *I2Cx, I2C_InitTypeDef *I2C_InitStruct)
 128:../Peripheral/src/ch32v30x_i2c.c **** {
  69              		.loc 1 128 1
  70              		.cfi_startproc
  71              	.LVL7:
  72 0000 17030000 		call	t0,__riscv_save_3
  72      E7020300 
  73              		.cfi_offset 18, -16
  74              		.cfi_offset 9, -12
  75              		.cfi_offset 8, -8
  76              		.cfi_offset 1, -4
  77              		.cfi_def_cfa_offset 16
 129:../Peripheral/src/ch32v30x_i2c.c ****     uint16_t tmpreg = 0, freqrange = 0;
  78              		.loc 1 129 5
  79              	.LVL8:
 130:../Peripheral/src/ch32v30x_i2c.c ****     uint16_t result = 0x04;
  80              		.loc 1 130 5
 131:../Peripheral/src/ch32v30x_i2c.c ****     uint32_t pclk1 = 8000000;
  81              		.loc 1 131 5
 132:../Peripheral/src/ch32v30x_i2c.c **** 
 133:../Peripheral/src/ch32v30x_i2c.c ****     RCC_ClocksTypeDef rcc_clocks;
  82              		.loc 1 133 5
 134:../Peripheral/src/ch32v30x_i2c.c **** 
 135:../Peripheral/src/ch32v30x_i2c.c ****     tmpreg = I2Cx->CTLR2;
  83              		.loc 1 135 5
  84              		.loc 1 135 12 is_stmt 0
  85 0008 4621     		lhu	s1,4(a0)
 128:../Peripheral/src/ch32v30x_i2c.c ****     uint16_t tmpreg = 0, freqrange = 0;
  86              		.loc 1 128 1
  87 000a 0111     		addi	sp,sp,-32
  88              		.cfi_def_cfa_offset 48
 128:../Peripheral/src/ch32v30x_i2c.c ****     uint16_t tmpreg = 0, freqrange = 0;
  89              		.loc 1 128 1
  90 000c 2A84     		mv	s0,a0
 136:../Peripheral/src/ch32v30x_i2c.c ****     tmpreg &= CTLR2_FREQ_Reset;
 137:../Peripheral/src/ch32v30x_i2c.c ****     RCC_GetClocksFreq(&rcc_clocks);
  91              		.loc 1 137 5
  92 000e 6800     		addi	a0,sp,12
  93              	.LVL9:
 128:../Peripheral/src/ch32v30x_i2c.c ****     uint16_t tmpreg = 0, freqrange = 0;
  94              		.loc 1 128 1
  95 0010 2E89     		mv	s2,a1
 135:../Peripheral/src/ch32v30x_i2c.c ****     tmpreg &= CTLR2_FREQ_Reset;
  96              		.loc 1 135 12
  97 0012 C204     		slli	s1,s1,16
  98              		.loc 1 137 5
  99 0014 97000000 		call	RCC_GetClocksFreq
  99      E7800000 
 100              	.LVL10:
 135:../Peripheral/src/ch32v30x_i2c.c ****     tmpreg &= CTLR2_FREQ_Reset;
 101              		.loc 1 135 12
 102 001c C180     		srli	s1,s1,16
 103              	.LVL11:
 136:../Peripheral/src/ch32v30x_i2c.c ****     tmpreg &= CTLR2_FREQ_Reset;
 104              		.loc 1 136 5 is_stmt 1
 138:../Peripheral/src/ch32v30x_i2c.c ****     pclk1 = rcc_clocks.PCLK1_Frequency;
 105              		.loc 1 138 11 is_stmt 0
 106 001e D247     		lw	a5,20(sp)
 136:../Peripheral/src/ch32v30x_i2c.c ****     tmpreg &= CTLR2_FREQ_Reset;
 107              		.loc 1 136 12
 108 0020 93F404FC 		andi	s1,s1,-64
 109              	.LVL12:
 139:../Peripheral/src/ch32v30x_i2c.c ****     freqrange = (uint16_t)(pclk1 / 1000000);
 140:../Peripheral/src/ch32v30x_i2c.c ****     if(freqrange >= 60)
 110              		.loc 1 140 7
 111 0024 B7869303 		li	a3,59998208
 136:../Peripheral/src/ch32v30x_i2c.c ****     RCC_GetClocksFreq(&rcc_clocks);
 112              		.loc 1 136 12
 113 0028 C204     		slli	s1,s1,16
 114              		.loc 1 140 7
 115 002a 9386F66F 		addi	a3,a3,1791
 136:../Peripheral/src/ch32v30x_i2c.c ****     RCC_GetClocksFreq(&rcc_clocks);
 116              		.loc 1 136 12
 117 002e C180     		srli	s1,s1,16
 118              	.LVL13:
 137:../Peripheral/src/ch32v30x_i2c.c ****     pclk1 = rcc_clocks.PCLK1_Frequency;
 119              		.loc 1 137 5 is_stmt 1
 138:../Peripheral/src/ch32v30x_i2c.c ****     freqrange = (uint16_t)(pclk1 / 1000000);
 120              		.loc 1 138 5
 139:../Peripheral/src/ch32v30x_i2c.c ****     if(freqrange >= 60)
 121              		.loc 1 139 5
 122              		.loc 1 140 5
 123 0030 1307C003 		li	a4,60
 124              		.loc 1 140 7 is_stmt 0
 125 0034 63EAF600 		bgtu	a5,a3,.L7
 139:../Peripheral/src/ch32v30x_i2c.c ****     if(freqrange >= 60)
 126              		.loc 1 139 34
 127 0038 37470F00 		li	a4,999424
 128 003c 13070724 		addi	a4,a4,576
 129 0040 33D7E702 		divu	a4,a5,a4
 139:../Peripheral/src/ch32v30x_i2c.c ****     if(freqrange >= 60)
 130              		.loc 1 139 15
 131 0044 4207     		slli	a4,a4,16
 132 0046 4183     		srli	a4,a4,16
 133              	.L7:
 134              	.LVL14:
 141:../Peripheral/src/ch32v30x_i2c.c ****     {
 142:../Peripheral/src/ch32v30x_i2c.c ****         freqrange = 60;
 143:../Peripheral/src/ch32v30x_i2c.c ****     }
 144:../Peripheral/src/ch32v30x_i2c.c ****     tmpreg |= freqrange;
 135              		.loc 1 144 5 is_stmt 1
 136              		.loc 1 144 12 is_stmt 0
 137 0048 D98C     		or	s1,a4,s1
 138              	.LVL15:
 145:../Peripheral/src/ch32v30x_i2c.c ****     I2Cx->CTLR2 = tmpreg;
 139              		.loc 1 145 5 is_stmt 1
 140              		.loc 1 145 17 is_stmt 0
 141 004a 46A0     		sh	s1,4(s0)
 146:../Peripheral/src/ch32v30x_i2c.c **** 
 147:../Peripheral/src/ch32v30x_i2c.c ****     I2Cx->CTLR1 &= CTLR1_PE_Reset;
 142              		.loc 1 147 5 is_stmt 1
 143              		.loc 1 147 9 is_stmt 0
 144 004c 1620     		lhu	a3,0(s0)
 148:../Peripheral/src/ch32v30x_i2c.c ****     tmpreg = 0;
 149:../Peripheral/src/ch32v30x_i2c.c **** 
 150:../Peripheral/src/ch32v30x_i2c.c ****     if(I2C_InitStruct->I2C_ClockSpeed <= 100000)
 145              		.loc 1 150 7
 146 004e 6166     		li	a2,98304
 147 0050 1306066A 		addi	a2,a2,1696
 147:../Peripheral/src/ch32v30x_i2c.c ****     tmpreg = 0;
 148              		.loc 1 147 9
 149 0054 C206     		slli	a3,a3,16
 150 0056 C182     		srli	a3,a3,16
 147:../Peripheral/src/ch32v30x_i2c.c ****     tmpreg = 0;
 151              		.loc 1 147 17
 152 0058 F99A     		andi	a3,a3,-2
 153 005a C206     		slli	a3,a3,16
 154 005c C182     		srli	a3,a3,16
 155 005e 16A0     		sh	a3,0(s0)
 148:../Peripheral/src/ch32v30x_i2c.c ****     tmpreg = 0;
 156              		.loc 1 148 5 is_stmt 1
 157              	.LVL16:
 158              		.loc 1 150 5
 159              		.loc 1 150 22 is_stmt 0
 160 0060 83260900 		lw	a3,0(s2)
 161              		.loc 1 150 7
 162 0064 636ED604 		bgtu	a3,a2,.L8
 151:../Peripheral/src/ch32v30x_i2c.c ****     {
 152:../Peripheral/src/ch32v30x_i2c.c ****         result = (uint16_t)(pclk1 / (I2C_InitStruct->I2C_ClockSpeed << 1));
 163              		.loc 1 152 9 is_stmt 1
 164              	.LVL17:
 153:../Peripheral/src/ch32v30x_i2c.c **** 
 154:../Peripheral/src/ch32v30x_i2c.c ****         if(result < 0x04)
 165              		.loc 1 154 9
 152:../Peripheral/src/ch32v30x_i2c.c **** 
 166              		.loc 1 152 69 is_stmt 0
 167 0068 8606     		slli	a3,a3,1
 168              	.LVL18:
 152:../Peripheral/src/ch32v30x_i2c.c **** 
 169              		.loc 1 152 35
 170 006a B3D6D702 		divu	a3,a5,a3
 171              		.loc 1 154 11
 172 006e 1146     		li	a2,4
 152:../Peripheral/src/ch32v30x_i2c.c **** 
 173              		.loc 1 152 16
 174 0070 B687     		mv	a5,a3
 175              	.LVL19:
 176              		.loc 1 154 11
 177 0072 C206     		slli	a3,a3,16
 178 0074 C182     		srli	a3,a3,16
 179 0076 63F3C600 		bgeu	a3,a2,.L9
 180 007a 9147     		li	a5,4
 181              	.L9:
 182 007c C207     		slli	a5,a5,16
 183 007e C183     		srli	a5,a5,16
 184              	.LVL20:
 155:../Peripheral/src/ch32v30x_i2c.c ****         {
 156:../Peripheral/src/ch32v30x_i2c.c ****             result = 0x04;
 157:../Peripheral/src/ch32v30x_i2c.c ****         }
 158:../Peripheral/src/ch32v30x_i2c.c **** 
 159:../Peripheral/src/ch32v30x_i2c.c ****         tmpreg |= result;
 185              		.loc 1 159 9 is_stmt 1
 160:../Peripheral/src/ch32v30x_i2c.c ****         I2Cx->RTR = freqrange + 1;
 186              		.loc 1 160 9
 187              	.L17:
 161:../Peripheral/src/ch32v30x_i2c.c ****     }
 162:../Peripheral/src/ch32v30x_i2c.c ****     else
 163:../Peripheral/src/ch32v30x_i2c.c ****     {
 164:../Peripheral/src/ch32v30x_i2c.c ****         if(I2C_InitStruct->I2C_DutyCycle == I2C_DutyCycle_2)
 165:../Peripheral/src/ch32v30x_i2c.c ****         {
 166:../Peripheral/src/ch32v30x_i2c.c ****             result = (uint16_t)(pclk1 / (I2C_InitStruct->I2C_ClockSpeed * 3));
 167:../Peripheral/src/ch32v30x_i2c.c ****         }
 168:../Peripheral/src/ch32v30x_i2c.c ****         else
 169:../Peripheral/src/ch32v30x_i2c.c ****         {
 170:../Peripheral/src/ch32v30x_i2c.c ****             result = (uint16_t)(pclk1 / (I2C_InitStruct->I2C_ClockSpeed * 25));
 171:../Peripheral/src/ch32v30x_i2c.c ****             result |= I2C_DutyCycle_16_9;
 172:../Peripheral/src/ch32v30x_i2c.c ****         }
 173:../Peripheral/src/ch32v30x_i2c.c **** 
 174:../Peripheral/src/ch32v30x_i2c.c ****         if((result & CKCFGR_CCR_Set) == 0)
 175:../Peripheral/src/ch32v30x_i2c.c ****         {
 176:../Peripheral/src/ch32v30x_i2c.c ****             result |= (uint16_t)0x0001;
 177:../Peripheral/src/ch32v30x_i2c.c ****         }
 178:../Peripheral/src/ch32v30x_i2c.c **** 
 179:../Peripheral/src/ch32v30x_i2c.c ****         tmpreg |= (uint16_t)(result | CKCFGR_FS_Set);
 180:../Peripheral/src/ch32v30x_i2c.c ****         I2Cx->RTR = (uint16_t)(((freqrange * (uint16_t)300) / (uint16_t)1000) + (uint16_t)1);
 188              		.loc 1 180 21 is_stmt 0
 189 0080 0507     		addi	a4,a4,1
 190 0082 4207     		slli	a4,a4,16
 191 0084 4183     		srli	a4,a4,16
 192              		.loc 1 180 19
 193 0086 1AB0     		sh	a4,32(s0)
 194              	.LVL21:
 181:../Peripheral/src/ch32v30x_i2c.c ****     }
 182:../Peripheral/src/ch32v30x_i2c.c **** 
 183:../Peripheral/src/ch32v30x_i2c.c ****     I2Cx->CKCFGR = tmpreg;
 195              		.loc 1 183 5 is_stmt 1
 196              		.loc 1 183 18 is_stmt 0
 197 0088 5EAC     		sh	a5,28(s0)
 184:../Peripheral/src/ch32v30x_i2c.c ****     I2Cx->CTLR1 |= CTLR1_PE_Set;
 198              		.loc 1 184 5 is_stmt 1
 199              		.loc 1 184 9 is_stmt 0
 200 008a 1E20     		lhu	a5,0(s0)
 201              	.LVL22:
 185:../Peripheral/src/ch32v30x_i2c.c **** 
 186:../Peripheral/src/ch32v30x_i2c.c ****     tmpreg = I2Cx->CTLR1;
 187:../Peripheral/src/ch32v30x_i2c.c ****     tmpreg &= CTLR1_CLEAR_Mask;
 188:../Peripheral/src/ch32v30x_i2c.c ****     tmpreg |= (uint16_t)((uint32_t)I2C_InitStruct->I2C_Mode | I2C_InitStruct->I2C_Ack);
 202              		.loc 1 188 15
 203 008c 03574900 		lhu	a4,4(s2)
 204 0090 8356A900 		lhu	a3,10(s2)
 184:../Peripheral/src/ch32v30x_i2c.c ****     I2Cx->CTLR1 |= CTLR1_PE_Set;
 205              		.loc 1 184 17
 206 0094 93E71700 		ori	a5,a5,1
 207 0098 1EA0     		sh	a5,0(s0)
 208              	.LVL23:
 186:../Peripheral/src/ch32v30x_i2c.c ****     tmpreg &= CTLR1_CLEAR_Mask;
 209              		.loc 1 186 5 is_stmt 1
 186:../Peripheral/src/ch32v30x_i2c.c ****     tmpreg &= CTLR1_CLEAR_Mask;
 210              		.loc 1 186 12 is_stmt 0
 211 009a 1E20     		lhu	a5,0(s0)
 212              		.loc 1 188 15
 213 009c 558F     		or	a4,a4,a3
 186:../Peripheral/src/ch32v30x_i2c.c ****     tmpreg &= CTLR1_CLEAR_Mask;
 214              		.loc 1 186 12
 215 009e C207     		slli	a5,a5,16
 216 00a0 C183     		srli	a5,a5,16
 217              	.LVL24:
 187:../Peripheral/src/ch32v30x_i2c.c ****     tmpreg |= (uint16_t)((uint32_t)I2C_InitStruct->I2C_Mode | I2C_InitStruct->I2C_Ack);
 218              		.loc 1 187 5 is_stmt 1
 187:../Peripheral/src/ch32v30x_i2c.c ****     tmpreg |= (uint16_t)((uint32_t)I2C_InitStruct->I2C_Mode | I2C_InitStruct->I2C_Ack);
 219              		.loc 1 187 12 is_stmt 0
 220 00a2 93F757BF 		andi	a5,a5,-1035
 221              	.LVL25:
 222              		.loc 1 188 5 is_stmt 1
 223              		.loc 1 188 12 is_stmt 0
 224 00a6 D98F     		or	a5,a5,a4
 225              	.LVL26:
 189:../Peripheral/src/ch32v30x_i2c.c ****     I2Cx->CTLR1 = tmpreg;
 226              		.loc 1 189 5 is_stmt 1
 227              		.loc 1 189 17 is_stmt 0
 228 00a8 1EA0     		sh	a5,0(s0)
 190:../Peripheral/src/ch32v30x_i2c.c **** 
 191:../Peripheral/src/ch32v30x_i2c.c ****     I2Cx->OADDR1 = (I2C_InitStruct->I2C_AcknowledgedAddress | I2C_InitStruct->I2C_OwnAddress1);
 229              		.loc 1 191 5 is_stmt 1
 230              		.loc 1 191 18 is_stmt 0
 231 00aa 03578900 		lhu	a4,8(s2)
 232 00ae 8357C900 		lhu	a5,12(s2)
 233              	.LVL27:
 234 00b2 D98F     		or	a5,a5,a4
 235 00b4 1EA4     		sh	a5,8(s0)
 236              	.LVL28:
 192:../Peripheral/src/ch32v30x_i2c.c **** }
 237              		.loc 1 192 1
 238 00b6 0561     		addi	sp,sp,32
 239              		.cfi_remember_state
 240              		.cfi_def_cfa_offset 0
 241              	.LVL29:
 242 00b8 17030000 		tail	__riscv_restore_3
 242      67000300 
 243              		.cfi_restore 18
 244              		.cfi_restore 9
 245              		.cfi_restore 8
 246              		.cfi_restore 1
 247              		.cfi_def_cfa_offset -16
 248              	.LVL30:
 249              	.L8:
 250              		.cfi_restore_state
 164:../Peripheral/src/ch32v30x_i2c.c ****         {
 251              		.loc 1 164 9 is_stmt 1
 164:../Peripheral/src/ch32v30x_i2c.c ****         {
 252              		.loc 1 164 11 is_stmt 0
 253 00c0 83556900 		lhu	a1,6(s2)
 254 00c4 3166     		li	a2,49152
 255 00c6 7D16     		addi	a2,a2,-1
 256 00c8 6399C502 		bne	a1,a2,.L11
 166:../Peripheral/src/ch32v30x_i2c.c ****         }
 257              		.loc 1 166 13 is_stmt 1
 166:../Peripheral/src/ch32v30x_i2c.c ****         }
 258              		.loc 1 166 73 is_stmt 0
 259 00cc 0D46     		li	a2,3
 260 00ce B386C602 		mul	a3,a3,a2
 166:../Peripheral/src/ch32v30x_i2c.c ****         }
 261              		.loc 1 166 39
 262 00d2 B3D7D702 		divu	a5,a5,a3
 263              	.LVL31:
 166:../Peripheral/src/ch32v30x_i2c.c ****         }
 264              		.loc 1 166 20
 265 00d6 C207     		slli	a5,a5,16
 266 00d8 C183     		srli	a5,a5,16
 267              	.LVL32:
 268              	.L12:
 174:../Peripheral/src/ch32v30x_i2c.c ****         {
 269              		.loc 1 174 9 is_stmt 1
 174:../Peripheral/src/ch32v30x_i2c.c ****         {
 270              		.loc 1 174 11 is_stmt 0
 271 00da 93964701 		slli	a3,a5,20
 272 00de 99E2     		bne	a3,zero,.L13
 176:../Peripheral/src/ch32v30x_i2c.c ****         }
 273              		.loc 1 176 13 is_stmt 1
 176:../Peripheral/src/ch32v30x_i2c.c ****         }
 274              		.loc 1 176 20 is_stmt 0
 275 00e0 93E71700 		ori	a5,a5,1
 276              	.LVL33:
 277              	.L13:
 179:../Peripheral/src/ch32v30x_i2c.c ****         I2Cx->RTR = (uint16_t)(((freqrange * (uint16_t)300) / (uint16_t)1000) + (uint16_t)1);
 278              		.loc 1 179 9 is_stmt 1
 179:../Peripheral/src/ch32v30x_i2c.c ****         I2Cx->RTR = (uint16_t)(((freqrange * (uint16_t)300) / (uint16_t)1000) + (uint16_t)1);
 279              		.loc 1 179 16 is_stmt 0
 280 00e4 A166     		li	a3,32768
 281 00e6 D58F     		or	a5,a5,a3
 282              	.LVL34:
 180:../Peripheral/src/ch32v30x_i2c.c ****     }
 283              		.loc 1 180 9 is_stmt 1
 180:../Peripheral/src/ch32v30x_i2c.c ****     }
 284              		.loc 1 180 44 is_stmt 0
 285 00e8 9306C012 		li	a3,300
 286 00ec 3307D702 		mul	a4,a4,a3
 287              	.LVL35:
 180:../Peripheral/src/ch32v30x_i2c.c ****     }
 288              		.loc 1 180 61
 289 00f0 9306803E 		li	a3,1000
 290 00f4 3347D702 		div	a4,a4,a3
 291 00f8 61B7     		j	.L17
 292              	.LVL36:
 293              	.L11:
 170:../Peripheral/src/ch32v30x_i2c.c ****             result |= I2C_DutyCycle_16_9;
 294              		.loc 1 170 13 is_stmt 1
 170:../Peripheral/src/ch32v30x_i2c.c ****             result |= I2C_DutyCycle_16_9;
 295              		.loc 1 170 73 is_stmt 0
 296 00fa 6546     		li	a2,25
 297 00fc B386C602 		mul	a3,a3,a2
 170:../Peripheral/src/ch32v30x_i2c.c ****             result |= I2C_DutyCycle_16_9;
 298              		.loc 1 170 39
 299 0100 B3D7D702 		divu	a5,a5,a3
 300              	.LVL37:
 171:../Peripheral/src/ch32v30x_i2c.c ****         }
 301              		.loc 1 171 20
 302 0104 9166     		li	a3,16384
 170:../Peripheral/src/ch32v30x_i2c.c ****             result |= I2C_DutyCycle_16_9;
 303              		.loc 1 170 20
 304 0106 C207     		slli	a5,a5,16
 305 0108 C183     		srli	a5,a5,16
 306              	.LVL38:
 171:../Peripheral/src/ch32v30x_i2c.c ****         }
 307              		.loc 1 171 13 is_stmt 1
 171:../Peripheral/src/ch32v30x_i2c.c ****         }
 308              		.loc 1 171 20 is_stmt 0
 309 010a D58F     		or	a5,a5,a3
 310              	.LVL39:
 311 010c F9B7     		j	.L12
 312              		.cfi_endproc
 313              	.LFE30:
 315              		.section	.text.I2C_StructInit,"ax",@progbits
 316              		.align	1
 317              		.globl	I2C_StructInit
 319              	I2C_StructInit:
 320              	.LFB31:
 193:../Peripheral/src/ch32v30x_i2c.c **** 
 194:../Peripheral/src/ch32v30x_i2c.c **** /*********************************************************************
 195:../Peripheral/src/ch32v30x_i2c.c ****  * @fn      I2C_StructInit
 196:../Peripheral/src/ch32v30x_i2c.c ****  *
 197:../Peripheral/src/ch32v30x_i2c.c ****  * @brief   Fills each I2C_InitStruct member with its default value.
 198:../Peripheral/src/ch32v30x_i2c.c ****  *
 199:../Peripheral/src/ch32v30x_i2c.c ****  * @param   I2C_InitStruct - pointer to an I2C_InitTypeDef structure which
 200:../Peripheral/src/ch32v30x_i2c.c ****  *        will be initialized.
 201:../Peripheral/src/ch32v30x_i2c.c ****  *
 202:../Peripheral/src/ch32v30x_i2c.c ****  * @return  none
 203:../Peripheral/src/ch32v30x_i2c.c ****  */
 204:../Peripheral/src/ch32v30x_i2c.c **** void I2C_StructInit(I2C_InitTypeDef *I2C_InitStruct)
 205:../Peripheral/src/ch32v30x_i2c.c **** {
 321              		.loc 1 205 1 is_stmt 1
 322              		.cfi_startproc
 323              	.LVL40:
 206:../Peripheral/src/ch32v30x_i2c.c ****     I2C_InitStruct->I2C_ClockSpeed = 5000;
 324              		.loc 1 206 5
 207:../Peripheral/src/ch32v30x_i2c.c ****     I2C_InitStruct->I2C_Mode = I2C_Mode_I2C;
 325              		.loc 1 207 5
 208:../Peripheral/src/ch32v30x_i2c.c ****     I2C_InitStruct->I2C_DutyCycle = I2C_DutyCycle_2;
 326              		.loc 1 208 5
 209:../Peripheral/src/ch32v30x_i2c.c ****     I2C_InitStruct->I2C_OwnAddress1 = 0;
 327              		.loc 1 209 5
 210:../Peripheral/src/ch32v30x_i2c.c ****     I2C_InitStruct->I2C_Ack = I2C_Ack_Disable;
 328              		.loc 1 210 5
 211:../Peripheral/src/ch32v30x_i2c.c ****     I2C_InitStruct->I2C_AcknowledgedAddress = I2C_AcknowledgedAddress_7bit;
 329              		.loc 1 211 5
 206:../Peripheral/src/ch32v30x_i2c.c ****     I2C_InitStruct->I2C_Mode = I2C_Mode_I2C;
 330              		.loc 1 206 36 is_stmt 0
 331 0000 8567     		li	a5,4096
 332 0002 93878738 		addi	a5,a5,904
 333 0006 1CC1     		sw	a5,0(a0)
 207:../Peripheral/src/ch32v30x_i2c.c ****     I2C_InitStruct->I2C_DutyCycle = I2C_DutyCycle_2;
 334              		.loc 1 207 30
 335 0008 B707FFBF 		li	a5,-1073807360
 336 000c 5CC1     		sw	a5,4(a0)
 337              		.loc 1 211 45
 338 000e 9167     		li	a5,16384
 209:../Peripheral/src/ch32v30x_i2c.c ****     I2C_InitStruct->I2C_Ack = I2C_Ack_Disable;
 339              		.loc 1 209 37
 340 0010 23240500 		sw	zero,8(a0)
 341              		.loc 1 211 45
 342 0014 5EA5     		sh	a5,12(a0)
 212:../Peripheral/src/ch32v30x_i2c.c **** }
 343              		.loc 1 212 1
 344 0016 8280     		ret
 345              		.cfi_endproc
 346              	.LFE31:
 348              		.section	.text.I2C_Cmd,"ax",@progbits
 349              		.align	1
 350              		.globl	I2C_Cmd
 352              	I2C_Cmd:
 353              	.LFB32:
 213:../Peripheral/src/ch32v30x_i2c.c **** 
 214:../Peripheral/src/ch32v30x_i2c.c **** /*********************************************************************
 215:../Peripheral/src/ch32v30x_i2c.c ****  * @fn      I2C_Cmd
 216:../Peripheral/src/ch32v30x_i2c.c ****  *
 217:../Peripheral/src/ch32v30x_i2c.c ****  * @brief   Enables or disables the specified I2C peripheral.
 218:../Peripheral/src/ch32v30x_i2c.c ****  *
 219:../Peripheral/src/ch32v30x_i2c.c ****  * @param   I2Cx - where x can be 1 or 2 to select the I2C peripheral.
 220:../Peripheral/src/ch32v30x_i2c.c ****  *          NewState - ENABLE or DISABLE.
 221:../Peripheral/src/ch32v30x_i2c.c ****  *
 222:../Peripheral/src/ch32v30x_i2c.c ****  * @return  none
 223:../Peripheral/src/ch32v30x_i2c.c ****  */
 224:../Peripheral/src/ch32v30x_i2c.c **** void I2C_Cmd(I2C_TypeDef *I2Cx, FunctionalState NewState)
 225:../Peripheral/src/ch32v30x_i2c.c **** {
 354              		.loc 1 225 1 is_stmt 1
 355              		.cfi_startproc
 356              	.LVL41:
 226:../Peripheral/src/ch32v30x_i2c.c ****     if(NewState != DISABLE)
 357              		.loc 1 226 5
 227:../Peripheral/src/ch32v30x_i2c.c ****     {
 228:../Peripheral/src/ch32v30x_i2c.c ****         I2Cx->CTLR1 |= CTLR1_PE_Set;
 358              		.loc 1 228 13 is_stmt 0
 359 0000 1E21     		lhu	a5,0(a0)
 226:../Peripheral/src/ch32v30x_i2c.c ****     if(NewState != DISABLE)
 360              		.loc 1 226 7
 361 0002 89C5     		beq	a1,zero,.L20
 362              		.loc 1 228 9 is_stmt 1
 363              		.loc 1 228 21 is_stmt 0
 364 0004 93E71700 		ori	a5,a5,1
 365              	.L22:
 229:../Peripheral/src/ch32v30x_i2c.c ****     }
 230:../Peripheral/src/ch32v30x_i2c.c ****     else
 231:../Peripheral/src/ch32v30x_i2c.c ****     {
 232:../Peripheral/src/ch32v30x_i2c.c ****         I2Cx->CTLR1 &= CTLR1_PE_Reset;
 366              		.loc 1 232 21
 367 0008 1EA1     		sh	a5,0(a0)
 233:../Peripheral/src/ch32v30x_i2c.c ****     }
 234:../Peripheral/src/ch32v30x_i2c.c **** }
 368              		.loc 1 234 1
 369 000a 8280     		ret
 370              	.L20:
 232:../Peripheral/src/ch32v30x_i2c.c ****     }
 371              		.loc 1 232 9 is_stmt 1
 232:../Peripheral/src/ch32v30x_i2c.c ****     }
 372              		.loc 1 232 13 is_stmt 0
 373 000c C207     		slli	a5,a5,16
 374 000e C183     		srli	a5,a5,16
 232:../Peripheral/src/ch32v30x_i2c.c ****     }
 375              		.loc 1 232 21
 376 0010 F99B     		andi	a5,a5,-2
 377 0012 C207     		slli	a5,a5,16
 378 0014 C183     		srli	a5,a5,16
 379 0016 CDBF     		j	.L22
 380              		.cfi_endproc
 381              	.LFE32:
 383              		.section	.text.I2C_DMACmd,"ax",@progbits
 384              		.align	1
 385              		.globl	I2C_DMACmd
 387              	I2C_DMACmd:
 388              	.LFB33:
 235:../Peripheral/src/ch32v30x_i2c.c **** 
 236:../Peripheral/src/ch32v30x_i2c.c **** /*********************************************************************
 237:../Peripheral/src/ch32v30x_i2c.c ****  * @fn      I2C_DMACmd
 238:../Peripheral/src/ch32v30x_i2c.c ****  *
 239:../Peripheral/src/ch32v30x_i2c.c ****  * @brief   Enables or disables the specified I2C DMA requests.
 240:../Peripheral/src/ch32v30x_i2c.c ****  *
 241:../Peripheral/src/ch32v30x_i2c.c ****  * @param   I2Cx - where x can be 1 or 2 to select the I2C peripheral.
 242:../Peripheral/src/ch32v30x_i2c.c ****  *          NewState - ENABLE or DISABLE.
 243:../Peripheral/src/ch32v30x_i2c.c ****  *
 244:../Peripheral/src/ch32v30x_i2c.c ****  * @return  none
 245:../Peripheral/src/ch32v30x_i2c.c ****  */
 246:../Peripheral/src/ch32v30x_i2c.c **** void I2C_DMACmd(I2C_TypeDef *I2Cx, FunctionalState NewState)
 247:../Peripheral/src/ch32v30x_i2c.c **** {
 389              		.loc 1 247 1 is_stmt 1
 390              		.cfi_startproc
 391              	.LVL42:
 248:../Peripheral/src/ch32v30x_i2c.c ****     if(NewState != DISABLE)
 392              		.loc 1 248 5
 249:../Peripheral/src/ch32v30x_i2c.c ****     {
 250:../Peripheral/src/ch32v30x_i2c.c ****         I2Cx->CTLR2 |= CTLR2_DMAEN_Set;
 393              		.loc 1 250 13 is_stmt 0
 394 0000 5E21     		lhu	a5,4(a0)
 248:../Peripheral/src/ch32v30x_i2c.c ****     if(NewState != DISABLE)
 395              		.loc 1 248 7
 396 0002 89C9     		beq	a1,zero,.L24
 397              		.loc 1 250 9 is_stmt 1
 398              		.loc 1 250 21 is_stmt 0
 399 0004 0567     		li	a4,4096
 400 0006 13070780 		addi	a4,a4,-2048
 401 000a D98F     		or	a5,a5,a4
 402 000c C207     		slli	a5,a5,16
 403 000e C183     		srli	a5,a5,16
 404              	.L26:
 251:../Peripheral/src/ch32v30x_i2c.c ****     }
 252:../Peripheral/src/ch32v30x_i2c.c ****     else
 253:../Peripheral/src/ch32v30x_i2c.c ****     {
 254:../Peripheral/src/ch32v30x_i2c.c ****         I2Cx->CTLR2 &= CTLR2_DMAEN_Reset;
 405              		.loc 1 254 21
 406 0010 5EA1     		sh	a5,4(a0)
 255:../Peripheral/src/ch32v30x_i2c.c ****     }
 256:../Peripheral/src/ch32v30x_i2c.c **** }
 407              		.loc 1 256 1
 408 0012 8280     		ret
 409              	.L24:
 254:../Peripheral/src/ch32v30x_i2c.c ****     }
 410              		.loc 1 254 9 is_stmt 1
 254:../Peripheral/src/ch32v30x_i2c.c ****     }
 411              		.loc 1 254 21 is_stmt 0
 412 0014 7D77     		li	a4,-4096
 413 0016 1307F77F 		addi	a4,a4,2047
 414 001a F98F     		and	a5,a5,a4
 415 001c D5BF     		j	.L26
 416              		.cfi_endproc
 417              	.LFE33:
 419              		.section	.text.I2C_DMALastTransferCmd,"ax",@progbits
 420              		.align	1
 421              		.globl	I2C_DMALastTransferCmd
 423              	I2C_DMALastTransferCmd:
 424              	.LFB34:
 257:../Peripheral/src/ch32v30x_i2c.c **** 
 258:../Peripheral/src/ch32v30x_i2c.c **** /*********************************************************************
 259:../Peripheral/src/ch32v30x_i2c.c ****  * @fn      I2C_DMALastTransferCmd
 260:../Peripheral/src/ch32v30x_i2c.c ****  *
 261:../Peripheral/src/ch32v30x_i2c.c ****  * @brief   Specifies if the next DMA transfer will be the last one.
 262:../Peripheral/src/ch32v30x_i2c.c ****  *
 263:../Peripheral/src/ch32v30x_i2c.c ****  * @param   I2Cx - where x can be 1 or 2 to select the I2C peripheral.
 264:../Peripheral/src/ch32v30x_i2c.c ****  *          NewState - ENABLE or DISABLE.
 265:../Peripheral/src/ch32v30x_i2c.c ****  *
 266:../Peripheral/src/ch32v30x_i2c.c ****  * @return  none
 267:../Peripheral/src/ch32v30x_i2c.c ****  */
 268:../Peripheral/src/ch32v30x_i2c.c **** void I2C_DMALastTransferCmd(I2C_TypeDef *I2Cx, FunctionalState NewState)
 269:../Peripheral/src/ch32v30x_i2c.c **** {
 425              		.loc 1 269 1 is_stmt 1
 426              		.cfi_startproc
 427              	.LVL43:
 270:../Peripheral/src/ch32v30x_i2c.c ****     if(NewState != DISABLE)
 428              		.loc 1 270 5
 271:../Peripheral/src/ch32v30x_i2c.c ****     {
 272:../Peripheral/src/ch32v30x_i2c.c ****         I2Cx->CTLR2 |= CTLR2_LAST_Set;
 429              		.loc 1 272 13 is_stmt 0
 430 0000 5E21     		lhu	a5,4(a0)
 270:../Peripheral/src/ch32v30x_i2c.c ****     if(NewState != DISABLE)
 431              		.loc 1 270 7
 432 0002 89C5     		beq	a1,zero,.L28
 433              		.loc 1 272 9 is_stmt 1
 434              		.loc 1 272 21 is_stmt 0
 435 0004 0567     		li	a4,4096
 436 0006 D98F     		or	a5,a5,a4
 437              	.L30:
 273:../Peripheral/src/ch32v30x_i2c.c ****     }
 274:../Peripheral/src/ch32v30x_i2c.c ****     else
 275:../Peripheral/src/ch32v30x_i2c.c ****     {
 276:../Peripheral/src/ch32v30x_i2c.c ****         I2Cx->CTLR2 &= CTLR2_LAST_Reset;
 438              		.loc 1 276 21
 439 0008 5EA1     		sh	a5,4(a0)
 277:../Peripheral/src/ch32v30x_i2c.c ****     }
 278:../Peripheral/src/ch32v30x_i2c.c **** }
 440              		.loc 1 278 1
 441 000a 8280     		ret
 442              	.L28:
 276:../Peripheral/src/ch32v30x_i2c.c ****     }
 443              		.loc 1 276 9 is_stmt 1
 276:../Peripheral/src/ch32v30x_i2c.c ****     }
 444              		.loc 1 276 21 is_stmt 0
 445 000c 7D77     		li	a4,-4096
 446 000e 7D17     		addi	a4,a4,-1
 447 0010 F98F     		and	a5,a5,a4
 448 0012 DDBF     		j	.L30
 449              		.cfi_endproc
 450              	.LFE34:
 452              		.section	.text.I2C_GenerateSTART,"ax",@progbits
 453              		.align	1
 454              		.globl	I2C_GenerateSTART
 456              	I2C_GenerateSTART:
 457              	.LFB35:
 279:../Peripheral/src/ch32v30x_i2c.c **** 
 280:../Peripheral/src/ch32v30x_i2c.c **** /*********************************************************************
 281:../Peripheral/src/ch32v30x_i2c.c ****  * @fn      I2C_GenerateSTART
 282:../Peripheral/src/ch32v30x_i2c.c ****  *
 283:../Peripheral/src/ch32v30x_i2c.c ****  * @brief   Generates I2Cx communication START condition.
 284:../Peripheral/src/ch32v30x_i2c.c ****  *
 285:../Peripheral/src/ch32v30x_i2c.c ****  * @param   I2Cx - where x can be 1 or 2 to select the I2C peripheral.
 286:../Peripheral/src/ch32v30x_i2c.c ****  *          NewState - ENABLE or DISABLE.
 287:../Peripheral/src/ch32v30x_i2c.c ****  *
 288:../Peripheral/src/ch32v30x_i2c.c ****  * @return  none
 289:../Peripheral/src/ch32v30x_i2c.c ****  */
 290:../Peripheral/src/ch32v30x_i2c.c **** void I2C_GenerateSTART(I2C_TypeDef *I2Cx, FunctionalState NewState)
 291:../Peripheral/src/ch32v30x_i2c.c **** {
 458              		.loc 1 291 1 is_stmt 1
 459              		.cfi_startproc
 460              	.LVL44:
 292:../Peripheral/src/ch32v30x_i2c.c ****     if(NewState != DISABLE)
 461              		.loc 1 292 5
 293:../Peripheral/src/ch32v30x_i2c.c ****     {
 294:../Peripheral/src/ch32v30x_i2c.c ****         I2Cx->CTLR1 |= CTLR1_START_Set;
 462              		.loc 1 294 13 is_stmt 0
 463 0000 1E21     		lhu	a5,0(a0)
 292:../Peripheral/src/ch32v30x_i2c.c ****     if(NewState != DISABLE)
 464              		.loc 1 292 7
 465 0002 89C5     		beq	a1,zero,.L32
 466              		.loc 1 294 9 is_stmt 1
 467              		.loc 1 294 21 is_stmt 0
 468 0004 93E70710 		ori	a5,a5,256
 469              	.L34:
 295:../Peripheral/src/ch32v30x_i2c.c ****     }
 296:../Peripheral/src/ch32v30x_i2c.c ****     else
 297:../Peripheral/src/ch32v30x_i2c.c ****     {
 298:../Peripheral/src/ch32v30x_i2c.c ****         I2Cx->CTLR1 &= CTLR1_START_Reset;
 470              		.loc 1 298 21
 471 0008 1EA1     		sh	a5,0(a0)
 299:../Peripheral/src/ch32v30x_i2c.c ****     }
 300:../Peripheral/src/ch32v30x_i2c.c **** }
 472              		.loc 1 300 1
 473 000a 8280     		ret
 474              	.L32:
 298:../Peripheral/src/ch32v30x_i2c.c ****     }
 475              		.loc 1 298 9 is_stmt 1
 298:../Peripheral/src/ch32v30x_i2c.c ****     }
 476              		.loc 1 298 13 is_stmt 0
 477 000c C207     		slli	a5,a5,16
 478 000e C183     		srli	a5,a5,16
 298:../Peripheral/src/ch32v30x_i2c.c ****     }
 479              		.loc 1 298 21
 480 0010 93F7F7EF 		andi	a5,a5,-257
 481 0014 C207     		slli	a5,a5,16
 482 0016 C183     		srli	a5,a5,16
 483 0018 C5BF     		j	.L34
 484              		.cfi_endproc
 485              	.LFE35:
 487              		.section	.text.I2C_GenerateSTOP,"ax",@progbits
 488              		.align	1
 489              		.globl	I2C_GenerateSTOP
 491              	I2C_GenerateSTOP:
 492              	.LFB36:
 301:../Peripheral/src/ch32v30x_i2c.c **** 
 302:../Peripheral/src/ch32v30x_i2c.c **** /*********************************************************************
 303:../Peripheral/src/ch32v30x_i2c.c ****  * @fn      I2C_GenerateSTOP
 304:../Peripheral/src/ch32v30x_i2c.c ****  *
 305:../Peripheral/src/ch32v30x_i2c.c ****  * @brief   Generates I2Cx communication STOP condition.
 306:../Peripheral/src/ch32v30x_i2c.c ****  *
 307:../Peripheral/src/ch32v30x_i2c.c ****  * @param   I2Cx - where x can be 1 or 2 to select the I2C peripheral.
 308:../Peripheral/src/ch32v30x_i2c.c ****  *          NewState - ENABLE or DISABLE.
 309:../Peripheral/src/ch32v30x_i2c.c ****  *
 310:../Peripheral/src/ch32v30x_i2c.c ****  * @return  none
 311:../Peripheral/src/ch32v30x_i2c.c ****  */
 312:../Peripheral/src/ch32v30x_i2c.c **** void I2C_GenerateSTOP(I2C_TypeDef *I2Cx, FunctionalState NewState)
 313:../Peripheral/src/ch32v30x_i2c.c **** {
 493              		.loc 1 313 1 is_stmt 1
 494              		.cfi_startproc
 495              	.LVL45:
 314:../Peripheral/src/ch32v30x_i2c.c ****     if(NewState != DISABLE)
 496              		.loc 1 314 5
 315:../Peripheral/src/ch32v30x_i2c.c ****     {
 316:../Peripheral/src/ch32v30x_i2c.c ****         I2Cx->CTLR1 |= CTLR1_STOP_Set;
 497              		.loc 1 316 13 is_stmt 0
 498 0000 1E21     		lhu	a5,0(a0)
 314:../Peripheral/src/ch32v30x_i2c.c ****     if(NewState != DISABLE)
 499              		.loc 1 314 7
 500 0002 89C5     		beq	a1,zero,.L36
 501              		.loc 1 316 9 is_stmt 1
 502              		.loc 1 316 21 is_stmt 0
 503 0004 93E70720 		ori	a5,a5,512
 504              	.L38:
 317:../Peripheral/src/ch32v30x_i2c.c ****     }
 318:../Peripheral/src/ch32v30x_i2c.c ****     else
 319:../Peripheral/src/ch32v30x_i2c.c ****     {
 320:../Peripheral/src/ch32v30x_i2c.c ****         I2Cx->CTLR1 &= CTLR1_STOP_Reset;
 505              		.loc 1 320 21
 506 0008 1EA1     		sh	a5,0(a0)
 321:../Peripheral/src/ch32v30x_i2c.c ****     }
 322:../Peripheral/src/ch32v30x_i2c.c **** }
 507              		.loc 1 322 1
 508 000a 8280     		ret
 509              	.L36:
 320:../Peripheral/src/ch32v30x_i2c.c ****     }
 510              		.loc 1 320 9 is_stmt 1
 320:../Peripheral/src/ch32v30x_i2c.c ****     }
 511              		.loc 1 320 13 is_stmt 0
 512 000c C207     		slli	a5,a5,16
 513 000e C183     		srli	a5,a5,16
 320:../Peripheral/src/ch32v30x_i2c.c ****     }
 514              		.loc 1 320 21
 515 0010 93F7F7DF 		andi	a5,a5,-513
 516 0014 C207     		slli	a5,a5,16
 517 0016 C183     		srli	a5,a5,16
 518 0018 C5BF     		j	.L38
 519              		.cfi_endproc
 520              	.LFE36:
 522              		.section	.text.I2C_AcknowledgeConfig,"ax",@progbits
 523              		.align	1
 524              		.globl	I2C_AcknowledgeConfig
 526              	I2C_AcknowledgeConfig:
 527              	.LFB37:
 323:../Peripheral/src/ch32v30x_i2c.c **** 
 324:../Peripheral/src/ch32v30x_i2c.c **** /*********************************************************************
 325:../Peripheral/src/ch32v30x_i2c.c ****  * @fn      I2C_AcknowledgeConfig
 326:../Peripheral/src/ch32v30x_i2c.c ****  *
 327:../Peripheral/src/ch32v30x_i2c.c ****  * @brief   Enables or disables the specified I2C acknowledge feature.
 328:../Peripheral/src/ch32v30x_i2c.c ****  *
 329:../Peripheral/src/ch32v30x_i2c.c ****  * @param   I2Cx - where x can be 1 or 2 to select the I2C peripheral.
 330:../Peripheral/src/ch32v30x_i2c.c ****  *          NewState - ENABLE or DISABLE.
 331:../Peripheral/src/ch32v30x_i2c.c ****  *
 332:../Peripheral/src/ch32v30x_i2c.c ****  * @return  none
 333:../Peripheral/src/ch32v30x_i2c.c ****  */
 334:../Peripheral/src/ch32v30x_i2c.c **** void I2C_AcknowledgeConfig(I2C_TypeDef *I2Cx, FunctionalState NewState)
 335:../Peripheral/src/ch32v30x_i2c.c **** {
 528              		.loc 1 335 1 is_stmt 1
 529              		.cfi_startproc
 530              	.LVL46:
 336:../Peripheral/src/ch32v30x_i2c.c ****     if(NewState != DISABLE)
 531              		.loc 1 336 5
 337:../Peripheral/src/ch32v30x_i2c.c ****     {
 338:../Peripheral/src/ch32v30x_i2c.c ****         I2Cx->CTLR1 |= CTLR1_ACK_Set;
 532              		.loc 1 338 13 is_stmt 0
 533 0000 1E21     		lhu	a5,0(a0)
 336:../Peripheral/src/ch32v30x_i2c.c ****     if(NewState != DISABLE)
 534              		.loc 1 336 7
 535 0002 89C5     		beq	a1,zero,.L40
 536              		.loc 1 338 9 is_stmt 1
 537              		.loc 1 338 21 is_stmt 0
 538 0004 93E70740 		ori	a5,a5,1024
 539              	.L42:
 339:../Peripheral/src/ch32v30x_i2c.c ****     }
 340:../Peripheral/src/ch32v30x_i2c.c ****     else
 341:../Peripheral/src/ch32v30x_i2c.c ****     {
 342:../Peripheral/src/ch32v30x_i2c.c ****         I2Cx->CTLR1 &= CTLR1_ACK_Reset;
 540              		.loc 1 342 21
 541 0008 1EA1     		sh	a5,0(a0)
 343:../Peripheral/src/ch32v30x_i2c.c ****     }
 344:../Peripheral/src/ch32v30x_i2c.c **** }
 542              		.loc 1 344 1
 543 000a 8280     		ret
 544              	.L40:
 342:../Peripheral/src/ch32v30x_i2c.c ****     }
 545              		.loc 1 342 9 is_stmt 1
 342:../Peripheral/src/ch32v30x_i2c.c ****     }
 546              		.loc 1 342 13 is_stmt 0
 547 000c C207     		slli	a5,a5,16
 548 000e C183     		srli	a5,a5,16
 342:../Peripheral/src/ch32v30x_i2c.c ****     }
 549              		.loc 1 342 21
 550 0010 93F7F7BF 		andi	a5,a5,-1025
 551 0014 C207     		slli	a5,a5,16
 552 0016 C183     		srli	a5,a5,16
 553 0018 C5BF     		j	.L42
 554              		.cfi_endproc
 555              	.LFE37:
 557              		.section	.text.I2C_OwnAddress2Config,"ax",@progbits
 558              		.align	1
 559              		.globl	I2C_OwnAddress2Config
 561              	I2C_OwnAddress2Config:
 562              	.LFB38:
 345:../Peripheral/src/ch32v30x_i2c.c **** 
 346:../Peripheral/src/ch32v30x_i2c.c **** /*********************************************************************
 347:../Peripheral/src/ch32v30x_i2c.c ****  * @fn      I2C_OwnAddress2Config
 348:../Peripheral/src/ch32v30x_i2c.c ****  *
 349:../Peripheral/src/ch32v30x_i2c.c ****  * @brief   Configures the specified I2C own address2.
 350:../Peripheral/src/ch32v30x_i2c.c ****  *
 351:../Peripheral/src/ch32v30x_i2c.c ****  * @param   I2Cx - where x can be 1 or 2 to select the I2C peripheral.
 352:../Peripheral/src/ch32v30x_i2c.c ****  *          Address - specifies the 7bit I2C own address2.
 353:../Peripheral/src/ch32v30x_i2c.c ****  *
 354:../Peripheral/src/ch32v30x_i2c.c ****  * @return  none
 355:../Peripheral/src/ch32v30x_i2c.c ****  */
 356:../Peripheral/src/ch32v30x_i2c.c **** void I2C_OwnAddress2Config(I2C_TypeDef *I2Cx, uint8_t Address)
 357:../Peripheral/src/ch32v30x_i2c.c **** {
 563              		.loc 1 357 1 is_stmt 1
 564              		.cfi_startproc
 565              	.LVL47:
 358:../Peripheral/src/ch32v30x_i2c.c ****     uint16_t tmpreg = 0;
 566              		.loc 1 358 5
 359:../Peripheral/src/ch32v30x_i2c.c **** 
 360:../Peripheral/src/ch32v30x_i2c.c ****     tmpreg = I2Cx->OADDR2;
 567              		.loc 1 360 5
 568              		.loc 1 360 12 is_stmt 0
 569 0000 5E25     		lhu	a5,12(a0)
 361:../Peripheral/src/ch32v30x_i2c.c ****     tmpreg &= OADDR2_ADD2_Reset;
 362:../Peripheral/src/ch32v30x_i2c.c ****     tmpreg |= (uint16_t)((uint16_t)Address & (uint16_t)0x00FE);
 570              		.loc 1 362 12
 571 0002 93F5E50F 		andi	a1,a1,254
 572              	.LVL48:
 360:../Peripheral/src/ch32v30x_i2c.c ****     tmpreg &= OADDR2_ADD2_Reset;
 573              		.loc 1 360 12
 574 0006 C207     		slli	a5,a5,16
 575 0008 C183     		srli	a5,a5,16
 576              	.LVL49:
 361:../Peripheral/src/ch32v30x_i2c.c ****     tmpreg &= OADDR2_ADD2_Reset;
 577              		.loc 1 361 5 is_stmt 1
 361:../Peripheral/src/ch32v30x_i2c.c ****     tmpreg &= OADDR2_ADD2_Reset;
 578              		.loc 1 361 12 is_stmt 0
 579 000a 93F717F0 		andi	a5,a5,-255
 580              	.LVL50:
 581              		.loc 1 362 5 is_stmt 1
 582              		.loc 1 362 12 is_stmt 0
 583 000e CD8F     		or	a5,a5,a1
 584              	.LVL51:
 363:../Peripheral/src/ch32v30x_i2c.c ****     I2Cx->OADDR2 = tmpreg;
 585              		.loc 1 363 5 is_stmt 1
 586              		.loc 1 363 18 is_stmt 0
 587 0010 5EA5     		sh	a5,12(a0)
 364:../Peripheral/src/ch32v30x_i2c.c **** }
 588              		.loc 1 364 1
 589 0012 8280     		ret
 590              		.cfi_endproc
 591              	.LFE38:
 593              		.section	.text.I2C_DualAddressCmd,"ax",@progbits
 594              		.align	1
 595              		.globl	I2C_DualAddressCmd
 597              	I2C_DualAddressCmd:
 598              	.LFB39:
 365:../Peripheral/src/ch32v30x_i2c.c **** 
 366:../Peripheral/src/ch32v30x_i2c.c **** /*********************************************************************
 367:../Peripheral/src/ch32v30x_i2c.c ****  * @fn      I2C_DualAddressCmd
 368:../Peripheral/src/ch32v30x_i2c.c ****  *
 369:../Peripheral/src/ch32v30x_i2c.c ****  * @brief   Enables or disables the specified I2C dual addressing mode.
 370:../Peripheral/src/ch32v30x_i2c.c ****  *
 371:../Peripheral/src/ch32v30x_i2c.c ****  * @param   I2Cx - where x can be 1 or 2 to select the I2C peripheral.
 372:../Peripheral/src/ch32v30x_i2c.c ****  *          NewState - ENABLE or DISABLE.
 373:../Peripheral/src/ch32v30x_i2c.c ****  *
 374:../Peripheral/src/ch32v30x_i2c.c ****  * @return  none
 375:../Peripheral/src/ch32v30x_i2c.c ****  */
 376:../Peripheral/src/ch32v30x_i2c.c **** void I2C_DualAddressCmd(I2C_TypeDef *I2Cx, FunctionalState NewState)
 377:../Peripheral/src/ch32v30x_i2c.c **** {
 599              		.loc 1 377 1 is_stmt 1
 600              		.cfi_startproc
 601              	.LVL52:
 378:../Peripheral/src/ch32v30x_i2c.c ****     if(NewState != DISABLE)
 602              		.loc 1 378 5
 379:../Peripheral/src/ch32v30x_i2c.c ****     {
 380:../Peripheral/src/ch32v30x_i2c.c ****         I2Cx->OADDR2 |= OADDR2_ENDUAL_Set;
 603              		.loc 1 380 13 is_stmt 0
 604 0000 5E25     		lhu	a5,12(a0)
 378:../Peripheral/src/ch32v30x_i2c.c ****     if(NewState != DISABLE)
 605              		.loc 1 378 7
 606 0002 89C5     		beq	a1,zero,.L45
 607              		.loc 1 380 9 is_stmt 1
 608              		.loc 1 380 22 is_stmt 0
 609 0004 93E71700 		ori	a5,a5,1
 610              	.L47:
 381:../Peripheral/src/ch32v30x_i2c.c ****     }
 382:../Peripheral/src/ch32v30x_i2c.c ****     else
 383:../Peripheral/src/ch32v30x_i2c.c ****     {
 384:../Peripheral/src/ch32v30x_i2c.c ****         I2Cx->OADDR2 &= OADDR2_ENDUAL_Reset;
 611              		.loc 1 384 22
 612 0008 5EA5     		sh	a5,12(a0)
 385:../Peripheral/src/ch32v30x_i2c.c ****     }
 386:../Peripheral/src/ch32v30x_i2c.c **** }
 613              		.loc 1 386 1
 614 000a 8280     		ret
 615              	.L45:
 384:../Peripheral/src/ch32v30x_i2c.c ****     }
 616              		.loc 1 384 9 is_stmt 1
 384:../Peripheral/src/ch32v30x_i2c.c ****     }
 617              		.loc 1 384 13 is_stmt 0
 618 000c C207     		slli	a5,a5,16
 619 000e C183     		srli	a5,a5,16
 384:../Peripheral/src/ch32v30x_i2c.c ****     }
 620              		.loc 1 384 22
 621 0010 F99B     		andi	a5,a5,-2
 622 0012 C207     		slli	a5,a5,16
 623 0014 C183     		srli	a5,a5,16
 624 0016 CDBF     		j	.L47
 625              		.cfi_endproc
 626              	.LFE39:
 628              		.section	.text.I2C_GeneralCallCmd,"ax",@progbits
 629              		.align	1
 630              		.globl	I2C_GeneralCallCmd
 632              	I2C_GeneralCallCmd:
 633              	.LFB40:
 387:../Peripheral/src/ch32v30x_i2c.c **** 
 388:../Peripheral/src/ch32v30x_i2c.c **** /*********************************************************************
 389:../Peripheral/src/ch32v30x_i2c.c ****  * @fn      I2C_GeneralCallCmd
 390:../Peripheral/src/ch32v30x_i2c.c ****  *
 391:../Peripheral/src/ch32v30x_i2c.c ****  * @brief   Enables or disables the specified I2C general call feature.
 392:../Peripheral/src/ch32v30x_i2c.c ****  *
 393:../Peripheral/src/ch32v30x_i2c.c ****  * @param   I2Cx - where x can be 1 or 2 to select the I2C peripheral.
 394:../Peripheral/src/ch32v30x_i2c.c ****  *          NewState - ENABLE or DISABLE.
 395:../Peripheral/src/ch32v30x_i2c.c ****  *
 396:../Peripheral/src/ch32v30x_i2c.c ****  * @return  none
 397:../Peripheral/src/ch32v30x_i2c.c ****  */
 398:../Peripheral/src/ch32v30x_i2c.c **** void I2C_GeneralCallCmd(I2C_TypeDef *I2Cx, FunctionalState NewState)
 399:../Peripheral/src/ch32v30x_i2c.c **** {
 634              		.loc 1 399 1 is_stmt 1
 635              		.cfi_startproc
 636              	.LVL53:
 400:../Peripheral/src/ch32v30x_i2c.c ****     if(NewState != DISABLE)
 637              		.loc 1 400 5
 401:../Peripheral/src/ch32v30x_i2c.c ****     {
 402:../Peripheral/src/ch32v30x_i2c.c ****         I2Cx->CTLR1 |= CTLR1_ENGC_Set;
 638              		.loc 1 402 13 is_stmt 0
 639 0000 1E21     		lhu	a5,0(a0)
 400:../Peripheral/src/ch32v30x_i2c.c ****     if(NewState != DISABLE)
 640              		.loc 1 400 7
 641 0002 89C5     		beq	a1,zero,.L49
 642              		.loc 1 402 9 is_stmt 1
 643              		.loc 1 402 21 is_stmt 0
 644 0004 93E70704 		ori	a5,a5,64
 645              	.L51:
 403:../Peripheral/src/ch32v30x_i2c.c ****     }
 404:../Peripheral/src/ch32v30x_i2c.c ****     else
 405:../Peripheral/src/ch32v30x_i2c.c ****     {
 406:../Peripheral/src/ch32v30x_i2c.c ****         I2Cx->CTLR1 &= CTLR1_ENGC_Reset;
 646              		.loc 1 406 21
 647 0008 1EA1     		sh	a5,0(a0)
 407:../Peripheral/src/ch32v30x_i2c.c ****     }
 408:../Peripheral/src/ch32v30x_i2c.c **** }
 648              		.loc 1 408 1
 649 000a 8280     		ret
 650              	.L49:
 406:../Peripheral/src/ch32v30x_i2c.c ****     }
 651              		.loc 1 406 9 is_stmt 1
 406:../Peripheral/src/ch32v30x_i2c.c ****     }
 652              		.loc 1 406 13 is_stmt 0
 653 000c C207     		slli	a5,a5,16
 654 000e C183     		srli	a5,a5,16
 406:../Peripheral/src/ch32v30x_i2c.c ****     }
 655              		.loc 1 406 21
 656 0010 93F7F7FB 		andi	a5,a5,-65
 657 0014 C207     		slli	a5,a5,16
 658 0016 C183     		srli	a5,a5,16
 659 0018 C5BF     		j	.L51
 660              		.cfi_endproc
 661              	.LFE40:
 663              		.section	.text.I2C_ITConfig,"ax",@progbits
 664              		.align	1
 665              		.globl	I2C_ITConfig
 667              	I2C_ITConfig:
 668              	.LFB41:
 409:../Peripheral/src/ch32v30x_i2c.c **** 
 410:../Peripheral/src/ch32v30x_i2c.c **** /*********************************************************************
 411:../Peripheral/src/ch32v30x_i2c.c ****  * @fn      I2C_ITConfig
 412:../Peripheral/src/ch32v30x_i2c.c ****  *
 413:../Peripheral/src/ch32v30x_i2c.c ****  * @brief   Enables or disables the specified I2C interrupts.
 414:../Peripheral/src/ch32v30x_i2c.c ****  *
 415:../Peripheral/src/ch32v30x_i2c.c ****  * @param   I2Cx - where x can be 1 or 2 to select the I2C peripheral.
 416:../Peripheral/src/ch32v30x_i2c.c ****  *          I2C_IT - specifies the I2C interrupts sources to be enabled or disabled.
 417:../Peripheral/src/ch32v30x_i2c.c ****  *            I2C_IT_BUF - Buffer interrupt mask.
 418:../Peripheral/src/ch32v30x_i2c.c ****  *            I2C_IT_EVT - Event interrupt mask.
 419:../Peripheral/src/ch32v30x_i2c.c ****  *            I2C_IT_ERR - Error interrupt mask.
 420:../Peripheral/src/ch32v30x_i2c.c ****  *          NewState - ENABLE or DISABLE.
 421:../Peripheral/src/ch32v30x_i2c.c ****  *
 422:../Peripheral/src/ch32v30x_i2c.c ****  * @return  none
 423:../Peripheral/src/ch32v30x_i2c.c ****  */
 424:../Peripheral/src/ch32v30x_i2c.c **** void I2C_ITConfig(I2C_TypeDef *I2Cx, uint16_t I2C_IT, FunctionalState NewState)
 425:../Peripheral/src/ch32v30x_i2c.c **** {
 669              		.loc 1 425 1 is_stmt 1
 670              		.cfi_startproc
 671              	.LVL54:
 426:../Peripheral/src/ch32v30x_i2c.c ****     if(NewState != DISABLE)
 672              		.loc 1 426 5
 427:../Peripheral/src/ch32v30x_i2c.c ****     {
 428:../Peripheral/src/ch32v30x_i2c.c ****         I2Cx->CTLR2 |= I2C_IT;
 673              		.loc 1 428 13 is_stmt 0
 674 0000 5E21     		lhu	a5,4(a0)
 426:../Peripheral/src/ch32v30x_i2c.c ****     if(NewState != DISABLE)
 675              		.loc 1 426 7
 676 0002 01C6     		beq	a2,zero,.L53
 677              		.loc 1 428 9 is_stmt 1
 678              		.loc 1 428 21 is_stmt 0
 679 0004 CD8F     		or	a5,a5,a1
 680              	.LVL55:
 681              	.L55:
 429:../Peripheral/src/ch32v30x_i2c.c ****     }
 430:../Peripheral/src/ch32v30x_i2c.c ****     else
 431:../Peripheral/src/ch32v30x_i2c.c ****     {
 432:../Peripheral/src/ch32v30x_i2c.c ****         I2Cx->CTLR2 &= (uint16_t)~I2C_IT;
 682              		.loc 1 432 21
 683 0006 5EA1     		sh	a5,4(a0)
 433:../Peripheral/src/ch32v30x_i2c.c ****     }
 434:../Peripheral/src/ch32v30x_i2c.c **** }
 684              		.loc 1 434 1
 685 0008 8280     		ret
 686              	.LVL56:
 687              	.L53:
 432:../Peripheral/src/ch32v30x_i2c.c ****     }
 688              		.loc 1 432 9 is_stmt 1
 432:../Peripheral/src/ch32v30x_i2c.c ****     }
 689              		.loc 1 432 24 is_stmt 0
 690 000a 93C5F5FF 		not	a1,a1
 691              	.LVL57:
 432:../Peripheral/src/ch32v30x_i2c.c ****     }
 692              		.loc 1 432 21
 693 000e ED8F     		and	a5,a5,a1
 694 0010 DDBF     		j	.L55
 695              		.cfi_endproc
 696              	.LFE41:
 698              		.section	.text.I2C_SendData,"ax",@progbits
 699              		.align	1
 700              		.globl	I2C_SendData
 702              	I2C_SendData:
 703              	.LFB42:
 435:../Peripheral/src/ch32v30x_i2c.c **** 
 436:../Peripheral/src/ch32v30x_i2c.c **** /*********************************************************************
 437:../Peripheral/src/ch32v30x_i2c.c ****  * @fn      I2C_SendData
 438:../Peripheral/src/ch32v30x_i2c.c ****  *
 439:../Peripheral/src/ch32v30x_i2c.c ****  * @brief   Sends a data byte through the I2Cx peripheral.
 440:../Peripheral/src/ch32v30x_i2c.c ****  *
 441:../Peripheral/src/ch32v30x_i2c.c ****  * @param   I2Cx - where x can be 1 or 2 to select the I2C peripheral.
 442:../Peripheral/src/ch32v30x_i2c.c ****  *          Data - Byte to be transmitted.
 443:../Peripheral/src/ch32v30x_i2c.c ****  *
 444:../Peripheral/src/ch32v30x_i2c.c ****  * @return  none
 445:../Peripheral/src/ch32v30x_i2c.c ****  */
 446:../Peripheral/src/ch32v30x_i2c.c **** void I2C_SendData(I2C_TypeDef *I2Cx, uint8_t Data)
 447:../Peripheral/src/ch32v30x_i2c.c **** {
 704              		.loc 1 447 1 is_stmt 1
 705              		.cfi_startproc
 706              	.LVL58:
 448:../Peripheral/src/ch32v30x_i2c.c ****     I2Cx->DATAR = Data;
 707              		.loc 1 448 5
 708              		.loc 1 448 17 is_stmt 0
 709 0000 0EA9     		sh	a1,16(a0)
 449:../Peripheral/src/ch32v30x_i2c.c **** }
 710              		.loc 1 449 1
 711 0002 8280     		ret
 712              		.cfi_endproc
 713              	.LFE42:
 715              		.section	.text.I2C_ReceiveData,"ax",@progbits
 716              		.align	1
 717              		.globl	I2C_ReceiveData
 719              	I2C_ReceiveData:
 720              	.LFB43:
 450:../Peripheral/src/ch32v30x_i2c.c **** 
 451:../Peripheral/src/ch32v30x_i2c.c **** /*********************************************************************
 452:../Peripheral/src/ch32v30x_i2c.c ****  * @fn      I2C_ReceiveData
 453:../Peripheral/src/ch32v30x_i2c.c ****  *
 454:../Peripheral/src/ch32v30x_i2c.c ****  * @brief   Returns the most recent received data by the I2Cx peripheral.
 455:../Peripheral/src/ch32v30x_i2c.c ****  *
 456:../Peripheral/src/ch32v30x_i2c.c ****  * @param   I2Cx - where x can be 1 or 2 to select the I2C peripheral.
 457:../Peripheral/src/ch32v30x_i2c.c ****  *
 458:../Peripheral/src/ch32v30x_i2c.c ****  * @return  The value of the received data.
 459:../Peripheral/src/ch32v30x_i2c.c ****  */
 460:../Peripheral/src/ch32v30x_i2c.c **** uint8_t I2C_ReceiveData(I2C_TypeDef *I2Cx)
 461:../Peripheral/src/ch32v30x_i2c.c **** {
 721              		.loc 1 461 1 is_stmt 1
 722              		.cfi_startproc
 723              	.LVL59:
 462:../Peripheral/src/ch32v30x_i2c.c ****     return (uint8_t)I2Cx->DATAR;
 724              		.loc 1 462 5
 725              		.loc 1 462 25 is_stmt 0
 726 0000 0A29     		lhu	a0,16(a0)
 727              	.LVL60:
 463:../Peripheral/src/ch32v30x_i2c.c **** }
 728              		.loc 1 463 1
 729 0002 1375F50F 		andi	a0,a0,0xff
 730 0006 8280     		ret
 731              		.cfi_endproc
 732              	.LFE43:
 734              		.section	.text.I2C_Send7bitAddress,"ax",@progbits
 735              		.align	1
 736              		.globl	I2C_Send7bitAddress
 738              	I2C_Send7bitAddress:
 739              	.LFB44:
 464:../Peripheral/src/ch32v30x_i2c.c **** 
 465:../Peripheral/src/ch32v30x_i2c.c **** /*********************************************************************
 466:../Peripheral/src/ch32v30x_i2c.c ****  * @fn      I2C_Send7bitAddress
 467:../Peripheral/src/ch32v30x_i2c.c ****  *
 468:../Peripheral/src/ch32v30x_i2c.c ****  * @brief   Transmits the address byte to select the slave device.
 469:../Peripheral/src/ch32v30x_i2c.c ****  *
 470:../Peripheral/src/ch32v30x_i2c.c ****  * @param   I2Cx - where x can be 1 or 2 to select the I2C peripheral.
 471:../Peripheral/src/ch32v30x_i2c.c ****  *          Address - specifies the slave address which will be transmitted.
 472:../Peripheral/src/ch32v30x_i2c.c ****  *          I2C_Direction - specifies whether the I2C device will be a
 473:../Peripheral/src/ch32v30x_i2c.c ****  *        Transmitter or a Receiver.
 474:../Peripheral/src/ch32v30x_i2c.c ****  *            I2C_Direction_Transmitter - Transmitter mode.
 475:../Peripheral/src/ch32v30x_i2c.c ****  *            I2C_Direction_Receiver - Receiver mode.
 476:../Peripheral/src/ch32v30x_i2c.c ****  *
 477:../Peripheral/src/ch32v30x_i2c.c ****  * @return  none
 478:../Peripheral/src/ch32v30x_i2c.c ****  */
 479:../Peripheral/src/ch32v30x_i2c.c **** void I2C_Send7bitAddress(I2C_TypeDef *I2Cx, uint8_t Address, uint8_t I2C_Direction)
 480:../Peripheral/src/ch32v30x_i2c.c **** {
 740              		.loc 1 480 1 is_stmt 1
 741              		.cfi_startproc
 742              	.LVL61:
 481:../Peripheral/src/ch32v30x_i2c.c ****     if(I2C_Direction != I2C_Direction_Transmitter)
 743              		.loc 1 481 5
 482:../Peripheral/src/ch32v30x_i2c.c ****     {
 483:../Peripheral/src/ch32v30x_i2c.c ****         Address |= OADDR1_ADD0_Set;
 484:../Peripheral/src/ch32v30x_i2c.c ****     }
 485:../Peripheral/src/ch32v30x_i2c.c ****     else
 486:../Peripheral/src/ch32v30x_i2c.c ****     {
 487:../Peripheral/src/ch32v30x_i2c.c ****         Address &= OADDR1_ADD0_Reset;
 744              		.loc 1 487 17 is_stmt 0
 745 0000 93F7E50F 		andi	a5,a1,254
 481:../Peripheral/src/ch32v30x_i2c.c ****     if(I2C_Direction != I2C_Direction_Transmitter)
 746              		.loc 1 481 7
 747 0004 19C2     		beq	a2,zero,.L60
 483:../Peripheral/src/ch32v30x_i2c.c ****     }
 748              		.loc 1 483 9 is_stmt 1
 483:../Peripheral/src/ch32v30x_i2c.c ****     }
 749              		.loc 1 483 17 is_stmt 0
 750 0006 93E71500 		ori	a5,a1,1
 751              	.LVL62:
 752              	.L60:
 488:../Peripheral/src/ch32v30x_i2c.c ****     }
 489:../Peripheral/src/ch32v30x_i2c.c **** 
 490:../Peripheral/src/ch32v30x_i2c.c ****     I2Cx->DATAR = Address;
 753              		.loc 1 490 5 is_stmt 1
 754              		.loc 1 490 17 is_stmt 0
 755 000a 1EA9     		sh	a5,16(a0)
 491:../Peripheral/src/ch32v30x_i2c.c **** }
 756              		.loc 1 491 1
 757 000c 8280     		ret
 758              		.cfi_endproc
 759              	.LFE44:
 761              		.section	.text.I2C_ReadRegister,"ax",@progbits
 762              		.align	1
 763              		.globl	I2C_ReadRegister
 765              	I2C_ReadRegister:
 766              	.LFB45:
 492:../Peripheral/src/ch32v30x_i2c.c **** 
 493:../Peripheral/src/ch32v30x_i2c.c **** /*********************************************************************
 494:../Peripheral/src/ch32v30x_i2c.c ****  * @fn      I2C_ReadRegister
 495:../Peripheral/src/ch32v30x_i2c.c ****  *
 496:../Peripheral/src/ch32v30x_i2c.c ****  * @brief   Reads the specified I2C register and returns its value.
 497:../Peripheral/src/ch32v30x_i2c.c ****  *
 498:../Peripheral/src/ch32v30x_i2c.c ****  * @param   I2Cx - where x can be 1 or 2 to select the I2C peripheral.
 499:../Peripheral/src/ch32v30x_i2c.c ****  *          I2C_Register - specifies the register to read.
 500:../Peripheral/src/ch32v30x_i2c.c ****  *            I2C_Register_CTLR1.
 501:../Peripheral/src/ch32v30x_i2c.c ****  *            I2C_Register_CTLR2.
 502:../Peripheral/src/ch32v30x_i2c.c ****  *            I2C_Register_OADDR1.
 503:../Peripheral/src/ch32v30x_i2c.c ****  *            I2C_Register_OADDR2.
 504:../Peripheral/src/ch32v30x_i2c.c ****  *            I2C_Register_DATAR.
 505:../Peripheral/src/ch32v30x_i2c.c ****  *            I2C_Register_STAR1.
 506:../Peripheral/src/ch32v30x_i2c.c ****  *            I2C_Register_STAR2.
 507:../Peripheral/src/ch32v30x_i2c.c ****  *            I2C_Register_CKCFGR.
 508:../Peripheral/src/ch32v30x_i2c.c ****  *            I2C_Register_RTR.
 509:../Peripheral/src/ch32v30x_i2c.c ****  *
 510:../Peripheral/src/ch32v30x_i2c.c ****  * @return  none
 511:../Peripheral/src/ch32v30x_i2c.c ****  */
 512:../Peripheral/src/ch32v30x_i2c.c **** uint16_t I2C_ReadRegister(I2C_TypeDef *I2Cx, uint8_t I2C_Register)
 513:../Peripheral/src/ch32v30x_i2c.c **** {
 767              		.loc 1 513 1 is_stmt 1
 768              		.cfi_startproc
 769              	.LVL63:
 514:../Peripheral/src/ch32v30x_i2c.c ****     __IO uint32_t tmp = 0;
 770              		.loc 1 514 5
 513:../Peripheral/src/ch32v30x_i2c.c ****     __IO uint32_t tmp = 0;
 771              		.loc 1 513 1 is_stmt 0
 772 0000 4111     		addi	sp,sp,-16
 773              		.cfi_def_cfa_offset 16
 774              		.loc 1 514 19
 775 0002 02C6     		sw	zero,12(sp)
 515:../Peripheral/src/ch32v30x_i2c.c **** 
 516:../Peripheral/src/ch32v30x_i2c.c ****     tmp = (uint32_t)I2Cx;
 776              		.loc 1 516 5 is_stmt 1
 777              		.loc 1 516 9 is_stmt 0
 778 0004 2AC6     		sw	a0,12(sp)
 517:../Peripheral/src/ch32v30x_i2c.c ****     tmp += I2C_Register;
 779              		.loc 1 517 5 is_stmt 1
 780              		.loc 1 517 9 is_stmt 0
 781 0006 B247     		lw	a5,12(sp)
 782 0008 BE95     		add	a1,a1,a5
 783              	.LVL64:
 784 000a 2EC6     		sw	a1,12(sp)
 518:../Peripheral/src/ch32v30x_i2c.c **** 
 519:../Peripheral/src/ch32v30x_i2c.c ****     return (*(__IO uint16_t *)tmp);
 785              		.loc 1 519 5 is_stmt 1
 786              		.loc 1 519 14 is_stmt 0
 787 000c B247     		lw	a5,12(sp)
 788              		.loc 1 519 13
 789 000e 8A23     		lhu	a0,0(a5)
 790              	.LVL65:
 520:../Peripheral/src/ch32v30x_i2c.c **** }
 791              		.loc 1 520 1
 792 0010 4101     		addi	sp,sp,16
 793              		.cfi_def_cfa_offset 0
 794 0012 8280     		jr	ra
 795              		.cfi_endproc
 796              	.LFE45:
 798              		.section	.text.I2C_SoftwareResetCmd,"ax",@progbits
 799              		.align	1
 800              		.globl	I2C_SoftwareResetCmd
 802              	I2C_SoftwareResetCmd:
 803              	.LFB46:
 521:../Peripheral/src/ch32v30x_i2c.c **** 
 522:../Peripheral/src/ch32v30x_i2c.c **** /*********************************************************************
 523:../Peripheral/src/ch32v30x_i2c.c ****  * @fn      I2C_SoftwareResetCmd
 524:../Peripheral/src/ch32v30x_i2c.c ****  *
 525:../Peripheral/src/ch32v30x_i2c.c ****  * @brief   Enables or disables the specified I2C software reset.
 526:../Peripheral/src/ch32v30x_i2c.c ****  *
 527:../Peripheral/src/ch32v30x_i2c.c ****  * @param   I2Cx - where x can be 1 or 2 to select the I2C peripheral.
 528:../Peripheral/src/ch32v30x_i2c.c ****  *          NewState - ENABLE or DISABLE.
 529:../Peripheral/src/ch32v30x_i2c.c ****  *
 530:../Peripheral/src/ch32v30x_i2c.c ****  * @return  none
 531:../Peripheral/src/ch32v30x_i2c.c ****  */
 532:../Peripheral/src/ch32v30x_i2c.c **** void I2C_SoftwareResetCmd(I2C_TypeDef *I2Cx, FunctionalState NewState)
 533:../Peripheral/src/ch32v30x_i2c.c **** {
 804              		.loc 1 533 1 is_stmt 1
 805              		.cfi_startproc
 806              	.LVL66:
 534:../Peripheral/src/ch32v30x_i2c.c ****     if(NewState != DISABLE)
 807              		.loc 1 534 5
 535:../Peripheral/src/ch32v30x_i2c.c ****     {
 536:../Peripheral/src/ch32v30x_i2c.c ****         I2Cx->CTLR1 |= CTLR1_SWRST_Set;
 808              		.loc 1 536 13 is_stmt 0
 809 0000 1E21     		lhu	a5,0(a0)
 534:../Peripheral/src/ch32v30x_i2c.c ****     if(NewState != DISABLE)
 810              		.loc 1 534 7
 811 0002 89C5     		beq	a1,zero,.L64
 812              		.loc 1 536 9 is_stmt 1
 813              		.loc 1 536 21 is_stmt 0
 814 0004 2167     		li	a4,32768
 815 0006 D98F     		or	a5,a5,a4
 816              	.L66:
 537:../Peripheral/src/ch32v30x_i2c.c ****     }
 538:../Peripheral/src/ch32v30x_i2c.c ****     else
 539:../Peripheral/src/ch32v30x_i2c.c ****     {
 540:../Peripheral/src/ch32v30x_i2c.c ****         I2Cx->CTLR1 &= CTLR1_SWRST_Reset;
 817              		.loc 1 540 21
 818 0008 1EA1     		sh	a5,0(a0)
 541:../Peripheral/src/ch32v30x_i2c.c ****     }
 542:../Peripheral/src/ch32v30x_i2c.c **** }
 819              		.loc 1 542 1
 820 000a 8280     		ret
 821              	.L64:
 540:../Peripheral/src/ch32v30x_i2c.c ****     }
 822              		.loc 1 540 9 is_stmt 1
 540:../Peripheral/src/ch32v30x_i2c.c ****     }
 823              		.loc 1 540 21 is_stmt 0
 824 000c C607     		slli	a5,a5,17
 825 000e C583     		srli	a5,a5,17
 826 0010 E5BF     		j	.L66
 827              		.cfi_endproc
 828              	.LFE46:
 830              		.section	.text.I2C_NACKPositionConfig,"ax",@progbits
 831              		.align	1
 832              		.globl	I2C_NACKPositionConfig
 834              	I2C_NACKPositionConfig:
 835              	.LFB47:
 543:../Peripheral/src/ch32v30x_i2c.c **** 
 544:../Peripheral/src/ch32v30x_i2c.c **** /*********************************************************************
 545:../Peripheral/src/ch32v30x_i2c.c ****  * @fn      I2C_NACKPositionConfig
 546:../Peripheral/src/ch32v30x_i2c.c ****  *
 547:../Peripheral/src/ch32v30x_i2c.c ****  * @brief   Selects the specified I2C NACK position in master receiver mode.
 548:../Peripheral/src/ch32v30x_i2c.c ****  *
 549:../Peripheral/src/ch32v30x_i2c.c ****  * @param   I2Cx - where x can be 1 or 2 to select the I2C peripheral.
 550:../Peripheral/src/ch32v30x_i2c.c ****  *          I2C_NACKPosition - specifies the NACK position.
 551:../Peripheral/src/ch32v30x_i2c.c ****  *            I2C_NACKPosition_Next - indicates that the next byte will be
 552:../Peripheral/src/ch32v30x_i2c.c ****  *        the last received byte.
 553:../Peripheral/src/ch32v30x_i2c.c ****  *            I2C_NACKPosition_Current - indicates that current byte is the
 554:../Peripheral/src/ch32v30x_i2c.c ****  *        last received byte.
 555:../Peripheral/src/ch32v30x_i2c.c ****  *       Note-    
 556:../Peripheral/src/ch32v30x_i2c.c ****  *          This function configures the same bit (POS) as I2C_PECPositionConfig() 
 557:../Peripheral/src/ch32v30x_i2c.c ****  *          but is intended to be used in I2C mode while I2C_PECPositionConfig() 
 558:../Peripheral/src/ch32v30x_i2c.c ****  *          is intended to used in SMBUS mode. 
 559:../Peripheral/src/ch32v30x_i2c.c ****  * @return  none
 560:../Peripheral/src/ch32v30x_i2c.c ****  */
 561:../Peripheral/src/ch32v30x_i2c.c **** void I2C_NACKPositionConfig(I2C_TypeDef *I2Cx, uint16_t I2C_NACKPosition)
 562:../Peripheral/src/ch32v30x_i2c.c **** {
 836              		.loc 1 562 1 is_stmt 1
 837              		.cfi_startproc
 838              	.LVL67:
 563:../Peripheral/src/ch32v30x_i2c.c ****     if(I2C_NACKPosition == I2C_NACKPosition_Next)
 839              		.loc 1 563 5
 564:../Peripheral/src/ch32v30x_i2c.c ****     {
 565:../Peripheral/src/ch32v30x_i2c.c ****         I2Cx->CTLR1 |= I2C_NACKPosition_Next;
 840              		.loc 1 565 13 is_stmt 0
 841 0000 1E21     		lhu	a5,0(a0)
 563:../Peripheral/src/ch32v30x_i2c.c ****     if(I2C_NACKPosition == I2C_NACKPosition_Next)
 842              		.loc 1 563 7
 843 0002 93850580 		addi	a1,a1,-2048
 844              	.LVL68:
 845 0006 89E9     		bne	a1,zero,.L68
 846              		.loc 1 565 9 is_stmt 1
 847              		.loc 1 565 21 is_stmt 0
 848 0008 0567     		li	a4,4096
 849 000a 13070780 		addi	a4,a4,-2048
 850 000e D98F     		or	a5,a5,a4
 851 0010 C207     		slli	a5,a5,16
 852 0012 C183     		srli	a5,a5,16
 853              	.L70:
 566:../Peripheral/src/ch32v30x_i2c.c ****     }
 567:../Peripheral/src/ch32v30x_i2c.c ****     else
 568:../Peripheral/src/ch32v30x_i2c.c ****     {
 569:../Peripheral/src/ch32v30x_i2c.c ****         I2Cx->CTLR1 &= I2C_NACKPosition_Current;
 854              		.loc 1 569 21
 855 0014 1EA1     		sh	a5,0(a0)
 570:../Peripheral/src/ch32v30x_i2c.c ****     }
 571:../Peripheral/src/ch32v30x_i2c.c **** }
 856              		.loc 1 571 1
 857 0016 8280     		ret
 858              	.L68:
 569:../Peripheral/src/ch32v30x_i2c.c ****     }
 859              		.loc 1 569 9 is_stmt 1
 569:../Peripheral/src/ch32v30x_i2c.c ****     }
 860              		.loc 1 569 21 is_stmt 0
 861 0018 7D77     		li	a4,-4096
 862 001a 1307F77F 		addi	a4,a4,2047
 863 001e F98F     		and	a5,a5,a4
 864 0020 D5BF     		j	.L70
 865              		.cfi_endproc
 866              	.LFE47:
 868              		.section	.text.I2C_SMBusAlertConfig,"ax",@progbits
 869              		.align	1
 870              		.globl	I2C_SMBusAlertConfig
 872              	I2C_SMBusAlertConfig:
 873              	.LFB48:
 572:../Peripheral/src/ch32v30x_i2c.c **** 
 573:../Peripheral/src/ch32v30x_i2c.c **** /*********************************************************************
 574:../Peripheral/src/ch32v30x_i2c.c ****  * @fn      I2C_SMBusAlertConfig
 575:../Peripheral/src/ch32v30x_i2c.c ****  *
 576:../Peripheral/src/ch32v30x_i2c.c ****  * @brief   Drives the SMBusAlert pin high or low for the specified I2C.
 577:../Peripheral/src/ch32v30x_i2c.c ****  *
 578:../Peripheral/src/ch32v30x_i2c.c ****  * @param   I2Cx - where x can be 1 or 2 to select the I2C peripheral.
 579:../Peripheral/src/ch32v30x_i2c.c ****  *          I2C_SMBusAlert - specifies SMBAlert pin level.
 580:../Peripheral/src/ch32v30x_i2c.c ****  *            I2C_SMBusAlert_Low - SMBAlert pin driven low.
 581:../Peripheral/src/ch32v30x_i2c.c ****  *            I2C_SMBusAlert_High - SMBAlert pin driven high.
 582:../Peripheral/src/ch32v30x_i2c.c ****  *
 583:../Peripheral/src/ch32v30x_i2c.c ****  * @return  none
 584:../Peripheral/src/ch32v30x_i2c.c ****  */
 585:../Peripheral/src/ch32v30x_i2c.c **** void I2C_SMBusAlertConfig(I2C_TypeDef *I2Cx, uint16_t I2C_SMBusAlert)
 586:../Peripheral/src/ch32v30x_i2c.c **** {
 874              		.loc 1 586 1 is_stmt 1
 875              		.cfi_startproc
 876              	.LVL69:
 587:../Peripheral/src/ch32v30x_i2c.c ****     if(I2C_SMBusAlert == I2C_SMBusAlert_Low)
 877              		.loc 1 587 5
 878              		.loc 1 587 7 is_stmt 0
 879 0000 8967     		li	a5,8192
 880 0002 6397F500 		bne	a1,a5,.L72
 588:../Peripheral/src/ch32v30x_i2c.c ****     {
 589:../Peripheral/src/ch32v30x_i2c.c ****         I2Cx->CTLR1 |= I2C_SMBusAlert_Low;
 881              		.loc 1 589 9 is_stmt 1
 882              		.loc 1 589 13 is_stmt 0
 883 0006 1E21     		lhu	a5,0(a0)
 884              		.loc 1 589 21
 885 0008 0967     		li	a4,8192
 886 000a D98F     		or	a5,a5,a4
 887              	.L74:
 590:../Peripheral/src/ch32v30x_i2c.c ****     }
 591:../Peripheral/src/ch32v30x_i2c.c ****     else
 592:../Peripheral/src/ch32v30x_i2c.c ****     {
 593:../Peripheral/src/ch32v30x_i2c.c ****         I2Cx->CTLR1 &= I2C_SMBusAlert_High;
 888              		.loc 1 593 21
 889 000c 1EA1     		sh	a5,0(a0)
 594:../Peripheral/src/ch32v30x_i2c.c ****     }
 595:../Peripheral/src/ch32v30x_i2c.c **** }
 890              		.loc 1 595 1
 891 000e 8280     		ret
 892              	.L72:
 593:../Peripheral/src/ch32v30x_i2c.c ****     }
 893              		.loc 1 593 9 is_stmt 1
 593:../Peripheral/src/ch32v30x_i2c.c ****     }
 894              		.loc 1 593 13 is_stmt 0
 895 0010 1E21     		lhu	a5,0(a0)
 593:../Peripheral/src/ch32v30x_i2c.c ****     }
 896              		.loc 1 593 21
 897 0012 7977     		li	a4,-8192
 898 0014 7D17     		addi	a4,a4,-1
 899 0016 F98F     		and	a5,a5,a4
 900 0018 D5BF     		j	.L74
 901              		.cfi_endproc
 902              	.LFE48:
 904              		.section	.text.I2C_TransmitPEC,"ax",@progbits
 905              		.align	1
 906              		.globl	I2C_TransmitPEC
 908              	I2C_TransmitPEC:
 909              	.LFB49:
 596:../Peripheral/src/ch32v30x_i2c.c **** 
 597:../Peripheral/src/ch32v30x_i2c.c **** /*********************************************************************
 598:../Peripheral/src/ch32v30x_i2c.c ****  * @fn      I2C_TransmitPEC
 599:../Peripheral/src/ch32v30x_i2c.c ****  *
 600:../Peripheral/src/ch32v30x_i2c.c ****  * @brief   Enables or disables the specified I2C PEC transfer.
 601:../Peripheral/src/ch32v30x_i2c.c ****  *
 602:../Peripheral/src/ch32v30x_i2c.c ****  * @param   I2Cx - where x can be 1 or 2 to select the I2C peripheral.
 603:../Peripheral/src/ch32v30x_i2c.c ****  *          NewState - ENABLE or DISABLE.
 604:../Peripheral/src/ch32v30x_i2c.c ****  *
 605:../Peripheral/src/ch32v30x_i2c.c ****  * @return  none
 606:../Peripheral/src/ch32v30x_i2c.c ****  */
 607:../Peripheral/src/ch32v30x_i2c.c **** void I2C_TransmitPEC(I2C_TypeDef *I2Cx, FunctionalState NewState)
 608:../Peripheral/src/ch32v30x_i2c.c **** {
 910              		.loc 1 608 1 is_stmt 1
 911              		.cfi_startproc
 912              	.LVL70:
 609:../Peripheral/src/ch32v30x_i2c.c ****     if(NewState != DISABLE)
 913              		.loc 1 609 5
 610:../Peripheral/src/ch32v30x_i2c.c ****     {
 611:../Peripheral/src/ch32v30x_i2c.c ****         I2Cx->CTLR1 |= CTLR1_PEC_Set;
 914              		.loc 1 611 13 is_stmt 0
 915 0000 1E21     		lhu	a5,0(a0)
 609:../Peripheral/src/ch32v30x_i2c.c ****     if(NewState != DISABLE)
 916              		.loc 1 609 7
 917 0002 89C5     		beq	a1,zero,.L76
 918              		.loc 1 611 9 is_stmt 1
 919              		.loc 1 611 21 is_stmt 0
 920 0004 0567     		li	a4,4096
 921 0006 D98F     		or	a5,a5,a4
 922              	.L78:
 612:../Peripheral/src/ch32v30x_i2c.c ****     }
 613:../Peripheral/src/ch32v30x_i2c.c ****     else
 614:../Peripheral/src/ch32v30x_i2c.c ****     {
 615:../Peripheral/src/ch32v30x_i2c.c ****         I2Cx->CTLR1 &= CTLR1_PEC_Reset;
 923              		.loc 1 615 21
 924 0008 1EA1     		sh	a5,0(a0)
 616:../Peripheral/src/ch32v30x_i2c.c ****     }
 617:../Peripheral/src/ch32v30x_i2c.c **** }
 925              		.loc 1 617 1
 926 000a 8280     		ret
 927              	.L76:
 615:../Peripheral/src/ch32v30x_i2c.c ****     }
 928              		.loc 1 615 9 is_stmt 1
 615:../Peripheral/src/ch32v30x_i2c.c ****     }
 929              		.loc 1 615 21 is_stmt 0
 930 000c 7D77     		li	a4,-4096
 931 000e 7D17     		addi	a4,a4,-1
 932 0010 F98F     		and	a5,a5,a4
 933 0012 DDBF     		j	.L78
 934              		.cfi_endproc
 935              	.LFE49:
 937              		.section	.text.I2C_PECPositionConfig,"ax",@progbits
 938              		.align	1
 939              		.globl	I2C_PECPositionConfig
 941              	I2C_PECPositionConfig:
 942              	.LFB63:
 943              		.cfi_startproc
 618:../Peripheral/src/ch32v30x_i2c.c **** 
 619:../Peripheral/src/ch32v30x_i2c.c **** /*********************************************************************
 620:../Peripheral/src/ch32v30x_i2c.c ****  * @fn      I2C_PECPositionConfig
 621:../Peripheral/src/ch32v30x_i2c.c ****  *
 622:../Peripheral/src/ch32v30x_i2c.c ****  * @brief   Selects the specified I2C PEC position.
 623:../Peripheral/src/ch32v30x_i2c.c ****  *
 624:../Peripheral/src/ch32v30x_i2c.c ****  * @param   I2Cx - where x can be 1 or 2 to select the I2C peripheral.
 625:../Peripheral/src/ch32v30x_i2c.c ****  *          I2C_PECPosition - specifies the PEC position.
 626:../Peripheral/src/ch32v30x_i2c.c ****  *            I2C_PECPosition_Next - indicates that the next byte is PEC.
 627:../Peripheral/src/ch32v30x_i2c.c ****  *            I2C_PECPosition_Current - indicates that current byte is PEC.
 628:../Peripheral/src/ch32v30x_i2c.c ****  *
 629:../Peripheral/src/ch32v30x_i2c.c ****  * @return  none
 630:../Peripheral/src/ch32v30x_i2c.c ****  */
 631:../Peripheral/src/ch32v30x_i2c.c **** void I2C_PECPositionConfig(I2C_TypeDef *I2Cx, uint16_t I2C_PECPosition)
 944              		.loc 1 631 6 is_stmt 1
 945 0000 17030000 		tail	I2C_NACKPositionConfig
 945      67000300 
 946              		.cfi_endproc
 947              	.LFE63:
 949              		.section	.text.I2C_CalculatePEC,"ax",@progbits
 950              		.align	1
 951              		.globl	I2C_CalculatePEC
 953              	I2C_CalculatePEC:
 954              	.LFB51:
 632:../Peripheral/src/ch32v30x_i2c.c **** {
 633:../Peripheral/src/ch32v30x_i2c.c ****     if(I2C_PECPosition == I2C_PECPosition_Next)
 634:../Peripheral/src/ch32v30x_i2c.c ****     {
 635:../Peripheral/src/ch32v30x_i2c.c ****         I2Cx->CTLR1 |= I2C_PECPosition_Next;
 636:../Peripheral/src/ch32v30x_i2c.c ****     }
 637:../Peripheral/src/ch32v30x_i2c.c ****     else
 638:../Peripheral/src/ch32v30x_i2c.c ****     {
 639:../Peripheral/src/ch32v30x_i2c.c ****         I2Cx->CTLR1 &= I2C_PECPosition_Current;
 640:../Peripheral/src/ch32v30x_i2c.c ****     }
 641:../Peripheral/src/ch32v30x_i2c.c **** }
 642:../Peripheral/src/ch32v30x_i2c.c **** 
 643:../Peripheral/src/ch32v30x_i2c.c **** /*********************************************************************
 644:../Peripheral/src/ch32v30x_i2c.c ****  * @fn      I2C_CalculatePEC
 645:../Peripheral/src/ch32v30x_i2c.c ****  *
 646:../Peripheral/src/ch32v30x_i2c.c ****  * @brief   Enables or disables the PEC value calculation of the transferred bytes.
 647:../Peripheral/src/ch32v30x_i2c.c ****  *
 648:../Peripheral/src/ch32v30x_i2c.c ****  * @param   I2Cx- where x can be 1 or 2 to select the I2C peripheral.
 649:../Peripheral/src/ch32v30x_i2c.c ****  *          NewState - ENABLE or DISABLE.
 650:../Peripheral/src/ch32v30x_i2c.c ****  *
 651:../Peripheral/src/ch32v30x_i2c.c ****  * @return  none
 652:../Peripheral/src/ch32v30x_i2c.c ****  */
 653:../Peripheral/src/ch32v30x_i2c.c **** void I2C_CalculatePEC(I2C_TypeDef *I2Cx, FunctionalState NewState)
 654:../Peripheral/src/ch32v30x_i2c.c **** {
 955              		.loc 1 654 1
 956              		.cfi_startproc
 957              	.LVL71:
 655:../Peripheral/src/ch32v30x_i2c.c ****     if(NewState != DISABLE)
 958              		.loc 1 655 5
 656:../Peripheral/src/ch32v30x_i2c.c ****     {
 657:../Peripheral/src/ch32v30x_i2c.c ****         I2Cx->CTLR1 |= CTLR1_ENPEC_Set;
 959              		.loc 1 657 13 is_stmt 0
 960 0000 1E21     		lhu	a5,0(a0)
 655:../Peripheral/src/ch32v30x_i2c.c ****     if(NewState != DISABLE)
 961              		.loc 1 655 7
 962 0002 89C5     		beq	a1,zero,.L82
 963              		.loc 1 657 9 is_stmt 1
 964              		.loc 1 657 21 is_stmt 0
 965 0004 93E70702 		ori	a5,a5,32
 966              	.L84:
 658:../Peripheral/src/ch32v30x_i2c.c ****     }
 659:../Peripheral/src/ch32v30x_i2c.c ****     else
 660:../Peripheral/src/ch32v30x_i2c.c ****     {
 661:../Peripheral/src/ch32v30x_i2c.c ****         I2Cx->CTLR1 &= CTLR1_ENPEC_Reset;
 967              		.loc 1 661 21
 968 0008 1EA1     		sh	a5,0(a0)
 662:../Peripheral/src/ch32v30x_i2c.c ****     }
 663:../Peripheral/src/ch32v30x_i2c.c **** }
 969              		.loc 1 663 1
 970 000a 8280     		ret
 971              	.L82:
 661:../Peripheral/src/ch32v30x_i2c.c ****     }
 972              		.loc 1 661 9 is_stmt 1
 661:../Peripheral/src/ch32v30x_i2c.c ****     }
 973              		.loc 1 661 13 is_stmt 0
 974 000c C207     		slli	a5,a5,16
 975 000e C183     		srli	a5,a5,16
 661:../Peripheral/src/ch32v30x_i2c.c ****     }
 976              		.loc 1 661 21
 977 0010 93F7F7FD 		andi	a5,a5,-33
 978 0014 C207     		slli	a5,a5,16
 979 0016 C183     		srli	a5,a5,16
 980 0018 C5BF     		j	.L84
 981              		.cfi_endproc
 982              	.LFE51:
 984              		.section	.text.I2C_GetPEC,"ax",@progbits
 985              		.align	1
 986              		.globl	I2C_GetPEC
 988              	I2C_GetPEC:
 989              	.LFB52:
 664:../Peripheral/src/ch32v30x_i2c.c **** 
 665:../Peripheral/src/ch32v30x_i2c.c **** /*********************************************************************
 666:../Peripheral/src/ch32v30x_i2c.c ****  * @fn      I2C_GetPEC
 667:../Peripheral/src/ch32v30x_i2c.c ****  *
 668:../Peripheral/src/ch32v30x_i2c.c ****  * @brief   Returns the PEC value for the specified I2C.
 669:../Peripheral/src/ch32v30x_i2c.c ****  *
 670:../Peripheral/src/ch32v30x_i2c.c ****  * @param   I2Cx - where x can be 1 or 2 to select the I2C peripheral.
 671:../Peripheral/src/ch32v30x_i2c.c ****  *
 672:../Peripheral/src/ch32v30x_i2c.c ****  * @return  The PEC value.
 673:../Peripheral/src/ch32v30x_i2c.c ****  */
 674:../Peripheral/src/ch32v30x_i2c.c **** uint8_t I2C_GetPEC(I2C_TypeDef *I2Cx)
 675:../Peripheral/src/ch32v30x_i2c.c **** {
 990              		.loc 1 675 1 is_stmt 1
 991              		.cfi_startproc
 992              	.LVL72:
 676:../Peripheral/src/ch32v30x_i2c.c ****     return ((I2Cx->STAR2) >> 8);
 993              		.loc 1 676 5
 994              		.loc 1 676 18 is_stmt 0
 995 0000 0A2D     		lhu	a0,24(a0)
 996              	.LVL73:
 677:../Peripheral/src/ch32v30x_i2c.c **** }
 997              		.loc 1 677 1
 998 0002 2181     		srli	a0,a0,8
 999 0004 8280     		ret
 1000              		.cfi_endproc
 1001              	.LFE52:
 1003              		.section	.text.I2C_ARPCmd,"ax",@progbits
 1004              		.align	1
 1005              		.globl	I2C_ARPCmd
 1007              	I2C_ARPCmd:
 1008              	.LFB53:
 678:../Peripheral/src/ch32v30x_i2c.c **** 
 679:../Peripheral/src/ch32v30x_i2c.c **** /*********************************************************************
 680:../Peripheral/src/ch32v30x_i2c.c ****  * @fn      I2C_ARPCmd
 681:../Peripheral/src/ch32v30x_i2c.c ****  *
 682:../Peripheral/src/ch32v30x_i2c.c ****  * @brief   Enables or disables the specified I2C ARP.
 683:../Peripheral/src/ch32v30x_i2c.c ****  *
 684:../Peripheral/src/ch32v30x_i2c.c ****  * @param   I2Cx - where x can be 1 or 2 to select the I2C peripheral.
 685:../Peripheral/src/ch32v30x_i2c.c ****  *            NewState - ENABLE or DISABLE.
 686:../Peripheral/src/ch32v30x_i2c.c ****  *
 687:../Peripheral/src/ch32v30x_i2c.c ****  * @return  The PEC value.
 688:../Peripheral/src/ch32v30x_i2c.c ****  */
 689:../Peripheral/src/ch32v30x_i2c.c **** void I2C_ARPCmd(I2C_TypeDef *I2Cx, FunctionalState NewState)
 690:../Peripheral/src/ch32v30x_i2c.c **** {
 1009              		.loc 1 690 1 is_stmt 1
 1010              		.cfi_startproc
 1011              	.LVL74:
 691:../Peripheral/src/ch32v30x_i2c.c ****     if(NewState != DISABLE)
 1012              		.loc 1 691 5
 692:../Peripheral/src/ch32v30x_i2c.c ****     {
 693:../Peripheral/src/ch32v30x_i2c.c ****         I2Cx->CTLR1 |= CTLR1_ENARP_Set;
 1013              		.loc 1 693 13 is_stmt 0
 1014 0000 1E21     		lhu	a5,0(a0)
 691:../Peripheral/src/ch32v30x_i2c.c ****     if(NewState != DISABLE)
 1015              		.loc 1 691 7
 1016 0002 89C5     		beq	a1,zero,.L87
 1017              		.loc 1 693 9 is_stmt 1
 1018              		.loc 1 693 21 is_stmt 0
 1019 0004 93E70701 		ori	a5,a5,16
 1020              	.L89:
 694:../Peripheral/src/ch32v30x_i2c.c ****     }
 695:../Peripheral/src/ch32v30x_i2c.c ****     else
 696:../Peripheral/src/ch32v30x_i2c.c ****     {
 697:../Peripheral/src/ch32v30x_i2c.c ****         I2Cx->CTLR1 &= CTLR1_ENARP_Reset;
 1021              		.loc 1 697 21
 1022 0008 1EA1     		sh	a5,0(a0)
 698:../Peripheral/src/ch32v30x_i2c.c ****     }
 699:../Peripheral/src/ch32v30x_i2c.c **** }
 1023              		.loc 1 699 1
 1024 000a 8280     		ret
 1025              	.L87:
 697:../Peripheral/src/ch32v30x_i2c.c ****     }
 1026              		.loc 1 697 9 is_stmt 1
 697:../Peripheral/src/ch32v30x_i2c.c ****     }
 1027              		.loc 1 697 13 is_stmt 0
 1028 000c C207     		slli	a5,a5,16
 1029 000e C183     		srli	a5,a5,16
 697:../Peripheral/src/ch32v30x_i2c.c ****     }
 1030              		.loc 1 697 21
 1031 0010 BD9B     		andi	a5,a5,-17
 1032 0012 C207     		slli	a5,a5,16
 1033 0014 C183     		srli	a5,a5,16
 1034 0016 CDBF     		j	.L89
 1035              		.cfi_endproc
 1036              	.LFE53:
 1038              		.section	.text.I2C_StretchClockCmd,"ax",@progbits
 1039              		.align	1
 1040              		.globl	I2C_StretchClockCmd
 1042              	I2C_StretchClockCmd:
 1043              	.LFB54:
 700:../Peripheral/src/ch32v30x_i2c.c **** 
 701:../Peripheral/src/ch32v30x_i2c.c **** /*********************************************************************
 702:../Peripheral/src/ch32v30x_i2c.c ****  * @fn      I2C_StretchClockCmd
 703:../Peripheral/src/ch32v30x_i2c.c ****  *
 704:../Peripheral/src/ch32v30x_i2c.c ****  * @brief   Enables or disables the specified I2C Clock stretching.
 705:../Peripheral/src/ch32v30x_i2c.c ****  *
 706:../Peripheral/src/ch32v30x_i2c.c ****  * @param   I2Cx - where x can be 1 or 2 to select the I2C peripheral.
 707:../Peripheral/src/ch32v30x_i2c.c ****  *          NewState - ENABLE or DISABLE.
 708:../Peripheral/src/ch32v30x_i2c.c ****  *
 709:../Peripheral/src/ch32v30x_i2c.c ****  * @return  none
 710:../Peripheral/src/ch32v30x_i2c.c ****  */
 711:../Peripheral/src/ch32v30x_i2c.c **** void I2C_StretchClockCmd(I2C_TypeDef *I2Cx, FunctionalState NewState)
 712:../Peripheral/src/ch32v30x_i2c.c **** {
 1044              		.loc 1 712 1 is_stmt 1
 1045              		.cfi_startproc
 1046              	.LVL75:
 713:../Peripheral/src/ch32v30x_i2c.c ****     if(NewState == DISABLE)
 1047              		.loc 1 713 5
 714:../Peripheral/src/ch32v30x_i2c.c ****     {
 715:../Peripheral/src/ch32v30x_i2c.c ****         I2Cx->CTLR1 |= CTLR1_NOSTRETCH_Set;
 1048              		.loc 1 715 13 is_stmt 0
 1049 0000 1E21     		lhu	a5,0(a0)
 713:../Peripheral/src/ch32v30x_i2c.c ****     if(NewState == DISABLE)
 1050              		.loc 1 713 7
 1051 0002 89E5     		bne	a1,zero,.L91
 1052              		.loc 1 715 9 is_stmt 1
 1053              		.loc 1 715 21 is_stmt 0
 1054 0004 93E70708 		ori	a5,a5,128
 1055              	.L93:
 716:../Peripheral/src/ch32v30x_i2c.c ****     }
 717:../Peripheral/src/ch32v30x_i2c.c ****     else
 718:../Peripheral/src/ch32v30x_i2c.c ****     {
 719:../Peripheral/src/ch32v30x_i2c.c ****         I2Cx->CTLR1 &= CTLR1_NOSTRETCH_Reset;
 1056              		.loc 1 719 21
 1057 0008 1EA1     		sh	a5,0(a0)
 720:../Peripheral/src/ch32v30x_i2c.c ****     }
 721:../Peripheral/src/ch32v30x_i2c.c **** }
 1058              		.loc 1 721 1
 1059 000a 8280     		ret
 1060              	.L91:
 719:../Peripheral/src/ch32v30x_i2c.c ****     }
 1061              		.loc 1 719 9 is_stmt 1
 719:../Peripheral/src/ch32v30x_i2c.c ****     }
 1062              		.loc 1 719 13 is_stmt 0
 1063 000c C207     		slli	a5,a5,16
 1064 000e C183     		srli	a5,a5,16
 719:../Peripheral/src/ch32v30x_i2c.c ****     }
 1065              		.loc 1 719 21
 1066 0010 93F7F7F7 		andi	a5,a5,-129
 1067 0014 C207     		slli	a5,a5,16
 1068 0016 C183     		srli	a5,a5,16
 1069 0018 C5BF     		j	.L93
 1070              		.cfi_endproc
 1071              	.LFE54:
 1073              		.section	.text.I2C_FastModeDutyCycleConfig,"ax",@progbits
 1074              		.align	1
 1075              		.globl	I2C_FastModeDutyCycleConfig
 1077              	I2C_FastModeDutyCycleConfig:
 1078              	.LFB55:
 722:../Peripheral/src/ch32v30x_i2c.c **** 
 723:../Peripheral/src/ch32v30x_i2c.c **** /*********************************************************************
 724:../Peripheral/src/ch32v30x_i2c.c ****  * @fn      I2C_FastModeDutyCycleConfig
 725:../Peripheral/src/ch32v30x_i2c.c ****  *
 726:../Peripheral/src/ch32v30x_i2c.c ****  * @brief   Selects the specified I2C fast mode duty cycle.
 727:../Peripheral/src/ch32v30x_i2c.c ****  *
 728:../Peripheral/src/ch32v30x_i2c.c ****  * @param   I2Cx - where x can be 1 or 2 to select the I2C peripheral.
 729:../Peripheral/src/ch32v30x_i2c.c ****  *          I2C_DutyCycle - specifies the fast mode duty cycle.
 730:../Peripheral/src/ch32v30x_i2c.c ****  *            I2C_DutyCycle_2 - I2C fast mode Tlow/Thigh = 2.
 731:../Peripheral/src/ch32v30x_i2c.c ****  *            I2C_DutyCycle_16_9 - I2C fast mode Tlow/Thigh = 16/9.
 732:../Peripheral/src/ch32v30x_i2c.c ****  *
 733:../Peripheral/src/ch32v30x_i2c.c ****  * @return  none
 734:../Peripheral/src/ch32v30x_i2c.c ****  */
 735:../Peripheral/src/ch32v30x_i2c.c **** void I2C_FastModeDutyCycleConfig(I2C_TypeDef *I2Cx, uint16_t I2C_DutyCycle)
 736:../Peripheral/src/ch32v30x_i2c.c **** {
 1079              		.loc 1 736 1 is_stmt 1
 1080              		.cfi_startproc
 1081              	.LVL76:
 737:../Peripheral/src/ch32v30x_i2c.c ****     if(I2C_DutyCycle != I2C_DutyCycle_16_9)
 1082              		.loc 1 737 5
 1083              		.loc 1 737 7 is_stmt 0
 1084 0000 9167     		li	a5,16384
 1085 0002 6388F500 		beq	a1,a5,.L95
 738:../Peripheral/src/ch32v30x_i2c.c ****     {
 739:../Peripheral/src/ch32v30x_i2c.c ****         I2Cx->CKCFGR &= I2C_DutyCycle_2;
 1086              		.loc 1 739 9 is_stmt 1
 1087              		.loc 1 739 13 is_stmt 0
 1088 0006 5E2D     		lhu	a5,28(a0)
 1089              		.loc 1 739 22
 1090 0008 7177     		li	a4,-16384
 1091 000a 7D17     		addi	a4,a4,-1
 1092 000c F98F     		and	a5,a5,a4
 1093              	.L97:
 740:../Peripheral/src/ch32v30x_i2c.c ****     }
 741:../Peripheral/src/ch32v30x_i2c.c ****     else
 742:../Peripheral/src/ch32v30x_i2c.c ****     {
 743:../Peripheral/src/ch32v30x_i2c.c ****         I2Cx->CKCFGR |= I2C_DutyCycle_16_9;
 1094              		.loc 1 743 22
 1095 000e 5EAD     		sh	a5,28(a0)
 744:../Peripheral/src/ch32v30x_i2c.c ****     }
 745:../Peripheral/src/ch32v30x_i2c.c **** }
 1096              		.loc 1 745 1
 1097 0010 8280     		ret
 1098              	.L95:
 743:../Peripheral/src/ch32v30x_i2c.c ****     }
 1099              		.loc 1 743 9 is_stmt 1
 743:../Peripheral/src/ch32v30x_i2c.c ****     }
 1100              		.loc 1 743 13 is_stmt 0
 1101 0012 5E2D     		lhu	a5,28(a0)
 743:../Peripheral/src/ch32v30x_i2c.c ****     }
 1102              		.loc 1 743 22
 1103 0014 1167     		li	a4,16384
 1104 0016 D98F     		or	a5,a5,a4
 1105 0018 DDBF     		j	.L97
 1106              		.cfi_endproc
 1107              	.LFE55:
 1109              		.section	.text.I2C_CheckEvent,"ax",@progbits
 1110              		.align	1
 1111              		.globl	I2C_CheckEvent
 1113              	I2C_CheckEvent:
 1114              	.LFB56:
 746:../Peripheral/src/ch32v30x_i2c.c **** 
 747:../Peripheral/src/ch32v30x_i2c.c **** /*********************************************************************
 748:../Peripheral/src/ch32v30x_i2c.c ****  * @fn      I2C_CheckEvent
 749:../Peripheral/src/ch32v30x_i2c.c ****  *
 750:../Peripheral/src/ch32v30x_i2c.c ****  * @brief   Checks whether the last I2Cx Event is equal to the one passed
 751:../Peripheral/src/ch32v30x_i2c.c ****  *        as parameter.
 752:../Peripheral/src/ch32v30x_i2c.c ****  *
 753:../Peripheral/src/ch32v30x_i2c.c ****  * @param   I2Cx- where x can be 1 or 2 to select the I2C peripheral.
 754:../Peripheral/src/ch32v30x_i2c.c ****  *          I2C_EVENT: specifies the event to be checked.
 755:../Peripheral/src/ch32v30x_i2c.c ****  *             I2C_EVENT_SLAVE_TRANSMITTER_ADDRESS_MATCHED - EVT1.
 756:../Peripheral/src/ch32v30x_i2c.c ****  *             I2C_EVENT_SLAVE_RECEIVER_ADDRESS_MATCHED - EVT1.
 757:../Peripheral/src/ch32v30x_i2c.c ****  *             I2C_EVENT_SLAVE_TRANSMITTER_SECONDADDRESS_MATCHED - EVT1.
 758:../Peripheral/src/ch32v30x_i2c.c ****  *             I2C_EVENT_SLAVE_RECEIVER_SECONDADDRESS_MATCHED - EVT1.
 759:../Peripheral/src/ch32v30x_i2c.c ****  *             I2C_EVENT_SLAVE_GENERALCALLADDRESS_MATCHED - EVT1.
 760:../Peripheral/src/ch32v30x_i2c.c ****  *             I2C_EVENT_SLAVE_BYTE_RECEIVED - EVT2.
 761:../Peripheral/src/ch32v30x_i2c.c ****  *             (I2C_EVENT_SLAVE_BYTE_RECEIVED | I2C_FLAG_DUALF) - EVT2.
 762:../Peripheral/src/ch32v30x_i2c.c ****  *             (I2C_EVENT_SLAVE_BYTE_RECEIVED | I2C_FLAG_GENCALL) - EVT2.
 763:../Peripheral/src/ch32v30x_i2c.c ****  *             I2C_EVENT_SLAVE_BYTE_TRANSMITTED - EVT3.
 764:../Peripheral/src/ch32v30x_i2c.c ****  *             (I2C_EVENT_SLAVE_BYTE_TRANSMITTED | I2C_FLAG_DUALF) - EVT3.
 765:../Peripheral/src/ch32v30x_i2c.c ****  *             (I2C_EVENT_SLAVE_BYTE_TRANSMITTED | I2C_FLAG_GENCALL) - EVT3.
 766:../Peripheral/src/ch32v30x_i2c.c ****  *             I2C_EVENT_SLAVE_ACK_FAILURE - EVT3_2.
 767:../Peripheral/src/ch32v30x_i2c.c ****  *             I2C_EVENT_SLAVE_STOP_DETECTED - EVT4.
 768:../Peripheral/src/ch32v30x_i2c.c ****  *             I2C_EVENT_MASTER_MODE_SELECT - EVT5.
 769:../Peripheral/src/ch32v30x_i2c.c ****  *             I2C_EVENT_MASTER_TRANSMITTER_MODE_SELECTED - EVT6.
 770:../Peripheral/src/ch32v30x_i2c.c ****  *             I2C_EVENT_MASTER_RECEIVER_MODE_SELECTED - EVT6.
 771:../Peripheral/src/ch32v30x_i2c.c ****  *             I2C_EVENT_MASTER_BYTE_RECEIVED - EVT7.
 772:../Peripheral/src/ch32v30x_i2c.c ****  *             I2C_EVENT_MASTER_BYTE_TRANSMITTING - EVT8.
 773:../Peripheral/src/ch32v30x_i2c.c ****  *             I2C_EVENT_MASTER_BYTE_TRANSMITTED - EVT8_2.
 774:../Peripheral/src/ch32v30x_i2c.c ****  *             I2C_EVENT_MASTER_MODE_ADDRESS10 - EVT9.
 775:../Peripheral/src/ch32v30x_i2c.c ****  *
 776:../Peripheral/src/ch32v30x_i2c.c ****  * @return  ErrorStatus - READY or NoREADY.
 777:../Peripheral/src/ch32v30x_i2c.c ****  */
 778:../Peripheral/src/ch32v30x_i2c.c **** ErrorStatus I2C_CheckEvent(I2C_TypeDef *I2Cx, uint32_t I2C_EVENT)
 779:../Peripheral/src/ch32v30x_i2c.c **** {
 1115              		.loc 1 779 1 is_stmt 1
 1116              		.cfi_startproc
 1117              	.LVL77:
 780:../Peripheral/src/ch32v30x_i2c.c ****     uint32_t    lastevent = 0;
 1118              		.loc 1 780 5
 781:../Peripheral/src/ch32v30x_i2c.c ****     uint32_t    flag1 = 0, flag2 = 0;
 1119              		.loc 1 781 5
 782:../Peripheral/src/ch32v30x_i2c.c ****     ErrorStatus status = NoREADY;
 1120              		.loc 1 782 5
 783:../Peripheral/src/ch32v30x_i2c.c **** 
 784:../Peripheral/src/ch32v30x_i2c.c ****     flag1 = I2Cx->STAR1;
 1121              		.loc 1 784 5
 1122              		.loc 1 784 17 is_stmt 0
 1123 0000 5E29     		lhu	a5,20(a0)
 1124              	.LVL78:
 785:../Peripheral/src/ch32v30x_i2c.c ****     flag2 = I2Cx->STAR2;
 1125              		.loc 1 785 5 is_stmt 1
 1126              		.loc 1 785 17 is_stmt 0
 1127 0002 0A2D     		lhu	a0,24(a0)
 1128              	.LVL79:
 786:../Peripheral/src/ch32v30x_i2c.c ****     flag2 = flag2 << 16;
 1129              		.loc 1 786 5 is_stmt 1
 787:../Peripheral/src/ch32v30x_i2c.c **** 
 788:../Peripheral/src/ch32v30x_i2c.c ****     lastevent = (flag1 | flag2) & FLAG_Mask;
 1130              		.loc 1 788 5
 789:../Peripheral/src/ch32v30x_i2c.c **** 
 790:../Peripheral/src/ch32v30x_i2c.c ****     if((lastevent & I2C_EVENT) == I2C_EVENT)
 1131              		.loc 1 790 5
 791:../Peripheral/src/ch32v30x_i2c.c ****     {
 792:../Peripheral/src/ch32v30x_i2c.c ****         status = READY;
 793:../Peripheral/src/ch32v30x_i2c.c ****     }
 794:../Peripheral/src/ch32v30x_i2c.c ****     else
 795:../Peripheral/src/ch32v30x_i2c.c ****     {
 796:../Peripheral/src/ch32v30x_i2c.c ****         status = NoREADY;
 797:../Peripheral/src/ch32v30x_i2c.c ****     }
 798:../Peripheral/src/ch32v30x_i2c.c **** 
 799:../Peripheral/src/ch32v30x_i2c.c ****     return status;
 1132              		.loc 1 799 5
 786:../Peripheral/src/ch32v30x_i2c.c **** 
 1133              		.loc 1 786 11 is_stmt 0
 1134 0004 4205     		slli	a0,a0,16
 1135              	.LVL80:
 788:../Peripheral/src/ch32v30x_i2c.c **** 
 1136              		.loc 1 788 24
 1137 0006 5D8D     		or	a0,a0,a5
 1138              	.LVL81:
 790:../Peripheral/src/ch32v30x_i2c.c ****     {
 1139              		.loc 1 790 19
 1140 0008 6D8D     		and	a0,a0,a1
 1141              	.LVL82:
 1142 000a 2205     		slli	a0,a0,8
 1143 000c 2181     		srli	a0,a0,8
 790:../Peripheral/src/ch32v30x_i2c.c ****     {
 1144              		.loc 1 790 7
 1145 000e 0D8D     		sub	a0,a0,a1
 800:../Peripheral/src/ch32v30x_i2c.c **** }
 1146              		.loc 1 800 1
 1147 0010 13351500 		seqz	a0,a0
 1148 0014 8280     		ret
 1149              		.cfi_endproc
 1150              	.LFE56:
 1152              		.section	.text.I2C_GetLastEvent,"ax",@progbits
 1153              		.align	1
 1154              		.globl	I2C_GetLastEvent
 1156              	I2C_GetLastEvent:
 1157              	.LFB57:
 801:../Peripheral/src/ch32v30x_i2c.c **** 
 802:../Peripheral/src/ch32v30x_i2c.c **** /*********************************************************************
 803:../Peripheral/src/ch32v30x_i2c.c ****  * @fn      I2C_GetLastEvent
 804:../Peripheral/src/ch32v30x_i2c.c ****  *
 805:../Peripheral/src/ch32v30x_i2c.c ****  * @brief   Returns the last I2Cx Event.
 806:../Peripheral/src/ch32v30x_i2c.c ****  *
 807:../Peripheral/src/ch32v30x_i2c.c ****  * @param   I2Cx - where x can be 1 or 2 to select the I2C peripheral.
 808:../Peripheral/src/ch32v30x_i2c.c ****  *
 809:../Peripheral/src/ch32v30x_i2c.c ****  * @return  none
 810:../Peripheral/src/ch32v30x_i2c.c ****  */
 811:../Peripheral/src/ch32v30x_i2c.c **** uint32_t I2C_GetLastEvent(I2C_TypeDef *I2Cx)
 812:../Peripheral/src/ch32v30x_i2c.c **** {
 1158              		.loc 1 812 1 is_stmt 1
 1159              		.cfi_startproc
 1160              	.LVL83:
 813:../Peripheral/src/ch32v30x_i2c.c ****     uint32_t lastevent = 0;
 1161              		.loc 1 813 5
 814:../Peripheral/src/ch32v30x_i2c.c ****     uint32_t flag1 = 0, flag2 = 0;
 1162              		.loc 1 814 5
 815:../Peripheral/src/ch32v30x_i2c.c **** 
 816:../Peripheral/src/ch32v30x_i2c.c ****     flag1 = I2Cx->STAR1;
 1163              		.loc 1 816 5
 1164              		.loc 1 816 17 is_stmt 0
 1165 0000 5E29     		lhu	a5,20(a0)
 1166              	.LVL84:
 817:../Peripheral/src/ch32v30x_i2c.c ****     flag2 = I2Cx->STAR2;
 1167              		.loc 1 817 5 is_stmt 1
 1168              		.loc 1 817 17 is_stmt 0
 1169 0002 0A2D     		lhu	a0,24(a0)
 1170              	.LVL85:
 818:../Peripheral/src/ch32v30x_i2c.c ****     flag2 = flag2 << 16;
 1171              		.loc 1 818 5 is_stmt 1
 819:../Peripheral/src/ch32v30x_i2c.c ****     lastevent = (flag1 | flag2) & FLAG_Mask;
 1172              		.loc 1 819 5
 820:../Peripheral/src/ch32v30x_i2c.c **** 
 821:../Peripheral/src/ch32v30x_i2c.c ****     return lastevent;
 1173              		.loc 1 821 5
 818:../Peripheral/src/ch32v30x_i2c.c ****     lastevent = (flag1 | flag2) & FLAG_Mask;
 1174              		.loc 1 818 11 is_stmt 0
 1175 0004 4205     		slli	a0,a0,16
 1176              	.LVL86:
 819:../Peripheral/src/ch32v30x_i2c.c ****     lastevent = (flag1 | flag2) & FLAG_Mask;
 1177              		.loc 1 819 24
 1178 0006 5D8D     		or	a0,a0,a5
 1179              	.LVL87:
 819:../Peripheral/src/ch32v30x_i2c.c ****     lastevent = (flag1 | flag2) & FLAG_Mask;
 1180              		.loc 1 819 15
 1181 0008 2205     		slli	a0,a0,8
 822:../Peripheral/src/ch32v30x_i2c.c **** }
 1182              		.loc 1 822 1
 1183 000a 2181     		srli	a0,a0,8
 1184 000c 8280     		ret
 1185              		.cfi_endproc
 1186              	.LFE57:
 1188              		.section	.text.I2C_GetFlagStatus,"ax",@progbits
 1189              		.align	1
 1190              		.globl	I2C_GetFlagStatus
 1192              	I2C_GetFlagStatus:
 1193              	.LFB58:
 823:../Peripheral/src/ch32v30x_i2c.c **** 
 824:../Peripheral/src/ch32v30x_i2c.c **** /*********************************************************************
 825:../Peripheral/src/ch32v30x_i2c.c ****  * @fn      I2C_GetFlagStatus
 826:../Peripheral/src/ch32v30x_i2c.c ****  *
 827:../Peripheral/src/ch32v30x_i2c.c ****  * @brief   Checks whether the last I2Cx Event is equal to the one passed
 828:../Peripheral/src/ch32v30x_i2c.c ****  *        as parameter.
 829:../Peripheral/src/ch32v30x_i2c.c ****  *
 830:../Peripheral/src/ch32v30x_i2c.c ****  * @param   I2Cx - where x can be 1 or 2 to select the I2C peripheral.
 831:../Peripheral/src/ch32v30x_i2c.c ****  *          I2C_FLAG - specifies the flag to check.
 832:../Peripheral/src/ch32v30x_i2c.c ****  *            I2C_FLAG_DUALF - Dual flag (Slave mode).
 833:../Peripheral/src/ch32v30x_i2c.c ****  *            I2C_FLAG_SMBHOST - SMBus host header (Slave mode).
 834:../Peripheral/src/ch32v30x_i2c.c ****  *            I2C_FLAG_SMBDEFAULT - SMBus default header (Slave mode).
 835:../Peripheral/src/ch32v30x_i2c.c ****  *            I2C_FLAG_GENCALL - General call header flag (Slave mode).
 836:../Peripheral/src/ch32v30x_i2c.c ****  *            I2C_FLAG_TRA - Transmitter/Receiver flag.
 837:../Peripheral/src/ch32v30x_i2c.c ****  *            I2C_FLAG_BUSY - Bus busy flag.
 838:../Peripheral/src/ch32v30x_i2c.c ****  *            I2C_FLAG_MSL - Master/Slave flag.
 839:../Peripheral/src/ch32v30x_i2c.c ****  *            I2C_FLAG_SMBALERT - SMBus Alert flag.
 840:../Peripheral/src/ch32v30x_i2c.c ****  *            I2C_FLAG_TIMEOUT - Timeout or Tlow error flag.
 841:../Peripheral/src/ch32v30x_i2c.c ****  *            I2C_FLAG_PECERR - PEC error in reception flag.
 842:../Peripheral/src/ch32v30x_i2c.c ****  *            I2C_FLAG_OVR - Overrun/Underrun flag (Slave mode).
 843:../Peripheral/src/ch32v30x_i2c.c ****  *            I2C_FLAG_AF - Acknowledge failure flag.
 844:../Peripheral/src/ch32v30x_i2c.c ****  *            I2C_FLAG_ARLO - Arbitration lost flag (Master mode).
 845:../Peripheral/src/ch32v30x_i2c.c ****  *            I2C_FLAG_BERR - Bus error flag.
 846:../Peripheral/src/ch32v30x_i2c.c ****  *            I2C_FLAG_TXE - Data register empty flag (Transmitter).
 847:../Peripheral/src/ch32v30x_i2c.c ****  *            I2C_FLAG_RXNE- Data register not empty (Receiver) flag.
 848:../Peripheral/src/ch32v30x_i2c.c ****  *            I2C_FLAG_STOPF - Stop detection flag (Slave mode).
 849:../Peripheral/src/ch32v30x_i2c.c ****  *            I2C_FLAG_ADD10 - 10-bit header sent flag (Master mode).
 850:../Peripheral/src/ch32v30x_i2c.c ****  *            I2C_FLAG_BTF - Byte transfer finished flag.
 851:../Peripheral/src/ch32v30x_i2c.c ****  *            I2C_FLAG_ADDR - Address sent flag (Master mode) "ADSL"
 852:../Peripheral/src/ch32v30x_i2c.c ****  *        Address matched flag (Slave mode)"ENDA".
 853:../Peripheral/src/ch32v30x_i2c.c ****  *            I2C_FLAG_SB - Start bit flag (Master mode).
 854:../Peripheral/src/ch32v30x_i2c.c ****  *
 855:../Peripheral/src/ch32v30x_i2c.c ****  * @return  FlagStatus - SET or RESET.
 856:../Peripheral/src/ch32v30x_i2c.c ****  */
 857:../Peripheral/src/ch32v30x_i2c.c **** FlagStatus I2C_GetFlagStatus(I2C_TypeDef *I2Cx, uint32_t I2C_FLAG)
 858:../Peripheral/src/ch32v30x_i2c.c **** {
 1194              		.loc 1 858 1 is_stmt 1
 1195              		.cfi_startproc
 1196              	.LVL88:
 859:../Peripheral/src/ch32v30x_i2c.c ****     FlagStatus    bitstatus = RESET;
 1197              		.loc 1 859 5
 860:../Peripheral/src/ch32v30x_i2c.c ****     __IO uint32_t i2creg = 0, i2cxbase = 0;
 1198              		.loc 1 860 5
 858:../Peripheral/src/ch32v30x_i2c.c ****     FlagStatus    bitstatus = RESET;
 1199              		.loc 1 858 1 is_stmt 0
 1200 0000 4111     		addi	sp,sp,-16
 1201              		.cfi_def_cfa_offset 16
 1202              		.loc 1 860 19
 1203 0002 02C4     		sw	zero,8(sp)
 1204              		.loc 1 860 31
 1205 0004 02C6     		sw	zero,12(sp)
 861:../Peripheral/src/ch32v30x_i2c.c **** 
 862:../Peripheral/src/ch32v30x_i2c.c ****     i2cxbase = (uint32_t)I2Cx;
 1206              		.loc 1 862 5 is_stmt 1
 863:../Peripheral/src/ch32v30x_i2c.c ****     i2creg = I2C_FLAG >> 28;
 1207              		.loc 1 863 23 is_stmt 0
 1208 0006 93D7C501 		srli	a5,a1,28
 862:../Peripheral/src/ch32v30x_i2c.c ****     i2creg = I2C_FLAG >> 28;
 1209              		.loc 1 862 14
 1210 000a 2AC6     		sw	a0,12(sp)
 1211              		.loc 1 863 5 is_stmt 1
 1212              		.loc 1 863 12 is_stmt 0
 1213 000c 3EC4     		sw	a5,8(sp)
 864:../Peripheral/src/ch32v30x_i2c.c ****     I2C_FLAG &= FLAG_Mask;
 1214              		.loc 1 864 5 is_stmt 1
 865:../Peripheral/src/ch32v30x_i2c.c **** 
 866:../Peripheral/src/ch32v30x_i2c.c ****     if(i2creg != 0)
 1215              		.loc 1 866 15 is_stmt 0
 1216 000e A247     		lw	a5,8(sp)
 864:../Peripheral/src/ch32v30x_i2c.c ****     I2C_FLAG &= FLAG_Mask;
 1217              		.loc 1 864 14
 1218 0010 A205     		slli	a1,a1,8
 1219              	.LVL89:
 1220 0012 A181     		srli	a1,a1,8
 1221              	.LVL90:
 1222              		.loc 1 866 5 is_stmt 1
 1223              		.loc 1 866 7 is_stmt 0
 1224 0014 99CB     		beq	a5,zero,.L101
 867:../Peripheral/src/ch32v30x_i2c.c ****     {
 868:../Peripheral/src/ch32v30x_i2c.c ****         i2cxbase += 0x14;
 1225              		.loc 1 868 9 is_stmt 1
 1226              		.loc 1 868 18 is_stmt 0
 1227 0016 B247     		lw	a5,12(sp)
 1228 0018 D107     		addi	a5,a5,20
 1229              	.L104:
 869:../Peripheral/src/ch32v30x_i2c.c ****     }
 870:../Peripheral/src/ch32v30x_i2c.c ****     else
 871:../Peripheral/src/ch32v30x_i2c.c ****     {
 872:../Peripheral/src/ch32v30x_i2c.c ****         I2C_FLAG = (uint32_t)(I2C_FLAG >> 16);
 873:../Peripheral/src/ch32v30x_i2c.c ****         i2cxbase += 0x18;
 1230              		.loc 1 873 18
 1231 001a 3EC6     		sw	a5,12(sp)
 874:../Peripheral/src/ch32v30x_i2c.c ****     }
 875:../Peripheral/src/ch32v30x_i2c.c **** 
 876:../Peripheral/src/ch32v30x_i2c.c ****     if(((*(__IO uint32_t *)i2cxbase) & I2C_FLAG) != (uint32_t)RESET)
 1232              		.loc 1 876 5 is_stmt 1
 1233              		.loc 1 876 11 is_stmt 0
 1234 001c B247     		lw	a5,12(sp)
 1235              		.loc 1 876 10
 1236 001e 8843     		lw	a0,0(a5)
 1237              	.LVL91:
 877:../Peripheral/src/ch32v30x_i2c.c ****     {
 878:../Peripheral/src/ch32v30x_i2c.c ****         bitstatus = SET;
 879:../Peripheral/src/ch32v30x_i2c.c ****     }
 880:../Peripheral/src/ch32v30x_i2c.c ****     else
 881:../Peripheral/src/ch32v30x_i2c.c ****     {
 882:../Peripheral/src/ch32v30x_i2c.c ****         bitstatus = RESET;
 883:../Peripheral/src/ch32v30x_i2c.c ****     }
 884:../Peripheral/src/ch32v30x_i2c.c **** 
 885:../Peripheral/src/ch32v30x_i2c.c ****     return bitstatus;
 1238              		.loc 1 885 5 is_stmt 1
 886:../Peripheral/src/ch32v30x_i2c.c **** }
 1239              		.loc 1 886 1 is_stmt 0
 1240 0020 4101     		addi	sp,sp,16
 1241              		.cfi_remember_state
 1242              		.cfi_def_cfa_offset 0
 876:../Peripheral/src/ch32v30x_i2c.c ****     {
 1243              		.loc 1 876 38
 1244 0022 6D8D     		and	a0,a0,a1
 1245              	.LVL92:
 1246              		.loc 1 886 1
 1247 0024 3335A000 		snez	a0,a0
 1248 0028 8280     		jr	ra
 1249              	.LVL93:
 1250              	.L101:
 1251              		.cfi_restore_state
 872:../Peripheral/src/ch32v30x_i2c.c ****         i2cxbase += 0x18;
 1252              		.loc 1 872 9 is_stmt 1
 873:../Peripheral/src/ch32v30x_i2c.c ****     }
 1253              		.loc 1 873 18 is_stmt 0
 1254 002a B247     		lw	a5,12(sp)
 872:../Peripheral/src/ch32v30x_i2c.c ****         i2cxbase += 0x18;
 1255              		.loc 1 872 18
 1256 002c C181     		srli	a1,a1,16
 1257              	.LVL94:
 873:../Peripheral/src/ch32v30x_i2c.c ****     }
 1258              		.loc 1 873 9 is_stmt 1
 873:../Peripheral/src/ch32v30x_i2c.c ****     }
 1259              		.loc 1 873 18 is_stmt 0
 1260 002e E107     		addi	a5,a5,24
 1261 0030 EDB7     		j	.L104
 1262              		.cfi_endproc
 1263              	.LFE58:
 1265              		.section	.text.I2C_ClearFlag,"ax",@progbits
 1266              		.align	1
 1267              		.globl	I2C_ClearFlag
 1269              	I2C_ClearFlag:
 1270              	.LFB59:
 887:../Peripheral/src/ch32v30x_i2c.c **** 
 888:../Peripheral/src/ch32v30x_i2c.c **** /*********************************************************************
 889:../Peripheral/src/ch32v30x_i2c.c ****  * @fn      I2C_ClearFlag
 890:../Peripheral/src/ch32v30x_i2c.c ****  *
 891:../Peripheral/src/ch32v30x_i2c.c ****  * @brief   Clears the I2Cx's pending flags.
 892:../Peripheral/src/ch32v30x_i2c.c ****  *
 893:../Peripheral/src/ch32v30x_i2c.c ****  * @param   I2Cx - where x can be 1 or 2 to select the I2C peripheral.
 894:../Peripheral/src/ch32v30x_i2c.c ****  *          I2C_FLAG - specifies the flag to clear.
 895:../Peripheral/src/ch32v30x_i2c.c ****  *            I2C_FLAG_SMBALERT - SMBus Alert flag.
 896:../Peripheral/src/ch32v30x_i2c.c ****  *            I2C_FLAG_TIMEOUT - Timeout or Tlow error flag.
 897:../Peripheral/src/ch32v30x_i2c.c ****  *            I2C_FLAG_PECERR - PEC error in reception flag.
 898:../Peripheral/src/ch32v30x_i2c.c ****  *            I2C_FLAG_OVR - Overrun/Underrun flag (Slave mode).
 899:../Peripheral/src/ch32v30x_i2c.c ****  *            I2C_FLAG_AF - Acknowledge failure flag.
 900:../Peripheral/src/ch32v30x_i2c.c ****  *            I2C_FLAG_ARLO - Arbitration lost flag (Master mode).
 901:../Peripheral/src/ch32v30x_i2c.c ****  *            I2C_FLAG_BERR - Bus error flag.
 902:../Peripheral/src/ch32v30x_i2c.c ****  *          Note-
 903:../Peripheral/src/ch32v30x_i2c.c ****  *           - STOPF (STOP detection) is cleared by software sequence: a read operation 
 904:../Peripheral/src/ch32v30x_i2c.c ****  *             to I2C_STAR1 register (I2C_GetFlagStatus()) followed by a write operation 
 905:../Peripheral/src/ch32v30x_i2c.c ****  *             to I2C_CTLR1 register (I2C_Cmd() to re-enable the I2C peripheral).
 906:../Peripheral/src/ch32v30x_i2c.c ****  *           - ADD10 (10-bit header sent) is cleared by software sequence: a read 
 907:../Peripheral/src/ch32v30x_i2c.c ****  *             operation to I2C_SATR1 (I2C_GetFlagStatus()) followed by writing the 
 908:../Peripheral/src/ch32v30x_i2c.c ****  *             second byte of the address in DATAR register.
 909:../Peripheral/src/ch32v30x_i2c.c ****  *           - BTF (Byte Transfer Finished) is cleared by software sequence: a read 
 910:../Peripheral/src/ch32v30x_i2c.c ****  *             operation to I2C_SATR1 register (I2C_GetFlagStatus()) followed by a 
 911:../Peripheral/src/ch32v30x_i2c.c ****  *             read/write to I2C_DATAR register (I2C_SendData()).
 912:../Peripheral/src/ch32v30x_i2c.c ****  *           - ADDR (Address sent) is cleared by software sequence: a read operation to 
 913:../Peripheral/src/ch32v30x_i2c.c ****  *             I2C_SATR1 register (I2C_GetFlagStatus()) followed by a read operation to 
 914:../Peripheral/src/ch32v30x_i2c.c ****  *             I2C_SATR2 register ((void)(I2Cx->SR2)).
 915:../Peripheral/src/ch32v30x_i2c.c ****  *           - SB (Start Bit) is cleared software sequence: a read operation to I2C_STAR1
 916:../Peripheral/src/ch32v30x_i2c.c ****  *             register (I2C_GetFlagStatus()) followed by a write operation to I2C_DATAR
 917:../Peripheral/src/ch32v30x_i2c.c ****  *             register  (I2C_SendData()). 
 918:../Peripheral/src/ch32v30x_i2c.c ****  * @return  none
 919:../Peripheral/src/ch32v30x_i2c.c ****  */
 920:../Peripheral/src/ch32v30x_i2c.c **** void I2C_ClearFlag(I2C_TypeDef *I2Cx, uint32_t I2C_FLAG)
 921:../Peripheral/src/ch32v30x_i2c.c **** {
 1271              		.loc 1 921 1 is_stmt 1
 1272              		.cfi_startproc
 1273              	.LVL95:
 922:../Peripheral/src/ch32v30x_i2c.c ****     uint32_t flagpos = 0;
 1274              		.loc 1 922 5
 923:../Peripheral/src/ch32v30x_i2c.c **** 
 924:../Peripheral/src/ch32v30x_i2c.c ****     flagpos = I2C_FLAG & FLAG_Mask;
 1275              		.loc 1 924 5
 925:../Peripheral/src/ch32v30x_i2c.c ****     I2Cx->STAR1 = (uint16_t)~flagpos;
 1276              		.loc 1 925 5
 1277              		.loc 1 925 19 is_stmt 0
 1278 0000 93C5F5FF 		not	a1,a1
 1279              	.LVL96:
 1280 0004 C205     		slli	a1,a1,16
 1281              	.LVL97:
 1282 0006 C181     		srli	a1,a1,16
 1283              		.loc 1 925 17
 1284 0008 4EA9     		sh	a1,20(a0)
 926:../Peripheral/src/ch32v30x_i2c.c **** }
 1285              		.loc 1 926 1
 1286 000a 8280     		ret
 1287              		.cfi_endproc
 1288              	.LFE59:
 1290              		.section	.text.I2C_GetITStatus,"ax",@progbits
 1291              		.align	1
 1292              		.globl	I2C_GetITStatus
 1294              	I2C_GetITStatus:
 1295              	.LFB60:
 927:../Peripheral/src/ch32v30x_i2c.c **** 
 928:../Peripheral/src/ch32v30x_i2c.c **** /*********************************************************************
 929:../Peripheral/src/ch32v30x_i2c.c ****  * @fn      I2C_GetITStatus
 930:../Peripheral/src/ch32v30x_i2c.c ****  *
 931:../Peripheral/src/ch32v30x_i2c.c ****  * @brief   Checks whether the specified I2C interrupt has occurred or not.
 932:../Peripheral/src/ch32v30x_i2c.c ****  *
 933:../Peripheral/src/ch32v30x_i2c.c ****  * @param   I2Cx - where x can be 1 or 2 to select the I2C peripheral.
 934:../Peripheral/src/ch32v30x_i2c.c ****  *          II2C_IT - specifies the interrupt source to check.
 935:../Peripheral/src/ch32v30x_i2c.c ****  *            I2C_IT_SMBALERT - SMBus Alert flag.
 936:../Peripheral/src/ch32v30x_i2c.c ****  *            I2C_IT_TIMEOUT - Timeout or Tlow error flag.
 937:../Peripheral/src/ch32v30x_i2c.c ****  *            I2C_IT_PECERR - PEC error in reception flag.
 938:../Peripheral/src/ch32v30x_i2c.c ****  *            I2C_IT_OVR - Overrun/Underrun flag (Slave mode).
 939:../Peripheral/src/ch32v30x_i2c.c ****  *            I2C_IT_AF - Acknowledge failure flag.
 940:../Peripheral/src/ch32v30x_i2c.c ****  *            I2C_IT_ARLO - Arbitration lost flag (Master mode).
 941:../Peripheral/src/ch32v30x_i2c.c ****  *            I2C_IT_BERR - Bus error flag.
 942:../Peripheral/src/ch32v30x_i2c.c ****  *            I2C_IT_TXE - Data register empty flag (Transmitter).
 943:../Peripheral/src/ch32v30x_i2c.c ****  *            I2C_IT_RXNE - Data register not empty (Receiver) flag.
 944:../Peripheral/src/ch32v30x_i2c.c ****  *            I2C_IT_STOPF - Stop detection flag (Slave mode).
 945:../Peripheral/src/ch32v30x_i2c.c ****  *            I2C_IT_ADD10 - 10-bit header sent flag (Master mode).
 946:../Peripheral/src/ch32v30x_i2c.c ****  *            I2C_IT_BTF - Byte transfer finished flag.
 947:../Peripheral/src/ch32v30x_i2c.c ****  *            I2C_IT_ADDR - Address sent flag (Master mode) "ADSL"  Address matched
 948:../Peripheral/src/ch32v30x_i2c.c ****  *        flag (Slave mode)"ENDAD".
 949:../Peripheral/src/ch32v30x_i2c.c ****  *            I2C_IT_SB - Start bit flag (Master mode).
 950:../Peripheral/src/ch32v30x_i2c.c ****  *
 951:../Peripheral/src/ch32v30x_i2c.c ****  * @return  none
 952:../Peripheral/src/ch32v30x_i2c.c ****  */
 953:../Peripheral/src/ch32v30x_i2c.c **** ITStatus I2C_GetITStatus(I2C_TypeDef *I2Cx, uint32_t I2C_IT)
 954:../Peripheral/src/ch32v30x_i2c.c **** {
 1296              		.loc 1 954 1 is_stmt 1
 1297              		.cfi_startproc
 1298              	.LVL98:
 955:../Peripheral/src/ch32v30x_i2c.c ****     ITStatus bitstatus = RESET;
 1299              		.loc 1 955 5
 956:../Peripheral/src/ch32v30x_i2c.c ****     uint32_t enablestatus = 0;
 1300              		.loc 1 956 5
 957:../Peripheral/src/ch32v30x_i2c.c **** 
 958:../Peripheral/src/ch32v30x_i2c.c ****     enablestatus = (uint32_t)(((I2C_IT & ITEN_Mask) >> 16) & (I2Cx->CTLR2));
 1301              		.loc 1 958 5
 1302              		.loc 1 958 67 is_stmt 0
 1303 0000 5E21     		lhu	a5,4(a0)
 959:../Peripheral/src/ch32v30x_i2c.c ****     I2C_IT &= FLAG_Mask;
 960:../Peripheral/src/ch32v30x_i2c.c **** 
 961:../Peripheral/src/ch32v30x_i2c.c ****     if(((I2Cx->STAR1 & I2C_IT) != (uint32_t)RESET) && enablestatus)
 1304              		.loc 1 961 14
 1305 0002 4A29     		lhu	a0,20(a0)
 1306              	.LVL99:
 958:../Peripheral/src/ch32v30x_i2c.c ****     I2C_IT &= FLAG_Mask;
 1307              		.loc 1 958 67
 1308 0004 C207     		slli	a5,a5,16
 1309 0006 6D8D     		and	a0,a0,a1
 1310 0008 C183     		srli	a5,a5,16
 1311              	.LVL100:
 959:../Peripheral/src/ch32v30x_i2c.c ****     I2C_IT &= FLAG_Mask;
 1312              		.loc 1 959 5 is_stmt 1
 1313              		.loc 1 961 5
 1314              		.loc 1 961 7 is_stmt 0
 1315 000a 01C9     		beq	a0,zero,.L106
 958:../Peripheral/src/ch32v30x_i2c.c ****     I2C_IT &= FLAG_Mask;
 1316              		.loc 1 958 53 discriminator 1
 1317 000c 13D50501 		srli	a0,a1,16
 1318              	.LVL101:
 958:../Peripheral/src/ch32v30x_i2c.c ****     I2C_IT &= FLAG_Mask;
 1319              		.loc 1 958 20 discriminator 1
 1320 0010 7D8D     		and	a0,a0,a5
 1321              	.LVL102:
 958:../Peripheral/src/ch32v30x_i2c.c ****     I2C_IT &= FLAG_Mask;
 1322              		.loc 1 958 18 discriminator 1
 1323 0012 13750570 		andi	a0,a0,1792
 1324              		.loc 1 961 52 discriminator 1
 1325 0016 3335A000 		snez	a0,a0
 1326              	.LVL103:
 962:../Peripheral/src/ch32v30x_i2c.c ****     {
 963:../Peripheral/src/ch32v30x_i2c.c ****         bitstatus = SET;
 964:../Peripheral/src/ch32v30x_i2c.c ****     }
 965:../Peripheral/src/ch32v30x_i2c.c ****     else
 966:../Peripheral/src/ch32v30x_i2c.c ****     {
 967:../Peripheral/src/ch32v30x_i2c.c ****         bitstatus = RESET;
 968:../Peripheral/src/ch32v30x_i2c.c ****     }
 969:../Peripheral/src/ch32v30x_i2c.c **** 
 970:../Peripheral/src/ch32v30x_i2c.c ****     return bitstatus;
 1327              		.loc 1 970 5 is_stmt 1 discriminator 1
 1328              	.L106:
 971:../Peripheral/src/ch32v30x_i2c.c **** }
 1329              		.loc 1 971 1 is_stmt 0
 1330 001a 8280     		ret
 1331              		.cfi_endproc
 1332              	.LFE60:
 1334              		.section	.text.I2C_ClearITPendingBit,"ax",@progbits
 1335              		.align	1
 1336              		.globl	I2C_ClearITPendingBit
 1338              	I2C_ClearITPendingBit:
 1339              	.LFB65:
 1340              		.cfi_startproc
 972:../Peripheral/src/ch32v30x_i2c.c **** 
 973:../Peripheral/src/ch32v30x_i2c.c **** /*********************************************************************
 974:../Peripheral/src/ch32v30x_i2c.c ****  * @fn      I2C_ClearITPendingBit
 975:../Peripheral/src/ch32v30x_i2c.c ****  *
 976:../Peripheral/src/ch32v30x_i2c.c ****  * @brief   Clears the I2Cx interrupt pending bits.
 977:../Peripheral/src/ch32v30x_i2c.c ****  *
 978:../Peripheral/src/ch32v30x_i2c.c ****  * @param   I2Cx - where x can be 1 or 2 to select the I2C peripheral.
 979:../Peripheral/src/ch32v30x_i2c.c ****  *          I2C_IT - specifies the interrupt pending bit to clear.
 980:../Peripheral/src/ch32v30x_i2c.c ****  *            I2C_IT_SMBALERT - SMBus Alert interrupt.
 981:../Peripheral/src/ch32v30x_i2c.c ****  *            I2C_IT_TIMEOUT - Timeout or Tlow error interrupt.
 982:../Peripheral/src/ch32v30x_i2c.c ****  *            I2C_IT_PECERR - PEC error in reception  interrupt.
 983:../Peripheral/src/ch32v30x_i2c.c ****  *            I2C_IT_OVR - Overrun/Underrun interrupt (Slave mode).
 984:../Peripheral/src/ch32v30x_i2c.c ****  *            I2C_IT_AF - Acknowledge failure interrupt.
 985:../Peripheral/src/ch32v30x_i2c.c ****  *            I2C_IT_ARLO - Arbitration lost interrupt (Master mode).
 986:../Peripheral/src/ch32v30x_i2c.c ****  *            I2C_IT_BERR - Bus error interrupt.
 987:../Peripheral/src/ch32v30x_i2c.c ****  *          Note-
 988:../Peripheral/src/ch32v30x_i2c.c ****  *           - STOPF (STOP detection) is cleared by software sequence: a read operation 
 989:../Peripheral/src/ch32v30x_i2c.c ****  *             to I2C_STAR1 register (I2C_GetITStatus()) followed by a write operation to 
 990:../Peripheral/src/ch32v30x_i2c.c ****  *             I2C_CTLR1 register (I2C_Cmd() to re-enable the I2C peripheral).
 991:../Peripheral/src/ch32v30x_i2c.c ****  *           - ADD10 (10-bit header sent) is cleared by software sequence: a read 
 992:../Peripheral/src/ch32v30x_i2c.c ****  *             operation to I2C_STAR1 (I2C_GetITStatus()) followed by writing the second 
 993:../Peripheral/src/ch32v30x_i2c.c ****  *             byte of the address in I2C_DATAR register.
 994:../Peripheral/src/ch32v30x_i2c.c ****  *           - BTF (Byte Transfer Finished) is cleared by software sequence: a read 
 995:../Peripheral/src/ch32v30x_i2c.c ****  *             operation to I2C_STAR1 register (I2C_GetITStatus()) followed by a 
 996:../Peripheral/src/ch32v30x_i2c.c ****  *             read/write to I2C_DATAR register (I2C_SendData()).
 997:../Peripheral/src/ch32v30x_i2c.c ****  *           - ADDR (Address sent) is cleared by software sequence: a read operation to 
 998:../Peripheral/src/ch32v30x_i2c.c ****  *             I2C_STAR1 register (I2C_GetITStatus()) followed by a read operation to 
 999:../Peripheral/src/ch32v30x_i2c.c ****  *             I2C_STAR2 register ((void)(I2Cx->SR2)).
1000:../Peripheral/src/ch32v30x_i2c.c ****  *           - SB (Start Bit) is cleared by software sequence: a read operation to 
1001:../Peripheral/src/ch32v30x_i2c.c ****  *             I2C_STAR1 register (I2C_GetITStatus()) followed by a write operation to 
1002:../Peripheral/src/ch32v30x_i2c.c ****  *             I2C_DATAR register (I2C_SendData()).
1003:../Peripheral/src/ch32v30x_i2c.c ****  *
1004:../Peripheral/src/ch32v30x_i2c.c ****  * @return  none
1005:../Peripheral/src/ch32v30x_i2c.c ****  */
1006:../Peripheral/src/ch32v30x_i2c.c **** void I2C_ClearITPendingBit(I2C_TypeDef *I2Cx, uint32_t I2C_IT)
 1341              		.loc 1 1006 6 is_stmt 1
 1342 0000 93C5F5FF 		not	a1,a1
 1343 0004 C205     		slli	a1,a1,16
 1344 0006 C181     		srli	a1,a1,16
 1345 0008 4EA9     		sh	a1,20(a0)
 1346 000a 8280     		ret
 1347              		.cfi_endproc
 1348              	.LFE65:
 1350              		.text
 1351              	.Letext0:
 1352              		.file 2 "d:\\software\\mounriver_studio\\toolchain\\risc-v embedded gcc12\\riscv-none-elf\\include
 1353              		.file 3 "d:\\software\\mounriver_studio\\toolchain\\risc-v embedded gcc12\\riscv-none-elf\\include
 1354              		.file 4 "C:\\Users\\localhost\\Documents\\turbomoskal-repo\\qqexpert\\firmware\\MasterController\\
 1355              		.file 5 "C:\\Users\\localhost\\Documents\\turbomoskal-repo\\qqexpert\\firmware\\MasterController\\
 1356              		.file 6 "C:\\Users\\localhost\\Documents\\turbomoskal-repo\\qqexpert\\firmware\\MasterController\\
 1357              		.file 7 "C:\\Users\\localhost\\Documents\\turbomoskal-repo\\qqexpert\\firmware\\MasterController\\
DEFINED SYMBOLS
                            *ABS*:0000000000000000 ch32v30x_i2c.c
C:\Users\LOCALH~1\AppData\Local\Temp\cckgc0NY.s:14     .text.I2C_DeInit:0000000000000000 I2C_DeInit
C:\Users\LOCALH~1\AppData\Local\Temp\cckgc0NY.s:18     .text.I2C_DeInit:0000000000000000 .L0 
C:\Users\LOCALH~1\AppData\Local\Temp\cckgc0NY.s:20     .text.I2C_DeInit:0000000000000000 $x
C:\Users\LOCALH~1\AppData\Local\Temp\cckgc0NY.s:20     .text.I2C_DeInit:0000000000000000 .L0 
C:\Users\LOCALH~1\AppData\Local\Temp\cckgc0NY.s:21     .text.I2C_DeInit:0000000000000008 .L0 
C:\Users\LOCALH~1\AppData\Local\Temp\cckgc0NY.s:22     .text.I2C_DeInit:0000000000000008 .L0 
C:\Users\LOCALH~1\AppData\Local\Temp\cckgc0NY.s:24     .text.I2C_DeInit:0000000000000008 .L0 
C:\Users\LOCALH~1\AppData\Local\Temp\cckgc0NY.s:25     .text.I2C_DeInit:0000000000000008 .L0 
C:\Users\LOCALH~1\AppData\Local\Temp\cckgc0NY.s:28     .text.I2C_DeInit:0000000000000010 .L0 
C:\Users\LOCALH~1\AppData\Local\Temp\cckgc0NY.s:30     .text.I2C_DeInit:0000000000000012 .L0 
C:\Users\LOCALH~1\AppData\Local\Temp\cckgc0NY.s:32     .text.I2C_DeInit:0000000000000016 .L0 
C:\Users\LOCALH~1\AppData\Local\Temp\cckgc0NY.s:37     .text.I2C_DeInit:0000000000000022 .L0 
C:\Users\LOCALH~1\AppData\Local\Temp\cckgc0NY.s:41     .text.I2C_DeInit:0000000000000028 .L0 
C:\Users\LOCALH~1\AppData\Local\Temp\cckgc0NY.s:44     .text.I2C_DeInit:0000000000000030 .L0 
C:\Users\LOCALH~1\AppData\Local\Temp\cckgc0NY.s:45     .text.I2C_DeInit:0000000000000038 .L0 
C:\Users\LOCALH~1\AppData\Local\Temp\cckgc0NY.s:46     .text.I2C_DeInit:0000000000000038 .L0 
C:\Users\LOCALH~1\AppData\Local\Temp\cckgc0NY.s:47     .text.I2C_DeInit:0000000000000038 .L0 
C:\Users\LOCALH~1\AppData\Local\Temp\cckgc0NY.s:50     .text.I2C_DeInit:0000000000000038 .L0 
C:\Users\LOCALH~1\AppData\Local\Temp\cckgc0NY.s:52     .text.I2C_DeInit:0000000000000038 .L0 
C:\Users\LOCALH~1\AppData\Local\Temp\cckgc0NY.s:57     .text.I2C_DeInit:0000000000000044 .L0 
C:\Users\LOCALH~1\AppData\Local\Temp\cckgc0NY.s:60     .text.I2C_DeInit:000000000000004c .L0 
C:\Users\LOCALH~1\AppData\Local\Temp\cckgc0NY.s:67     .text.I2C_Init:0000000000000000 I2C_Init
C:\Users\LOCALH~1\AppData\Local\Temp\cckgc0NY.s:70     .text.I2C_Init:0000000000000000 .L0 
C:\Users\LOCALH~1\AppData\Local\Temp\cckgc0NY.s:72     .text.I2C_Init:0000000000000000 $x
C:\Users\LOCALH~1\AppData\Local\Temp\cckgc0NY.s:72     .text.I2C_Init:0000000000000000 .L0 
C:\Users\LOCALH~1\AppData\Local\Temp\cckgc0NY.s:73     .text.I2C_Init:0000000000000008 .L0 
C:\Users\LOCALH~1\AppData\Local\Temp\cckgc0NY.s:74     .text.I2C_Init:0000000000000008 .L0 
C:\Users\LOCALH~1\AppData\Local\Temp\cckgc0NY.s:75     .text.I2C_Init:0000000000000008 .L0 
C:\Users\LOCALH~1\AppData\Local\Temp\cckgc0NY.s:76     .text.I2C_Init:0000000000000008 .L0 
C:\Users\LOCALH~1\AppData\Local\Temp\cckgc0NY.s:77     .text.I2C_Init:0000000000000008 .L0 
C:\Users\LOCALH~1\AppData\Local\Temp\cckgc0NY.s:80     .text.I2C_Init:0000000000000008 .L0 
C:\Users\LOCALH~1\AppData\Local\Temp\cckgc0NY.s:81     .text.I2C_Init:0000000000000008 .L0 
C:\Users\LOCALH~1\AppData\Local\Temp\cckgc0NY.s:82     .text.I2C_Init:0000000000000008 .L0 
C:\Users\LOCALH~1\AppData\Local\Temp\cckgc0NY.s:83     .text.I2C_Init:0000000000000008 .L0 
C:\Users\LOCALH~1\AppData\Local\Temp\cckgc0NY.s:84     .text.I2C_Init:0000000000000008 .L0 
C:\Users\LOCALH~1\AppData\Local\Temp\cckgc0NY.s:85     .text.I2C_Init:0000000000000008 .L0 
C:\Users\LOCALH~1\AppData\Local\Temp\cckgc0NY.s:87     .text.I2C_Init:000000000000000a .L0 
C:\Users\LOCALH~1\AppData\Local\Temp\cckgc0NY.s:88     .text.I2C_Init:000000000000000c .L0 
C:\Users\LOCALH~1\AppData\Local\Temp\cckgc0NY.s:90     .text.I2C_Init:000000000000000c .L0 
C:\Users\LOCALH~1\AppData\Local\Temp\cckgc0NY.s:92     .text.I2C_Init:000000000000000e .L0 
C:\Users\LOCALH~1\AppData\Local\Temp\cckgc0NY.s:95     .text.I2C_Init:0000000000000010 .L0 
C:\Users\LOCALH~1\AppData\Local\Temp\cckgc0NY.s:97     .text.I2C_Init:0000000000000012 .L0 
C:\Users\LOCALH~1\AppData\Local\Temp\cckgc0NY.s:99     .text.I2C_Init:0000000000000014 .L0 
C:\Users\LOCALH~1\AppData\Local\Temp\cckgc0NY.s:102    .text.I2C_Init:000000000000001c .L0 
C:\Users\LOCALH~1\AppData\Local\Temp\cckgc0NY.s:105    .text.I2C_Init:000000000000001e .L0 
C:\Users\LOCALH~1\AppData\Local\Temp\cckgc0NY.s:106    .text.I2C_Init:000000000000001e .L0 
C:\Users\LOCALH~1\AppData\Local\Temp\cckgc0NY.s:108    .text.I2C_Init:0000000000000020 .L0 
C:\Users\LOCALH~1\AppData\Local\Temp\cckgc0NY.s:111    .text.I2C_Init:0000000000000024 .L0 
C:\Users\LOCALH~1\AppData\Local\Temp\cckgc0NY.s:113    .text.I2C_Init:0000000000000028 .L0 
C:\Users\LOCALH~1\AppData\Local\Temp\cckgc0NY.s:115    .text.I2C_Init:000000000000002a .L0 
C:\Users\LOCALH~1\AppData\Local\Temp\cckgc0NY.s:117    .text.I2C_Init:000000000000002e .L0 
C:\Users\LOCALH~1\AppData\Local\Temp\cckgc0NY.s:120    .text.I2C_Init:0000000000000030 .L0 
C:\Users\LOCALH~1\AppData\Local\Temp\cckgc0NY.s:121    .text.I2C_Init:0000000000000030 .L0 
C:\Users\LOCALH~1\AppData\Local\Temp\cckgc0NY.s:122    .text.I2C_Init:0000000000000030 .L0 
C:\Users\LOCALH~1\AppData\Local\Temp\cckgc0NY.s:123    .text.I2C_Init:0000000000000030 .L0 
C:\Users\LOCALH~1\AppData\Local\Temp\cckgc0NY.s:125    .text.I2C_Init:0000000000000034 .L0 
C:\Users\LOCALH~1\AppData\Local\Temp\cckgc0NY.s:127    .text.I2C_Init:0000000000000038 .L0 
C:\Users\LOCALH~1\AppData\Local\Temp\cckgc0NY.s:131    .text.I2C_Init:0000000000000044 .L0 
C:\Users\LOCALH~1\AppData\Local\Temp\cckgc0NY.s:136    .text.I2C_Init:0000000000000048 .L0 
C:\Users\LOCALH~1\AppData\Local\Temp\cckgc0NY.s:137    .text.I2C_Init:0000000000000048 .L0 
C:\Users\LOCALH~1\AppData\Local\Temp\cckgc0NY.s:140    .text.I2C_Init:000000000000004a .L0 
C:\Users\LOCALH~1\AppData\Local\Temp\cckgc0NY.s:141    .text.I2C_Init:000000000000004a .L0 
C:\Users\LOCALH~1\AppData\Local\Temp\cckgc0NY.s:143    .text.I2C_Init:000000000000004c .L0 
C:\Users\LOCALH~1\AppData\Local\Temp\cckgc0NY.s:144    .text.I2C_Init:000000000000004c .L0 
C:\Users\LOCALH~1\AppData\Local\Temp\cckgc0NY.s:146    .text.I2C_Init:000000000000004e .L0 
C:\Users\LOCALH~1\AppData\Local\Temp\cckgc0NY.s:149    .text.I2C_Init:0000000000000054 .L0 
C:\Users\LOCALH~1\AppData\Local\Temp\cckgc0NY.s:152    .text.I2C_Init:0000000000000058 .L0 
C:\Users\LOCALH~1\AppData\Local\Temp\cckgc0NY.s:158    .text.I2C_Init:0000000000000060 .L0 
C:\Users\LOCALH~1\AppData\Local\Temp\cckgc0NY.s:159    .text.I2C_Init:0000000000000060 .L0 
C:\Users\LOCALH~1\AppData\Local\Temp\cckgc0NY.s:160    .text.I2C_Init:0000000000000060 .L0 
C:\Users\LOCALH~1\AppData\Local\Temp\cckgc0NY.s:162    .text.I2C_Init:0000000000000064 .L0 
C:\Users\LOCALH~1\AppData\Local\Temp\cckgc0NY.s:165    .text.I2C_Init:0000000000000068 .L0 
C:\Users\LOCALH~1\AppData\Local\Temp\cckgc0NY.s:166    .text.I2C_Init:0000000000000068 .L0 
C:\Users\LOCALH~1\AppData\Local\Temp\cckgc0NY.s:167    .text.I2C_Init:0000000000000068 .L0 
C:\Users\LOCALH~1\AppData\Local\Temp\cckgc0NY.s:170    .text.I2C_Init:000000000000006a .L0 
C:\Users\LOCALH~1\AppData\Local\Temp\cckgc0NY.s:172    .text.I2C_Init:000000000000006e .L0 
C:\Users\LOCALH~1\AppData\Local\Temp\cckgc0NY.s:174    .text.I2C_Init:0000000000000070 .L0 
C:\Users\LOCALH~1\AppData\Local\Temp\cckgc0NY.s:177    .text.I2C_Init:0000000000000072 .L0 
C:\Users\LOCALH~1\AppData\Local\Temp\cckgc0NY.s:186    .text.I2C_Init:0000000000000080 .L0 
C:\Users\LOCALH~1\AppData\Local\Temp\cckgc0NY.s:188    .text.I2C_Init:0000000000000080 .L0 
C:\Users\LOCALH~1\AppData\Local\Temp\cckgc0NY.s:189    .text.I2C_Init:0000000000000080 .L0 
C:\Users\LOCALH~1\AppData\Local\Temp\cckgc0NY.s:193    .text.I2C_Init:0000000000000086 .L0 
C:\Users\LOCALH~1\AppData\Local\Temp\cckgc0NY.s:196    .text.I2C_Init:0000000000000088 .L0 
C:\Users\LOCALH~1\AppData\Local\Temp\cckgc0NY.s:197    .text.I2C_Init:0000000000000088 .L0 
C:\Users\LOCALH~1\AppData\Local\Temp\cckgc0NY.s:199    .text.I2C_Init:000000000000008a .L0 
C:\Users\LOCALH~1\AppData\Local\Temp\cckgc0NY.s:200    .text.I2C_Init:000000000000008a .L0 
C:\Users\LOCALH~1\AppData\Local\Temp\cckgc0NY.s:203    .text.I2C_Init:000000000000008c .L0 
C:\Users\LOCALH~1\AppData\Local\Temp\cckgc0NY.s:206    .text.I2C_Init:0000000000000094 .L0 
C:\Users\LOCALH~1\AppData\Local\Temp\cckgc0NY.s:210    .text.I2C_Init:000000000000009a .L0 
C:\Users\LOCALH~1\AppData\Local\Temp\cckgc0NY.s:211    .text.I2C_Init:000000000000009a .L0 
C:\Users\LOCALH~1\AppData\Local\Temp\cckgc0NY.s:213    .text.I2C_Init:000000000000009c .L0 
C:\Users\LOCALH~1\AppData\Local\Temp\cckgc0NY.s:215    .text.I2C_Init:000000000000009e .L0 
C:\Users\LOCALH~1\AppData\Local\Temp\cckgc0NY.s:219    .text.I2C_Init:00000000000000a2 .L0 
C:\Users\LOCALH~1\AppData\Local\Temp\cckgc0NY.s:220    .text.I2C_Init:00000000000000a2 .L0 
C:\Users\LOCALH~1\AppData\Local\Temp\cckgc0NY.s:223    .text.I2C_Init:00000000000000a6 .L0 
C:\Users\LOCALH~1\AppData\Local\Temp\cckgc0NY.s:224    .text.I2C_Init:00000000000000a6 .L0 
C:\Users\LOCALH~1\AppData\Local\Temp\cckgc0NY.s:227    .text.I2C_Init:00000000000000a8 .L0 
C:\Users\LOCALH~1\AppData\Local\Temp\cckgc0NY.s:228    .text.I2C_Init:00000000000000a8 .L0 
C:\Users\LOCALH~1\AppData\Local\Temp\cckgc0NY.s:230    .text.I2C_Init:00000000000000aa .L0 
C:\Users\LOCALH~1\AppData\Local\Temp\cckgc0NY.s:231    .text.I2C_Init:00000000000000aa .L0 
C:\Users\LOCALH~1\AppData\Local\Temp\cckgc0NY.s:238    .text.I2C_Init:00000000000000b6 .L0 
C:\Users\LOCALH~1\AppData\Local\Temp\cckgc0NY.s:239    .text.I2C_Init:00000000000000b8 .L0 
C:\Users\LOCALH~1\AppData\Local\Temp\cckgc0NY.s:240    .text.I2C_Init:00000000000000b8 .L0 
C:\Users\LOCALH~1\AppData\Local\Temp\cckgc0NY.s:243    .text.I2C_Init:00000000000000c0 .L0 
C:\Users\LOCALH~1\AppData\Local\Temp\cckgc0NY.s:244    .text.I2C_Init:00000000000000c0 .L0 
C:\Users\LOCALH~1\AppData\Local\Temp\cckgc0NY.s:245    .text.I2C_Init:00000000000000c0 .L0 
C:\Users\LOCALH~1\AppData\Local\Temp\cckgc0NY.s:246    .text.I2C_Init:00000000000000c0 .L0 
C:\Users\LOCALH~1\AppData\Local\Temp\cckgc0NY.s:247    .text.I2C_Init:00000000000000c0 .L0 
C:\Users\LOCALH~1\AppData\Local\Temp\cckgc0NY.s:250    .text.I2C_Init:00000000000000c0 .L0 
C:\Users\LOCALH~1\AppData\Local\Temp\cckgc0NY.s:252    .text.I2C_Init:00000000000000c0 .L0 
C:\Users\LOCALH~1\AppData\Local\Temp\cckgc0NY.s:253    .text.I2C_Init:00000000000000c0 .L0 
C:\Users\LOCALH~1\AppData\Local\Temp\cckgc0NY.s:258    .text.I2C_Init:00000000000000cc .L0 
C:\Users\LOCALH~1\AppData\Local\Temp\cckgc0NY.s:259    .text.I2C_Init:00000000000000cc .L0 
C:\Users\LOCALH~1\AppData\Local\Temp\cckgc0NY.s:262    .text.I2C_Init:00000000000000d2 .L0 
C:\Users\LOCALH~1\AppData\Local\Temp\cckgc0NY.s:265    .text.I2C_Init:00000000000000d6 .L0 
C:\Users\LOCALH~1\AppData\Local\Temp\cckgc0NY.s:270    .text.I2C_Init:00000000000000da .L0 
C:\Users\LOCALH~1\AppData\Local\Temp\cckgc0NY.s:271    .text.I2C_Init:00000000000000da .L0 
C:\Users\LOCALH~1\AppData\Local\Temp\cckgc0NY.s:274    .text.I2C_Init:00000000000000e0 .L0 
C:\Users\LOCALH~1\AppData\Local\Temp\cckgc0NY.s:275    .text.I2C_Init:00000000000000e0 .L0 
C:\Users\LOCALH~1\AppData\Local\Temp\cckgc0NY.s:279    .text.I2C_Init:00000000000000e4 .L0 
C:\Users\LOCALH~1\AppData\Local\Temp\cckgc0NY.s:280    .text.I2C_Init:00000000000000e4 .L0 
C:\Users\LOCALH~1\AppData\Local\Temp\cckgc0NY.s:284    .text.I2C_Init:00000000000000e8 .L0 
C:\Users\LOCALH~1\AppData\Local\Temp\cckgc0NY.s:285    .text.I2C_Init:00000000000000e8 .L0 
C:\Users\LOCALH~1\AppData\Local\Temp\cckgc0NY.s:289    .text.I2C_Init:00000000000000f0 .L0 
C:\Users\LOCALH~1\AppData\Local\Temp\cckgc0NY.s:295    .text.I2C_Init:00000000000000fa .L0 
C:\Users\LOCALH~1\AppData\Local\Temp\cckgc0NY.s:296    .text.I2C_Init:00000000000000fa .L0 
C:\Users\LOCALH~1\AppData\Local\Temp\cckgc0NY.s:299    .text.I2C_Init:0000000000000100 .L0 
C:\Users\LOCALH~1\AppData\Local\Temp\cckgc0NY.s:302    .text.I2C_Init:0000000000000104 .L0 
C:\Users\LOCALH~1\AppData\Local\Temp\cckgc0NY.s:304    .text.I2C_Init:0000000000000106 .L0 
C:\Users\LOCALH~1\AppData\Local\Temp\cckgc0NY.s:308    .text.I2C_Init:000000000000010a .L0 
C:\Users\LOCALH~1\AppData\Local\Temp\cckgc0NY.s:309    .text.I2C_Init:000000000000010a .L0 
C:\Users\LOCALH~1\AppData\Local\Temp\cckgc0NY.s:312    .text.I2C_Init:000000000000010e .L0 
C:\Users\LOCALH~1\AppData\Local\Temp\cckgc0NY.s:319    .text.I2C_StructInit:0000000000000000 I2C_StructInit
C:\Users\LOCALH~1\AppData\Local\Temp\cckgc0NY.s:322    .text.I2C_StructInit:0000000000000000 .L0 
C:\Users\LOCALH~1\AppData\Local\Temp\cckgc0NY.s:324    .text.I2C_StructInit:0000000000000000 .L0 
C:\Users\LOCALH~1\AppData\Local\Temp\cckgc0NY.s:325    .text.I2C_StructInit:0000000000000000 .L0 
C:\Users\LOCALH~1\AppData\Local\Temp\cckgc0NY.s:326    .text.I2C_StructInit:0000000000000000 .L0 
C:\Users\LOCALH~1\AppData\Local\Temp\cckgc0NY.s:327    .text.I2C_StructInit:0000000000000000 .L0 
C:\Users\LOCALH~1\AppData\Local\Temp\cckgc0NY.s:328    .text.I2C_StructInit:0000000000000000 .L0 
C:\Users\LOCALH~1\AppData\Local\Temp\cckgc0NY.s:329    .text.I2C_StructInit:0000000000000000 .L0 
C:\Users\LOCALH~1\AppData\Local\Temp\cckgc0NY.s:330    .text.I2C_StructInit:0000000000000000 .L0 
C:\Users\LOCALH~1\AppData\Local\Temp\cckgc0NY.s:331    .text.I2C_StructInit:0000000000000000 $x
C:\Users\LOCALH~1\AppData\Local\Temp\cckgc0NY.s:331    .text.I2C_StructInit:0000000000000000 .L0 
C:\Users\LOCALH~1\AppData\Local\Temp\cckgc0NY.s:335    .text.I2C_StructInit:0000000000000008 .L0 
C:\Users\LOCALH~1\AppData\Local\Temp\cckgc0NY.s:338    .text.I2C_StructInit:000000000000000e .L0 
C:\Users\LOCALH~1\AppData\Local\Temp\cckgc0NY.s:340    .text.I2C_StructInit:0000000000000010 .L0 
C:\Users\LOCALH~1\AppData\Local\Temp\cckgc0NY.s:342    .text.I2C_StructInit:0000000000000014 .L0 
C:\Users\LOCALH~1\AppData\Local\Temp\cckgc0NY.s:344    .text.I2C_StructInit:0000000000000016 .L0 
C:\Users\LOCALH~1\AppData\Local\Temp\cckgc0NY.s:345    .text.I2C_StructInit:0000000000000018 .L0 
C:\Users\LOCALH~1\AppData\Local\Temp\cckgc0NY.s:352    .text.I2C_Cmd:0000000000000000 I2C_Cmd
C:\Users\LOCALH~1\AppData\Local\Temp\cckgc0NY.s:355    .text.I2C_Cmd:0000000000000000 .L0 
C:\Users\LOCALH~1\AppData\Local\Temp\cckgc0NY.s:357    .text.I2C_Cmd:0000000000000000 .L0 
C:\Users\LOCALH~1\AppData\Local\Temp\cckgc0NY.s:358    .text.I2C_Cmd:0000000000000000 .L0 
C:\Users\LOCALH~1\AppData\Local\Temp\cckgc0NY.s:359    .text.I2C_Cmd:0000000000000000 $x
C:\Users\LOCALH~1\AppData\Local\Temp\cckgc0NY.s:359    .text.I2C_Cmd:0000000000000000 .L0 
C:\Users\LOCALH~1\AppData\Local\Temp\cckgc0NY.s:361    .text.I2C_Cmd:0000000000000002 .L0 
C:\Users\LOCALH~1\AppData\Local\Temp\cckgc0NY.s:363    .text.I2C_Cmd:0000000000000004 .L0 
C:\Users\LOCALH~1\AppData\Local\Temp\cckgc0NY.s:364    .text.I2C_Cmd:0000000000000004 .L0 
C:\Users\LOCALH~1\AppData\Local\Temp\cckgc0NY.s:367    .text.I2C_Cmd:0000000000000008 .L0 
C:\Users\LOCALH~1\AppData\Local\Temp\cckgc0NY.s:369    .text.I2C_Cmd:000000000000000a .L0 
C:\Users\LOCALH~1\AppData\Local\Temp\cckgc0NY.s:372    .text.I2C_Cmd:000000000000000c .L0 
C:\Users\LOCALH~1\AppData\Local\Temp\cckgc0NY.s:373    .text.I2C_Cmd:000000000000000c .L0 
C:\Users\LOCALH~1\AppData\Local\Temp\cckgc0NY.s:376    .text.I2C_Cmd:0000000000000010 .L0 
C:\Users\LOCALH~1\AppData\Local\Temp\cckgc0NY.s:380    .text.I2C_Cmd:0000000000000018 .L0 
C:\Users\LOCALH~1\AppData\Local\Temp\cckgc0NY.s:387    .text.I2C_DMACmd:0000000000000000 I2C_DMACmd
C:\Users\LOCALH~1\AppData\Local\Temp\cckgc0NY.s:390    .text.I2C_DMACmd:0000000000000000 .L0 
C:\Users\LOCALH~1\AppData\Local\Temp\cckgc0NY.s:392    .text.I2C_DMACmd:0000000000000000 .L0 
C:\Users\LOCALH~1\AppData\Local\Temp\cckgc0NY.s:393    .text.I2C_DMACmd:0000000000000000 .L0 
C:\Users\LOCALH~1\AppData\Local\Temp\cckgc0NY.s:394    .text.I2C_DMACmd:0000000000000000 $x
C:\Users\LOCALH~1\AppData\Local\Temp\cckgc0NY.s:394    .text.I2C_DMACmd:0000000000000000 .L0 
C:\Users\LOCALH~1\AppData\Local\Temp\cckgc0NY.s:396    .text.I2C_DMACmd:0000000000000002 .L0 
C:\Users\LOCALH~1\AppData\Local\Temp\cckgc0NY.s:398    .text.I2C_DMACmd:0000000000000004 .L0 
C:\Users\LOCALH~1\AppData\Local\Temp\cckgc0NY.s:399    .text.I2C_DMACmd:0000000000000004 .L0 
C:\Users\LOCALH~1\AppData\Local\Temp\cckgc0NY.s:406    .text.I2C_DMACmd:0000000000000010 .L0 
C:\Users\LOCALH~1\AppData\Local\Temp\cckgc0NY.s:408    .text.I2C_DMACmd:0000000000000012 .L0 
C:\Users\LOCALH~1\AppData\Local\Temp\cckgc0NY.s:411    .text.I2C_DMACmd:0000000000000014 .L0 
C:\Users\LOCALH~1\AppData\Local\Temp\cckgc0NY.s:412    .text.I2C_DMACmd:0000000000000014 .L0 
C:\Users\LOCALH~1\AppData\Local\Temp\cckgc0NY.s:416    .text.I2C_DMACmd:000000000000001e .L0 
C:\Users\LOCALH~1\AppData\Local\Temp\cckgc0NY.s:423    .text.I2C_DMALastTransferCmd:0000000000000000 I2C_DMALastTransferCmd
C:\Users\LOCALH~1\AppData\Local\Temp\cckgc0NY.s:426    .text.I2C_DMALastTransferCmd:0000000000000000 .L0 
C:\Users\LOCALH~1\AppData\Local\Temp\cckgc0NY.s:428    .text.I2C_DMALastTransferCmd:0000000000000000 .L0 
C:\Users\LOCALH~1\AppData\Local\Temp\cckgc0NY.s:429    .text.I2C_DMALastTransferCmd:0000000000000000 .L0 
C:\Users\LOCALH~1\AppData\Local\Temp\cckgc0NY.s:430    .text.I2C_DMALastTransferCmd:0000000000000000 $x
C:\Users\LOCALH~1\AppData\Local\Temp\cckgc0NY.s:430    .text.I2C_DMALastTransferCmd:0000000000000000 .L0 
C:\Users\LOCALH~1\AppData\Local\Temp\cckgc0NY.s:432    .text.I2C_DMALastTransferCmd:0000000000000002 .L0 
C:\Users\LOCALH~1\AppData\Local\Temp\cckgc0NY.s:434    .text.I2C_DMALastTransferCmd:0000000000000004 .L0 
C:\Users\LOCALH~1\AppData\Local\Temp\cckgc0NY.s:435    .text.I2C_DMALastTransferCmd:0000000000000004 .L0 
C:\Users\LOCALH~1\AppData\Local\Temp\cckgc0NY.s:439    .text.I2C_DMALastTransferCmd:0000000000000008 .L0 
C:\Users\LOCALH~1\AppData\Local\Temp\cckgc0NY.s:441    .text.I2C_DMALastTransferCmd:000000000000000a .L0 
C:\Users\LOCALH~1\AppData\Local\Temp\cckgc0NY.s:444    .text.I2C_DMALastTransferCmd:000000000000000c .L0 
C:\Users\LOCALH~1\AppData\Local\Temp\cckgc0NY.s:445    .text.I2C_DMALastTransferCmd:000000000000000c .L0 
C:\Users\LOCALH~1\AppData\Local\Temp\cckgc0NY.s:449    .text.I2C_DMALastTransferCmd:0000000000000014 .L0 
C:\Users\LOCALH~1\AppData\Local\Temp\cckgc0NY.s:456    .text.I2C_GenerateSTART:0000000000000000 I2C_GenerateSTART
C:\Users\LOCALH~1\AppData\Local\Temp\cckgc0NY.s:459    .text.I2C_GenerateSTART:0000000000000000 .L0 
C:\Users\LOCALH~1\AppData\Local\Temp\cckgc0NY.s:461    .text.I2C_GenerateSTART:0000000000000000 .L0 
C:\Users\LOCALH~1\AppData\Local\Temp\cckgc0NY.s:462    .text.I2C_GenerateSTART:0000000000000000 .L0 
C:\Users\LOCALH~1\AppData\Local\Temp\cckgc0NY.s:463    .text.I2C_GenerateSTART:0000000000000000 $x
C:\Users\LOCALH~1\AppData\Local\Temp\cckgc0NY.s:463    .text.I2C_GenerateSTART:0000000000000000 .L0 
C:\Users\LOCALH~1\AppData\Local\Temp\cckgc0NY.s:465    .text.I2C_GenerateSTART:0000000000000002 .L0 
C:\Users\LOCALH~1\AppData\Local\Temp\cckgc0NY.s:467    .text.I2C_GenerateSTART:0000000000000004 .L0 
C:\Users\LOCALH~1\AppData\Local\Temp\cckgc0NY.s:468    .text.I2C_GenerateSTART:0000000000000004 .L0 
C:\Users\LOCALH~1\AppData\Local\Temp\cckgc0NY.s:471    .text.I2C_GenerateSTART:0000000000000008 .L0 
C:\Users\LOCALH~1\AppData\Local\Temp\cckgc0NY.s:473    .text.I2C_GenerateSTART:000000000000000a .L0 
C:\Users\LOCALH~1\AppData\Local\Temp\cckgc0NY.s:476    .text.I2C_GenerateSTART:000000000000000c .L0 
C:\Users\LOCALH~1\AppData\Local\Temp\cckgc0NY.s:477    .text.I2C_GenerateSTART:000000000000000c .L0 
C:\Users\LOCALH~1\AppData\Local\Temp\cckgc0NY.s:480    .text.I2C_GenerateSTART:0000000000000010 .L0 
C:\Users\LOCALH~1\AppData\Local\Temp\cckgc0NY.s:484    .text.I2C_GenerateSTART:000000000000001a .L0 
C:\Users\LOCALH~1\AppData\Local\Temp\cckgc0NY.s:491    .text.I2C_GenerateSTOP:0000000000000000 I2C_GenerateSTOP
C:\Users\LOCALH~1\AppData\Local\Temp\cckgc0NY.s:494    .text.I2C_GenerateSTOP:0000000000000000 .L0 
C:\Users\LOCALH~1\AppData\Local\Temp\cckgc0NY.s:496    .text.I2C_GenerateSTOP:0000000000000000 .L0 
C:\Users\LOCALH~1\AppData\Local\Temp\cckgc0NY.s:497    .text.I2C_GenerateSTOP:0000000000000000 .L0 
C:\Users\LOCALH~1\AppData\Local\Temp\cckgc0NY.s:498    .text.I2C_GenerateSTOP:0000000000000000 $x
C:\Users\LOCALH~1\AppData\Local\Temp\cckgc0NY.s:498    .text.I2C_GenerateSTOP:0000000000000000 .L0 
C:\Users\LOCALH~1\AppData\Local\Temp\cckgc0NY.s:500    .text.I2C_GenerateSTOP:0000000000000002 .L0 
C:\Users\LOCALH~1\AppData\Local\Temp\cckgc0NY.s:502    .text.I2C_GenerateSTOP:0000000000000004 .L0 
C:\Users\LOCALH~1\AppData\Local\Temp\cckgc0NY.s:503    .text.I2C_GenerateSTOP:0000000000000004 .L0 
C:\Users\LOCALH~1\AppData\Local\Temp\cckgc0NY.s:506    .text.I2C_GenerateSTOP:0000000000000008 .L0 
C:\Users\LOCALH~1\AppData\Local\Temp\cckgc0NY.s:508    .text.I2C_GenerateSTOP:000000000000000a .L0 
C:\Users\LOCALH~1\AppData\Local\Temp\cckgc0NY.s:511    .text.I2C_GenerateSTOP:000000000000000c .L0 
C:\Users\LOCALH~1\AppData\Local\Temp\cckgc0NY.s:512    .text.I2C_GenerateSTOP:000000000000000c .L0 
C:\Users\LOCALH~1\AppData\Local\Temp\cckgc0NY.s:515    .text.I2C_GenerateSTOP:0000000000000010 .L0 
C:\Users\LOCALH~1\AppData\Local\Temp\cckgc0NY.s:519    .text.I2C_GenerateSTOP:000000000000001a .L0 
C:\Users\LOCALH~1\AppData\Local\Temp\cckgc0NY.s:526    .text.I2C_AcknowledgeConfig:0000000000000000 I2C_AcknowledgeConfig
C:\Users\LOCALH~1\AppData\Local\Temp\cckgc0NY.s:529    .text.I2C_AcknowledgeConfig:0000000000000000 .L0 
C:\Users\LOCALH~1\AppData\Local\Temp\cckgc0NY.s:531    .text.I2C_AcknowledgeConfig:0000000000000000 .L0 
C:\Users\LOCALH~1\AppData\Local\Temp\cckgc0NY.s:532    .text.I2C_AcknowledgeConfig:0000000000000000 .L0 
C:\Users\LOCALH~1\AppData\Local\Temp\cckgc0NY.s:533    .text.I2C_AcknowledgeConfig:0000000000000000 $x
C:\Users\LOCALH~1\AppData\Local\Temp\cckgc0NY.s:533    .text.I2C_AcknowledgeConfig:0000000000000000 .L0 
C:\Users\LOCALH~1\AppData\Local\Temp\cckgc0NY.s:535    .text.I2C_AcknowledgeConfig:0000000000000002 .L0 
C:\Users\LOCALH~1\AppData\Local\Temp\cckgc0NY.s:537    .text.I2C_AcknowledgeConfig:0000000000000004 .L0 
C:\Users\LOCALH~1\AppData\Local\Temp\cckgc0NY.s:538    .text.I2C_AcknowledgeConfig:0000000000000004 .L0 
C:\Users\LOCALH~1\AppData\Local\Temp\cckgc0NY.s:541    .text.I2C_AcknowledgeConfig:0000000000000008 .L0 
C:\Users\LOCALH~1\AppData\Local\Temp\cckgc0NY.s:543    .text.I2C_AcknowledgeConfig:000000000000000a .L0 
C:\Users\LOCALH~1\AppData\Local\Temp\cckgc0NY.s:546    .text.I2C_AcknowledgeConfig:000000000000000c .L0 
C:\Users\LOCALH~1\AppData\Local\Temp\cckgc0NY.s:547    .text.I2C_AcknowledgeConfig:000000000000000c .L0 
C:\Users\LOCALH~1\AppData\Local\Temp\cckgc0NY.s:550    .text.I2C_AcknowledgeConfig:0000000000000010 .L0 
C:\Users\LOCALH~1\AppData\Local\Temp\cckgc0NY.s:554    .text.I2C_AcknowledgeConfig:000000000000001a .L0 
C:\Users\LOCALH~1\AppData\Local\Temp\cckgc0NY.s:561    .text.I2C_OwnAddress2Config:0000000000000000 I2C_OwnAddress2Config
C:\Users\LOCALH~1\AppData\Local\Temp\cckgc0NY.s:564    .text.I2C_OwnAddress2Config:0000000000000000 .L0 
C:\Users\LOCALH~1\AppData\Local\Temp\cckgc0NY.s:566    .text.I2C_OwnAddress2Config:0000000000000000 .L0 
C:\Users\LOCALH~1\AppData\Local\Temp\cckgc0NY.s:567    .text.I2C_OwnAddress2Config:0000000000000000 .L0 
C:\Users\LOCALH~1\AppData\Local\Temp\cckgc0NY.s:568    .text.I2C_OwnAddress2Config:0000000000000000 .L0 
C:\Users\LOCALH~1\AppData\Local\Temp\cckgc0NY.s:569    .text.I2C_OwnAddress2Config:0000000000000000 $x
C:\Users\LOCALH~1\AppData\Local\Temp\cckgc0NY.s:569    .text.I2C_OwnAddress2Config:0000000000000000 .L0 
C:\Users\LOCALH~1\AppData\Local\Temp\cckgc0NY.s:571    .text.I2C_OwnAddress2Config:0000000000000002 .L0 
C:\Users\LOCALH~1\AppData\Local\Temp\cckgc0NY.s:574    .text.I2C_OwnAddress2Config:0000000000000006 .L0 
C:\Users\LOCALH~1\AppData\Local\Temp\cckgc0NY.s:578    .text.I2C_OwnAddress2Config:000000000000000a .L0 
C:\Users\LOCALH~1\AppData\Local\Temp\cckgc0NY.s:579    .text.I2C_OwnAddress2Config:000000000000000a .L0 
C:\Users\LOCALH~1\AppData\Local\Temp\cckgc0NY.s:582    .text.I2C_OwnAddress2Config:000000000000000e .L0 
C:\Users\LOCALH~1\AppData\Local\Temp\cckgc0NY.s:583    .text.I2C_OwnAddress2Config:000000000000000e .L0 
C:\Users\LOCALH~1\AppData\Local\Temp\cckgc0NY.s:586    .text.I2C_OwnAddress2Config:0000000000000010 .L0 
C:\Users\LOCALH~1\AppData\Local\Temp\cckgc0NY.s:587    .text.I2C_OwnAddress2Config:0000000000000010 .L0 
C:\Users\LOCALH~1\AppData\Local\Temp\cckgc0NY.s:589    .text.I2C_OwnAddress2Config:0000000000000012 .L0 
C:\Users\LOCALH~1\AppData\Local\Temp\cckgc0NY.s:590    .text.I2C_OwnAddress2Config:0000000000000014 .L0 
C:\Users\LOCALH~1\AppData\Local\Temp\cckgc0NY.s:597    .text.I2C_DualAddressCmd:0000000000000000 I2C_DualAddressCmd
C:\Users\LOCALH~1\AppData\Local\Temp\cckgc0NY.s:600    .text.I2C_DualAddressCmd:0000000000000000 .L0 
C:\Users\LOCALH~1\AppData\Local\Temp\cckgc0NY.s:602    .text.I2C_DualAddressCmd:0000000000000000 .L0 
C:\Users\LOCALH~1\AppData\Local\Temp\cckgc0NY.s:603    .text.I2C_DualAddressCmd:0000000000000000 .L0 
C:\Users\LOCALH~1\AppData\Local\Temp\cckgc0NY.s:604    .text.I2C_DualAddressCmd:0000000000000000 $x
C:\Users\LOCALH~1\AppData\Local\Temp\cckgc0NY.s:604    .text.I2C_DualAddressCmd:0000000000000000 .L0 
C:\Users\LOCALH~1\AppData\Local\Temp\cckgc0NY.s:606    .text.I2C_DualAddressCmd:0000000000000002 .L0 
C:\Users\LOCALH~1\AppData\Local\Temp\cckgc0NY.s:608    .text.I2C_DualAddressCmd:0000000000000004 .L0 
C:\Users\LOCALH~1\AppData\Local\Temp\cckgc0NY.s:609    .text.I2C_DualAddressCmd:0000000000000004 .L0 
C:\Users\LOCALH~1\AppData\Local\Temp\cckgc0NY.s:612    .text.I2C_DualAddressCmd:0000000000000008 .L0 
C:\Users\LOCALH~1\AppData\Local\Temp\cckgc0NY.s:614    .text.I2C_DualAddressCmd:000000000000000a .L0 
C:\Users\LOCALH~1\AppData\Local\Temp\cckgc0NY.s:617    .text.I2C_DualAddressCmd:000000000000000c .L0 
C:\Users\LOCALH~1\AppData\Local\Temp\cckgc0NY.s:618    .text.I2C_DualAddressCmd:000000000000000c .L0 
C:\Users\LOCALH~1\AppData\Local\Temp\cckgc0NY.s:621    .text.I2C_DualAddressCmd:0000000000000010 .L0 
C:\Users\LOCALH~1\AppData\Local\Temp\cckgc0NY.s:625    .text.I2C_DualAddressCmd:0000000000000018 .L0 
C:\Users\LOCALH~1\AppData\Local\Temp\cckgc0NY.s:632    .text.I2C_GeneralCallCmd:0000000000000000 I2C_GeneralCallCmd
C:\Users\LOCALH~1\AppData\Local\Temp\cckgc0NY.s:635    .text.I2C_GeneralCallCmd:0000000000000000 .L0 
C:\Users\LOCALH~1\AppData\Local\Temp\cckgc0NY.s:637    .text.I2C_GeneralCallCmd:0000000000000000 .L0 
C:\Users\LOCALH~1\AppData\Local\Temp\cckgc0NY.s:638    .text.I2C_GeneralCallCmd:0000000000000000 .L0 
C:\Users\LOCALH~1\AppData\Local\Temp\cckgc0NY.s:639    .text.I2C_GeneralCallCmd:0000000000000000 $x
C:\Users\LOCALH~1\AppData\Local\Temp\cckgc0NY.s:639    .text.I2C_GeneralCallCmd:0000000000000000 .L0 
C:\Users\LOCALH~1\AppData\Local\Temp\cckgc0NY.s:641    .text.I2C_GeneralCallCmd:0000000000000002 .L0 
C:\Users\LOCALH~1\AppData\Local\Temp\cckgc0NY.s:643    .text.I2C_GeneralCallCmd:0000000000000004 .L0 
C:\Users\LOCALH~1\AppData\Local\Temp\cckgc0NY.s:644    .text.I2C_GeneralCallCmd:0000000000000004 .L0 
C:\Users\LOCALH~1\AppData\Local\Temp\cckgc0NY.s:647    .text.I2C_GeneralCallCmd:0000000000000008 .L0 
C:\Users\LOCALH~1\AppData\Local\Temp\cckgc0NY.s:649    .text.I2C_GeneralCallCmd:000000000000000a .L0 
C:\Users\LOCALH~1\AppData\Local\Temp\cckgc0NY.s:652    .text.I2C_GeneralCallCmd:000000000000000c .L0 
C:\Users\LOCALH~1\AppData\Local\Temp\cckgc0NY.s:653    .text.I2C_GeneralCallCmd:000000000000000c .L0 
C:\Users\LOCALH~1\AppData\Local\Temp\cckgc0NY.s:656    .text.I2C_GeneralCallCmd:0000000000000010 .L0 
C:\Users\LOCALH~1\AppData\Local\Temp\cckgc0NY.s:660    .text.I2C_GeneralCallCmd:000000000000001a .L0 
C:\Users\LOCALH~1\AppData\Local\Temp\cckgc0NY.s:667    .text.I2C_ITConfig:0000000000000000 I2C_ITConfig
C:\Users\LOCALH~1\AppData\Local\Temp\cckgc0NY.s:670    .text.I2C_ITConfig:0000000000000000 .L0 
C:\Users\LOCALH~1\AppData\Local\Temp\cckgc0NY.s:672    .text.I2C_ITConfig:0000000000000000 .L0 
C:\Users\LOCALH~1\AppData\Local\Temp\cckgc0NY.s:673    .text.I2C_ITConfig:0000000000000000 .L0 
C:\Users\LOCALH~1\AppData\Local\Temp\cckgc0NY.s:674    .text.I2C_ITConfig:0000000000000000 $x
C:\Users\LOCALH~1\AppData\Local\Temp\cckgc0NY.s:674    .text.I2C_ITConfig:0000000000000000 .L0 
C:\Users\LOCALH~1\AppData\Local\Temp\cckgc0NY.s:676    .text.I2C_ITConfig:0000000000000002 .L0 
C:\Users\LOCALH~1\AppData\Local\Temp\cckgc0NY.s:678    .text.I2C_ITConfig:0000000000000004 .L0 
C:\Users\LOCALH~1\AppData\Local\Temp\cckgc0NY.s:679    .text.I2C_ITConfig:0000000000000004 .L0 
C:\Users\LOCALH~1\AppData\Local\Temp\cckgc0NY.s:683    .text.I2C_ITConfig:0000000000000006 .L0 
C:\Users\LOCALH~1\AppData\Local\Temp\cckgc0NY.s:685    .text.I2C_ITConfig:0000000000000008 .L0 
C:\Users\LOCALH~1\AppData\Local\Temp\cckgc0NY.s:689    .text.I2C_ITConfig:000000000000000a .L0 
C:\Users\LOCALH~1\AppData\Local\Temp\cckgc0NY.s:690    .text.I2C_ITConfig:000000000000000a .L0 
C:\Users\LOCALH~1\AppData\Local\Temp\cckgc0NY.s:693    .text.I2C_ITConfig:000000000000000e .L0 
C:\Users\LOCALH~1\AppData\Local\Temp\cckgc0NY.s:695    .text.I2C_ITConfig:0000000000000012 .L0 
C:\Users\LOCALH~1\AppData\Local\Temp\cckgc0NY.s:702    .text.I2C_SendData:0000000000000000 I2C_SendData
C:\Users\LOCALH~1\AppData\Local\Temp\cckgc0NY.s:705    .text.I2C_SendData:0000000000000000 .L0 
C:\Users\LOCALH~1\AppData\Local\Temp\cckgc0NY.s:707    .text.I2C_SendData:0000000000000000 .L0 
C:\Users\LOCALH~1\AppData\Local\Temp\cckgc0NY.s:708    .text.I2C_SendData:0000000000000000 .L0 
C:\Users\LOCALH~1\AppData\Local\Temp\cckgc0NY.s:709    .text.I2C_SendData:0000000000000000 $x
C:\Users\LOCALH~1\AppData\Local\Temp\cckgc0NY.s:709    .text.I2C_SendData:0000000000000000 .L0 
C:\Users\LOCALH~1\AppData\Local\Temp\cckgc0NY.s:711    .text.I2C_SendData:0000000000000002 .L0 
C:\Users\LOCALH~1\AppData\Local\Temp\cckgc0NY.s:712    .text.I2C_SendData:0000000000000004 .L0 
C:\Users\LOCALH~1\AppData\Local\Temp\cckgc0NY.s:719    .text.I2C_ReceiveData:0000000000000000 I2C_ReceiveData
C:\Users\LOCALH~1\AppData\Local\Temp\cckgc0NY.s:722    .text.I2C_ReceiveData:0000000000000000 .L0 
C:\Users\LOCALH~1\AppData\Local\Temp\cckgc0NY.s:724    .text.I2C_ReceiveData:0000000000000000 .L0 
C:\Users\LOCALH~1\AppData\Local\Temp\cckgc0NY.s:725    .text.I2C_ReceiveData:0000000000000000 .L0 
C:\Users\LOCALH~1\AppData\Local\Temp\cckgc0NY.s:726    .text.I2C_ReceiveData:0000000000000000 $x
C:\Users\LOCALH~1\AppData\Local\Temp\cckgc0NY.s:726    .text.I2C_ReceiveData:0000000000000000 .L0 
C:\Users\LOCALH~1\AppData\Local\Temp\cckgc0NY.s:729    .text.I2C_ReceiveData:0000000000000002 .L0 
C:\Users\LOCALH~1\AppData\Local\Temp\cckgc0NY.s:731    .text.I2C_ReceiveData:0000000000000008 .L0 
C:\Users\LOCALH~1\AppData\Local\Temp\cckgc0NY.s:738    .text.I2C_Send7bitAddress:0000000000000000 I2C_Send7bitAddress
C:\Users\LOCALH~1\AppData\Local\Temp\cckgc0NY.s:741    .text.I2C_Send7bitAddress:0000000000000000 .L0 
C:\Users\LOCALH~1\AppData\Local\Temp\cckgc0NY.s:743    .text.I2C_Send7bitAddress:0000000000000000 .L0 
C:\Users\LOCALH~1\AppData\Local\Temp\cckgc0NY.s:744    .text.I2C_Send7bitAddress:0000000000000000 .L0 
C:\Users\LOCALH~1\AppData\Local\Temp\cckgc0NY.s:745    .text.I2C_Send7bitAddress:0000000000000000 $x
C:\Users\LOCALH~1\AppData\Local\Temp\cckgc0NY.s:745    .text.I2C_Send7bitAddress:0000000000000000 .L0 
C:\Users\LOCALH~1\AppData\Local\Temp\cckgc0NY.s:747    .text.I2C_Send7bitAddress:0000000000000004 .L0 
C:\Users\LOCALH~1\AppData\Local\Temp\cckgc0NY.s:749    .text.I2C_Send7bitAddress:0000000000000006 .L0 
C:\Users\LOCALH~1\AppData\Local\Temp\cckgc0NY.s:750    .text.I2C_Send7bitAddress:0000000000000006 .L0 
C:\Users\LOCALH~1\AppData\Local\Temp\cckgc0NY.s:754    .text.I2C_Send7bitAddress:000000000000000a .L0 
C:\Users\LOCALH~1\AppData\Local\Temp\cckgc0NY.s:755    .text.I2C_Send7bitAddress:000000000000000a .L0 
C:\Users\LOCALH~1\AppData\Local\Temp\cckgc0NY.s:757    .text.I2C_Send7bitAddress:000000000000000c .L0 
C:\Users\LOCALH~1\AppData\Local\Temp\cckgc0NY.s:758    .text.I2C_Send7bitAddress:000000000000000e .L0 
C:\Users\LOCALH~1\AppData\Local\Temp\cckgc0NY.s:765    .text.I2C_ReadRegister:0000000000000000 I2C_ReadRegister
C:\Users\LOCALH~1\AppData\Local\Temp\cckgc0NY.s:768    .text.I2C_ReadRegister:0000000000000000 .L0 
C:\Users\LOCALH~1\AppData\Local\Temp\cckgc0NY.s:770    .text.I2C_ReadRegister:0000000000000000 .L0 
C:\Users\LOCALH~1\AppData\Local\Temp\cckgc0NY.s:771    .text.I2C_ReadRegister:0000000000000000 .L0 
C:\Users\LOCALH~1\AppData\Local\Temp\cckgc0NY.s:772    .text.I2C_ReadRegister:0000000000000000 $x
C:\Users\LOCALH~1\AppData\Local\Temp\cckgc0NY.s:772    .text.I2C_ReadRegister:0000000000000000 .L0 
C:\Users\LOCALH~1\AppData\Local\Temp\cckgc0NY.s:773    .text.I2C_ReadRegister:0000000000000002 .L0 
C:\Users\LOCALH~1\AppData\Local\Temp\cckgc0NY.s:775    .text.I2C_ReadRegister:0000000000000002 .L0 
C:\Users\LOCALH~1\AppData\Local\Temp\cckgc0NY.s:777    .text.I2C_ReadRegister:0000000000000004 .L0 
C:\Users\LOCALH~1\AppData\Local\Temp\cckgc0NY.s:778    .text.I2C_ReadRegister:0000000000000004 .L0 
C:\Users\LOCALH~1\AppData\Local\Temp\cckgc0NY.s:780    .text.I2C_ReadRegister:0000000000000006 .L0 
C:\Users\LOCALH~1\AppData\Local\Temp\cckgc0NY.s:781    .text.I2C_ReadRegister:0000000000000006 .L0 
C:\Users\LOCALH~1\AppData\Local\Temp\cckgc0NY.s:786    .text.I2C_ReadRegister:000000000000000c .L0 
C:\Users\LOCALH~1\AppData\Local\Temp\cckgc0NY.s:787    .text.I2C_ReadRegister:000000000000000c .L0 
C:\Users\LOCALH~1\AppData\Local\Temp\cckgc0NY.s:789    .text.I2C_ReadRegister:000000000000000e .L0 
C:\Users\LOCALH~1\AppData\Local\Temp\cckgc0NY.s:792    .text.I2C_ReadRegister:0000000000000010 .L0 
C:\Users\LOCALH~1\AppData\Local\Temp\cckgc0NY.s:793    .text.I2C_ReadRegister:0000000000000012 .L0 
C:\Users\LOCALH~1\AppData\Local\Temp\cckgc0NY.s:795    .text.I2C_ReadRegister:0000000000000014 .L0 
C:\Users\LOCALH~1\AppData\Local\Temp\cckgc0NY.s:802    .text.I2C_SoftwareResetCmd:0000000000000000 I2C_SoftwareResetCmd
C:\Users\LOCALH~1\AppData\Local\Temp\cckgc0NY.s:805    .text.I2C_SoftwareResetCmd:0000000000000000 .L0 
C:\Users\LOCALH~1\AppData\Local\Temp\cckgc0NY.s:807    .text.I2C_SoftwareResetCmd:0000000000000000 .L0 
C:\Users\LOCALH~1\AppData\Local\Temp\cckgc0NY.s:808    .text.I2C_SoftwareResetCmd:0000000000000000 .L0 
C:\Users\LOCALH~1\AppData\Local\Temp\cckgc0NY.s:809    .text.I2C_SoftwareResetCmd:0000000000000000 $x
C:\Users\LOCALH~1\AppData\Local\Temp\cckgc0NY.s:809    .text.I2C_SoftwareResetCmd:0000000000000000 .L0 
C:\Users\LOCALH~1\AppData\Local\Temp\cckgc0NY.s:811    .text.I2C_SoftwareResetCmd:0000000000000002 .L0 
C:\Users\LOCALH~1\AppData\Local\Temp\cckgc0NY.s:813    .text.I2C_SoftwareResetCmd:0000000000000004 .L0 
C:\Users\LOCALH~1\AppData\Local\Temp\cckgc0NY.s:814    .text.I2C_SoftwareResetCmd:0000000000000004 .L0 
C:\Users\LOCALH~1\AppData\Local\Temp\cckgc0NY.s:818    .text.I2C_SoftwareResetCmd:0000000000000008 .L0 
C:\Users\LOCALH~1\AppData\Local\Temp\cckgc0NY.s:820    .text.I2C_SoftwareResetCmd:000000000000000a .L0 
C:\Users\LOCALH~1\AppData\Local\Temp\cckgc0NY.s:823    .text.I2C_SoftwareResetCmd:000000000000000c .L0 
C:\Users\LOCALH~1\AppData\Local\Temp\cckgc0NY.s:824    .text.I2C_SoftwareResetCmd:000000000000000c .L0 
C:\Users\LOCALH~1\AppData\Local\Temp\cckgc0NY.s:827    .text.I2C_SoftwareResetCmd:0000000000000012 .L0 
C:\Users\LOCALH~1\AppData\Local\Temp\cckgc0NY.s:834    .text.I2C_NACKPositionConfig:0000000000000000 I2C_NACKPositionConfig
C:\Users\LOCALH~1\AppData\Local\Temp\cckgc0NY.s:837    .text.I2C_NACKPositionConfig:0000000000000000 .L0 
C:\Users\LOCALH~1\AppData\Local\Temp\cckgc0NY.s:839    .text.I2C_NACKPositionConfig:0000000000000000 .L0 
C:\Users\LOCALH~1\AppData\Local\Temp\cckgc0NY.s:840    .text.I2C_NACKPositionConfig:0000000000000000 .L0 
C:\Users\LOCALH~1\AppData\Local\Temp\cckgc0NY.s:841    .text.I2C_NACKPositionConfig:0000000000000000 $x
C:\Users\LOCALH~1\AppData\Local\Temp\cckgc0NY.s:841    .text.I2C_NACKPositionConfig:0000000000000000 .L0 
C:\Users\LOCALH~1\AppData\Local\Temp\cckgc0NY.s:843    .text.I2C_NACKPositionConfig:0000000000000002 .L0 
C:\Users\LOCALH~1\AppData\Local\Temp\cckgc0NY.s:847    .text.I2C_NACKPositionConfig:0000000000000008 .L0 
C:\Users\LOCALH~1\AppData\Local\Temp\cckgc0NY.s:848    .text.I2C_NACKPositionConfig:0000000000000008 .L0 
C:\Users\LOCALH~1\AppData\Local\Temp\cckgc0NY.s:855    .text.I2C_NACKPositionConfig:0000000000000014 .L0 
C:\Users\LOCALH~1\AppData\Local\Temp\cckgc0NY.s:857    .text.I2C_NACKPositionConfig:0000000000000016 .L0 
C:\Users\LOCALH~1\AppData\Local\Temp\cckgc0NY.s:860    .text.I2C_NACKPositionConfig:0000000000000018 .L0 
C:\Users\LOCALH~1\AppData\Local\Temp\cckgc0NY.s:861    .text.I2C_NACKPositionConfig:0000000000000018 .L0 
C:\Users\LOCALH~1\AppData\Local\Temp\cckgc0NY.s:865    .text.I2C_NACKPositionConfig:0000000000000022 .L0 
C:\Users\LOCALH~1\AppData\Local\Temp\cckgc0NY.s:872    .text.I2C_SMBusAlertConfig:0000000000000000 I2C_SMBusAlertConfig
C:\Users\LOCALH~1\AppData\Local\Temp\cckgc0NY.s:875    .text.I2C_SMBusAlertConfig:0000000000000000 .L0 
C:\Users\LOCALH~1\AppData\Local\Temp\cckgc0NY.s:877    .text.I2C_SMBusAlertConfig:0000000000000000 .L0 
C:\Users\LOCALH~1\AppData\Local\Temp\cckgc0NY.s:878    .text.I2C_SMBusAlertConfig:0000000000000000 .L0 
C:\Users\LOCALH~1\AppData\Local\Temp\cckgc0NY.s:879    .text.I2C_SMBusAlertConfig:0000000000000000 $x
C:\Users\LOCALH~1\AppData\Local\Temp\cckgc0NY.s:879    .text.I2C_SMBusAlertConfig:0000000000000000 .L0 
C:\Users\LOCALH~1\AppData\Local\Temp\cckgc0NY.s:882    .text.I2C_SMBusAlertConfig:0000000000000006 .L0 
C:\Users\LOCALH~1\AppData\Local\Temp\cckgc0NY.s:883    .text.I2C_SMBusAlertConfig:0000000000000006 .L0 
C:\Users\LOCALH~1\AppData\Local\Temp\cckgc0NY.s:885    .text.I2C_SMBusAlertConfig:0000000000000008 .L0 
C:\Users\LOCALH~1\AppData\Local\Temp\cckgc0NY.s:889    .text.I2C_SMBusAlertConfig:000000000000000c .L0 
C:\Users\LOCALH~1\AppData\Local\Temp\cckgc0NY.s:891    .text.I2C_SMBusAlertConfig:000000000000000e .L0 
C:\Users\LOCALH~1\AppData\Local\Temp\cckgc0NY.s:894    .text.I2C_SMBusAlertConfig:0000000000000010 .L0 
C:\Users\LOCALH~1\AppData\Local\Temp\cckgc0NY.s:895    .text.I2C_SMBusAlertConfig:0000000000000010 .L0 
C:\Users\LOCALH~1\AppData\Local\Temp\cckgc0NY.s:897    .text.I2C_SMBusAlertConfig:0000000000000012 .L0 
C:\Users\LOCALH~1\AppData\Local\Temp\cckgc0NY.s:901    .text.I2C_SMBusAlertConfig:000000000000001a .L0 
C:\Users\LOCALH~1\AppData\Local\Temp\cckgc0NY.s:908    .text.I2C_TransmitPEC:0000000000000000 I2C_TransmitPEC
C:\Users\LOCALH~1\AppData\Local\Temp\cckgc0NY.s:911    .text.I2C_TransmitPEC:0000000000000000 .L0 
C:\Users\LOCALH~1\AppData\Local\Temp\cckgc0NY.s:913    .text.I2C_TransmitPEC:0000000000000000 .L0 
C:\Users\LOCALH~1\AppData\Local\Temp\cckgc0NY.s:914    .text.I2C_TransmitPEC:0000000000000000 .L0 
C:\Users\LOCALH~1\AppData\Local\Temp\cckgc0NY.s:915    .text.I2C_TransmitPEC:0000000000000000 $x
C:\Users\LOCALH~1\AppData\Local\Temp\cckgc0NY.s:915    .text.I2C_TransmitPEC:0000000000000000 .L0 
C:\Users\LOCALH~1\AppData\Local\Temp\cckgc0NY.s:917    .text.I2C_TransmitPEC:0000000000000002 .L0 
C:\Users\LOCALH~1\AppData\Local\Temp\cckgc0NY.s:919    .text.I2C_TransmitPEC:0000000000000004 .L0 
C:\Users\LOCALH~1\AppData\Local\Temp\cckgc0NY.s:920    .text.I2C_TransmitPEC:0000000000000004 .L0 
C:\Users\LOCALH~1\AppData\Local\Temp\cckgc0NY.s:924    .text.I2C_TransmitPEC:0000000000000008 .L0 
C:\Users\LOCALH~1\AppData\Local\Temp\cckgc0NY.s:926    .text.I2C_TransmitPEC:000000000000000a .L0 
C:\Users\LOCALH~1\AppData\Local\Temp\cckgc0NY.s:929    .text.I2C_TransmitPEC:000000000000000c .L0 
C:\Users\LOCALH~1\AppData\Local\Temp\cckgc0NY.s:930    .text.I2C_TransmitPEC:000000000000000c .L0 
C:\Users\LOCALH~1\AppData\Local\Temp\cckgc0NY.s:934    .text.I2C_TransmitPEC:0000000000000014 .L0 
C:\Users\LOCALH~1\AppData\Local\Temp\cckgc0NY.s:941    .text.I2C_PECPositionConfig:0000000000000000 I2C_PECPositionConfig
C:\Users\LOCALH~1\AppData\Local\Temp\cckgc0NY.s:943    .text.I2C_PECPositionConfig:0000000000000000 .L0 
C:\Users\LOCALH~1\AppData\Local\Temp\cckgc0NY.s:945    .text.I2C_PECPositionConfig:0000000000000000 $x
C:\Users\LOCALH~1\AppData\Local\Temp\cckgc0NY.s:945    .text.I2C_PECPositionConfig:0000000000000000 .L0 
C:\Users\LOCALH~1\AppData\Local\Temp\cckgc0NY.s:946    .text.I2C_PECPositionConfig:0000000000000008 .L0 
C:\Users\LOCALH~1\AppData\Local\Temp\cckgc0NY.s:953    .text.I2C_CalculatePEC:0000000000000000 I2C_CalculatePEC
C:\Users\LOCALH~1\AppData\Local\Temp\cckgc0NY.s:956    .text.I2C_CalculatePEC:0000000000000000 .L0 
C:\Users\LOCALH~1\AppData\Local\Temp\cckgc0NY.s:958    .text.I2C_CalculatePEC:0000000000000000 .L0 
C:\Users\LOCALH~1\AppData\Local\Temp\cckgc0NY.s:959    .text.I2C_CalculatePEC:0000000000000000 .L0 
C:\Users\LOCALH~1\AppData\Local\Temp\cckgc0NY.s:960    .text.I2C_CalculatePEC:0000000000000000 $x
C:\Users\LOCALH~1\AppData\Local\Temp\cckgc0NY.s:960    .text.I2C_CalculatePEC:0000000000000000 .L0 
C:\Users\LOCALH~1\AppData\Local\Temp\cckgc0NY.s:962    .text.I2C_CalculatePEC:0000000000000002 .L0 
C:\Users\LOCALH~1\AppData\Local\Temp\cckgc0NY.s:964    .text.I2C_CalculatePEC:0000000000000004 .L0 
C:\Users\LOCALH~1\AppData\Local\Temp\cckgc0NY.s:965    .text.I2C_CalculatePEC:0000000000000004 .L0 
C:\Users\LOCALH~1\AppData\Local\Temp\cckgc0NY.s:968    .text.I2C_CalculatePEC:0000000000000008 .L0 
C:\Users\LOCALH~1\AppData\Local\Temp\cckgc0NY.s:970    .text.I2C_CalculatePEC:000000000000000a .L0 
C:\Users\LOCALH~1\AppData\Local\Temp\cckgc0NY.s:973    .text.I2C_CalculatePEC:000000000000000c .L0 
C:\Users\LOCALH~1\AppData\Local\Temp\cckgc0NY.s:974    .text.I2C_CalculatePEC:000000000000000c .L0 
C:\Users\LOCALH~1\AppData\Local\Temp\cckgc0NY.s:977    .text.I2C_CalculatePEC:0000000000000010 .L0 
C:\Users\LOCALH~1\AppData\Local\Temp\cckgc0NY.s:981    .text.I2C_CalculatePEC:000000000000001a .L0 
C:\Users\LOCALH~1\AppData\Local\Temp\cckgc0NY.s:988    .text.I2C_GetPEC:0000000000000000 I2C_GetPEC
C:\Users\LOCALH~1\AppData\Local\Temp\cckgc0NY.s:991    .text.I2C_GetPEC:0000000000000000 .L0 
C:\Users\LOCALH~1\AppData\Local\Temp\cckgc0NY.s:993    .text.I2C_GetPEC:0000000000000000 .L0 
C:\Users\LOCALH~1\AppData\Local\Temp\cckgc0NY.s:994    .text.I2C_GetPEC:0000000000000000 .L0 
C:\Users\LOCALH~1\AppData\Local\Temp\cckgc0NY.s:995    .text.I2C_GetPEC:0000000000000000 $x
C:\Users\LOCALH~1\AppData\Local\Temp\cckgc0NY.s:995    .text.I2C_GetPEC:0000000000000000 .L0 
C:\Users\LOCALH~1\AppData\Local\Temp\cckgc0NY.s:998    .text.I2C_GetPEC:0000000000000002 .L0 
C:\Users\LOCALH~1\AppData\Local\Temp\cckgc0NY.s:1000   .text.I2C_GetPEC:0000000000000006 .L0 
C:\Users\LOCALH~1\AppData\Local\Temp\cckgc0NY.s:1007   .text.I2C_ARPCmd:0000000000000000 I2C_ARPCmd
C:\Users\LOCALH~1\AppData\Local\Temp\cckgc0NY.s:1010   .text.I2C_ARPCmd:0000000000000000 .L0 
C:\Users\LOCALH~1\AppData\Local\Temp\cckgc0NY.s:1012   .text.I2C_ARPCmd:0000000000000000 .L0 
C:\Users\LOCALH~1\AppData\Local\Temp\cckgc0NY.s:1013   .text.I2C_ARPCmd:0000000000000000 .L0 
C:\Users\LOCALH~1\AppData\Local\Temp\cckgc0NY.s:1014   .text.I2C_ARPCmd:0000000000000000 $x
C:\Users\LOCALH~1\AppData\Local\Temp\cckgc0NY.s:1014   .text.I2C_ARPCmd:0000000000000000 .L0 
C:\Users\LOCALH~1\AppData\Local\Temp\cckgc0NY.s:1016   .text.I2C_ARPCmd:0000000000000002 .L0 
C:\Users\LOCALH~1\AppData\Local\Temp\cckgc0NY.s:1018   .text.I2C_ARPCmd:0000000000000004 .L0 
C:\Users\LOCALH~1\AppData\Local\Temp\cckgc0NY.s:1019   .text.I2C_ARPCmd:0000000000000004 .L0 
C:\Users\LOCALH~1\AppData\Local\Temp\cckgc0NY.s:1022   .text.I2C_ARPCmd:0000000000000008 .L0 
C:\Users\LOCALH~1\AppData\Local\Temp\cckgc0NY.s:1024   .text.I2C_ARPCmd:000000000000000a .L0 
C:\Users\LOCALH~1\AppData\Local\Temp\cckgc0NY.s:1027   .text.I2C_ARPCmd:000000000000000c .L0 
C:\Users\LOCALH~1\AppData\Local\Temp\cckgc0NY.s:1028   .text.I2C_ARPCmd:000000000000000c .L0 
C:\Users\LOCALH~1\AppData\Local\Temp\cckgc0NY.s:1031   .text.I2C_ARPCmd:0000000000000010 .L0 
C:\Users\LOCALH~1\AppData\Local\Temp\cckgc0NY.s:1035   .text.I2C_ARPCmd:0000000000000018 .L0 
C:\Users\LOCALH~1\AppData\Local\Temp\cckgc0NY.s:1042   .text.I2C_StretchClockCmd:0000000000000000 I2C_StretchClockCmd
C:\Users\LOCALH~1\AppData\Local\Temp\cckgc0NY.s:1045   .text.I2C_StretchClockCmd:0000000000000000 .L0 
C:\Users\LOCALH~1\AppData\Local\Temp\cckgc0NY.s:1047   .text.I2C_StretchClockCmd:0000000000000000 .L0 
C:\Users\LOCALH~1\AppData\Local\Temp\cckgc0NY.s:1048   .text.I2C_StretchClockCmd:0000000000000000 .L0 
C:\Users\LOCALH~1\AppData\Local\Temp\cckgc0NY.s:1049   .text.I2C_StretchClockCmd:0000000000000000 $x
C:\Users\LOCALH~1\AppData\Local\Temp\cckgc0NY.s:1049   .text.I2C_StretchClockCmd:0000000000000000 .L0 
C:\Users\LOCALH~1\AppData\Local\Temp\cckgc0NY.s:1051   .text.I2C_StretchClockCmd:0000000000000002 .L0 
C:\Users\LOCALH~1\AppData\Local\Temp\cckgc0NY.s:1053   .text.I2C_StretchClockCmd:0000000000000004 .L0 
C:\Users\LOCALH~1\AppData\Local\Temp\cckgc0NY.s:1054   .text.I2C_StretchClockCmd:0000000000000004 .L0 
C:\Users\LOCALH~1\AppData\Local\Temp\cckgc0NY.s:1057   .text.I2C_StretchClockCmd:0000000000000008 .L0 
C:\Users\LOCALH~1\AppData\Local\Temp\cckgc0NY.s:1059   .text.I2C_StretchClockCmd:000000000000000a .L0 
C:\Users\LOCALH~1\AppData\Local\Temp\cckgc0NY.s:1062   .text.I2C_StretchClockCmd:000000000000000c .L0 
C:\Users\LOCALH~1\AppData\Local\Temp\cckgc0NY.s:1063   .text.I2C_StretchClockCmd:000000000000000c .L0 
C:\Users\LOCALH~1\AppData\Local\Temp\cckgc0NY.s:1066   .text.I2C_StretchClockCmd:0000000000000010 .L0 
C:\Users\LOCALH~1\AppData\Local\Temp\cckgc0NY.s:1070   .text.I2C_StretchClockCmd:000000000000001a .L0 
C:\Users\LOCALH~1\AppData\Local\Temp\cckgc0NY.s:1077   .text.I2C_FastModeDutyCycleConfig:0000000000000000 I2C_FastModeDutyCycleConfig
C:\Users\LOCALH~1\AppData\Local\Temp\cckgc0NY.s:1080   .text.I2C_FastModeDutyCycleConfig:0000000000000000 .L0 
C:\Users\LOCALH~1\AppData\Local\Temp\cckgc0NY.s:1082   .text.I2C_FastModeDutyCycleConfig:0000000000000000 .L0 
C:\Users\LOCALH~1\AppData\Local\Temp\cckgc0NY.s:1083   .text.I2C_FastModeDutyCycleConfig:0000000000000000 .L0 
C:\Users\LOCALH~1\AppData\Local\Temp\cckgc0NY.s:1084   .text.I2C_FastModeDutyCycleConfig:0000000000000000 $x
C:\Users\LOCALH~1\AppData\Local\Temp\cckgc0NY.s:1084   .text.I2C_FastModeDutyCycleConfig:0000000000000000 .L0 
C:\Users\LOCALH~1\AppData\Local\Temp\cckgc0NY.s:1087   .text.I2C_FastModeDutyCycleConfig:0000000000000006 .L0 
C:\Users\LOCALH~1\AppData\Local\Temp\cckgc0NY.s:1088   .text.I2C_FastModeDutyCycleConfig:0000000000000006 .L0 
C:\Users\LOCALH~1\AppData\Local\Temp\cckgc0NY.s:1090   .text.I2C_FastModeDutyCycleConfig:0000000000000008 .L0 
C:\Users\LOCALH~1\AppData\Local\Temp\cckgc0NY.s:1095   .text.I2C_FastModeDutyCycleConfig:000000000000000e .L0 
C:\Users\LOCALH~1\AppData\Local\Temp\cckgc0NY.s:1097   .text.I2C_FastModeDutyCycleConfig:0000000000000010 .L0 
C:\Users\LOCALH~1\AppData\Local\Temp\cckgc0NY.s:1100   .text.I2C_FastModeDutyCycleConfig:0000000000000012 .L0 
C:\Users\LOCALH~1\AppData\Local\Temp\cckgc0NY.s:1101   .text.I2C_FastModeDutyCycleConfig:0000000000000012 .L0 
C:\Users\LOCALH~1\AppData\Local\Temp\cckgc0NY.s:1103   .text.I2C_FastModeDutyCycleConfig:0000000000000014 .L0 
C:\Users\LOCALH~1\AppData\Local\Temp\cckgc0NY.s:1106   .text.I2C_FastModeDutyCycleConfig:000000000000001a .L0 
C:\Users\LOCALH~1\AppData\Local\Temp\cckgc0NY.s:1113   .text.I2C_CheckEvent:0000000000000000 I2C_CheckEvent
C:\Users\LOCALH~1\AppData\Local\Temp\cckgc0NY.s:1116   .text.I2C_CheckEvent:0000000000000000 .L0 
C:\Users\LOCALH~1\AppData\Local\Temp\cckgc0NY.s:1118   .text.I2C_CheckEvent:0000000000000000 .L0 
C:\Users\LOCALH~1\AppData\Local\Temp\cckgc0NY.s:1119   .text.I2C_CheckEvent:0000000000000000 .L0 
C:\Users\LOCALH~1\AppData\Local\Temp\cckgc0NY.s:1120   .text.I2C_CheckEvent:0000000000000000 .L0 
C:\Users\LOCALH~1\AppData\Local\Temp\cckgc0NY.s:1121   .text.I2C_CheckEvent:0000000000000000 .L0 
C:\Users\LOCALH~1\AppData\Local\Temp\cckgc0NY.s:1122   .text.I2C_CheckEvent:0000000000000000 .L0 
C:\Users\LOCALH~1\AppData\Local\Temp\cckgc0NY.s:1123   .text.I2C_CheckEvent:0000000000000000 $x
C:\Users\LOCALH~1\AppData\Local\Temp\cckgc0NY.s:1123   .text.I2C_CheckEvent:0000000000000000 .L0 
C:\Users\LOCALH~1\AppData\Local\Temp\cckgc0NY.s:1126   .text.I2C_CheckEvent:0000000000000002 .L0 
C:\Users\LOCALH~1\AppData\Local\Temp\cckgc0NY.s:1127   .text.I2C_CheckEvent:0000000000000002 .L0 
C:\Users\LOCALH~1\AppData\Local\Temp\cckgc0NY.s:1130   .text.I2C_CheckEvent:0000000000000004 .L0 
C:\Users\LOCALH~1\AppData\Local\Temp\cckgc0NY.s:1131   .text.I2C_CheckEvent:0000000000000004 .L0 
C:\Users\LOCALH~1\AppData\Local\Temp\cckgc0NY.s:1132   .text.I2C_CheckEvent:0000000000000004 .L0 
C:\Users\LOCALH~1\AppData\Local\Temp\cckgc0NY.s:1133   .text.I2C_CheckEvent:0000000000000004 .L0 
C:\Users\LOCALH~1\AppData\Local\Temp\cckgc0NY.s:1134   .text.I2C_CheckEvent:0000000000000004 .L0 
C:\Users\LOCALH~1\AppData\Local\Temp\cckgc0NY.s:1137   .text.I2C_CheckEvent:0000000000000006 .L0 
C:\Users\LOCALH~1\AppData\Local\Temp\cckgc0NY.s:1140   .text.I2C_CheckEvent:0000000000000008 .L0 
C:\Users\LOCALH~1\AppData\Local\Temp\cckgc0NY.s:1145   .text.I2C_CheckEvent:000000000000000e .L0 
C:\Users\LOCALH~1\AppData\Local\Temp\cckgc0NY.s:1147   .text.I2C_CheckEvent:0000000000000010 .L0 
C:\Users\LOCALH~1\AppData\Local\Temp\cckgc0NY.s:1149   .text.I2C_CheckEvent:0000000000000016 .L0 
C:\Users\LOCALH~1\AppData\Local\Temp\cckgc0NY.s:1156   .text.I2C_GetLastEvent:0000000000000000 I2C_GetLastEvent
C:\Users\LOCALH~1\AppData\Local\Temp\cckgc0NY.s:1159   .text.I2C_GetLastEvent:0000000000000000 .L0 
C:\Users\LOCALH~1\AppData\Local\Temp\cckgc0NY.s:1161   .text.I2C_GetLastEvent:0000000000000000 .L0 
C:\Users\LOCALH~1\AppData\Local\Temp\cckgc0NY.s:1162   .text.I2C_GetLastEvent:0000000000000000 .L0 
C:\Users\LOCALH~1\AppData\Local\Temp\cckgc0NY.s:1163   .text.I2C_GetLastEvent:0000000000000000 .L0 
C:\Users\LOCALH~1\AppData\Local\Temp\cckgc0NY.s:1164   .text.I2C_GetLastEvent:0000000000000000 .L0 
C:\Users\LOCALH~1\AppData\Local\Temp\cckgc0NY.s:1165   .text.I2C_GetLastEvent:0000000000000000 $x
C:\Users\LOCALH~1\AppData\Local\Temp\cckgc0NY.s:1165   .text.I2C_GetLastEvent:0000000000000000 .L0 
C:\Users\LOCALH~1\AppData\Local\Temp\cckgc0NY.s:1168   .text.I2C_GetLastEvent:0000000000000002 .L0 
C:\Users\LOCALH~1\AppData\Local\Temp\cckgc0NY.s:1169   .text.I2C_GetLastEvent:0000000000000002 .L0 
C:\Users\LOCALH~1\AppData\Local\Temp\cckgc0NY.s:1172   .text.I2C_GetLastEvent:0000000000000004 .L0 
C:\Users\LOCALH~1\AppData\Local\Temp\cckgc0NY.s:1173   .text.I2C_GetLastEvent:0000000000000004 .L0 
C:\Users\LOCALH~1\AppData\Local\Temp\cckgc0NY.s:1174   .text.I2C_GetLastEvent:0000000000000004 .L0 
C:\Users\LOCALH~1\AppData\Local\Temp\cckgc0NY.s:1175   .text.I2C_GetLastEvent:0000000000000004 .L0 
C:\Users\LOCALH~1\AppData\Local\Temp\cckgc0NY.s:1178   .text.I2C_GetLastEvent:0000000000000006 .L0 
C:\Users\LOCALH~1\AppData\Local\Temp\cckgc0NY.s:1181   .text.I2C_GetLastEvent:0000000000000008 .L0 
C:\Users\LOCALH~1\AppData\Local\Temp\cckgc0NY.s:1183   .text.I2C_GetLastEvent:000000000000000a .L0 
C:\Users\LOCALH~1\AppData\Local\Temp\cckgc0NY.s:1185   .text.I2C_GetLastEvent:000000000000000e .L0 
C:\Users\LOCALH~1\AppData\Local\Temp\cckgc0NY.s:1192   .text.I2C_GetFlagStatus:0000000000000000 I2C_GetFlagStatus
C:\Users\LOCALH~1\AppData\Local\Temp\cckgc0NY.s:1195   .text.I2C_GetFlagStatus:0000000000000000 .L0 
C:\Users\LOCALH~1\AppData\Local\Temp\cckgc0NY.s:1197   .text.I2C_GetFlagStatus:0000000000000000 .L0 
C:\Users\LOCALH~1\AppData\Local\Temp\cckgc0NY.s:1198   .text.I2C_GetFlagStatus:0000000000000000 .L0 
C:\Users\LOCALH~1\AppData\Local\Temp\cckgc0NY.s:1199   .text.I2C_GetFlagStatus:0000000000000000 .L0 
C:\Users\LOCALH~1\AppData\Local\Temp\cckgc0NY.s:1200   .text.I2C_GetFlagStatus:0000000000000000 $x
C:\Users\LOCALH~1\AppData\Local\Temp\cckgc0NY.s:1200   .text.I2C_GetFlagStatus:0000000000000000 .L0 
C:\Users\LOCALH~1\AppData\Local\Temp\cckgc0NY.s:1201   .text.I2C_GetFlagStatus:0000000000000002 .L0 
C:\Users\LOCALH~1\AppData\Local\Temp\cckgc0NY.s:1203   .text.I2C_GetFlagStatus:0000000000000002 .L0 
C:\Users\LOCALH~1\AppData\Local\Temp\cckgc0NY.s:1205   .text.I2C_GetFlagStatus:0000000000000004 .L0 
C:\Users\LOCALH~1\AppData\Local\Temp\cckgc0NY.s:1207   .text.I2C_GetFlagStatus:0000000000000006 .L0 
C:\Users\LOCALH~1\AppData\Local\Temp\cckgc0NY.s:1208   .text.I2C_GetFlagStatus:0000000000000006 .L0 
C:\Users\LOCALH~1\AppData\Local\Temp\cckgc0NY.s:1210   .text.I2C_GetFlagStatus:000000000000000a .L0 
C:\Users\LOCALH~1\AppData\Local\Temp\cckgc0NY.s:1212   .text.I2C_GetFlagStatus:000000000000000c .L0 
C:\Users\LOCALH~1\AppData\Local\Temp\cckgc0NY.s:1213   .text.I2C_GetFlagStatus:000000000000000c .L0 
C:\Users\LOCALH~1\AppData\Local\Temp\cckgc0NY.s:1215   .text.I2C_GetFlagStatus:000000000000000e .L0 
C:\Users\LOCALH~1\AppData\Local\Temp\cckgc0NY.s:1216   .text.I2C_GetFlagStatus:000000000000000e .L0 
C:\Users\LOCALH~1\AppData\Local\Temp\cckgc0NY.s:1218   .text.I2C_GetFlagStatus:0000000000000010 .L0 
C:\Users\LOCALH~1\AppData\Local\Temp\cckgc0NY.s:1223   .text.I2C_GetFlagStatus:0000000000000014 .L0 
C:\Users\LOCALH~1\AppData\Local\Temp\cckgc0NY.s:1224   .text.I2C_GetFlagStatus:0000000000000014 .L0 
C:\Users\LOCALH~1\AppData\Local\Temp\cckgc0NY.s:1226   .text.I2C_GetFlagStatus:0000000000000016 .L0 
C:\Users\LOCALH~1\AppData\Local\Temp\cckgc0NY.s:1227   .text.I2C_GetFlagStatus:0000000000000016 .L0 
C:\Users\LOCALH~1\AppData\Local\Temp\cckgc0NY.s:1231   .text.I2C_GetFlagStatus:000000000000001a .L0 
C:\Users\LOCALH~1\AppData\Local\Temp\cckgc0NY.s:1233   .text.I2C_GetFlagStatus:000000000000001c .L0 
C:\Users\LOCALH~1\AppData\Local\Temp\cckgc0NY.s:1234   .text.I2C_GetFlagStatus:000000000000001c .L0 
C:\Users\LOCALH~1\AppData\Local\Temp\cckgc0NY.s:1236   .text.I2C_GetFlagStatus:000000000000001e .L0 
C:\Users\LOCALH~1\AppData\Local\Temp\cckgc0NY.s:1239   .text.I2C_GetFlagStatus:0000000000000020 .L0 
C:\Users\LOCALH~1\AppData\Local\Temp\cckgc0NY.s:1240   .text.I2C_GetFlagStatus:0000000000000020 .L0 
C:\Users\LOCALH~1\AppData\Local\Temp\cckgc0NY.s:1241   .text.I2C_GetFlagStatus:0000000000000022 .L0 
C:\Users\LOCALH~1\AppData\Local\Temp\cckgc0NY.s:1242   .text.I2C_GetFlagStatus:0000000000000022 .L0 
C:\Users\LOCALH~1\AppData\Local\Temp\cckgc0NY.s:1244   .text.I2C_GetFlagStatus:0000000000000022 .L0 
C:\Users\LOCALH~1\AppData\Local\Temp\cckgc0NY.s:1247   .text.I2C_GetFlagStatus:0000000000000024 .L0 
C:\Users\LOCALH~1\AppData\Local\Temp\cckgc0NY.s:1251   .text.I2C_GetFlagStatus:000000000000002a .L0 
C:\Users\LOCALH~1\AppData\Local\Temp\cckgc0NY.s:1253   .text.I2C_GetFlagStatus:000000000000002a .L0 
C:\Users\LOCALH~1\AppData\Local\Temp\cckgc0NY.s:1254   .text.I2C_GetFlagStatus:000000000000002a .L0 
C:\Users\LOCALH~1\AppData\Local\Temp\cckgc0NY.s:1256   .text.I2C_GetFlagStatus:000000000000002c .L0 
C:\Users\LOCALH~1\AppData\Local\Temp\cckgc0NY.s:1259   .text.I2C_GetFlagStatus:000000000000002e .L0 
C:\Users\LOCALH~1\AppData\Local\Temp\cckgc0NY.s:1260   .text.I2C_GetFlagStatus:000000000000002e .L0 
C:\Users\LOCALH~1\AppData\Local\Temp\cckgc0NY.s:1262   .text.I2C_GetFlagStatus:0000000000000032 .L0 
C:\Users\LOCALH~1\AppData\Local\Temp\cckgc0NY.s:1269   .text.I2C_ClearFlag:0000000000000000 I2C_ClearFlag
C:\Users\LOCALH~1\AppData\Local\Temp\cckgc0NY.s:1272   .text.I2C_ClearFlag:0000000000000000 .L0 
C:\Users\LOCALH~1\AppData\Local\Temp\cckgc0NY.s:1274   .text.I2C_ClearFlag:0000000000000000 .L0 
C:\Users\LOCALH~1\AppData\Local\Temp\cckgc0NY.s:1275   .text.I2C_ClearFlag:0000000000000000 .L0 
C:\Users\LOCALH~1\AppData\Local\Temp\cckgc0NY.s:1276   .text.I2C_ClearFlag:0000000000000000 .L0 
C:\Users\LOCALH~1\AppData\Local\Temp\cckgc0NY.s:1277   .text.I2C_ClearFlag:0000000000000000 .L0 
C:\Users\LOCALH~1\AppData\Local\Temp\cckgc0NY.s:1278   .text.I2C_ClearFlag:0000000000000000 $x
C:\Users\LOCALH~1\AppData\Local\Temp\cckgc0NY.s:1278   .text.I2C_ClearFlag:0000000000000000 .L0 
C:\Users\LOCALH~1\AppData\Local\Temp\cckgc0NY.s:1284   .text.I2C_ClearFlag:0000000000000008 .L0 
C:\Users\LOCALH~1\AppData\Local\Temp\cckgc0NY.s:1286   .text.I2C_ClearFlag:000000000000000a .L0 
C:\Users\LOCALH~1\AppData\Local\Temp\cckgc0NY.s:1287   .text.I2C_ClearFlag:000000000000000c .L0 
C:\Users\LOCALH~1\AppData\Local\Temp\cckgc0NY.s:1294   .text.I2C_GetITStatus:0000000000000000 I2C_GetITStatus
C:\Users\LOCALH~1\AppData\Local\Temp\cckgc0NY.s:1297   .text.I2C_GetITStatus:0000000000000000 .L0 
C:\Users\LOCALH~1\AppData\Local\Temp\cckgc0NY.s:1299   .text.I2C_GetITStatus:0000000000000000 .L0 
C:\Users\LOCALH~1\AppData\Local\Temp\cckgc0NY.s:1300   .text.I2C_GetITStatus:0000000000000000 .L0 
C:\Users\LOCALH~1\AppData\Local\Temp\cckgc0NY.s:1301   .text.I2C_GetITStatus:0000000000000000 .L0 
C:\Users\LOCALH~1\AppData\Local\Temp\cckgc0NY.s:1302   .text.I2C_GetITStatus:0000000000000000 .L0 
C:\Users\LOCALH~1\AppData\Local\Temp\cckgc0NY.s:1303   .text.I2C_GetITStatus:0000000000000000 $x
C:\Users\LOCALH~1\AppData\Local\Temp\cckgc0NY.s:1303   .text.I2C_GetITStatus:0000000000000000 .L0 
C:\Users\LOCALH~1\AppData\Local\Temp\cckgc0NY.s:1305   .text.I2C_GetITStatus:0000000000000002 .L0 
C:\Users\LOCALH~1\AppData\Local\Temp\cckgc0NY.s:1308   .text.I2C_GetITStatus:0000000000000004 .L0 
C:\Users\LOCALH~1\AppData\Local\Temp\cckgc0NY.s:1313   .text.I2C_GetITStatus:000000000000000a .L0 
C:\Users\LOCALH~1\AppData\Local\Temp\cckgc0NY.s:1314   .text.I2C_GetITStatus:000000000000000a .L0 
C:\Users\LOCALH~1\AppData\Local\Temp\cckgc0NY.s:1315   .text.I2C_GetITStatus:000000000000000a .L0 
C:\Users\LOCALH~1\AppData\Local\Temp\cckgc0NY.s:1317   .text.I2C_GetITStatus:000000000000000c .L0 
C:\Users\LOCALH~1\AppData\Local\Temp\cckgc0NY.s:1320   .text.I2C_GetITStatus:0000000000000010 .L0 
C:\Users\LOCALH~1\AppData\Local\Temp\cckgc0NY.s:1323   .text.I2C_GetITStatus:0000000000000012 .L0 
C:\Users\LOCALH~1\AppData\Local\Temp\cckgc0NY.s:1325   .text.I2C_GetITStatus:0000000000000016 .L0 
C:\Users\LOCALH~1\AppData\Local\Temp\cckgc0NY.s:1329   .text.I2C_GetITStatus:000000000000001a .L0 
C:\Users\LOCALH~1\AppData\Local\Temp\cckgc0NY.s:1330   .text.I2C_GetITStatus:000000000000001a .L0 
C:\Users\LOCALH~1\AppData\Local\Temp\cckgc0NY.s:1331   .text.I2C_GetITStatus:000000000000001c .L0 
C:\Users\LOCALH~1\AppData\Local\Temp\cckgc0NY.s:1338   .text.I2C_ClearITPendingBit:0000000000000000 I2C_ClearITPendingBit
C:\Users\LOCALH~1\AppData\Local\Temp\cckgc0NY.s:1340   .text.I2C_ClearITPendingBit:0000000000000000 .L0 
C:\Users\LOCALH~1\AppData\Local\Temp\cckgc0NY.s:1342   .text.I2C_ClearITPendingBit:0000000000000000 $x
C:\Users\LOCALH~1\AppData\Local\Temp\cckgc0NY.s:1342   .text.I2C_ClearITPendingBit:0000000000000000 .L0 
C:\Users\LOCALH~1\AppData\Local\Temp\cckgc0NY.s:1347   .text.I2C_ClearITPendingBit:000000000000000c .L0 
C:\Users\LOCALH~1\AppData\Local\Temp\cckgc0NY.s:4613   .debug_line_str:0000000000000076 .L0 
C:\Users\LOCALH~1\AppData\Local\Temp\cckgc0NY.s:4613   .debug_line_str:00000000000000cb .L0 
C:\Users\LOCALH~1\AppData\Local\Temp\cckgc0NY.s:4613   .debug_line_str:00000000000000dd .L0 
C:\Users\LOCALH~1\AppData\Local\Temp\cckgc0NY.s:4613   .debug_line_str:0000000000000139 .L0 
C:\Users\LOCALH~1\AppData\Local\Temp\cckgc0NY.s:4613   .debug_line_str:0000000000000191 .L0 
C:\Users\LOCALH~1\AppData\Local\Temp\cckgc0NY.s:4613   .debug_line_str:00000000000001e7 .L0 
C:\Users\LOCALH~1\AppData\Local\Temp\cckgc0NY.s:4613   .debug_line_str:0000000000000247 .L0 
C:\Users\LOCALH~1\AppData\Local\Temp\cckgc0NY.s:4613   .debug_line_str:0000000000000256 .L0 
C:\Users\LOCALH~1\AppData\Local\Temp\cckgc0NY.s:4613   .debug_line_str:0000000000000265 .L0 
C:\Users\LOCALH~1\AppData\Local\Temp\cckgc0NY.s:4613   .debug_line_str:0000000000000276 .L0 
C:\Users\LOCALH~1\AppData\Local\Temp\cckgc0NY.s:4613   .debug_line_str:0000000000000280 .L0 
C:\Users\LOCALH~1\AppData\Local\Temp\cckgc0NY.s:4613   .debug_line_str:000000000000028d .L0 
C:\Users\LOCALH~1\AppData\Local\Temp\cckgc0NY.s:4613   .debug_line_str:0000000000000298 .L0 
C:\Users\LOCALH~1\AppData\Local\Temp\cckgc0NY.s:4613   .debug_line_str:00000000000002a7 .L0 
C:\Users\LOCALH~1\AppData\Local\Temp\cckgc0NY.s:63     .text.I2C_DeInit:000000000000004c .L0 
C:\Users\LOCALH~1\AppData\Local\Temp\cckgc0NY.s:315    .text.I2C_Init:000000000000010e .L0 
C:\Users\LOCALH~1\AppData\Local\Temp\cckgc0NY.s:348    .text.I2C_StructInit:0000000000000018 .L0 
C:\Users\LOCALH~1\AppData\Local\Temp\cckgc0NY.s:383    .text.I2C_Cmd:0000000000000018 .L0 
C:\Users\LOCALH~1\AppData\Local\Temp\cckgc0NY.s:419    .text.I2C_DMACmd:000000000000001e .L0 
C:\Users\LOCALH~1\AppData\Local\Temp\cckgc0NY.s:452    .text.I2C_DMALastTransferCmd:0000000000000014 .L0 
C:\Users\LOCALH~1\AppData\Local\Temp\cckgc0NY.s:487    .text.I2C_GenerateSTART:000000000000001a .L0 
C:\Users\LOCALH~1\AppData\Local\Temp\cckgc0NY.s:522    .text.I2C_GenerateSTOP:000000000000001a .L0 
C:\Users\LOCALH~1\AppData\Local\Temp\cckgc0NY.s:557    .text.I2C_AcknowledgeConfig:000000000000001a .L0 
C:\Users\LOCALH~1\AppData\Local\Temp\cckgc0NY.s:593    .text.I2C_OwnAddress2Config:0000000000000014 .L0 
C:\Users\LOCALH~1\AppData\Local\Temp\cckgc0NY.s:628    .text.I2C_DualAddressCmd:0000000000000018 .L0 
C:\Users\LOCALH~1\AppData\Local\Temp\cckgc0NY.s:663    .text.I2C_GeneralCallCmd:000000000000001a .L0 
C:\Users\LOCALH~1\AppData\Local\Temp\cckgc0NY.s:698    .text.I2C_ITConfig:0000000000000012 .L0 
C:\Users\LOCALH~1\AppData\Local\Temp\cckgc0NY.s:715    .text.I2C_SendData:0000000000000004 .L0 
C:\Users\LOCALH~1\AppData\Local\Temp\cckgc0NY.s:734    .text.I2C_ReceiveData:0000000000000008 .L0 
C:\Users\LOCALH~1\AppData\Local\Temp\cckgc0NY.s:761    .text.I2C_Send7bitAddress:000000000000000e .L0 
C:\Users\LOCALH~1\AppData\Local\Temp\cckgc0NY.s:798    .text.I2C_ReadRegister:0000000000000014 .L0 
C:\Users\LOCALH~1\AppData\Local\Temp\cckgc0NY.s:830    .text.I2C_SoftwareResetCmd:0000000000000012 .L0 
C:\Users\LOCALH~1\AppData\Local\Temp\cckgc0NY.s:868    .text.I2C_NACKPositionConfig:0000000000000022 .L0 
C:\Users\LOCALH~1\AppData\Local\Temp\cckgc0NY.s:904    .text.I2C_SMBusAlertConfig:000000000000001a .L0 
C:\Users\LOCALH~1\AppData\Local\Temp\cckgc0NY.s:937    .text.I2C_TransmitPEC:0000000000000014 .L0 
C:\Users\LOCALH~1\AppData\Local\Temp\cckgc0NY.s:949    .text.I2C_PECPositionConfig:0000000000000008 .L0 
C:\Users\LOCALH~1\AppData\Local\Temp\cckgc0NY.s:984    .text.I2C_CalculatePEC:000000000000001a .L0 
C:\Users\LOCALH~1\AppData\Local\Temp\cckgc0NY.s:1003   .text.I2C_GetPEC:0000000000000006 .L0 
C:\Users\LOCALH~1\AppData\Local\Temp\cckgc0NY.s:1038   .text.I2C_ARPCmd:0000000000000018 .L0 
C:\Users\LOCALH~1\AppData\Local\Temp\cckgc0NY.s:1073   .text.I2C_StretchClockCmd:000000000000001a .L0 
C:\Users\LOCALH~1\AppData\Local\Temp\cckgc0NY.s:1109   .text.I2C_FastModeDutyCycleConfig:000000000000001a .L0 
C:\Users\LOCALH~1\AppData\Local\Temp\cckgc0NY.s:1152   .text.I2C_CheckEvent:0000000000000016 .L0 
C:\Users\LOCALH~1\AppData\Local\Temp\cckgc0NY.s:1188   .text.I2C_GetLastEvent:000000000000000e .L0 
C:\Users\LOCALH~1\AppData\Local\Temp\cckgc0NY.s:1265   .text.I2C_GetFlagStatus:0000000000000032 .L0 
C:\Users\LOCALH~1\AppData\Local\Temp\cckgc0NY.s:1290   .text.I2C_ClearFlag:000000000000000c .L0 
C:\Users\LOCALH~1\AppData\Local\Temp\cckgc0NY.s:1334   .text.I2C_GetITStatus:000000000000001c .L0 
C:\Users\LOCALH~1\AppData\Local\Temp\cckgc0NY.s:1350   .text.I2C_ClearITPendingBit:000000000000000c .L0 
                     .debug_frame:0000000000000000 .L0 
C:\Users\LOCALH~1\AppData\Local\Temp\cckgc0NY.s:49     .text.I2C_DeInit:0000000000000038 .L2
C:\Users\LOCALH~1\AppData\Local\Temp\cckgc0NY.s:39     .text.I2C_DeInit:0000000000000028 .L5
C:\Users\LOCALH~1\AppData\Local\Temp\cckgc0NY.s:133    .text.I2C_Init:0000000000000048 .L7
C:\Users\LOCALH~1\AppData\Local\Temp\cckgc0NY.s:249    .text.I2C_Init:00000000000000c0 .L8
C:\Users\LOCALH~1\AppData\Local\Temp\cckgc0NY.s:181    .text.I2C_Init:000000000000007c .L9
C:\Users\LOCALH~1\AppData\Local\Temp\cckgc0NY.s:293    .text.I2C_Init:00000000000000fa .L11
C:\Users\LOCALH~1\AppData\Local\Temp\cckgc0NY.s:277    .text.I2C_Init:00000000000000e4 .L13
C:\Users\LOCALH~1\AppData\Local\Temp\cckgc0NY.s:187    .text.I2C_Init:0000000000000080 .L17
C:\Users\LOCALH~1\AppData\Local\Temp\cckgc0NY.s:268    .text.I2C_Init:00000000000000da .L12
C:\Users\LOCALH~1\AppData\Local\Temp\cckgc0NY.s:370    .text.I2C_Cmd:000000000000000c .L20
C:\Users\LOCALH~1\AppData\Local\Temp\cckgc0NY.s:365    .text.I2C_Cmd:0000000000000008 .L22
C:\Users\LOCALH~1\AppData\Local\Temp\cckgc0NY.s:409    .text.I2C_DMACmd:0000000000000014 .L24
C:\Users\LOCALH~1\AppData\Local\Temp\cckgc0NY.s:404    .text.I2C_DMACmd:0000000000000010 .L26
C:\Users\LOCALH~1\AppData\Local\Temp\cckgc0NY.s:442    .text.I2C_DMALastTransferCmd:000000000000000c .L28
C:\Users\LOCALH~1\AppData\Local\Temp\cckgc0NY.s:437    .text.I2C_DMALastTransferCmd:0000000000000008 .L30
C:\Users\LOCALH~1\AppData\Local\Temp\cckgc0NY.s:474    .text.I2C_GenerateSTART:000000000000000c .L32
C:\Users\LOCALH~1\AppData\Local\Temp\cckgc0NY.s:469    .text.I2C_GenerateSTART:0000000000000008 .L34
C:\Users\LOCALH~1\AppData\Local\Temp\cckgc0NY.s:509    .text.I2C_GenerateSTOP:000000000000000c .L36
C:\Users\LOCALH~1\AppData\Local\Temp\cckgc0NY.s:504    .text.I2C_GenerateSTOP:0000000000000008 .L38
C:\Users\LOCALH~1\AppData\Local\Temp\cckgc0NY.s:544    .text.I2C_AcknowledgeConfig:000000000000000c .L40
C:\Users\LOCALH~1\AppData\Local\Temp\cckgc0NY.s:539    .text.I2C_AcknowledgeConfig:0000000000000008 .L42
C:\Users\LOCALH~1\AppData\Local\Temp\cckgc0NY.s:615    .text.I2C_DualAddressCmd:000000000000000c .L45
C:\Users\LOCALH~1\AppData\Local\Temp\cckgc0NY.s:610    .text.I2C_DualAddressCmd:0000000000000008 .L47
C:\Users\LOCALH~1\AppData\Local\Temp\cckgc0NY.s:650    .text.I2C_GeneralCallCmd:000000000000000c .L49
C:\Users\LOCALH~1\AppData\Local\Temp\cckgc0NY.s:645    .text.I2C_GeneralCallCmd:0000000000000008 .L51
C:\Users\LOCALH~1\AppData\Local\Temp\cckgc0NY.s:687    .text.I2C_ITConfig:000000000000000a .L53
C:\Users\LOCALH~1\AppData\Local\Temp\cckgc0NY.s:681    .text.I2C_ITConfig:0000000000000006 .L55
C:\Users\LOCALH~1\AppData\Local\Temp\cckgc0NY.s:752    .text.I2C_Send7bitAddress:000000000000000a .L60
C:\Users\LOCALH~1\AppData\Local\Temp\cckgc0NY.s:821    .text.I2C_SoftwareResetCmd:000000000000000c .L64
C:\Users\LOCALH~1\AppData\Local\Temp\cckgc0NY.s:816    .text.I2C_SoftwareResetCmd:0000000000000008 .L66
C:\Users\LOCALH~1\AppData\Local\Temp\cckgc0NY.s:858    .text.I2C_NACKPositionConfig:0000000000000018 .L68
C:\Users\LOCALH~1\AppData\Local\Temp\cckgc0NY.s:853    .text.I2C_NACKPositionConfig:0000000000000014 .L70
C:\Users\LOCALH~1\AppData\Local\Temp\cckgc0NY.s:892    .text.I2C_SMBusAlertConfig:0000000000000010 .L72
C:\Users\LOCALH~1\AppData\Local\Temp\cckgc0NY.s:887    .text.I2C_SMBusAlertConfig:000000000000000c .L74
C:\Users\LOCALH~1\AppData\Local\Temp\cckgc0NY.s:927    .text.I2C_TransmitPEC:000000000000000c .L76
C:\Users\LOCALH~1\AppData\Local\Temp\cckgc0NY.s:922    .text.I2C_TransmitPEC:0000000000000008 .L78
C:\Users\LOCALH~1\AppData\Local\Temp\cckgc0NY.s:971    .text.I2C_CalculatePEC:000000000000000c .L82
C:\Users\LOCALH~1\AppData\Local\Temp\cckgc0NY.s:966    .text.I2C_CalculatePEC:0000000000000008 .L84
C:\Users\LOCALH~1\AppData\Local\Temp\cckgc0NY.s:1025   .text.I2C_ARPCmd:000000000000000c .L87
C:\Users\LOCALH~1\AppData\Local\Temp\cckgc0NY.s:1020   .text.I2C_ARPCmd:0000000000000008 .L89
C:\Users\LOCALH~1\AppData\Local\Temp\cckgc0NY.s:1060   .text.I2C_StretchClockCmd:000000000000000c .L91
C:\Users\LOCALH~1\AppData\Local\Temp\cckgc0NY.s:1055   .text.I2C_StretchClockCmd:0000000000000008 .L93
C:\Users\LOCALH~1\AppData\Local\Temp\cckgc0NY.s:1098   .text.I2C_FastModeDutyCycleConfig:0000000000000012 .L95
C:\Users\LOCALH~1\AppData\Local\Temp\cckgc0NY.s:1093   .text.I2C_FastModeDutyCycleConfig:000000000000000e .L97
C:\Users\LOCALH~1\AppData\Local\Temp\cckgc0NY.s:1250   .text.I2C_GetFlagStatus:000000000000002a .L101
C:\Users\LOCALH~1\AppData\Local\Temp\cckgc0NY.s:1229   .text.I2C_GetFlagStatus:000000000000001a .L104
C:\Users\LOCALH~1\AppData\Local\Temp\cckgc0NY.s:1328   .text.I2C_GetITStatus:000000000000001a .L106
C:\Users\LOCALH~1\AppData\Local\Temp\cckgc0NY.s:2656   .debug_abbrev:0000000000000000 .Ldebug_abbrev0
C:\Users\LOCALH~1\AppData\Local\Temp\cckgc0NY.s:4526   .debug_str:00000000000003ea .LASF121
C:\Users\LOCALH~1\AppData\Local\Temp\cckgc0NY.s:4611   .debug_line_str:0000000000000055 .LASF0
C:\Users\LOCALH~1\AppData\Local\Temp\cckgc0NY.s:4609   .debug_line_str:0000000000000000 .LASF1
C:\Users\LOCALH~1\AppData\Local\Temp\cckgc0NY.s:4263   .debug_rnglists:000000000000000c .LLRL34
C:\Users\LOCALH~1\AppData\Local\Temp\cckgc0NY.s:4366   .debug_line:0000000000000000 .Ldebug_line0
C:\Users\LOCALH~1\AppData\Local\Temp\cckgc0NY.s:4484   .debug_str:0000000000000307 .LASF2
C:\Users\LOCALH~1\AppData\Local\Temp\cckgc0NY.s:4478   .debug_str:00000000000002d3 .LASF3
C:\Users\LOCALH~1\AppData\Local\Temp\cckgc0NY.s:4454   .debug_str:0000000000000242 .LASF6
C:\Users\LOCALH~1\AppData\Local\Temp\cckgc0NY.s:4474   .debug_str:00000000000002a9 .LASF4
C:\Users\LOCALH~1\AppData\Local\Temp\cckgc0NY.s:4424   .debug_str:0000000000000175 .LASF5
C:\Users\LOCALH~1\AppData\Local\Temp\cckgc0NY.s:4400   .debug_str:00000000000000e1 .LASF7
C:\Users\LOCALH~1\AppData\Local\Temp\cckgc0NY.s:4496   .debug_str:0000000000000349 .LASF8
C:\Users\LOCALH~1\AppData\Local\Temp\cckgc0NY.s:4444   .debug_str:00000000000001fe .LASF9
C:\Users\LOCALH~1\AppData\Local\Temp\cckgc0NY.s:4554   .debug_str:000000000000057d .LASF10
C:\Users\LOCALH~1\AppData\Local\Temp\cckgc0NY.s:4490   .debug_str:000000000000032b .LASF11
C:\Users\LOCALH~1\AppData\Local\Temp\cckgc0NY.s:4434   .debug_str:00000000000001b4 .LASF12
C:\Users\LOCALH~1\AppData\Local\Temp\cckgc0NY.s:4480   .debug_str:00000000000002df .LASF13
C:\Users\LOCALH~1\AppData\Local\Temp\cckgc0NY.s:4412   .debug_str:000000000000012f .LASF14
C:\Users\LOCALH~1\AppData\Local\Temp\cckgc0NY.s:4504   .debug_str:0000000000000376 .LASF15
C:\Users\LOCALH~1\AppData\Local\Temp\cckgc0NY.s:4420   .debug_str:000000000000015b .LASF16
C:\Users\LOCALH~1\AppData\Local\Temp\cckgc0NY.s:4560   .debug_str:00000000000005a7 .LASF17
C:\Users\LOCALH~1\AppData\Local\Temp\cckgc0NY.s:4512   .debug_str:0000000000000393 .LASF18
C:\Users\LOCALH~1\AppData\Local\Temp\cckgc0NY.s:4446   .debug_str:0000000000000207 .LASF19
C:\Users\LOCALH~1\AppData\Local\Temp\cckgc0NY.s:4508   .debug_str:0000000000000385 .LASF20
C:\Users\LOCALH~1\AppData\Local\Temp\cckgc0NY.s:4604   .debug_str:00000000000006cf .LASF21
C:\Users\LOCALH~1\AppData\Local\Temp\cckgc0NY.s:4552   .debug_str:000000000000056d .LASF22
C:\Users\LOCALH~1\AppData\Local\Temp\cckgc0NY.s:4568   .debug_str:00000000000005dc .LASF23
C:\Users\LOCALH~1\AppData\Local\Temp\cckgc0NY.s:4602   .debug_str:00000000000006c4 .LASF24
C:\Users\LOCALH~1\AppData\Local\Temp\cckgc0NY.s:4442   .debug_str:00000000000001f5 .LASF25
C:\Users\LOCALH~1\AppData\Local\Temp\cckgc0NY.s:4592   .debug_str:0000000000000685 .LASF26
C:\Users\LOCALH~1\AppData\Local\Temp\cckgc0NY.s:4530   .debug_str:00000000000004f3 .LASF27
C:\Users\LOCALH~1\AppData\Local\Temp\cckgc0NY.s:4494   .debug_str:0000000000000343 .LASF28
C:\Users\LOCALH~1\AppData\Local\Temp\cckgc0NY.s:4532   .debug_str:00000000000004fd .LASF29
C:\Users\LOCALH~1\AppData\Local\Temp\cckgc0NY.s:4586   .debug_str:0000000000000669 .LASF30
C:\Users\LOCALH~1\AppData\Local\Temp\cckgc0NY.s:4534   .debug_str:0000000000000507 .LASF31
C:\Users\LOCALH~1\AppData\Local\Temp\cckgc0NY.s:4588   .debug_str:0000000000000670 .LASF32
C:\Users\LOCALH~1\AppData\Local\Temp\cckgc0NY.s:4536   .debug_str:0000000000000511 .LASF33
C:\Users\LOCALH~1\AppData\Local\Temp\cckgc0NY.s:4522   .debug_str:00000000000003d9 .LASF34
C:\Users\LOCALH~1\AppData\Local\Temp\cckgc0NY.s:4538   .debug_str:000000000000051b .LASF35
C:\Users\LOCALH~1\AppData\Local\Temp\cckgc0NY.s:4506   .debug_str:000000000000037f .LASF36
C:\Users\LOCALH~1\AppData\Local\Temp\cckgc0NY.s:4540   .debug_str:0000000000000525 .LASF37
C:\Users\LOCALH~1\AppData\Local\Temp\cckgc0NY.s:4510   .debug_str:000000000000038d .LASF38
C:\Users\LOCALH~1\AppData\Local\Temp\cckgc0NY.s:4542   .debug_str:000000000000052f .LASF39
C:\Users\LOCALH~1\AppData\Local\Temp\cckgc0NY.s:4406   .debug_str:000000000000010e .LASF40
C:\Users\LOCALH~1\AppData\Local\Temp\cckgc0NY.s:4544   .debug_str:0000000000000539 .LASF41
C:\Users\LOCALH~1\AppData\Local\Temp\cckgc0NY.s:4546   .debug_str:0000000000000543 .LASF42
C:\Users\LOCALH~1\AppData\Local\Temp\cckgc0NY.s:4460   .debug_str:000000000000025f .LASF43
C:\Users\LOCALH~1\AppData\Local\Temp\cckgc0NY.s:4518   .debug_str:00000000000003b8 .LASF44
C:\Users\LOCALH~1\AppData\Local\Temp\cckgc0NY.s:4384   .debug_str:000000000000006e .LASF45
C:\Users\LOCALH~1\AppData\Local\Temp\cckgc0NY.s:4558   .debug_str:0000000000000597 .LASF46
C:\Users\LOCALH~1\AppData\Local\Temp\cckgc0NY.s:4564   .debug_str:00000000000005ba .LASF47
C:\Users\LOCALH~1\AppData\Local\Temp\cckgc0NY.s:4482   .debug_str:00000000000002f6 .LASF48
C:\Users\LOCALH~1\AppData\Local\Temp\cckgc0NY.s:4402   .debug_str:00000000000000ec .LASF49
C:\Users\LOCALH~1\AppData\Local\Temp\cckgc0NY.s:4468   .debug_str:0000000000000286 .LASF50
C:\Users\LOCALH~1\AppData\Local\Temp\cckgc0NY.s:4502   .debug_str:0000000000000371 .LASF51
C:\Users\LOCALH~1\AppData\Local\Temp\cckgc0NY.s:4576   .debug_str:000000000000061b .LASF52
C:\Users\LOCALH~1\AppData\Local\Temp\cckgc0NY.s:4466   .debug_str:000000000000027d .LASF53
C:\Users\LOCALH~1\AppData\Local\Temp\cckgc0NY.s:4590   .debug_str:0000000000000677 .LASF54
C:\Users\LOCALH~1\AppData\Local\Temp\cckgc0NY.s:4520   .debug_str:00000000000003c9 .LASF55
C:\Users\LOCALH~1\AppData\Local\Temp\cckgc0NY.s:4528   .debug_str:00000000000004eb .LASF56
C:\Users\LOCALH~1\AppData\Local\Temp\cckgc0NY.s:4386   .debug_str:000000000000007d .LASF57
C:\Users\LOCALH~1\AppData\Local\Temp\cckgc0NY.s:4404   .debug_str:00000000000000fe .LASF58
C:\Users\LOCALH~1\AppData\Local\Temp\cckgc0NY.s:4566   .debug_str:00000000000005ca .LASF59
C:\Users\LOCALH~1\AppData\Local\Temp\cckgc0NY.s:4438   .debug_str:00000000000001cd .LASF60
C:\Users\LOCALH~1\AppData\Local\Temp\cckgc0NY.s:4398   .debug_str:00000000000000cb .LASF85
C:\Users\LOCALH~1\AppData\Local\Temp\cckgc0NY.s:4392   .debug_str:00000000000000b3 .LASF61
C:\Users\LOCALH~1\AppData\Local\Temp\cckgc0NY.s:4376   .debug_str:000000000000003f .LASF62
C:\Users\LOCALH~1\AppData\Local\Temp\cckgc0NY.s:4462   .debug_str:000000000000026b .LASF67
C:\Users\LOCALH~1\AppData\Local\Temp\cckgc0NY.s:4578   .debug_str:000000000000062a .LASF68
C:\Users\LOCALH~1\AppData\Local\Temp\cckgc0NY.s:1295   .text.I2C_GetITStatus:0000000000000000 .LFB60
C:\Users\LOCALH~1\AppData\Local\Temp\cckgc0NY.s:1332   .text.I2C_GetITStatus:000000000000001c .LFE60
C:\Users\LOCALH~1\AppData\Local\Temp\cckgc0NY.s:3313   .debug_loclists:000000000000000c .LLST30
C:\Users\LOCALH~1\AppData\Local\Temp\cckgc0NY.s:3328   .debug_loclists:0000000000000026 .LLST31
C:\Users\LOCALH~1\AppData\Local\Temp\cckgc0NY.s:4464   .debug_str:0000000000000273 .LASF63
C:\Users\LOCALH~1\AppData\Local\Temp\cckgc0NY.s:3345   .debug_loclists:0000000000000045 .LLST32
C:\Users\LOCALH~1\AppData\Local\Temp\cckgc0NY.s:4428   .debug_str:0000000000000185 .LASF64
C:\Users\LOCALH~1\AppData\Local\Temp\cckgc0NY.s:3353   .debug_loclists:0000000000000052 .LLST33
C:\Users\LOCALH~1\AppData\Local\Temp\cckgc0NY.s:4500   .debug_str:0000000000000363 .LASF65
C:\Users\LOCALH~1\AppData\Local\Temp\cckgc0NY.s:4408   .debug_str:0000000000000115 .LASF66
C:\Users\LOCALH~1\AppData\Local\Temp\cckgc0NY.s:4372   .debug_str:0000000000000018 .LASF69
C:\Users\LOCALH~1\AppData\Local\Temp\cckgc0NY.s:1193   .text.I2C_GetFlagStatus:0000000000000000 .LFB58
C:\Users\LOCALH~1\AppData\Local\Temp\cckgc0NY.s:1263   .text.I2C_GetFlagStatus:0000000000000032 .LFE58
C:\Users\LOCALH~1\AppData\Local\Temp\cckgc0NY.s:3413   .debug_loclists:00000000000000ab .LLST25
C:\Users\LOCALH~1\AppData\Local\Temp\cckgc0NY.s:3433   .debug_loclists:00000000000000d0 .LLST26
C:\Users\LOCALH~1\AppData\Local\Temp\cckgc0NY.s:3453   .debug_loclists:00000000000000f5 .LLST27
C:\Users\LOCALH~1\AppData\Local\Temp\cckgc0NY.s:4470   .debug_str:0000000000000292 .LASF70
C:\Users\LOCALH~1\AppData\Local\Temp\cckgc0NY.s:4452   .debug_str:0000000000000239 .LASF71
C:\Users\LOCALH~1\AppData\Local\Temp\cckgc0NY.s:4606   .debug_str:00000000000006d6 .LASF72
C:\Users\LOCALH~1\AppData\Local\Temp\cckgc0NY.s:1157   .text.I2C_GetLastEvent:0000000000000000 .LFB57
C:\Users\LOCALH~1\AppData\Local\Temp\cckgc0NY.s:1186   .text.I2C_GetLastEvent:000000000000000e .LFE57
C:\Users\LOCALH~1\AppData\Local\Temp\cckgc0NY.s:3482   .debug_loclists:0000000000000123 .LLST21
C:\Users\LOCALH~1\AppData\Local\Temp\cckgc0NY.s:4378   .debug_str:0000000000000046 .LASF73
C:\Users\LOCALH~1\AppData\Local\Temp\cckgc0NY.s:3497   .debug_loclists:000000000000013d .LLST22
C:\Users\LOCALH~1\AppData\Local\Temp\cckgc0NY.s:4416   .debug_str:000000000000014c .LASF74
C:\Users\LOCALH~1\AppData\Local\Temp\cckgc0NY.s:3520   .debug_loclists:0000000000000162 .LLST23
C:\Users\LOCALH~1\AppData\Local\Temp\cckgc0NY.s:4492   .debug_str:000000000000033d .LASF75
C:\Users\LOCALH~1\AppData\Local\Temp\cckgc0NY.s:3533   .debug_loclists:000000000000017a .LLST24
C:\Users\LOCALH~1\AppData\Local\Temp\cckgc0NY.s:4600   .debug_str:00000000000006b5 .LASF76
C:\Users\LOCALH~1\AppData\Local\Temp\cckgc0NY.s:1114   .text.I2C_CheckEvent:0000000000000000 .LFB56
C:\Users\LOCALH~1\AppData\Local\Temp\cckgc0NY.s:1150   .text.I2C_CheckEvent:0000000000000016 .LFE56
C:\Users\LOCALH~1\AppData\Local\Temp\cckgc0NY.s:3555   .debug_loclists:00000000000001a1 .LLST16
C:\Users\LOCALH~1\AppData\Local\Temp\cckgc0NY.s:4488   .debug_str:0000000000000321 .LASF77
C:\Users\LOCALH~1\AppData\Local\Temp\cckgc0NY.s:3570   .debug_loclists:00000000000001bb .LLST17
C:\Users\LOCALH~1\AppData\Local\Temp\cckgc0NY.s:3603   .debug_loclists:00000000000001f3 .LLST18
C:\Users\LOCALH~1\AppData\Local\Temp\cckgc0NY.s:3616   .debug_loclists:000000000000020b .LLST19
C:\Users\LOCALH~1\AppData\Local\Temp\cckgc0NY.s:4498   .debug_str:000000000000035c .LASF78
C:\Users\LOCALH~1\AppData\Local\Temp\cckgc0NY.s:3638   .debug_loclists:0000000000000232 .LLST20
C:\Users\LOCALH~1\AppData\Local\Temp\cckgc0NY.s:4476   .debug_str:00000000000002b7 .LASF79
C:\Users\LOCALH~1\AppData\Local\Temp\cckgc0NY.s:1078   .text.I2C_FastModeDutyCycleConfig:0000000000000000 .LFB55
C:\Users\LOCALH~1\AppData\Local\Temp\cckgc0NY.s:1107   .text.I2C_FastModeDutyCycleConfig:000000000000001a .LFE55
C:\Users\LOCALH~1\AppData\Local\Temp\cckgc0NY.s:4574   .debug_str:0000000000000607 .LASF80
C:\Users\LOCALH~1\AppData\Local\Temp\cckgc0NY.s:1043   .text.I2C_StretchClockCmd:0000000000000000 .LFB54
C:\Users\LOCALH~1\AppData\Local\Temp\cckgc0NY.s:1071   .text.I2C_StretchClockCmd:000000000000001a .LFE54
C:\Users\LOCALH~1\AppData\Local\Temp\cckgc0NY.s:4418   .debug_str:0000000000000152 .LASF81
C:\Users\LOCALH~1\AppData\Local\Temp\cckgc0NY.s:4524   .debug_str:00000000000003df .LASF82
C:\Users\LOCALH~1\AppData\Local\Temp\cckgc0NY.s:1008   .text.I2C_ARPCmd:0000000000000000 .LFB53
C:\Users\LOCALH~1\AppData\Local\Temp\cckgc0NY.s:1036   .text.I2C_ARPCmd:0000000000000018 .LFE53
C:\Users\LOCALH~1\AppData\Local\Temp\cckgc0NY.s:4436   .debug_str:00000000000001c2 .LASF83
C:\Users\LOCALH~1\AppData\Local\Temp\cckgc0NY.s:989    .text.I2C_GetPEC:0000000000000000 .LFB52
C:\Users\LOCALH~1\AppData\Local\Temp\cckgc0NY.s:1001   .text.I2C_GetPEC:0000000000000006 .LFE52
C:\Users\LOCALH~1\AppData\Local\Temp\cckgc0NY.s:3689   .debug_loclists:000000000000027c .LLST15
C:\Users\LOCALH~1\AppData\Local\Temp\cckgc0NY.s:4422   .debug_str:0000000000000164 .LASF84
C:\Users\LOCALH~1\AppData\Local\Temp\cckgc0NY.s:954    .text.I2C_CalculatePEC:0000000000000000 .LFB51
C:\Users\LOCALH~1\AppData\Local\Temp\cckgc0NY.s:982    .text.I2C_CalculatePEC:000000000000001a .LFE51
C:\Users\LOCALH~1\AppData\Local\Temp\cckgc0NY.s:4548   .debug_str:000000000000054d .LASF86
C:\Users\LOCALH~1\AppData\Local\Temp\cckgc0NY.s:4582   .debug_str:000000000000064a .LASF87
C:\Users\LOCALH~1\AppData\Local\Temp\cckgc0NY.s:4580   .debug_str:000000000000063a .LASF88
C:\Users\LOCALH~1\AppData\Local\Temp\cckgc0NY.s:909    .text.I2C_TransmitPEC:0000000000000000 .LFB49
C:\Users\LOCALH~1\AppData\Local\Temp\cckgc0NY.s:935    .text.I2C_TransmitPEC:0000000000000014 .LFE49
C:\Users\LOCALH~1\AppData\Local\Temp\cckgc0NY.s:4414   .debug_str:0000000000000137 .LASF89
C:\Users\LOCALH~1\AppData\Local\Temp\cckgc0NY.s:873    .text.I2C_SMBusAlertConfig:0000000000000000 .LFB48
C:\Users\LOCALH~1\AppData\Local\Temp\cckgc0NY.s:902    .text.I2C_SMBusAlertConfig:000000000000001a .LFE48
C:\Users\LOCALH~1\AppData\Local\Temp\cckgc0NY.s:4584   .debug_str:000000000000065a .LASF90
C:\Users\LOCALH~1\AppData\Local\Temp\cckgc0NY.s:4382   .debug_str:0000000000000057 .LASF91
C:\Users\LOCALH~1\AppData\Local\Temp\cckgc0NY.s:835    .text.I2C_NACKPositionConfig:0000000000000000 .LFB47
C:\Users\LOCALH~1\AppData\Local\Temp\cckgc0NY.s:866    .text.I2C_NACKPositionConfig:0000000000000022 .LFE47
C:\Users\LOCALH~1\AppData\Local\Temp\cckgc0NY.s:4410   .debug_str:000000000000011e .LASF92
C:\Users\LOCALH~1\AppData\Local\Temp\cckgc0NY.s:3704   .debug_loclists:0000000000000296 .LLST14
C:\Users\LOCALH~1\AppData\Local\Temp\cckgc0NY.s:4374   .debug_str:000000000000002a .LASF93
C:\Users\LOCALH~1\AppData\Local\Temp\cckgc0NY.s:803    .text.I2C_SoftwareResetCmd:0000000000000000 .LFB46
C:\Users\LOCALH~1\AppData\Local\Temp\cckgc0NY.s:828    .text.I2C_SoftwareResetCmd:0000000000000012 .LFE46
C:\Users\LOCALH~1\AppData\Local\Temp\cckgc0NY.s:4368   .debug_str:0000000000000000 .LASF94
C:\Users\LOCALH~1\AppData\Local\Temp\cckgc0NY.s:766    .text.I2C_ReadRegister:0000000000000000 .LFB45
C:\Users\LOCALH~1\AppData\Local\Temp\cckgc0NY.s:796    .text.I2C_ReadRegister:0000000000000014 .LFE45
C:\Users\LOCALH~1\AppData\Local\Temp\cckgc0NY.s:3719   .debug_loclists:00000000000002b0 .LLST12
C:\Users\LOCALH~1\AppData\Local\Temp\cckgc0NY.s:4514   .debug_str:0000000000000399 .LASF95
C:\Users\LOCALH~1\AppData\Local\Temp\cckgc0NY.s:3734   .debug_loclists:00000000000002ca .LLST13
C:\Users\LOCALH~1\AppData\Local\Temp\cckgc0NY.s:4598   .debug_str:00000000000006a1 .LASF96
C:\Users\LOCALH~1\AppData\Local\Temp\cckgc0NY.s:739    .text.I2C_Send7bitAddress:0000000000000000 .LFB44
C:\Users\LOCALH~1\AppData\Local\Temp\cckgc0NY.s:759    .text.I2C_Send7bitAddress:000000000000000e .LFE44
C:\Users\LOCALH~1\AppData\Local\Temp\cckgc0NY.s:4396   .debug_str:00000000000000c3 .LASF97
C:\Users\LOCALH~1\AppData\Local\Temp\cckgc0NY.s:3749   .debug_loclists:00000000000002e4 .LLST11
C:\Users\LOCALH~1\AppData\Local\Temp\cckgc0NY.s:4458   .debug_str:0000000000000251 .LASF98
C:\Users\LOCALH~1\AppData\Local\Temp\cckgc0NY.s:4472   .debug_str:0000000000000299 .LASF99
C:\Users\LOCALH~1\AppData\Local\Temp\cckgc0NY.s:720    .text.I2C_ReceiveData:0000000000000000 .LFB43
C:\Users\LOCALH~1\AppData\Local\Temp\cckgc0NY.s:732    .text.I2C_ReceiveData:0000000000000008 .LFE43
C:\Users\LOCALH~1\AppData\Local\Temp\cckgc0NY.s:3761   .debug_loclists:00000000000002fb .LLST10
C:\Users\LOCALH~1\AppData\Local\Temp\cckgc0NY.s:4596   .debug_str:0000000000000694 .LASF100
C:\Users\LOCALH~1\AppData\Local\Temp\cckgc0NY.s:703    .text.I2C_SendData:0000000000000000 .LFB42
C:\Users\LOCALH~1\AppData\Local\Temp\cckgc0NY.s:713    .text.I2C_SendData:0000000000000004 .LFE42
C:\Users\LOCALH~1\AppData\Local\Temp\cckgc0NY.s:4456   .debug_str:000000000000024c .LASF101
C:\Users\LOCALH~1\AppData\Local\Temp\cckgc0NY.s:4486   .debug_str:0000000000000314 .LASF102
C:\Users\LOCALH~1\AppData\Local\Temp\cckgc0NY.s:668    .text.I2C_ITConfig:0000000000000000 .LFB41
C:\Users\LOCALH~1\AppData\Local\Temp\cckgc0NY.s:696    .text.I2C_ITConfig:0000000000000012 .LFE41
C:\Users\LOCALH~1\AppData\Local\Temp\cckgc0NY.s:3776   .debug_loclists:0000000000000315 .LLST9
C:\Users\LOCALH~1\AppData\Local\Temp\cckgc0NY.s:4450   .debug_str:0000000000000226 .LASF103
C:\Users\LOCALH~1\AppData\Local\Temp\cckgc0NY.s:633    .text.I2C_GeneralCallCmd:0000000000000000 .LFB40
C:\Users\LOCALH~1\AppData\Local\Temp\cckgc0NY.s:661    .text.I2C_GeneralCallCmd:000000000000001a .LFE40
C:\Users\LOCALH~1\AppData\Local\Temp\cckgc0NY.s:4448   .debug_str:0000000000000213 .LASF104
C:\Users\LOCALH~1\AppData\Local\Temp\cckgc0NY.s:598    .text.I2C_DualAddressCmd:0000000000000000 .LFB39
C:\Users\LOCALH~1\AppData\Local\Temp\cckgc0NY.s:626    .text.I2C_DualAddressCmd:0000000000000018 .LFE39
C:\Users\LOCALH~1\AppData\Local\Temp\cckgc0NY.s:4570   .debug_str:00000000000005e2 .LASF105
C:\Users\LOCALH~1\AppData\Local\Temp\cckgc0NY.s:562    .text.I2C_OwnAddress2Config:0000000000000000 .LFB38
C:\Users\LOCALH~1\AppData\Local\Temp\cckgc0NY.s:591    .text.I2C_OwnAddress2Config:0000000000000014 .LFE38
C:\Users\LOCALH~1\AppData\Local\Temp\cckgc0NY.s:3804   .debug_loclists:0000000000000348 .LLST7
C:\Users\LOCALH~1\AppData\Local\Temp\cckgc0NY.s:4380   .debug_str:0000000000000050 .LASF106
C:\Users\LOCALH~1\AppData\Local\Temp\cckgc0NY.s:3819   .debug_loclists:0000000000000362 .LLST8
C:\Users\LOCALH~1\AppData\Local\Temp\cckgc0NY.s:4390   .debug_str:000000000000009d .LASF107
C:\Users\LOCALH~1\AppData\Local\Temp\cckgc0NY.s:527    .text.I2C_AcknowledgeConfig:0000000000000000 .LFB37
C:\Users\LOCALH~1\AppData\Local\Temp\cckgc0NY.s:555    .text.I2C_AcknowledgeConfig:000000000000001a .LFE37
C:\Users\LOCALH~1\AppData\Local\Temp\cckgc0NY.s:4440   .debug_str:00000000000001e4 .LASF108
C:\Users\LOCALH~1\AppData\Local\Temp\cckgc0NY.s:492    .text.I2C_GenerateSTOP:0000000000000000 .LFB36
C:\Users\LOCALH~1\AppData\Local\Temp\cckgc0NY.s:520    .text.I2C_GenerateSTOP:000000000000001a .LFE36
C:\Users\LOCALH~1\AppData\Local\Temp\cckgc0NY.s:4516   .debug_str:00000000000003a6 .LASF109
C:\Users\LOCALH~1\AppData\Local\Temp\cckgc0NY.s:457    .text.I2C_GenerateSTART:0000000000000000 .LFB35
C:\Users\LOCALH~1\AppData\Local\Temp\cckgc0NY.s:485    .text.I2C_GenerateSTART:000000000000001a .LFE35
C:\Users\LOCALH~1\AppData\Local\Temp\cckgc0NY.s:4432   .debug_str:000000000000019d .LASF110
C:\Users\LOCALH~1\AppData\Local\Temp\cckgc0NY.s:424    .text.I2C_DMALastTransferCmd:0000000000000000 .LFB34
C:\Users\LOCALH~1\AppData\Local\Temp\cckgc0NY.s:450    .text.I2C_DMALastTransferCmd:0000000000000014 .LFE34
C:\Users\LOCALH~1\AppData\Local\Temp\cckgc0NY.s:4430   .debug_str:0000000000000192 .LASF111
C:\Users\LOCALH~1\AppData\Local\Temp\cckgc0NY.s:388    .text.I2C_DMACmd:0000000000000000 .LFB33
C:\Users\LOCALH~1\AppData\Local\Temp\cckgc0NY.s:417    .text.I2C_DMACmd:000000000000001e .LFE33
C:\Users\LOCALH~1\AppData\Local\Temp\cckgc0NY.s:4388   .debug_str:0000000000000095 .LASF112
C:\Users\LOCALH~1\AppData\Local\Temp\cckgc0NY.s:353    .text.I2C_Cmd:0000000000000000 .LFB32
C:\Users\LOCALH~1\AppData\Local\Temp\cckgc0NY.s:381    .text.I2C_Cmd:0000000000000018 .LFE32
C:\Users\LOCALH~1\AppData\Local\Temp\cckgc0NY.s:4556   .debug_str:0000000000000588 .LASF113
C:\Users\LOCALH~1\AppData\Local\Temp\cckgc0NY.s:320    .text.I2C_StructInit:0000000000000000 .LFB31
C:\Users\LOCALH~1\AppData\Local\Temp\cckgc0NY.s:346    .text.I2C_StructInit:0000000000000018 .LFE31
C:\Users\LOCALH~1\AppData\Local\Temp\cckgc0NY.s:4572   .debug_str:00000000000005f8 .LASF114
C:\Users\LOCALH~1\AppData\Local\Temp\cckgc0NY.s:4594   .debug_str:000000000000068b .LASF115
C:\Users\LOCALH~1\AppData\Local\Temp\cckgc0NY.s:68     .text.I2C_Init:0000000000000000 .LFB30
C:\Users\LOCALH~1\AppData\Local\Temp\cckgc0NY.s:313    .text.I2C_Init:000000000000010e .LFE30
C:\Users\LOCALH~1\AppData\Local\Temp\cckgc0NY.s:3832   .debug_loclists:000000000000037a .LLST1
C:\Users\LOCALH~1\AppData\Local\Temp\cckgc0NY.s:3844   .debug_loclists:0000000000000391 .LLST2
C:\Users\LOCALH~1\AppData\Local\Temp\cckgc0NY.s:3856   .debug_loclists:00000000000003a8 .LLST3
C:\Users\LOCALH~1\AppData\Local\Temp\cckgc0NY.s:4550   .debug_str:0000000000000563 .LASF116
C:\Users\LOCALH~1\AppData\Local\Temp\cckgc0NY.s:3919   .debug_loclists:0000000000000428 .LLST4
C:\Users\LOCALH~1\AppData\Local\Temp\cckgc0NY.s:4370   .debug_str:0000000000000011 .LASF117
C:\Users\LOCALH~1\AppData\Local\Temp\cckgc0NY.s:3958   .debug_loclists:000000000000046f .LLST5
C:\Users\LOCALH~1\AppData\Local\Temp\cckgc0NY.s:4426   .debug_str:000000000000017f .LASF118
C:\Users\LOCALH~1\AppData\Local\Temp\cckgc0NY.s:4045   .debug_loclists:00000000000004f5 .LLST6
C:\Users\LOCALH~1\AppData\Local\Temp\cckgc0NY.s:4394   .debug_str:00000000000000b8 .LASF119
C:\Users\LOCALH~1\AppData\Local\Temp\cckgc0NY.s:100    .text.I2C_Init:000000000000001c .LVL10
C:\Users\LOCALH~1\AppData\Local\Temp\cckgc0NY.s:4562   .debug_str:00000000000005af .LASF120
C:\Users\LOCALH~1\AppData\Local\Temp\cckgc0NY.s:15     .text.I2C_DeInit:0000000000000000 .LFB29
C:\Users\LOCALH~1\AppData\Local\Temp\cckgc0NY.s:61     .text.I2C_DeInit:000000000000004c .LFE29
C:\Users\LOCALH~1\AppData\Local\Temp\cckgc0NY.s:4093   .debug_loclists:0000000000000557 .LLST0
C:\Users\LOCALH~1\AppData\Local\Temp\cckgc0NY.s:35     .text.I2C_DeInit:0000000000000022 .LVL2
C:\Users\LOCALH~1\AppData\Local\Temp\cckgc0NY.s:42     .text.I2C_DeInit:0000000000000030 .LVL3
C:\Users\LOCALH~1\AppData\Local\Temp\cckgc0NY.s:55     .text.I2C_DeInit:0000000000000044 .LVL6
C:\Users\LOCALH~1\AppData\Local\Temp\cckgc0NY.s:1270   .text.I2C_ClearFlag:0000000000000000 .LFB59
C:\Users\LOCALH~1\AppData\Local\Temp\cckgc0NY.s:1288   .text.I2C_ClearFlag:000000000000000c .LFE59
C:\Users\LOCALH~1\AppData\Local\Temp\cckgc0NY.s:4121   .debug_loclists:000000000000058a .LLST28
C:\Users\LOCALH~1\AppData\Local\Temp\cckgc0NY.s:4144   .debug_loclists:00000000000005b2 .LLST29
C:\Users\LOCALH~1\AppData\Local\Temp\cckgc0NY.s:1298   .text.I2C_GetITStatus:0000000000000000 .LVL98
C:\Users\LOCALH~1\AppData\Local\Temp\cckgc0NY.s:1306   .text.I2C_GetITStatus:0000000000000004 .LVL99
C:\Users\LOCALH~1\AppData\Local\Temp\cckgc0NY.s:1311   .text.I2C_GetITStatus:000000000000000a .LVL100
C:\Users\LOCALH~1\AppData\Local\Temp\cckgc0NY.s:1326   .text.I2C_GetITStatus:000000000000001a .LVL103
C:\Users\LOCALH~1\AppData\Local\Temp\cckgc0NY.s:1318   .text.I2C_GetITStatus:0000000000000010 .LVL101
C:\Users\LOCALH~1\AppData\Local\Temp\cckgc0NY.s:1321   .text.I2C_GetITStatus:0000000000000012 .LVL102
C:\Users\LOCALH~1\AppData\Local\Temp\cckgc0NY.s:1196   .text.I2C_GetFlagStatus:0000000000000000 .LVL88
C:\Users\LOCALH~1\AppData\Local\Temp\cckgc0NY.s:1237   .text.I2C_GetFlagStatus:0000000000000020 .LVL91
C:\Users\LOCALH~1\AppData\Local\Temp\cckgc0NY.s:1249   .text.I2C_GetFlagStatus:000000000000002a .LVL93
C:\Users\LOCALH~1\AppData\Local\Temp\cckgc0NY.s:1219   .text.I2C_GetFlagStatus:0000000000000012 .LVL89
C:\Users\LOCALH~1\AppData\Local\Temp\cckgc0NY.s:1221   .text.I2C_GetFlagStatus:0000000000000014 .LVL90
C:\Users\LOCALH~1\AppData\Local\Temp\cckgc0NY.s:1245   .text.I2C_GetFlagStatus:0000000000000024 .LVL92
C:\Users\LOCALH~1\AppData\Local\Temp\cckgc0NY.s:1160   .text.I2C_GetLastEvent:0000000000000000 .LVL83
C:\Users\LOCALH~1\AppData\Local\Temp\cckgc0NY.s:1170   .text.I2C_GetLastEvent:0000000000000004 .LVL85
C:\Users\LOCALH~1\AppData\Local\Temp\cckgc0NY.s:1176   .text.I2C_GetLastEvent:0000000000000006 .LVL86
C:\Users\LOCALH~1\AppData\Local\Temp\cckgc0NY.s:1166   .text.I2C_GetLastEvent:0000000000000002 .LVL84
C:\Users\LOCALH~1\AppData\Local\Temp\cckgc0NY.s:1179   .text.I2C_GetLastEvent:0000000000000008 .LVL87
C:\Users\LOCALH~1\AppData\Local\Temp\cckgc0NY.s:1117   .text.I2C_CheckEvent:0000000000000000 .LVL77
C:\Users\LOCALH~1\AppData\Local\Temp\cckgc0NY.s:1128   .text.I2C_CheckEvent:0000000000000004 .LVL79
C:\Users\LOCALH~1\AppData\Local\Temp\cckgc0NY.s:1135   .text.I2C_CheckEvent:0000000000000006 .LVL80
C:\Users\LOCALH~1\AppData\Local\Temp\cckgc0NY.s:1138   .text.I2C_CheckEvent:0000000000000008 .LVL81
C:\Users\LOCALH~1\AppData\Local\Temp\cckgc0NY.s:1141   .text.I2C_CheckEvent:000000000000000a .LVL82
C:\Users\LOCALH~1\AppData\Local\Temp\cckgc0NY.s:1124   .text.I2C_CheckEvent:0000000000000002 .LVL78
C:\Users\LOCALH~1\AppData\Local\Temp\cckgc0NY.s:992    .text.I2C_GetPEC:0000000000000000 .LVL72
C:\Users\LOCALH~1\AppData\Local\Temp\cckgc0NY.s:996    .text.I2C_GetPEC:0000000000000002 .LVL73
C:\Users\LOCALH~1\AppData\Local\Temp\cckgc0NY.s:838    .text.I2C_NACKPositionConfig:0000000000000000 .LVL67
C:\Users\LOCALH~1\AppData\Local\Temp\cckgc0NY.s:844    .text.I2C_NACKPositionConfig:0000000000000006 .LVL68
C:\Users\LOCALH~1\AppData\Local\Temp\cckgc0NY.s:769    .text.I2C_ReadRegister:0000000000000000 .LVL63
C:\Users\LOCALH~1\AppData\Local\Temp\cckgc0NY.s:790    .text.I2C_ReadRegister:0000000000000010 .LVL65
C:\Users\LOCALH~1\AppData\Local\Temp\cckgc0NY.s:783    .text.I2C_ReadRegister:000000000000000a .LVL64
C:\Users\LOCALH~1\AppData\Local\Temp\cckgc0NY.s:742    .text.I2C_Send7bitAddress:0000000000000000 .LVL61
C:\Users\LOCALH~1\AppData\Local\Temp\cckgc0NY.s:751    .text.I2C_Send7bitAddress:000000000000000a .LVL62
C:\Users\LOCALH~1\AppData\Local\Temp\cckgc0NY.s:723    .text.I2C_ReceiveData:0000000000000000 .LVL59
C:\Users\LOCALH~1\AppData\Local\Temp\cckgc0NY.s:727    .text.I2C_ReceiveData:0000000000000002 .LVL60
C:\Users\LOCALH~1\AppData\Local\Temp\cckgc0NY.s:671    .text.I2C_ITConfig:0000000000000000 .LVL54
C:\Users\LOCALH~1\AppData\Local\Temp\cckgc0NY.s:680    .text.I2C_ITConfig:0000000000000006 .LVL55
C:\Users\LOCALH~1\AppData\Local\Temp\cckgc0NY.s:686    .text.I2C_ITConfig:000000000000000a .LVL56
C:\Users\LOCALH~1\AppData\Local\Temp\cckgc0NY.s:691    .text.I2C_ITConfig:000000000000000e .LVL57
C:\Users\LOCALH~1\AppData\Local\Temp\cckgc0NY.s:565    .text.I2C_OwnAddress2Config:0000000000000000 .LVL47
C:\Users\LOCALH~1\AppData\Local\Temp\cckgc0NY.s:572    .text.I2C_OwnAddress2Config:0000000000000006 .LVL48
C:\Users\LOCALH~1\AppData\Local\Temp\cckgc0NY.s:576    .text.I2C_OwnAddress2Config:000000000000000a .LVL49
C:\Users\LOCALH~1\AppData\Local\Temp\cckgc0NY.s:71     .text.I2C_Init:0000000000000000 .LVL7
C:\Users\LOCALH~1\AppData\Local\Temp\cckgc0NY.s:93     .text.I2C_Init:0000000000000010 .LVL9
C:\Users\LOCALH~1\AppData\Local\Temp\cckgc0NY.s:79     .text.I2C_Init:0000000000000008 .LVL8
C:\Users\LOCALH~1\AppData\Local\Temp\cckgc0NY.s:103    .text.I2C_Init:000000000000001e .LVL11
C:\Users\LOCALH~1\AppData\Local\Temp\cckgc0NY.s:109    .text.I2C_Init:0000000000000024 .LVL12
C:\Users\LOCALH~1\AppData\Local\Temp\cckgc0NY.s:118    .text.I2C_Init:0000000000000030 .LVL13
C:\Users\LOCALH~1\AppData\Local\Temp\cckgc0NY.s:157    .text.I2C_Init:0000000000000060 .LVL16
C:\Users\LOCALH~1\AppData\Local\Temp\cckgc0NY.s:184    .text.I2C_Init:0000000000000080 .LVL20
C:\Users\LOCALH~1\AppData\Local\Temp\cckgc0NY.s:194    .text.I2C_Init:0000000000000088 .LVL21
C:\Users\LOCALH~1\AppData\Local\Temp\cckgc0NY.s:201    .text.I2C_Init:000000000000008c .LVL22
C:\Users\LOCALH~1\AppData\Local\Temp\cckgc0NY.s:208    .text.I2C_Init:000000000000009a .LVL23
C:\Users\LOCALH~1\AppData\Local\Temp\cckgc0NY.s:217    .text.I2C_Init:00000000000000a2 .LVL24
C:\Users\LOCALH~1\AppData\Local\Temp\cckgc0NY.s:233    .text.I2C_Init:00000000000000b2 .LVL27
C:\Users\LOCALH~1\AppData\Local\Temp\cckgc0NY.s:236    .text.I2C_Init:00000000000000b6 .LVL28
C:\Users\LOCALH~1\AppData\Local\Temp\cckgc0NY.s:248    .text.I2C_Init:00000000000000c0 .LVL30
C:\Users\LOCALH~1\AppData\Local\Temp\cckgc0NY.s:282    .text.I2C_Init:00000000000000e8 .LVL34
C:\Users\LOCALH~1\AppData\Local\Temp\cckgc0NY.s:292    .text.I2C_Init:00000000000000fa .LVL36
C:\Users\LOCALH~1\AppData\Local\Temp\cckgc0NY.s:134    .text.I2C_Init:0000000000000048 .LVL14
C:\Users\LOCALH~1\AppData\Local\Temp\cckgc0NY.s:287    .text.I2C_Init:00000000000000f0 .LVL35
C:\Users\LOCALH~1\AppData\Local\Temp\cckgc0NY.s:164    .text.I2C_Init:0000000000000068 .LVL17
C:\Users\LOCALH~1\AppData\Local\Temp\cckgc0NY.s:168    .text.I2C_Init:000000000000006a .LVL18
C:\Users\LOCALH~1\AppData\Local\Temp\cckgc0NY.s:175    .text.I2C_Init:0000000000000072 .LVL19
C:\Users\LOCALH~1\AppData\Local\Temp\cckgc0NY.s:267    .text.I2C_Init:00000000000000da .LVL32
C:\Users\LOCALH~1\AppData\Local\Temp\cckgc0NY.s:306    .text.I2C_Init:000000000000010a .LVL38
C:\Users\LOCALH~1\AppData\Local\Temp\cckgc0NY.s:241    .text.I2C_Init:00000000000000b8 .LVL29
C:\Users\LOCALH~1\AppData\Local\Temp\cckgc0NY.s:263    .text.I2C_Init:00000000000000d6 .LVL31
C:\Users\LOCALH~1\AppData\Local\Temp\cckgc0NY.s:300    .text.I2C_Init:0000000000000104 .LVL37
C:\Users\LOCALH~1\AppData\Local\Temp\cckgc0NY.s:19     .text.I2C_DeInit:0000000000000000 .LVL0
C:\Users\LOCALH~1\AppData\Local\Temp\cckgc0NY.s:33     .text.I2C_DeInit:000000000000001a .LVL1
C:\Users\LOCALH~1\AppData\Local\Temp\cckgc0NY.s:48     .text.I2C_DeInit:0000000000000038 .LVL4
C:\Users\LOCALH~1\AppData\Local\Temp\cckgc0NY.s:53     .text.I2C_DeInit:000000000000003c .LVL5
C:\Users\LOCALH~1\AppData\Local\Temp\cckgc0NY.s:1273   .text.I2C_ClearFlag:0000000000000000 .LVL95
C:\Users\LOCALH~1\AppData\Local\Temp\cckgc0NY.s:1279   .text.I2C_ClearFlag:0000000000000004 .LVL96
C:\Users\LOCALH~1\AppData\Local\Temp\cckgc0NY.s:1281   .text.I2C_ClearFlag:0000000000000006 .LVL97
C:\Users\LOCALH~1\AppData\Local\Temp\cckgc0NY.s:1359   .debug_info:0000000000000000 .Ldebug_info0
C:\Users\LOCALH~1\AppData\Local\Temp\cckgc0NY.s:942    .text.I2C_PECPositionConfig:0000000000000000 .LFB63
C:\Users\LOCALH~1\AppData\Local\Temp\cckgc0NY.s:947    .text.I2C_PECPositionConfig:0000000000000008 .LFE63
C:\Users\LOCALH~1\AppData\Local\Temp\cckgc0NY.s:1339   .text.I2C_ClearITPendingBit:0000000000000000 .LFB65
C:\Users\LOCALH~1\AppData\Local\Temp\cckgc0NY.s:1348   .text.I2C_ClearITPendingBit:000000000000000c .LFE65

UNDEFINED SYMBOLS
__riscv_save_0
RCC_APB1PeriphResetCmd
__riscv_restore_0
__riscv_save_3
RCC_GetClocksFreq
__riscv_restore_3
