   1              		.file	"ch32v30x_spi.c"
   2              		.option nopic
   3              		.attribute arch, "rv32i2p0_m2p0_a2p0_f2p0_c2p0_xw"
   4              		.attribute unaligned_access, 0
   5              		.attribute stack_align, 16
   6              		.text
   7              	.Ltext0:
   8              		.cfi_sections	.debug_frame
   9              		.file 0 "C:\\Users\\localhost\\Documents\\turbomoskal-repo\\qqexpert\\firmware\\MasterController\\
  10              		.section	.text.SPI_I2S_DeInit,"ax",@progbits
  11              		.align	1
  12              		.globl	SPI_I2S_DeInit
  14              	SPI_I2S_DeInit:
  15              	.LFB29:
  16              		.file 1 "../Peripheral/src/ch32v30x_spi.c"
   1:../Peripheral/src/ch32v30x_spi.c **** /********************************** (C) COPYRIGHT *******************************
   2:../Peripheral/src/ch32v30x_spi.c **** * File Name          : ch32v30x_spi.c
   3:../Peripheral/src/ch32v30x_spi.c **** * Author             : WCH
   4:../Peripheral/src/ch32v30x_spi.c **** * Version            : V1.0.0
   5:../Peripheral/src/ch32v30x_spi.c **** * Date               : 2021/06/06
   6:../Peripheral/src/ch32v30x_spi.c **** * Description        : This file provides all the SPI firmware functions.
   7:../Peripheral/src/ch32v30x_spi.c **** *********************************************************************************
   8:../Peripheral/src/ch32v30x_spi.c **** * Copyright (c) 2021 Nanjing Qinheng Microelectronics Co., Ltd.
   9:../Peripheral/src/ch32v30x_spi.c **** * Attention: This software (modified or not) and binary are used for 
  10:../Peripheral/src/ch32v30x_spi.c **** * microcontroller manufactured by Nanjing Qinheng Microelectronics.
  11:../Peripheral/src/ch32v30x_spi.c **** *******************************************************************************/
  12:../Peripheral/src/ch32v30x_spi.c **** #include "ch32v30x_spi.h"
  13:../Peripheral/src/ch32v30x_spi.c **** #include "ch32v30x_rcc.h"
  14:../Peripheral/src/ch32v30x_spi.c **** 
  15:../Peripheral/src/ch32v30x_spi.c **** /* SPI SPE mask */
  16:../Peripheral/src/ch32v30x_spi.c **** #define CTLR1_SPE_Set         ((uint16_t)0x0040)
  17:../Peripheral/src/ch32v30x_spi.c **** #define CTLR1_SPE_Reset       ((uint16_t)0xFFBF)
  18:../Peripheral/src/ch32v30x_spi.c **** 
  19:../Peripheral/src/ch32v30x_spi.c **** /* I2S I2SE mask */
  20:../Peripheral/src/ch32v30x_spi.c **** #define I2SCFGR_I2SE_Set      ((uint16_t)0x0400)
  21:../Peripheral/src/ch32v30x_spi.c **** #define I2SCFGR_I2SE_Reset    ((uint16_t)0xFBFF)
  22:../Peripheral/src/ch32v30x_spi.c **** 
  23:../Peripheral/src/ch32v30x_spi.c **** /* SPI CRCNext mask */
  24:../Peripheral/src/ch32v30x_spi.c **** #define CTLR1_CRCNext_Set     ((uint16_t)0x1000)
  25:../Peripheral/src/ch32v30x_spi.c **** 
  26:../Peripheral/src/ch32v30x_spi.c **** /* SPI CRCEN mask */
  27:../Peripheral/src/ch32v30x_spi.c **** #define CTLR1_CRCEN_Set       ((uint16_t)0x2000)
  28:../Peripheral/src/ch32v30x_spi.c **** #define CTLR1_CRCEN_Reset     ((uint16_t)0xDFFF)
  29:../Peripheral/src/ch32v30x_spi.c **** 
  30:../Peripheral/src/ch32v30x_spi.c **** /* SPI SSOE mask */
  31:../Peripheral/src/ch32v30x_spi.c **** #define CTLR2_SSOE_Set        ((uint16_t)0x0004)
  32:../Peripheral/src/ch32v30x_spi.c **** #define CTLR2_SSOE_Reset      ((uint16_t)0xFFFB)
  33:../Peripheral/src/ch32v30x_spi.c **** 
  34:../Peripheral/src/ch32v30x_spi.c **** /* SPI registers Masks */
  35:../Peripheral/src/ch32v30x_spi.c **** #define CTLR1_CLEAR_Mask      ((uint16_t)0x3040)
  36:../Peripheral/src/ch32v30x_spi.c **** #define I2SCFGR_CLEAR_Mask    ((uint16_t)0xF040)
  37:../Peripheral/src/ch32v30x_spi.c **** 
  38:../Peripheral/src/ch32v30x_spi.c **** /* SPI or I2S mode selection masks */
  39:../Peripheral/src/ch32v30x_spi.c **** #define SPI_Mode_Select       ((uint16_t)0xF7FF)
  40:../Peripheral/src/ch32v30x_spi.c **** #define I2S_Mode_Select       ((uint16_t)0x0800)
  41:../Peripheral/src/ch32v30x_spi.c **** 
  42:../Peripheral/src/ch32v30x_spi.c **** /* I2S clock source selection masks */
  43:../Peripheral/src/ch32v30x_spi.c **** #define I2S2_CLOCK_SRC        ((uint32_t)(0x00020000))
  44:../Peripheral/src/ch32v30x_spi.c **** #define I2S3_CLOCK_SRC        ((uint32_t)(0x00040000))
  45:../Peripheral/src/ch32v30x_spi.c **** #define I2S_MUL_MASK          ((uint32_t)(0x0000F000))
  46:../Peripheral/src/ch32v30x_spi.c **** #define I2S_DIV_MASK          ((uint32_t)(0x000000F0))
  47:../Peripheral/src/ch32v30x_spi.c **** 
  48:../Peripheral/src/ch32v30x_spi.c **** /*********************************************************************
  49:../Peripheral/src/ch32v30x_spi.c ****  * @fn      SPI_I2S_DeInit
  50:../Peripheral/src/ch32v30x_spi.c ****  *
  51:../Peripheral/src/ch32v30x_spi.c ****  * @brief   Deinitializes the SPIx peripheral registers to their default
  52:../Peripheral/src/ch32v30x_spi.c ****  *        reset values (Affects also the I2Ss).
  53:../Peripheral/src/ch32v30x_spi.c ****  *
  54:../Peripheral/src/ch32v30x_spi.c ****  * @param   SPIx - where x can be 1, 2 or 3 to select the SPI peripheral.
  55:../Peripheral/src/ch32v30x_spi.c ****  *
  56:../Peripheral/src/ch32v30x_spi.c ****  * @return  none
  57:../Peripheral/src/ch32v30x_spi.c ****  */
  58:../Peripheral/src/ch32v30x_spi.c **** void SPI_I2S_DeInit(SPI_TypeDef *SPIx)
  59:../Peripheral/src/ch32v30x_spi.c **** {
  17              		.loc 1 59 1
  18              		.cfi_startproc
  19              	.LVL0:
  20 0000 17030000 		call	t0,__riscv_save_0
  20      E7020300 
  21              		.cfi_offset 1, -4
  22              		.cfi_def_cfa_offset 16
  60:../Peripheral/src/ch32v30x_spi.c ****     if(SPIx == SPI1)
  23              		.loc 1 60 5
  24              		.loc 1 60 7 is_stmt 0
  25 0008 B7370140 		li	a5,1073819648
  26 000c 6312F502 		bne	a0,a5,.L2
  61:../Peripheral/src/ch32v30x_spi.c ****     {
  62:../Peripheral/src/ch32v30x_spi.c ****         RCC_APB2PeriphResetCmd(RCC_APB2Periph_SPI1, ENABLE);
  27              		.loc 1 62 9 is_stmt 1
  28 0010 8545     		li	a1,1
  29 0012 0565     		li	a0,4096
  30              	.LVL1:
  31 0014 97000000 		call	RCC_APB2PeriphResetCmd
  31      E7800000 
  32              	.LVL2:
  63:../Peripheral/src/ch32v30x_spi.c ****         RCC_APB2PeriphResetCmd(RCC_APB2Periph_SPI1, DISABLE);
  33              		.loc 1 63 9
  34 001c 8145     		li	a1,0
  35 001e 0565     		li	a0,4096
  36 0020 97000000 		call	RCC_APB2PeriphResetCmd
  36      E7800000 
  37              	.LVL3:
  38              	.L1:
  64:../Peripheral/src/ch32v30x_spi.c ****     }
  65:../Peripheral/src/ch32v30x_spi.c ****     else if(SPIx == SPI2)
  66:../Peripheral/src/ch32v30x_spi.c ****     {
  67:../Peripheral/src/ch32v30x_spi.c ****         RCC_APB1PeriphResetCmd(RCC_APB1Periph_SPI2, ENABLE);
  68:../Peripheral/src/ch32v30x_spi.c ****         RCC_APB1PeriphResetCmd(RCC_APB1Periph_SPI2, DISABLE);
  69:../Peripheral/src/ch32v30x_spi.c ****     }
  70:../Peripheral/src/ch32v30x_spi.c ****     else
  71:../Peripheral/src/ch32v30x_spi.c ****     {
  72:../Peripheral/src/ch32v30x_spi.c ****         if(SPIx == SPI3)
  73:../Peripheral/src/ch32v30x_spi.c ****         {
  74:../Peripheral/src/ch32v30x_spi.c ****             RCC_APB1PeriphResetCmd(RCC_APB1Periph_SPI3, ENABLE);
  75:../Peripheral/src/ch32v30x_spi.c ****             RCC_APB1PeriphResetCmd(RCC_APB1Periph_SPI3, DISABLE);
  76:../Peripheral/src/ch32v30x_spi.c ****         }
  77:../Peripheral/src/ch32v30x_spi.c ****     }
  78:../Peripheral/src/ch32v30x_spi.c **** }
  39              		.loc 1 78 1 is_stmt 0
  40 0028 17030000 		tail	__riscv_restore_0
  40      67000300 
  41              		.cfi_remember_state
  42              		.cfi_restore 1
  43              		.cfi_def_cfa_offset 0
  44              	.LVL4:
  45              	.L2:
  46              		.cfi_restore_state
  65:../Peripheral/src/ch32v30x_spi.c ****     {
  47              		.loc 1 65 10 is_stmt 1
  65:../Peripheral/src/ch32v30x_spi.c ****     {
  48              		.loc 1 65 12 is_stmt 0
  49 0030 B7470040 		li	a5,1073758208
  50 0034 13870780 		addi	a4,a5,-2048
  51 0038 631FE500 		bne	a0,a4,.L4
  67:../Peripheral/src/ch32v30x_spi.c ****         RCC_APB1PeriphResetCmd(RCC_APB1Periph_SPI2, DISABLE);
  52              		.loc 1 67 9 is_stmt 1
  53 003c 8545     		li	a1,1
  54 003e 1165     		li	a0,16384
  55              	.LVL5:
  56 0040 97000000 		call	RCC_APB1PeriphResetCmd
  56      E7800000 
  57              	.LVL6:
  68:../Peripheral/src/ch32v30x_spi.c ****     }
  58              		.loc 1 68 9
  59 0048 8145     		li	a1,0
  60 004a 1165     		li	a0,16384
  61              	.L6:
  75:../Peripheral/src/ch32v30x_spi.c ****         }
  62              		.loc 1 75 13 is_stmt 0
  63 004c 97000000 		call	RCC_APB1PeriphResetCmd
  63      E7800000 
  64              	.LVL7:
  65              		.loc 1 78 1
  66 0054 D1BF     		j	.L1
  67              	.LVL8:
  68              	.L4:
  72:../Peripheral/src/ch32v30x_spi.c ****         {
  69              		.loc 1 72 9 is_stmt 1
  72:../Peripheral/src/ch32v30x_spi.c ****         {
  70              		.loc 1 72 11 is_stmt 0
  71 0056 938707C0 		addi	a5,a5,-1024
  72 005a E317F5FC 		bne	a0,a5,.L1
  74:../Peripheral/src/ch32v30x_spi.c ****             RCC_APB1PeriphResetCmd(RCC_APB1Periph_SPI3, DISABLE);
  73              		.loc 1 74 13 is_stmt 1
  74 005e 8545     		li	a1,1
  75 0060 2165     		li	a0,32768
  76              	.LVL9:
  77 0062 97000000 		call	RCC_APB1PeriphResetCmd
  77      E7800000 
  78              	.LVL10:
  75:../Peripheral/src/ch32v30x_spi.c ****         }
  79              		.loc 1 75 13
  80 006a 8145     		li	a1,0
  81 006c 2165     		li	a0,32768
  82 006e F9BF     		j	.L6
  83              		.cfi_endproc
  84              	.LFE29:
  86              		.section	.text.SPI_Init,"ax",@progbits
  87              		.align	1
  88              		.globl	SPI_Init
  90              	SPI_Init:
  91              	.LFB30:
  79:../Peripheral/src/ch32v30x_spi.c **** 
  80:../Peripheral/src/ch32v30x_spi.c **** /*********************************************************************
  81:../Peripheral/src/ch32v30x_spi.c ****  * @fn      SPI_Init
  82:../Peripheral/src/ch32v30x_spi.c ****  *
  83:../Peripheral/src/ch32v30x_spi.c ****  * @brief   Initializes the SPIx peripheral according to the specified
  84:../Peripheral/src/ch32v30x_spi.c ****  *        parameters in the SPI_InitStruct.
  85:../Peripheral/src/ch32v30x_spi.c ****  *
  86:../Peripheral/src/ch32v30x_spi.c ****  * @param   SPIx - where x can be 1, 2 or 3 to select the SPI peripheral.
  87:../Peripheral/src/ch32v30x_spi.c ****  *          SPI_InitStruct - pointer to a SPI_InitTypeDef structure that
  88:../Peripheral/src/ch32v30x_spi.c ****  *        contains the configuration information for the specified SPI peripheral.
  89:../Peripheral/src/ch32v30x_spi.c ****  *
  90:../Peripheral/src/ch32v30x_spi.c ****  * @return  none
  91:../Peripheral/src/ch32v30x_spi.c ****  */
  92:../Peripheral/src/ch32v30x_spi.c **** void SPI_Init(SPI_TypeDef *SPIx, SPI_InitTypeDef *SPI_InitStruct)
  93:../Peripheral/src/ch32v30x_spi.c **** {
  92              		.loc 1 93 1
  93              		.cfi_startproc
  94              	.LVL11:
  94:../Peripheral/src/ch32v30x_spi.c ****     uint16_t tmpreg = 0;
  95              		.loc 1 94 5
  95:../Peripheral/src/ch32v30x_spi.c **** 
  96:../Peripheral/src/ch32v30x_spi.c ****     tmpreg = SPIx->CTLR1;
  96              		.loc 1 96 5
  97              		.loc 1 96 12 is_stmt 0
  98 0000 1E21     		lhu	a5,0(a0)
  99              	.LVL12:
  97:../Peripheral/src/ch32v30x_spi.c ****     tmpreg &= CTLR1_CLEAR_Mask;
 100              		.loc 1 97 5 is_stmt 1
 101              		.loc 1 97 12 is_stmt 0
 102 0002 0D67     		li	a4,12288
 103 0004 13070704 		addi	a4,a4,64
  98:../Peripheral/src/ch32v30x_spi.c ****     tmpreg |= (uint16_t)((uint32_t)SPI_InitStruct->SPI_Direction | SPI_InitStruct->SPI_Mode |
 104              		.loc 1 98 15
 105 0008 B621     		lhu	a3,2(a1)
  97:../Peripheral/src/ch32v30x_spi.c ****     tmpreg &= CTLR1_CLEAR_Mask;
 106              		.loc 1 97 12
 107 000a 7D8F     		and	a4,a5,a4
 108              	.LVL13:
 109              		.loc 1 98 5 is_stmt 1
 110              		.loc 1 98 15 is_stmt 0
 111 000c 9E21     		lhu	a5,0(a1)
 112 000e D58F     		or	a5,a5,a3
 113 0010 D621     		lhu	a3,4(a1)
 114 0012 D58F     		or	a5,a5,a3
 115 0014 F621     		lhu	a3,6(a1)
 116 0016 D58F     		or	a5,a5,a3
 117 0018 9625     		lhu	a3,8(a1)
 118 001a D58F     		or	a5,a5,a3
 119 001c B625     		lhu	a3,10(a1)
 120 001e D58F     		or	a5,a5,a3
 121 0020 D625     		lhu	a3,12(a1)
 122 0022 D58F     		or	a5,a5,a3
 123 0024 F625     		lhu	a3,14(a1)
 124 0026 D58F     		or	a5,a5,a3
 125              		.loc 1 98 12
 126 0028 D98F     		or	a5,a4,a5
 127              	.LVL14:
  99:../Peripheral/src/ch32v30x_spi.c ****                          SPI_InitStruct->SPI_DataSize | SPI_InitStruct->SPI_CPOL |
 100:../Peripheral/src/ch32v30x_spi.c ****                          SPI_InitStruct->SPI_CPHA | SPI_InitStruct->SPI_NSS |
 101:../Peripheral/src/ch32v30x_spi.c ****                          SPI_InitStruct->SPI_BaudRatePrescaler | SPI_InitStruct->SPI_FirstBit);
 102:../Peripheral/src/ch32v30x_spi.c **** 
 103:../Peripheral/src/ch32v30x_spi.c ****     SPIx->CTLR1 = tmpreg;
 128              		.loc 1 103 5 is_stmt 1
 129              		.loc 1 103 17 is_stmt 0
 130 002a 1EA1     		sh	a5,0(a0)
 104:../Peripheral/src/ch32v30x_spi.c ****     SPIx->I2SCFGR &= SPI_Mode_Select;
 131              		.loc 1 104 5 is_stmt 1
 132              		.loc 1 104 9 is_stmt 0
 133 002c 5E2D     		lhu	a5,28(a0)
 134              	.LVL15:
 135              		.loc 1 104 19
 136 002e 7D77     		li	a4,-4096
 137 0030 1307F77F 		addi	a4,a4,2047
 138 0034 F98F     		and	a5,a5,a4
 139 0036 5EAD     		sh	a5,28(a0)
 140              	.LVL16:
 105:../Peripheral/src/ch32v30x_spi.c ****     SPIx->CRCR = SPI_InitStruct->SPI_CRCPolynomial;
 141              		.loc 1 105 5 is_stmt 1
 142              		.loc 1 105 32 is_stmt 0
 143 0038 9E29     		lhu	a5,16(a1)
 144              		.loc 1 105 16
 145 003a 1EA9     		sh	a5,16(a0)
 106:../Peripheral/src/ch32v30x_spi.c **** }
 146              		.loc 1 106 1
 147 003c 8280     		ret
 148              		.cfi_endproc
 149              	.LFE30:
 151              		.section	.text.I2S_Init,"ax",@progbits
 152              		.align	1
 153              		.globl	I2S_Init
 155              	I2S_Init:
 156              	.LFB31:
 107:../Peripheral/src/ch32v30x_spi.c **** 
 108:../Peripheral/src/ch32v30x_spi.c **** /*********************************************************************
 109:../Peripheral/src/ch32v30x_spi.c ****  * @fn      I2S_Init
 110:../Peripheral/src/ch32v30x_spi.c ****  *
 111:../Peripheral/src/ch32v30x_spi.c ****  * @brief   Initializes the SPIx peripheral according to the specified
 112:../Peripheral/src/ch32v30x_spi.c ****  *        parameters in the I2S_InitStruct.
 113:../Peripheral/src/ch32v30x_spi.c ****  *
 114:../Peripheral/src/ch32v30x_spi.c ****  * @param   SPIx - where x can be 1, 2 or 3 to select the SPI peripheral.
 115:../Peripheral/src/ch32v30x_spi.c ****  *        (configured in I2S mode).
 116:../Peripheral/src/ch32v30x_spi.c ****  *          I2S_InitStruct - pointer to an I2S_InitTypeDef structure that
 117:../Peripheral/src/ch32v30x_spi.c ****  *        contains the configuration information for the specified SPI peripheral
 118:../Peripheral/src/ch32v30x_spi.c ****  *        configured in I2S mode.
 119:../Peripheral/src/ch32v30x_spi.c ****  *
 120:../Peripheral/src/ch32v30x_spi.c ****  * @return  none
 121:../Peripheral/src/ch32v30x_spi.c ****  */
 122:../Peripheral/src/ch32v30x_spi.c **** void I2S_Init(SPI_TypeDef *SPIx, I2S_InitTypeDef *I2S_InitStruct)
 123:../Peripheral/src/ch32v30x_spi.c **** {
 157              		.loc 1 123 1 is_stmt 1
 158              		.cfi_startproc
 159              	.LVL17:
 160 0000 17030000 		call	t0,__riscv_save_4
 160      E7020300 
 161              		.cfi_offset 19, -20
 162              		.cfi_offset 18, -16
 163              		.cfi_offset 9, -12
 164              		.cfi_offset 8, -8
 165              		.cfi_offset 1, -4
 166              		.cfi_def_cfa_offset 32
 124:../Peripheral/src/ch32v30x_spi.c ****     uint16_t          tmpreg = 0, i2sdiv = 2, i2sodd = 0, packetlength = 1;
 167              		.loc 1 124 5
 168              	.LVL18:
 125:../Peripheral/src/ch32v30x_spi.c ****     uint32_t          tmp = 0;
 169              		.loc 1 125 5
 126:../Peripheral/src/ch32v30x_spi.c ****     RCC_ClocksTypeDef RCC_Clocks;
 170              		.loc 1 126 5
 127:../Peripheral/src/ch32v30x_spi.c ****     uint32_t          sourceclock = 0;
 171              		.loc 1 127 5
 128:../Peripheral/src/ch32v30x_spi.c **** 
 129:../Peripheral/src/ch32v30x_spi.c ****     SPIx->I2SCFGR &= I2SCFGR_CLEAR_Mask;
 172              		.loc 1 129 5
 173              		.loc 1 129 9 is_stmt 0
 174 0008 5E2D     		lhu	a5,28(a0)
 175              		.loc 1 129 19
 176 000a 7D77     		li	a4,-4096
 177 000c 13070704 		addi	a4,a4,64
 178 0010 F98F     		and	a5,a5,a4
 179 0012 5EAD     		sh	a5,28(a0)
 130:../Peripheral/src/ch32v30x_spi.c ****     SPIx->I2SPR = 0x0002;
 180              		.loc 1 130 5 is_stmt 1
 181              		.loc 1 130 17 is_stmt 0
 182 0014 8947     		li	a5,2
 183 0016 1EB1     		sh	a5,32(a0)
 131:../Peripheral/src/ch32v30x_spi.c ****     tmpreg = SPIx->I2SCFGR;
 184              		.loc 1 131 5 is_stmt 1
 185              		.loc 1 131 12 is_stmt 0
 186 0018 422D     		lhu	s0,28(a0)
 132:../Peripheral/src/ch32v30x_spi.c **** 
 133:../Peripheral/src/ch32v30x_spi.c ****     if(I2S_InitStruct->I2S_AudioFreq == I2S_AudioFreq_Default)
 187              		.loc 1 133 7
 188 001a 9845     		lw	a4,8(a1)
 134:../Peripheral/src/ch32v30x_spi.c ****     {
 135:../Peripheral/src/ch32v30x_spi.c ****         i2sodd = (uint16_t)0;
 136:../Peripheral/src/ch32v30x_spi.c ****         i2sdiv = (uint16_t)2;
 137:../Peripheral/src/ch32v30x_spi.c ****     }
 138:../Peripheral/src/ch32v30x_spi.c ****     else
 139:../Peripheral/src/ch32v30x_spi.c ****     {
 140:../Peripheral/src/ch32v30x_spi.c ****         if(I2S_InitStruct->I2S_DataFormat == I2S_DataFormat_16b)
 189              		.loc 1 140 26
 190 001c 83D94500 		lhu	s3,4(a1)
 131:../Peripheral/src/ch32v30x_spi.c **** 
 191              		.loc 1 131 12
 192 0020 4204     		slli	s0,s0,16
 123:../Peripheral/src/ch32v30x_spi.c ****     uint16_t          tmpreg = 0, i2sdiv = 2, i2sodd = 0, packetlength = 1;
 193              		.loc 1 123 1
 194 0022 0111     		addi	sp,sp,-32
 195              		.cfi_def_cfa_offset 64
 123:../Peripheral/src/ch32v30x_spi.c ****     uint16_t          tmpreg = 0, i2sdiv = 2, i2sodd = 0, packetlength = 1;
 196              		.loc 1 123 1
 197 0024 2A89     		mv	s2,a0
 198 0026 AE84     		mv	s1,a1
 131:../Peripheral/src/ch32v30x_spi.c **** 
 199              		.loc 1 131 12
 200 0028 4180     		srli	s0,s0,16
 201              	.LVL19:
 133:../Peripheral/src/ch32v30x_spi.c ****     {
 202              		.loc 1 133 5 is_stmt 1
 133:../Peripheral/src/ch32v30x_spi.c ****     {
 203              		.loc 1 133 7 is_stmt 0
 204 002a 630CF704 		beq	a4,a5,.L9
 205              		.loc 1 140 9 is_stmt 1
 141:../Peripheral/src/ch32v30x_spi.c ****         {
 142:../Peripheral/src/ch32v30x_spi.c ****             packetlength = 1;
 143:../Peripheral/src/ch32v30x_spi.c ****         }
 144:../Peripheral/src/ch32v30x_spi.c ****         else
 145:../Peripheral/src/ch32v30x_spi.c ****         {
 146:../Peripheral/src/ch32v30x_spi.c ****             packetlength = 2;
 147:../Peripheral/src/ch32v30x_spi.c ****         }
 148:../Peripheral/src/ch32v30x_spi.c **** 
 149:../Peripheral/src/ch32v30x_spi.c ****         if(((uint32_t)SPIx) == SPI2_BASE)
 150:../Peripheral/src/ch32v30x_spi.c ****         {
 151:../Peripheral/src/ch32v30x_spi.c ****             tmp = I2S2_CLOCK_SRC;
 152:../Peripheral/src/ch32v30x_spi.c ****         }
 153:../Peripheral/src/ch32v30x_spi.c ****         else
 154:../Peripheral/src/ch32v30x_spi.c ****         {
 155:../Peripheral/src/ch32v30x_spi.c ****             tmp = I2S3_CLOCK_SRC;
 156:../Peripheral/src/ch32v30x_spi.c ****         }
 157:../Peripheral/src/ch32v30x_spi.c **** 
 158:../Peripheral/src/ch32v30x_spi.c ****         RCC_GetClocksFreq(&RCC_Clocks);
 206              		.loc 1 158 9 is_stmt 0
 207 002e 6800     		addi	a0,sp,12
 208              	.LVL20:
 209 0030 97000000 		call	RCC_GetClocksFreq
 209      E7800000 
 210              	.LVL21:
 159:../Peripheral/src/ch32v30x_spi.c **** 
 160:../Peripheral/src/ch32v30x_spi.c ****         sourceclock = RCC_Clocks.SYSCLK_Frequency;
 161:../Peripheral/src/ch32v30x_spi.c **** 
 162:../Peripheral/src/ch32v30x_spi.c ****         if(I2S_InitStruct->I2S_MCLKOutput == I2S_MCLKOutput_Enable)
 211              		.loc 1 162 11
 212 0038 F220     		lhu	a2,6(s1)
 142:../Peripheral/src/ch32v30x_spi.c ****         }
 213              		.loc 1 142 26
 214 003a B3393001 		snez	s3,s3
 215              		.loc 1 162 11
 216 003e 93070020 		li	a5,512
 160:../Peripheral/src/ch32v30x_spi.c **** 
 217              		.loc 1 160 21
 218 0042 3247     		lw	a4,12(sp)
 219 0044 9444     		lw	a3,8(s1)
 142:../Peripheral/src/ch32v30x_spi.c ****         }
 220              		.loc 1 142 26
 221 0046 8509     		addi	s3,s3,1
 222              	.LVL22:
 149:../Peripheral/src/ch32v30x_spi.c ****         {
 223              		.loc 1 149 9 is_stmt 1
 158:../Peripheral/src/ch32v30x_spi.c **** 
 224              		.loc 1 158 9
 160:../Peripheral/src/ch32v30x_spi.c **** 
 225              		.loc 1 160 9
 226              		.loc 1 162 9
 227              		.loc 1 162 11 is_stmt 0
 228 0048 6319F606 		bne	a2,a5,.L11
 163:../Peripheral/src/ch32v30x_spi.c ****         {
 164:../Peripheral/src/ch32v30x_spi.c ****             tmp = (uint16_t)(((((sourceclock / 256) * 10) / I2S_InitStruct->I2S_AudioFreq)) + 5);
 229              		.loc 1 164 13 is_stmt 1
 230              		.loc 1 164 46 is_stmt 0
 231 004c 93578700 		srli	a5,a4,8
 232              	.LVL23:
 233              	.L16:
 165:../Peripheral/src/ch32v30x_spi.c ****         }
 166:../Peripheral/src/ch32v30x_spi.c ****         else
 167:../Peripheral/src/ch32v30x_spi.c ****         {
 168:../Peripheral/src/ch32v30x_spi.c ****             tmp = (uint16_t)(((((sourceclock / (32 * packetlength)) * 10) / I2S_InitStruct->I2S_Aud
 234              		.loc 1 168 69
 235 0050 2947     		li	a4,10
 236              	.LVL24:
 237 0052 B387E702 		mul	a5,a5,a4
 169:../Peripheral/src/ch32v30x_spi.c ****         }
 170:../Peripheral/src/ch32v30x_spi.c **** 
 171:../Peripheral/src/ch32v30x_spi.c ****         tmp = tmp / 10;
 238              		.loc 1 171 13
 239 0056 2947     		li	a4,10
 172:../Peripheral/src/ch32v30x_spi.c ****         i2sodd = (uint16_t)(tmp & (uint16_t)0x0001);
 173:../Peripheral/src/ch32v30x_spi.c ****         i2sdiv = (uint16_t)((tmp - i2sodd) / 2);
 174:../Peripheral/src/ch32v30x_spi.c ****         i2sodd = (uint16_t)(i2sodd << 8);
 175:../Peripheral/src/ch32v30x_spi.c ****     }
 176:../Peripheral/src/ch32v30x_spi.c **** 
 177:../Peripheral/src/ch32v30x_spi.c ****     if((i2sdiv < 2) || (i2sdiv > 0xFF))
 240              		.loc 1 177 7
 241 0058 1306D00F 		li	a2,253
 168:../Peripheral/src/ch32v30x_spi.c ****         }
 242              		.loc 1 168 75
 243 005c B3D7D702 		divu	a5,a5,a3
 168:../Peripheral/src/ch32v30x_spi.c ****         }
 244              		.loc 1 168 19
 245 0060 9507     		addi	a5,a5,5
 168:../Peripheral/src/ch32v30x_spi.c ****         }
 246              		.loc 1 168 17
 247 0062 C207     		slli	a5,a5,16
 248 0064 C183     		srli	a5,a5,16
 249              	.LVL25:
 171:../Peripheral/src/ch32v30x_spi.c ****         i2sodd = (uint16_t)(tmp & (uint16_t)0x0001);
 250              		.loc 1 171 9 is_stmt 1
 171:../Peripheral/src/ch32v30x_spi.c ****         i2sodd = (uint16_t)(tmp & (uint16_t)0x0001);
 251              		.loc 1 171 13 is_stmt 0
 252 0066 B3D7E702 		divu	a5,a5,a4
 253              	.LVL26:
 172:../Peripheral/src/ch32v30x_spi.c ****         i2sodd = (uint16_t)(tmp & (uint16_t)0x0001);
 254              		.loc 1 172 9 is_stmt 1
 172:../Peripheral/src/ch32v30x_spi.c ****         i2sodd = (uint16_t)(tmp & (uint16_t)0x0001);
 255              		.loc 1 172 16 is_stmt 0
 256 006a 13F71700 		andi	a4,a5,1
 257              	.LVL27:
 173:../Peripheral/src/ch32v30x_spi.c ****         i2sodd = (uint16_t)(i2sodd << 8);
 258              		.loc 1 173 9 is_stmt 1
 173:../Peripheral/src/ch32v30x_spi.c ****         i2sodd = (uint16_t)(i2sodd << 8);
 259              		.loc 1 173 44 is_stmt 0
 260 006e 8583     		srli	a5,a5,1
 261              	.LVL28:
 173:../Peripheral/src/ch32v30x_spi.c ****         i2sodd = (uint16_t)(i2sodd << 8);
 262              		.loc 1 173 16
 263 0070 C207     		slli	a5,a5,16
 264 0072 C183     		srli	a5,a5,16
 265              	.LVL29:
 174:../Peripheral/src/ch32v30x_spi.c ****     }
 266              		.loc 1 174 9 is_stmt 1
 267              		.loc 1 177 5
 268              		.loc 1 177 21 is_stmt 0
 269 0074 9386E7FF 		addi	a3,a5,-2
 270              		.loc 1 177 7
 271 0078 C206     		slli	a3,a3,16
 272 007a C182     		srli	a3,a3,16
 174:../Peripheral/src/ch32v30x_spi.c ****     }
 273              		.loc 1 174 16
 274 007c 2207     		slli	a4,a4,8
 275              	.LVL30:
 276              		.loc 1 177 7
 277 007e 6374D600 		bleu	a3,a2,.L13
 278              	.LVL31:
 279              	.L9:
 178:../Peripheral/src/ch32v30x_spi.c ****     {
 179:../Peripheral/src/ch32v30x_spi.c ****         i2sdiv = 2;
 180:../Peripheral/src/ch32v30x_spi.c ****         i2sodd = 0;
 280              		.loc 1 180 16
 281 0082 0147     		li	a4,0
 179:../Peripheral/src/ch32v30x_spi.c ****         i2sodd = 0;
 282              		.loc 1 179 16
 283 0084 8947     		li	a5,2
 284              	.L13:
 285              	.LVL32:
 181:../Peripheral/src/ch32v30x_spi.c ****     }
 182:../Peripheral/src/ch32v30x_spi.c **** 
 183:../Peripheral/src/ch32v30x_spi.c ****     SPIx->I2SPR = (uint16_t)(i2sdiv | (uint16_t)(i2sodd | (uint16_t)I2S_InitStruct->I2S_MCLKOutput)
 286              		.loc 1 183 5 is_stmt 1
 287              		.loc 1 183 19 is_stmt 0
 288 0086 D98F     		or	a5,a5,a4
 289              	.LVL33:
 290 0088 FA20     		lhu	a4,6(s1)
 291              	.LVL34:
 292 008a D98F     		or	a5,a4,a5
 293              		.loc 1 183 17
 294 008c 2310F902 		sh	a5,32(s2)
 184:../Peripheral/src/ch32v30x_spi.c ****     tmpreg |= (uint16_t)(I2S_Mode_Select | (uint16_t)(I2S_InitStruct->I2S_Mode |
 295              		.loc 1 184 5 is_stmt 1
 296              		.loc 1 184 12 is_stmt 0
 297 0090 BA20     		lhu	a4,2(s1)
 298 0092 9E20     		lhu	a5,0(s1)
 299 0094 D98F     		or	a5,a5,a4
 300 0096 DA20     		lhu	a4,4(s1)
 301 0098 C18F     		or	a5,s0,a5
 302 009a D98F     		or	a5,a5,a4
 303 009c DA24     		lhu	a4,12(s1)
 304 009e D98F     		or	a5,a5,a4
 305 00a0 0567     		li	a4,4096
 306 00a2 13070780 		addi	a4,a4,-2048
 307 00a6 D98F     		or	a5,a5,a4
 308 00a8 C207     		slli	a5,a5,16
 309 00aa C183     		srli	a5,a5,16
 310              	.LVL35:
 185:../Peripheral/src/ch32v30x_spi.c ****                                                       (uint16_t)(I2S_InitStruct->I2S_Standard | (ui
 186:../Peripheral/src/ch32v30x_spi.c ****                                                                                                    
 187:../Peripheral/src/ch32v30x_spi.c ****     SPIx->I2SCFGR = tmpreg;
 311              		.loc 1 187 5 is_stmt 1
 312              		.loc 1 187 19 is_stmt 0
 313 00ac 231EF900 		sh	a5,28(s2)
 188:../Peripheral/src/ch32v30x_spi.c **** }
 314              		.loc 1 188 1
 315 00b0 0561     		addi	sp,sp,32
 316              		.cfi_remember_state
 317              		.cfi_def_cfa_offset 0
 318 00b2 17030000 		tail	__riscv_restore_4
 318      67000300 
 319              		.cfi_restore 19
 320              		.cfi_restore 18
 321              		.cfi_restore 9
 322              		.cfi_restore 8
 323              		.cfi_restore 1
 324              		.cfi_def_cfa_offset -32
 325              	.LVL36:
 326              	.L11:
 327              		.cfi_restore_state
 168:../Peripheral/src/ch32v30x_spi.c ****         }
 328              		.loc 1 168 13 is_stmt 1
 168:../Peripheral/src/ch32v30x_spi.c ****         }
 329              		.loc 1 168 52 is_stmt 0
 330 00ba 9609     		slli	s3,s3,5
 331              	.LVL37:
 168:../Peripheral/src/ch32v30x_spi.c ****         }
 332              		.loc 1 168 46
 333 00bc B3573703 		divu	a5,a4,s3
 334 00c0 41BF     		j	.L16
 335              		.cfi_endproc
 336              	.LFE31:
 338              		.section	.text.SPI_StructInit,"ax",@progbits
 339              		.align	1
 340              		.globl	SPI_StructInit
 342              	SPI_StructInit:
 343              	.LFB32:
 189:../Peripheral/src/ch32v30x_spi.c **** 
 190:../Peripheral/src/ch32v30x_spi.c **** /*********************************************************************
 191:../Peripheral/src/ch32v30x_spi.c ****  * @fn      SPI_StructInit
 192:../Peripheral/src/ch32v30x_spi.c ****  *
 193:../Peripheral/src/ch32v30x_spi.c ****  * @brief   Fills each SPI_InitStruct member with its default value.
 194:../Peripheral/src/ch32v30x_spi.c ****  *
 195:../Peripheral/src/ch32v30x_spi.c ****  * @param   SPI_InitStruct - pointer to a SPI_InitTypeDef structure which
 196:../Peripheral/src/ch32v30x_spi.c ****  *        will be initialized.
 197:../Peripheral/src/ch32v30x_spi.c ****  *
 198:../Peripheral/src/ch32v30x_spi.c ****  * @return  none
 199:../Peripheral/src/ch32v30x_spi.c ****  */
 200:../Peripheral/src/ch32v30x_spi.c **** void SPI_StructInit(SPI_InitTypeDef *SPI_InitStruct)
 201:../Peripheral/src/ch32v30x_spi.c **** {
 344              		.loc 1 201 1 is_stmt 1
 345              		.cfi_startproc
 346              	.LVL38:
 202:../Peripheral/src/ch32v30x_spi.c ****     SPI_InitStruct->SPI_Direction = SPI_Direction_2Lines_FullDuplex;
 347              		.loc 1 202 5
 203:../Peripheral/src/ch32v30x_spi.c ****     SPI_InitStruct->SPI_Mode = SPI_Mode_Slave;
 204:../Peripheral/src/ch32v30x_spi.c ****     SPI_InitStruct->SPI_DataSize = SPI_DataSize_8b;
 205:../Peripheral/src/ch32v30x_spi.c ****     SPI_InitStruct->SPI_CPOL = SPI_CPOL_Low;
 206:../Peripheral/src/ch32v30x_spi.c ****     SPI_InitStruct->SPI_CPHA = SPI_CPHA_1Edge;
 207:../Peripheral/src/ch32v30x_spi.c ****     SPI_InitStruct->SPI_BaudRatePrescaler = SPI_BaudRatePrescaler_2;
 208:../Peripheral/src/ch32v30x_spi.c ****     SPI_InitStruct->SPI_FirstBit = SPI_FirstBit_MSB;
 209:../Peripheral/src/ch32v30x_spi.c ****     SPI_InitStruct->SPI_CRCPolynomial = 7;
 348              		.loc 1 209 39 is_stmt 0
 349 0000 9D47     		li	a5,7
 202:../Peripheral/src/ch32v30x_spi.c ****     SPI_InitStruct->SPI_Direction = SPI_Direction_2Lines_FullDuplex;
 350              		.loc 1 202 35
 351 0002 23100500 		sh	zero,0(a0)
 203:../Peripheral/src/ch32v30x_spi.c ****     SPI_InitStruct->SPI_Mode = SPI_Mode_Slave;
 352              		.loc 1 203 5 is_stmt 1
 203:../Peripheral/src/ch32v30x_spi.c ****     SPI_InitStruct->SPI_Mode = SPI_Mode_Slave;
 353              		.loc 1 203 30 is_stmt 0
 354 0006 23110500 		sh	zero,2(a0)
 204:../Peripheral/src/ch32v30x_spi.c ****     SPI_InitStruct->SPI_CPOL = SPI_CPOL_Low;
 355              		.loc 1 204 5 is_stmt 1
 204:../Peripheral/src/ch32v30x_spi.c ****     SPI_InitStruct->SPI_CPOL = SPI_CPOL_Low;
 356              		.loc 1 204 34 is_stmt 0
 357 000a 23120500 		sh	zero,4(a0)
 205:../Peripheral/src/ch32v30x_spi.c ****     SPI_InitStruct->SPI_CPHA = SPI_CPHA_1Edge;
 358              		.loc 1 205 5 is_stmt 1
 205:../Peripheral/src/ch32v30x_spi.c ****     SPI_InitStruct->SPI_CPHA = SPI_CPHA_1Edge;
 359              		.loc 1 205 30 is_stmt 0
 360 000e 23130500 		sh	zero,6(a0)
 206:../Peripheral/src/ch32v30x_spi.c ****     SPI_InitStruct->SPI_BaudRatePrescaler = SPI_BaudRatePrescaler_2;
 361              		.loc 1 206 5 is_stmt 1
 206:../Peripheral/src/ch32v30x_spi.c ****     SPI_InitStruct->SPI_BaudRatePrescaler = SPI_BaudRatePrescaler_2;
 362              		.loc 1 206 30 is_stmt 0
 363 0012 23140500 		sh	zero,8(a0)
 207:../Peripheral/src/ch32v30x_spi.c ****     SPI_InitStruct->SPI_FirstBit = SPI_FirstBit_MSB;
 364              		.loc 1 207 5 is_stmt 1
 207:../Peripheral/src/ch32v30x_spi.c ****     SPI_InitStruct->SPI_FirstBit = SPI_FirstBit_MSB;
 365              		.loc 1 207 43 is_stmt 0
 366 0016 23160500 		sh	zero,12(a0)
 208:../Peripheral/src/ch32v30x_spi.c ****     SPI_InitStruct->SPI_CRCPolynomial = 7;
 367              		.loc 1 208 5 is_stmt 1
 208:../Peripheral/src/ch32v30x_spi.c ****     SPI_InitStruct->SPI_CRCPolynomial = 7;
 368              		.loc 1 208 34 is_stmt 0
 369 001a 23170500 		sh	zero,14(a0)
 370              		.loc 1 209 5 is_stmt 1
 371              		.loc 1 209 39 is_stmt 0
 372 001e 1EA9     		sh	a5,16(a0)
 210:../Peripheral/src/ch32v30x_spi.c **** }
 373              		.loc 1 210 1
 374 0020 8280     		ret
 375              		.cfi_endproc
 376              	.LFE32:
 378              		.section	.text.I2S_StructInit,"ax",@progbits
 379              		.align	1
 380              		.globl	I2S_StructInit
 382              	I2S_StructInit:
 383              	.LFB33:
 211:../Peripheral/src/ch32v30x_spi.c **** 
 212:../Peripheral/src/ch32v30x_spi.c **** /*********************************************************************
 213:../Peripheral/src/ch32v30x_spi.c ****  * @fn      I2S_StructInit
 214:../Peripheral/src/ch32v30x_spi.c ****  *
 215:../Peripheral/src/ch32v30x_spi.c ****  * @brief   Fills each I2S_InitStruct member with its default value.
 216:../Peripheral/src/ch32v30x_spi.c ****  *
 217:../Peripheral/src/ch32v30x_spi.c ****  * @param   I2S_InitStruct - pointer to a I2S_InitTypeDef structure which
 218:../Peripheral/src/ch32v30x_spi.c ****  *        will be initialized.
 219:../Peripheral/src/ch32v30x_spi.c ****  *
 220:../Peripheral/src/ch32v30x_spi.c ****  * @return  none
 221:../Peripheral/src/ch32v30x_spi.c ****  */
 222:../Peripheral/src/ch32v30x_spi.c **** void I2S_StructInit(I2S_InitTypeDef *I2S_InitStruct)
 223:../Peripheral/src/ch32v30x_spi.c **** {
 384              		.loc 1 223 1 is_stmt 1
 385              		.cfi_startproc
 386              	.LVL39:
 224:../Peripheral/src/ch32v30x_spi.c ****     I2S_InitStruct->I2S_Mode = I2S_Mode_SlaveTx;
 387              		.loc 1 224 5
 225:../Peripheral/src/ch32v30x_spi.c ****     I2S_InitStruct->I2S_Standard = I2S_Standard_Phillips;
 388              		.loc 1 225 5
 226:../Peripheral/src/ch32v30x_spi.c ****     I2S_InitStruct->I2S_DataFormat = I2S_DataFormat_16b;
 389              		.loc 1 226 5
 227:../Peripheral/src/ch32v30x_spi.c ****     I2S_InitStruct->I2S_MCLKOutput = I2S_MCLKOutput_Disable;
 390              		.loc 1 227 5
 228:../Peripheral/src/ch32v30x_spi.c ****     I2S_InitStruct->I2S_AudioFreq = I2S_AudioFreq_Default;
 391              		.loc 1 228 5
 229:../Peripheral/src/ch32v30x_spi.c ****     I2S_InitStruct->I2S_CPOL = I2S_CPOL_Low;
 392              		.loc 1 229 5
 228:../Peripheral/src/ch32v30x_spi.c ****     I2S_InitStruct->I2S_AudioFreq = I2S_AudioFreq_Default;
 393              		.loc 1 228 35 is_stmt 0
 394 0000 8947     		li	a5,2
 224:../Peripheral/src/ch32v30x_spi.c ****     I2S_InitStruct->I2S_Standard = I2S_Standard_Phillips;
 395              		.loc 1 224 30
 396 0002 23200500 		sw	zero,0(a0)
 226:../Peripheral/src/ch32v30x_spi.c ****     I2S_InitStruct->I2S_MCLKOutput = I2S_MCLKOutput_Disable;
 397              		.loc 1 226 36
 398 0006 23220500 		sw	zero,4(a0)
 228:../Peripheral/src/ch32v30x_spi.c ****     I2S_InitStruct->I2S_CPOL = I2S_CPOL_Low;
 399              		.loc 1 228 35
 400 000a 1CC5     		sw	a5,8(a0)
 401              		.loc 1 229 30
 402 000c 23160500 		sh	zero,12(a0)
 230:../Peripheral/src/ch32v30x_spi.c **** }
 403              		.loc 1 230 1
 404 0010 8280     		ret
 405              		.cfi_endproc
 406              	.LFE33:
 408              		.section	.text.SPI_Cmd,"ax",@progbits
 409              		.align	1
 410              		.globl	SPI_Cmd
 412              	SPI_Cmd:
 413              	.LFB34:
 231:../Peripheral/src/ch32v30x_spi.c **** 
 232:../Peripheral/src/ch32v30x_spi.c **** /*********************************************************************
 233:../Peripheral/src/ch32v30x_spi.c ****  * @fn      SPI_Cmd
 234:../Peripheral/src/ch32v30x_spi.c ****  *
 235:../Peripheral/src/ch32v30x_spi.c ****  * @brief   Enables or disables the specified SPI peripheral.
 236:../Peripheral/src/ch32v30x_spi.c ****  *
 237:../Peripheral/src/ch32v30x_spi.c ****  * @param   SPIx - where x can be 1, 2 or 3 to select the SPI peripheral.
 238:../Peripheral/src/ch32v30x_spi.c ****  *          NewState - ENABLE or DISABLE.
 239:../Peripheral/src/ch32v30x_spi.c ****  *
 240:../Peripheral/src/ch32v30x_spi.c ****  * @return  none
 241:../Peripheral/src/ch32v30x_spi.c ****  */
 242:../Peripheral/src/ch32v30x_spi.c **** void SPI_Cmd(SPI_TypeDef *SPIx, FunctionalState NewState)
 243:../Peripheral/src/ch32v30x_spi.c **** {
 414              		.loc 1 243 1 is_stmt 1
 415              		.cfi_startproc
 416              	.LVL40:
 244:../Peripheral/src/ch32v30x_spi.c ****     if(NewState != DISABLE)
 417              		.loc 1 244 5
 245:../Peripheral/src/ch32v30x_spi.c ****     {
 246:../Peripheral/src/ch32v30x_spi.c ****         SPIx->CTLR1 |= CTLR1_SPE_Set;
 418              		.loc 1 246 13 is_stmt 0
 419 0000 1E21     		lhu	a5,0(a0)
 244:../Peripheral/src/ch32v30x_spi.c ****     if(NewState != DISABLE)
 420              		.loc 1 244 7
 421 0002 89C5     		beq	a1,zero,.L20
 422              		.loc 1 246 9 is_stmt 1
 423              		.loc 1 246 21 is_stmt 0
 424 0004 93E70704 		ori	a5,a5,64
 425              	.L22:
 247:../Peripheral/src/ch32v30x_spi.c ****     }
 248:../Peripheral/src/ch32v30x_spi.c ****     else
 249:../Peripheral/src/ch32v30x_spi.c ****     {
 250:../Peripheral/src/ch32v30x_spi.c ****         SPIx->CTLR1 &= CTLR1_SPE_Reset;
 426              		.loc 1 250 21
 427 0008 1EA1     		sh	a5,0(a0)
 251:../Peripheral/src/ch32v30x_spi.c ****     }
 252:../Peripheral/src/ch32v30x_spi.c **** }
 428              		.loc 1 252 1
 429 000a 8280     		ret
 430              	.L20:
 250:../Peripheral/src/ch32v30x_spi.c ****     }
 431              		.loc 1 250 9 is_stmt 1
 250:../Peripheral/src/ch32v30x_spi.c ****     }
 432              		.loc 1 250 13 is_stmt 0
 433 000c C207     		slli	a5,a5,16
 434 000e C183     		srli	a5,a5,16
 250:../Peripheral/src/ch32v30x_spi.c ****     }
 435              		.loc 1 250 21
 436 0010 93F7F7FB 		andi	a5,a5,-65
 437 0014 C207     		slli	a5,a5,16
 438 0016 C183     		srli	a5,a5,16
 439 0018 C5BF     		j	.L22
 440              		.cfi_endproc
 441              	.LFE34:
 443              		.section	.text.I2S_Cmd,"ax",@progbits
 444              		.align	1
 445              		.globl	I2S_Cmd
 447              	I2S_Cmd:
 448              	.LFB35:
 253:../Peripheral/src/ch32v30x_spi.c **** 
 254:../Peripheral/src/ch32v30x_spi.c **** /*********************************************************************
 255:../Peripheral/src/ch32v30x_spi.c ****  * @fn      I2S_Cmd
 256:../Peripheral/src/ch32v30x_spi.c ****  *
 257:../Peripheral/src/ch32v30x_spi.c ****  * @brief   Enables or disables the specified SPI peripheral (in I2S mode).
 258:../Peripheral/src/ch32v30x_spi.c ****  *
 259:../Peripheral/src/ch32v30x_spi.c ****  * @param   SPIx - where x can be 1, 2 or 3 to select the SPI peripheral.
 260:../Peripheral/src/ch32v30x_spi.c ****  *          NewState - ENABLE or DISABLE.
 261:../Peripheral/src/ch32v30x_spi.c ****  *
 262:../Peripheral/src/ch32v30x_spi.c ****  * @return  none
 263:../Peripheral/src/ch32v30x_spi.c ****  */
 264:../Peripheral/src/ch32v30x_spi.c **** void I2S_Cmd(SPI_TypeDef *SPIx, FunctionalState NewState)
 265:../Peripheral/src/ch32v30x_spi.c **** {
 449              		.loc 1 265 1 is_stmt 1
 450              		.cfi_startproc
 451              	.LVL41:
 266:../Peripheral/src/ch32v30x_spi.c ****     if(NewState != DISABLE)
 452              		.loc 1 266 5
 267:../Peripheral/src/ch32v30x_spi.c ****     {
 268:../Peripheral/src/ch32v30x_spi.c ****         SPIx->I2SCFGR |= I2SCFGR_I2SE_Set;
 453              		.loc 1 268 13 is_stmt 0
 454 0000 5E2D     		lhu	a5,28(a0)
 266:../Peripheral/src/ch32v30x_spi.c ****     if(NewState != DISABLE)
 455              		.loc 1 266 7
 456 0002 89C5     		beq	a1,zero,.L24
 457              		.loc 1 268 9 is_stmt 1
 458              		.loc 1 268 23 is_stmt 0
 459 0004 93E70740 		ori	a5,a5,1024
 460              	.L26:
 269:../Peripheral/src/ch32v30x_spi.c ****     }
 270:../Peripheral/src/ch32v30x_spi.c ****     else
 271:../Peripheral/src/ch32v30x_spi.c ****     {
 272:../Peripheral/src/ch32v30x_spi.c ****         SPIx->I2SCFGR &= I2SCFGR_I2SE_Reset;
 461              		.loc 1 272 23
 462 0008 5EAD     		sh	a5,28(a0)
 273:../Peripheral/src/ch32v30x_spi.c ****     }
 274:../Peripheral/src/ch32v30x_spi.c **** }
 463              		.loc 1 274 1
 464 000a 8280     		ret
 465              	.L24:
 272:../Peripheral/src/ch32v30x_spi.c ****     }
 466              		.loc 1 272 9 is_stmt 1
 272:../Peripheral/src/ch32v30x_spi.c ****     }
 467              		.loc 1 272 13 is_stmt 0
 468 000c C207     		slli	a5,a5,16
 469 000e C183     		srli	a5,a5,16
 272:../Peripheral/src/ch32v30x_spi.c ****     }
 470              		.loc 1 272 23
 471 0010 93F7F7BF 		andi	a5,a5,-1025
 472 0014 C207     		slli	a5,a5,16
 473 0016 C183     		srli	a5,a5,16
 474 0018 C5BF     		j	.L26
 475              		.cfi_endproc
 476              	.LFE35:
 478              		.section	.text.SPI_I2S_ITConfig,"ax",@progbits
 479              		.align	1
 480              		.globl	SPI_I2S_ITConfig
 482              	SPI_I2S_ITConfig:
 483              	.LFB36:
 275:../Peripheral/src/ch32v30x_spi.c **** 
 276:../Peripheral/src/ch32v30x_spi.c **** /*********************************************************************
 277:../Peripheral/src/ch32v30x_spi.c ****  * @fn      SPI_I2S_ITConfig
 278:../Peripheral/src/ch32v30x_spi.c ****  *
 279:../Peripheral/src/ch32v30x_spi.c ****  * @brief   Enables or disables the specified SPI/I2S interrupts.
 280:../Peripheral/src/ch32v30x_spi.c ****  *
 281:../Peripheral/src/ch32v30x_spi.c ****  * @param   SPIx - where x can be
 282:../Peripheral/src/ch32v30x_spi.c ****  *            - 1, 2 or 3 in SPI mode.
 283:../Peripheral/src/ch32v30x_spi.c ****  *            - 2 or 3 in I2S mode.
 284:../Peripheral/src/ch32v30x_spi.c ****  *          SPI_I2S_IT - specifies the SPI/I2S interrupt source to be
 285:../Peripheral/src/ch32v30x_spi.c ****  *        enabled or disabled.
 286:../Peripheral/src/ch32v30x_spi.c ****  *            SPI_I2S_IT_TXE - Tx buffer empty interrupt mask.
 287:../Peripheral/src/ch32v30x_spi.c ****  *            SPI_I2S_IT_RXNE - Rx buffer not empty interrupt mask.
 288:../Peripheral/src/ch32v30x_spi.c ****  *            SPI_I2S_IT_ERR - Error interrupt mask.
 289:../Peripheral/src/ch32v30x_spi.c ****  *          NewState: ENABLE or DISABLE.
 290:../Peripheral/src/ch32v30x_spi.c ****  * @return  none
 291:../Peripheral/src/ch32v30x_spi.c ****  */
 292:../Peripheral/src/ch32v30x_spi.c **** void SPI_I2S_ITConfig(SPI_TypeDef *SPIx, uint8_t SPI_I2S_IT, FunctionalState NewState)
 293:../Peripheral/src/ch32v30x_spi.c **** {
 484              		.loc 1 293 1 is_stmt 1
 485              		.cfi_startproc
 486              	.LVL42:
 294:../Peripheral/src/ch32v30x_spi.c ****     uint16_t itpos = 0, itmask = 0;
 487              		.loc 1 294 5
 295:../Peripheral/src/ch32v30x_spi.c **** 
 296:../Peripheral/src/ch32v30x_spi.c ****     itpos = SPI_I2S_IT >> 4;
 488              		.loc 1 296 5
 297:../Peripheral/src/ch32v30x_spi.c ****     itmask = (uint16_t)1 << (uint16_t)itpos;
 489              		.loc 1 297 5
 490              		.loc 1 297 29 is_stmt 0
 491 0000 9181     		srli	a1,a1,4
 492              	.LVL43:
 493              		.loc 1 297 26
 494 0002 8547     		li	a5,1
 495 0004 B397B700 		sll	a5,a5,a1
 298:../Peripheral/src/ch32v30x_spi.c **** 
 299:../Peripheral/src/ch32v30x_spi.c ****     if(NewState != DISABLE)
 300:../Peripheral/src/ch32v30x_spi.c ****     {
 301:../Peripheral/src/ch32v30x_spi.c ****         SPIx->CTLR2 |= itmask;
 496              		.loc 1 301 13
 497 0008 5A21     		lhu	a4,4(a0)
 297:../Peripheral/src/ch32v30x_spi.c ****     itmask = (uint16_t)1 << (uint16_t)itpos;
 498              		.loc 1 297 12
 499 000a C207     		slli	a5,a5,16
 500 000c C183     		srli	a5,a5,16
 501              	.LVL44:
 299:../Peripheral/src/ch32v30x_spi.c ****     {
 502              		.loc 1 299 5 is_stmt 1
 299:../Peripheral/src/ch32v30x_spi.c ****     {
 503              		.loc 1 299 7 is_stmt 0
 504 000e 01C6     		beq	a2,zero,.L28
 505              		.loc 1 301 9 is_stmt 1
 506              		.loc 1 301 21 is_stmt 0
 507 0010 D98F     		or	a5,a4,a5
 508              	.LVL45:
 509              	.L30:
 302:../Peripheral/src/ch32v30x_spi.c ****     }
 303:../Peripheral/src/ch32v30x_spi.c ****     else
 304:../Peripheral/src/ch32v30x_spi.c ****     {
 305:../Peripheral/src/ch32v30x_spi.c ****         SPIx->CTLR2 &= (uint16_t)~itmask;
 510              		.loc 1 305 21
 511 0012 5EA1     		sh	a5,4(a0)
 306:../Peripheral/src/ch32v30x_spi.c ****     }
 307:../Peripheral/src/ch32v30x_spi.c **** }
 512              		.loc 1 307 1
 513 0014 8280     		ret
 514              	.LVL46:
 515              	.L28:
 305:../Peripheral/src/ch32v30x_spi.c ****     }
 516              		.loc 1 305 9 is_stmt 1
 305:../Peripheral/src/ch32v30x_spi.c ****     }
 517              		.loc 1 305 24 is_stmt 0
 518 0016 93C7F7FF 		not	a5,a5
 519              	.LVL47:
 305:../Peripheral/src/ch32v30x_spi.c ****     }
 520              		.loc 1 305 21
 521 001a F98F     		and	a5,a4,a5
 522              	.LVL48:
 523 001c DDBF     		j	.L30
 524              		.cfi_endproc
 525              	.LFE36:
 527              		.section	.text.SPI_I2S_DMACmd,"ax",@progbits
 528              		.align	1
 529              		.globl	SPI_I2S_DMACmd
 531              	SPI_I2S_DMACmd:
 532              	.LFB37:
 308:../Peripheral/src/ch32v30x_spi.c **** 
 309:../Peripheral/src/ch32v30x_spi.c **** /*********************************************************************
 310:../Peripheral/src/ch32v30x_spi.c ****  * @fn      SPI_I2S_DMACmd
 311:../Peripheral/src/ch32v30x_spi.c ****  *
 312:../Peripheral/src/ch32v30x_spi.c ****  * @brief   Enables or disables the SPIx/I2Sx DMA interface.
 313:../Peripheral/src/ch32v30x_spi.c ****  *
 314:../Peripheral/src/ch32v30x_spi.c ****  * @param   SPIx - where x can be
 315:../Peripheral/src/ch32v30x_spi.c ****  *            - 1, 2 or 3 in SPI mode.
 316:../Peripheral/src/ch32v30x_spi.c ****  *            - 2 or 3 in I2S mode.
 317:../Peripheral/src/ch32v30x_spi.c ****  *          SPI_I2S_DMAReq - specifies the SPI/I2S DMA transfer request to
 318:../Peripheral/src/ch32v30x_spi.c ****  *        be enabled or disabled.
 319:../Peripheral/src/ch32v30x_spi.c ****  *            SPI_I2S_DMAReq_Tx - Tx buffer DMA transfer request.
 320:../Peripheral/src/ch32v30x_spi.c ****  *            SPI_I2S_DMAReq_Rx - Rx buffer DMA transfer request.
 321:../Peripheral/src/ch32v30x_spi.c ****  *          NewState - ENABLE or DISABLE.
 322:../Peripheral/src/ch32v30x_spi.c ****  *
 323:../Peripheral/src/ch32v30x_spi.c ****  * @return  none
 324:../Peripheral/src/ch32v30x_spi.c ****  */
 325:../Peripheral/src/ch32v30x_spi.c **** void SPI_I2S_DMACmd(SPI_TypeDef *SPIx, uint16_t SPI_I2S_DMAReq, FunctionalState NewState)
 326:../Peripheral/src/ch32v30x_spi.c **** {
 533              		.loc 1 326 1 is_stmt 1
 534              		.cfi_startproc
 535              	.LVL49:
 327:../Peripheral/src/ch32v30x_spi.c ****     if(NewState != DISABLE)
 536              		.loc 1 327 5
 328:../Peripheral/src/ch32v30x_spi.c ****     {
 329:../Peripheral/src/ch32v30x_spi.c ****         SPIx->CTLR2 |= SPI_I2S_DMAReq;
 537              		.loc 1 329 13 is_stmt 0
 538 0000 5E21     		lhu	a5,4(a0)
 327:../Peripheral/src/ch32v30x_spi.c ****     if(NewState != DISABLE)
 539              		.loc 1 327 7
 540 0002 01C6     		beq	a2,zero,.L32
 541              		.loc 1 329 9 is_stmt 1
 542              		.loc 1 329 21 is_stmt 0
 543 0004 CD8F     		or	a5,a5,a1
 544              	.LVL50:
 545              	.L34:
 330:../Peripheral/src/ch32v30x_spi.c ****     }
 331:../Peripheral/src/ch32v30x_spi.c ****     else
 332:../Peripheral/src/ch32v30x_spi.c ****     {
 333:../Peripheral/src/ch32v30x_spi.c ****         SPIx->CTLR2 &= (uint16_t)~SPI_I2S_DMAReq;
 546              		.loc 1 333 21
 547 0006 5EA1     		sh	a5,4(a0)
 334:../Peripheral/src/ch32v30x_spi.c ****     }
 335:../Peripheral/src/ch32v30x_spi.c **** }
 548              		.loc 1 335 1
 549 0008 8280     		ret
 550              	.LVL51:
 551              	.L32:
 333:../Peripheral/src/ch32v30x_spi.c ****     }
 552              		.loc 1 333 9 is_stmt 1
 333:../Peripheral/src/ch32v30x_spi.c ****     }
 553              		.loc 1 333 24 is_stmt 0
 554 000a 93C5F5FF 		not	a1,a1
 555              	.LVL52:
 333:../Peripheral/src/ch32v30x_spi.c ****     }
 556              		.loc 1 333 21
 557 000e ED8F     		and	a5,a5,a1
 558 0010 DDBF     		j	.L34
 559              		.cfi_endproc
 560              	.LFE37:
 562              		.section	.text.SPI_I2S_SendData,"ax",@progbits
 563              		.align	1
 564              		.globl	SPI_I2S_SendData
 566              	SPI_I2S_SendData:
 567              	.LFB38:
 336:../Peripheral/src/ch32v30x_spi.c **** 
 337:../Peripheral/src/ch32v30x_spi.c **** /*********************************************************************
 338:../Peripheral/src/ch32v30x_spi.c ****  * @fn      SPI_I2S_SendData
 339:../Peripheral/src/ch32v30x_spi.c ****  *
 340:../Peripheral/src/ch32v30x_spi.c ****  * @brief   Transmits a Data through the SPIx/I2Sx peripheral.
 341:../Peripheral/src/ch32v30x_spi.c ****  *
 342:../Peripheral/src/ch32v30x_spi.c ****  * @param   SPIx - where x can be
 343:../Peripheral/src/ch32v30x_spi.c ****  *            - 1, 2 or 3 in SPI mode.
 344:../Peripheral/src/ch32v30x_spi.c ****  *            - 2 or 3 in I2S mode.
 345:../Peripheral/src/ch32v30x_spi.c ****  *          Data - Data to be transmitted.
 346:../Peripheral/src/ch32v30x_spi.c ****  *
 347:../Peripheral/src/ch32v30x_spi.c ****  * @return  none
 348:../Peripheral/src/ch32v30x_spi.c ****  */
 349:../Peripheral/src/ch32v30x_spi.c **** void SPI_I2S_SendData(SPI_TypeDef *SPIx, uint16_t Data)
 350:../Peripheral/src/ch32v30x_spi.c **** {
 568              		.loc 1 350 1 is_stmt 1
 569              		.cfi_startproc
 570              	.LVL53:
 351:../Peripheral/src/ch32v30x_spi.c ****     SPIx->DATAR = Data;
 571              		.loc 1 351 5
 572              		.loc 1 351 17 is_stmt 0
 573 0000 4EA5     		sh	a1,12(a0)
 352:../Peripheral/src/ch32v30x_spi.c **** }
 574              		.loc 1 352 1
 575 0002 8280     		ret
 576              		.cfi_endproc
 577              	.LFE38:
 579              		.section	.text.SPI_I2S_ReceiveData,"ax",@progbits
 580              		.align	1
 581              		.globl	SPI_I2S_ReceiveData
 583              	SPI_I2S_ReceiveData:
 584              	.LFB39:
 353:../Peripheral/src/ch32v30x_spi.c **** 
 354:../Peripheral/src/ch32v30x_spi.c **** /*********************************************************************
 355:../Peripheral/src/ch32v30x_spi.c ****  * @fn      SPI_I2S_ReceiveData
 356:../Peripheral/src/ch32v30x_spi.c ****  *
 357:../Peripheral/src/ch32v30x_spi.c ****  * @brief   Returns the most recent received data by the SPIx/I2Sx peripheral.
 358:../Peripheral/src/ch32v30x_spi.c ****  *
 359:../Peripheral/src/ch32v30x_spi.c ****  * @param   SPIx - where x can be
 360:../Peripheral/src/ch32v30x_spi.c ****  *            - 1, 2 or 3 in SPI mode.
 361:../Peripheral/src/ch32v30x_spi.c ****  *            - 2 or 3 in I2S mode.
 362:../Peripheral/src/ch32v30x_spi.c ****  *          Data - Data to be transmitted.
 363:../Peripheral/src/ch32v30x_spi.c ****  *
 364:../Peripheral/src/ch32v30x_spi.c ****  * @return  SPIx->DATAR - The value of the received data.
 365:../Peripheral/src/ch32v30x_spi.c ****  */
 366:../Peripheral/src/ch32v30x_spi.c **** uint16_t SPI_I2S_ReceiveData(SPI_TypeDef *SPIx)
 367:../Peripheral/src/ch32v30x_spi.c **** {
 585              		.loc 1 367 1 is_stmt 1
 586              		.cfi_startproc
 587              	.LVL54:
 368:../Peripheral/src/ch32v30x_spi.c ****     return SPIx->DATAR;
 588              		.loc 1 368 5
 589              		.loc 1 368 16 is_stmt 0
 590 0000 4A25     		lhu	a0,12(a0)
 591              	.LVL55:
 369:../Peripheral/src/ch32v30x_spi.c **** }
 592              		.loc 1 369 1
 593 0002 8280     		ret
 594              		.cfi_endproc
 595              	.LFE39:
 597              		.section	.text.SPI_NSSInternalSoftwareConfig,"ax",@progbits
 598              		.align	1
 599              		.globl	SPI_NSSInternalSoftwareConfig
 601              	SPI_NSSInternalSoftwareConfig:
 602              	.LFB40:
 370:../Peripheral/src/ch32v30x_spi.c **** 
 371:../Peripheral/src/ch32v30x_spi.c **** /*********************************************************************
 372:../Peripheral/src/ch32v30x_spi.c ****  * @fn      SPI_NSSInternalSoftwareConfig
 373:../Peripheral/src/ch32v30x_spi.c ****  *
 374:../Peripheral/src/ch32v30x_spi.c ****  * @brief   Configures internally by software the NSS pin for the selected SPI.
 375:../Peripheral/src/ch32v30x_spi.c ****  *
 376:../Peripheral/src/ch32v30x_spi.c ****  * @param   SPIx - where x can be 1, 2 or 3 to select the SPI peripheral.
 377:../Peripheral/src/ch32v30x_spi.c ****  *          SPI_NSSInternalSoft -
 378:../Peripheral/src/ch32v30x_spi.c ****  *            SPI_NSSInternalSoft_Set - Set NSS pin internally.
 379:../Peripheral/src/ch32v30x_spi.c ****  *            SPI_NSSInternalSoft_Reset - Reset NSS pin internally.
 380:../Peripheral/src/ch32v30x_spi.c ****  *
 381:../Peripheral/src/ch32v30x_spi.c ****  * @return  none
 382:../Peripheral/src/ch32v30x_spi.c ****  */
 383:../Peripheral/src/ch32v30x_spi.c **** void SPI_NSSInternalSoftwareConfig(SPI_TypeDef *SPIx, uint16_t SPI_NSSInternalSoft)
 384:../Peripheral/src/ch32v30x_spi.c **** {
 603              		.loc 1 384 1 is_stmt 1
 604              		.cfi_startproc
 605              	.LVL56:
 385:../Peripheral/src/ch32v30x_spi.c ****     if(SPI_NSSInternalSoft != SPI_NSSInternalSoft_Reset)
 606              		.loc 1 385 5
 607              		.loc 1 385 7 is_stmt 0
 608 0000 C167     		li	a5,65536
 609 0002 9387F7EF 		addi	a5,a5,-257
 610 0006 6387F500 		beq	a1,a5,.L38
 386:../Peripheral/src/ch32v30x_spi.c ****     {
 387:../Peripheral/src/ch32v30x_spi.c ****         SPIx->CTLR1 |= SPI_NSSInternalSoft_Set;
 611              		.loc 1 387 9 is_stmt 1
 612              		.loc 1 387 13 is_stmt 0
 613 000a 1E21     		lhu	a5,0(a0)
 614              		.loc 1 387 21
 615 000c 93E70710 		ori	a5,a5,256
 616              	.L40:
 388:../Peripheral/src/ch32v30x_spi.c ****     }
 389:../Peripheral/src/ch32v30x_spi.c ****     else
 390:../Peripheral/src/ch32v30x_spi.c ****     {
 391:../Peripheral/src/ch32v30x_spi.c ****         SPIx->CTLR1 &= SPI_NSSInternalSoft_Reset;
 617              		.loc 1 391 21
 618 0010 1EA1     		sh	a5,0(a0)
 392:../Peripheral/src/ch32v30x_spi.c ****     }
 393:../Peripheral/src/ch32v30x_spi.c **** }
 619              		.loc 1 393 1
 620 0012 8280     		ret
 621              	.L38:
 391:../Peripheral/src/ch32v30x_spi.c ****     }
 622              		.loc 1 391 9 is_stmt 1
 391:../Peripheral/src/ch32v30x_spi.c ****     }
 623              		.loc 1 391 13 is_stmt 0
 624 0014 1E21     		lhu	a5,0(a0)
 625 0016 C207     		slli	a5,a5,16
 626 0018 C183     		srli	a5,a5,16
 391:../Peripheral/src/ch32v30x_spi.c ****     }
 627              		.loc 1 391 21
 628 001a 93F7F7EF 		andi	a5,a5,-257
 629 001e C207     		slli	a5,a5,16
 630 0020 C183     		srli	a5,a5,16
 631 0022 FDB7     		j	.L40
 632              		.cfi_endproc
 633              	.LFE40:
 635              		.section	.text.SPI_SSOutputCmd,"ax",@progbits
 636              		.align	1
 637              		.globl	SPI_SSOutputCmd
 639              	SPI_SSOutputCmd:
 640              	.LFB41:
 394:../Peripheral/src/ch32v30x_spi.c **** 
 395:../Peripheral/src/ch32v30x_spi.c **** /*********************************************************************
 396:../Peripheral/src/ch32v30x_spi.c ****  * @fn      SPI_SSOutputCmd
 397:../Peripheral/src/ch32v30x_spi.c ****  *
 398:../Peripheral/src/ch32v30x_spi.c ****  * @brief   Enables or disables the SS output for the selected SPI.
 399:../Peripheral/src/ch32v30x_spi.c ****  *
 400:../Peripheral/src/ch32v30x_spi.c ****  * @param   SPIx - where x can be 1, 2 or 3 to select the SPI peripheral.
 401:../Peripheral/src/ch32v30x_spi.c ****  *          NewState - new state of the SPIx SS output.
 402:../Peripheral/src/ch32v30x_spi.c ****  *
 403:../Peripheral/src/ch32v30x_spi.c ****  * @return  none
 404:../Peripheral/src/ch32v30x_spi.c ****  */
 405:../Peripheral/src/ch32v30x_spi.c **** void SPI_SSOutputCmd(SPI_TypeDef *SPIx, FunctionalState NewState)
 406:../Peripheral/src/ch32v30x_spi.c **** {
 641              		.loc 1 406 1 is_stmt 1
 642              		.cfi_startproc
 643              	.LVL57:
 407:../Peripheral/src/ch32v30x_spi.c ****     if(NewState != DISABLE)
 644              		.loc 1 407 5
 408:../Peripheral/src/ch32v30x_spi.c ****     {
 409:../Peripheral/src/ch32v30x_spi.c ****         SPIx->CTLR2 |= CTLR2_SSOE_Set;
 645              		.loc 1 409 13 is_stmt 0
 646 0000 5E21     		lhu	a5,4(a0)
 407:../Peripheral/src/ch32v30x_spi.c ****     if(NewState != DISABLE)
 647              		.loc 1 407 7
 648 0002 89C5     		beq	a1,zero,.L42
 649              		.loc 1 409 9 is_stmt 1
 650              		.loc 1 409 21 is_stmt 0
 651 0004 93E74700 		ori	a5,a5,4
 652              	.L44:
 410:../Peripheral/src/ch32v30x_spi.c ****     }
 411:../Peripheral/src/ch32v30x_spi.c ****     else
 412:../Peripheral/src/ch32v30x_spi.c ****     {
 413:../Peripheral/src/ch32v30x_spi.c ****         SPIx->CTLR2 &= CTLR2_SSOE_Reset;
 653              		.loc 1 413 21
 654 0008 5EA1     		sh	a5,4(a0)
 414:../Peripheral/src/ch32v30x_spi.c ****     }
 415:../Peripheral/src/ch32v30x_spi.c **** }
 655              		.loc 1 415 1
 656 000a 8280     		ret
 657              	.L42:
 413:../Peripheral/src/ch32v30x_spi.c ****     }
 658              		.loc 1 413 9 is_stmt 1
 413:../Peripheral/src/ch32v30x_spi.c ****     }
 659              		.loc 1 413 13 is_stmt 0
 660 000c C207     		slli	a5,a5,16
 661 000e C183     		srli	a5,a5,16
 413:../Peripheral/src/ch32v30x_spi.c ****     }
 662              		.loc 1 413 21
 663 0010 ED9B     		andi	a5,a5,-5
 664 0012 C207     		slli	a5,a5,16
 665 0014 C183     		srli	a5,a5,16
 666 0016 CDBF     		j	.L44
 667              		.cfi_endproc
 668              	.LFE41:
 670              		.section	.text.SPI_DataSizeConfig,"ax",@progbits
 671              		.align	1
 672              		.globl	SPI_DataSizeConfig
 674              	SPI_DataSizeConfig:
 675              	.LFB42:
 416:../Peripheral/src/ch32v30x_spi.c **** 
 417:../Peripheral/src/ch32v30x_spi.c **** /*********************************************************************
 418:../Peripheral/src/ch32v30x_spi.c ****  * @fn      SPI_DataSizeConfig
 419:../Peripheral/src/ch32v30x_spi.c ****  *
 420:../Peripheral/src/ch32v30x_spi.c ****  * @brief   Configures the data size for the selected SPI.
 421:../Peripheral/src/ch32v30x_spi.c ****  *
 422:../Peripheral/src/ch32v30x_spi.c ****  * @param   SPIx - where x can be 1, 2 or 3 to select the SPI peripheral.
 423:../Peripheral/src/ch32v30x_spi.c ****  *          SPI_DataSize - specifies the SPI data size.
 424:../Peripheral/src/ch32v30x_spi.c ****  *            SPI_DataSize_16b - Set data frame format to 16bit.
 425:../Peripheral/src/ch32v30x_spi.c ****  *            SPI_DataSize_8b - Set data frame format to 8bit.
 426:../Peripheral/src/ch32v30x_spi.c ****  *
 427:../Peripheral/src/ch32v30x_spi.c ****  * @return  none
 428:../Peripheral/src/ch32v30x_spi.c ****  */
 429:../Peripheral/src/ch32v30x_spi.c **** void SPI_DataSizeConfig(SPI_TypeDef *SPIx, uint16_t SPI_DataSize)
 430:../Peripheral/src/ch32v30x_spi.c **** {
 676              		.loc 1 430 1 is_stmt 1
 677              		.cfi_startproc
 678              	.LVL58:
 431:../Peripheral/src/ch32v30x_spi.c ****     SPIx->CTLR1 &= (uint16_t)~SPI_DataSize_16b;
 679              		.loc 1 431 5
 680              		.loc 1 431 9 is_stmt 0
 681 0000 1E21     		lhu	a5,0(a0)
 682              		.loc 1 431 17
 683 0002 7D77     		li	a4,-4096
 684 0004 1307F77F 		addi	a4,a4,2047
 685 0008 F98F     		and	a5,a5,a4
 686 000a 1EA1     		sh	a5,0(a0)
 432:../Peripheral/src/ch32v30x_spi.c ****     SPIx->CTLR1 |= SPI_DataSize;
 687              		.loc 1 432 5 is_stmt 1
 688              		.loc 1 432 9 is_stmt 0
 689 000c 1E21     		lhu	a5,0(a0)
 690              		.loc 1 432 17
 691 000e CD8F     		or	a5,a5,a1
 692 0010 1EA1     		sh	a5,0(a0)
 433:../Peripheral/src/ch32v30x_spi.c **** }
 693              		.loc 1 433 1
 694 0012 8280     		ret
 695              		.cfi_endproc
 696              	.LFE42:
 698              		.section	.text.SPI_TransmitCRC,"ax",@progbits
 699              		.align	1
 700              		.globl	SPI_TransmitCRC
 702              	SPI_TransmitCRC:
 703              	.LFB43:
 434:../Peripheral/src/ch32v30x_spi.c **** 
 435:../Peripheral/src/ch32v30x_spi.c **** /*********************************************************************
 436:../Peripheral/src/ch32v30x_spi.c ****  * @fn      SPI_TransmitCRC
 437:../Peripheral/src/ch32v30x_spi.c ****  *
 438:../Peripheral/src/ch32v30x_spi.c ****  * @brief   Transmit the SPIx CRC value.
 439:../Peripheral/src/ch32v30x_spi.c ****  *
 440:../Peripheral/src/ch32v30x_spi.c ****  * @param   SPIx - where x can be 1, 2 or 3 to select the SPI peripheral.
 441:../Peripheral/src/ch32v30x_spi.c ****  *
 442:../Peripheral/src/ch32v30x_spi.c ****  * @return  none
 443:../Peripheral/src/ch32v30x_spi.c ****  */
 444:../Peripheral/src/ch32v30x_spi.c **** void SPI_TransmitCRC(SPI_TypeDef *SPIx)
 445:../Peripheral/src/ch32v30x_spi.c **** {
 704              		.loc 1 445 1 is_stmt 1
 705              		.cfi_startproc
 706              	.LVL59:
 446:../Peripheral/src/ch32v30x_spi.c ****     SPIx->CTLR1 |= CTLR1_CRCNext_Set;
 707              		.loc 1 446 5
 708              		.loc 1 446 9 is_stmt 0
 709 0000 1E21     		lhu	a5,0(a0)
 710              		.loc 1 446 17
 711 0002 0567     		li	a4,4096
 712 0004 D98F     		or	a5,a5,a4
 713 0006 1EA1     		sh	a5,0(a0)
 447:../Peripheral/src/ch32v30x_spi.c **** }
 714              		.loc 1 447 1
 715 0008 8280     		ret
 716              		.cfi_endproc
 717              	.LFE43:
 719              		.section	.text.SPI_CalculateCRC,"ax",@progbits
 720              		.align	1
 721              		.globl	SPI_CalculateCRC
 723              	SPI_CalculateCRC:
 724              	.LFB44:
 448:../Peripheral/src/ch32v30x_spi.c **** 
 449:../Peripheral/src/ch32v30x_spi.c **** /*********************************************************************
 450:../Peripheral/src/ch32v30x_spi.c ****  * @fn      SPI_CalculateCRC
 451:../Peripheral/src/ch32v30x_spi.c ****  *
 452:../Peripheral/src/ch32v30x_spi.c ****  * @brief   Enables or disables the CRC value calculation of the transferred bytes.
 453:../Peripheral/src/ch32v30x_spi.c ****  *
 454:../Peripheral/src/ch32v30x_spi.c ****  * @param   SPIx - where x can be 1, 2 or 3 to select the SPI peripheral.
 455:../Peripheral/src/ch32v30x_spi.c ****  *          NewState - new state of the SPIx CRC value calculation.
 456:../Peripheral/src/ch32v30x_spi.c ****  *
 457:../Peripheral/src/ch32v30x_spi.c ****  * @return  none
 458:../Peripheral/src/ch32v30x_spi.c ****  */
 459:../Peripheral/src/ch32v30x_spi.c **** void SPI_CalculateCRC(SPI_TypeDef *SPIx, FunctionalState NewState)
 460:../Peripheral/src/ch32v30x_spi.c **** {
 725              		.loc 1 460 1 is_stmt 1
 726              		.cfi_startproc
 727              	.LVL60:
 461:../Peripheral/src/ch32v30x_spi.c ****     if(NewState != DISABLE)
 728              		.loc 1 461 5
 462:../Peripheral/src/ch32v30x_spi.c ****     {
 463:../Peripheral/src/ch32v30x_spi.c ****         SPIx->CTLR1 |= CTLR1_CRCEN_Set;
 729              		.loc 1 463 13 is_stmt 0
 730 0000 1E21     		lhu	a5,0(a0)
 461:../Peripheral/src/ch32v30x_spi.c ****     if(NewState != DISABLE)
 731              		.loc 1 461 7
 732 0002 89C5     		beq	a1,zero,.L48
 733              		.loc 1 463 9 is_stmt 1
 734              		.loc 1 463 21 is_stmt 0
 735 0004 0967     		li	a4,8192
 736 0006 D98F     		or	a5,a5,a4
 737              	.L50:
 464:../Peripheral/src/ch32v30x_spi.c ****     }
 465:../Peripheral/src/ch32v30x_spi.c ****     else
 466:../Peripheral/src/ch32v30x_spi.c ****     {
 467:../Peripheral/src/ch32v30x_spi.c ****         SPIx->CTLR1 &= CTLR1_CRCEN_Reset;
 738              		.loc 1 467 21
 739 0008 1EA1     		sh	a5,0(a0)
 468:../Peripheral/src/ch32v30x_spi.c ****     }
 469:../Peripheral/src/ch32v30x_spi.c **** }
 740              		.loc 1 469 1
 741 000a 8280     		ret
 742              	.L48:
 467:../Peripheral/src/ch32v30x_spi.c ****     }
 743              		.loc 1 467 9 is_stmt 1
 467:../Peripheral/src/ch32v30x_spi.c ****     }
 744              		.loc 1 467 21 is_stmt 0
 745 000c 7977     		li	a4,-8192
 746 000e 7D17     		addi	a4,a4,-1
 747 0010 F98F     		and	a5,a5,a4
 748 0012 DDBF     		j	.L50
 749              		.cfi_endproc
 750              	.LFE44:
 752              		.section	.text.SPI_GetCRC,"ax",@progbits
 753              		.align	1
 754              		.globl	SPI_GetCRC
 756              	SPI_GetCRC:
 757              	.LFB45:
 470:../Peripheral/src/ch32v30x_spi.c **** 
 471:../Peripheral/src/ch32v30x_spi.c **** /*********************************************************************
 472:../Peripheral/src/ch32v30x_spi.c ****  * @fn      SPI_GetCRC
 473:../Peripheral/src/ch32v30x_spi.c ****  *
 474:../Peripheral/src/ch32v30x_spi.c ****  * @brief   Returns the transmit or the receive CRC register value for the specified SPI.
 475:../Peripheral/src/ch32v30x_spi.c ****  *
 476:../Peripheral/src/ch32v30x_spi.c ****  * @param   SPIx - where x can be 1, 2 or 3 to select the SPI peripheral.
 477:../Peripheral/src/ch32v30x_spi.c ****  *          SPI_CRC - specifies the CRC register to be read.
 478:../Peripheral/src/ch32v30x_spi.c ****  *            SPI_CRC_Tx - Selects Tx CRC register.
 479:../Peripheral/src/ch32v30x_spi.c ****  *            SPI_CRC_Rx - Selects Rx CRC register.
 480:../Peripheral/src/ch32v30x_spi.c ****  *
 481:../Peripheral/src/ch32v30x_spi.c ****  * @return  crcreg: The selected CRC register value.
 482:../Peripheral/src/ch32v30x_spi.c ****  */
 483:../Peripheral/src/ch32v30x_spi.c **** uint16_t SPI_GetCRC(SPI_TypeDef *SPIx, uint8_t SPI_CRC)
 484:../Peripheral/src/ch32v30x_spi.c **** {
 758              		.loc 1 484 1 is_stmt 1
 759              		.cfi_startproc
 760              	.LVL61:
 485:../Peripheral/src/ch32v30x_spi.c ****     uint16_t crcreg = 0;
 761              		.loc 1 485 5
 486:../Peripheral/src/ch32v30x_spi.c **** 
 487:../Peripheral/src/ch32v30x_spi.c ****     if(SPI_CRC != SPI_CRC_Rx)
 762              		.loc 1 487 5
 763              		.loc 1 487 7 is_stmt 0
 764 0000 8547     		li	a5,1
 765 0002 6386F500 		beq	a1,a5,.L52
 488:../Peripheral/src/ch32v30x_spi.c ****     {
 489:../Peripheral/src/ch32v30x_spi.c ****         crcreg = SPIx->TCRCR;
 766              		.loc 1 489 9 is_stmt 1
 767              		.loc 1 489 16 is_stmt 0
 768 0006 0A2D     		lhu	a0,24(a0)
 769              	.LVL62:
 770              	.L54:
 490:../Peripheral/src/ch32v30x_spi.c ****     }
 491:../Peripheral/src/ch32v30x_spi.c ****     else
 492:../Peripheral/src/ch32v30x_spi.c ****     {
 493:../Peripheral/src/ch32v30x_spi.c ****         crcreg = SPIx->RCRCR;
 771              		.loc 1 493 16
 772 0008 4205     		slli	a0,a0,16
 773 000a 4181     		srli	a0,a0,16
 774              	.LVL63:
 494:../Peripheral/src/ch32v30x_spi.c ****     }
 495:../Peripheral/src/ch32v30x_spi.c **** 
 496:../Peripheral/src/ch32v30x_spi.c ****     return crcreg;
 775              		.loc 1 496 5 is_stmt 1
 497:../Peripheral/src/ch32v30x_spi.c **** }
 776              		.loc 1 497 1 is_stmt 0
 777 000c 8280     		ret
 778              	.LVL64:
 779              	.L52:
 493:../Peripheral/src/ch32v30x_spi.c ****     }
 780              		.loc 1 493 9 is_stmt 1
 493:../Peripheral/src/ch32v30x_spi.c ****     }
 781              		.loc 1 493 16 is_stmt 0
 782 000e 4A29     		lhu	a0,20(a0)
 783              	.LVL65:
 784 0010 E5BF     		j	.L54
 785              		.cfi_endproc
 786              	.LFE45:
 788              		.section	.text.SPI_GetCRCPolynomial,"ax",@progbits
 789              		.align	1
 790              		.globl	SPI_GetCRCPolynomial
 792              	SPI_GetCRCPolynomial:
 793              	.LFB46:
 498:../Peripheral/src/ch32v30x_spi.c **** 
 499:../Peripheral/src/ch32v30x_spi.c **** /*********************************************************************
 500:../Peripheral/src/ch32v30x_spi.c ****  * @fn      SPI_GetCRCPolynomial
 501:../Peripheral/src/ch32v30x_spi.c ****  *
 502:../Peripheral/src/ch32v30x_spi.c ****  * @brief   Returns the CRC Polynomial register value for the specified SPI.
 503:../Peripheral/src/ch32v30x_spi.c ****  *
 504:../Peripheral/src/ch32v30x_spi.c ****  * @param   SPIx - where x can be 1, 2 or 3 to select the SPI peripheral.
 505:../Peripheral/src/ch32v30x_spi.c ****  *
 506:../Peripheral/src/ch32v30x_spi.c ****  * @return  SPIx->CRCR - The CRC Polynomial register value.
 507:../Peripheral/src/ch32v30x_spi.c ****  */
 508:../Peripheral/src/ch32v30x_spi.c **** uint16_t SPI_GetCRCPolynomial(SPI_TypeDef *SPIx)
 509:../Peripheral/src/ch32v30x_spi.c **** {
 794              		.loc 1 509 1 is_stmt 1
 795              		.cfi_startproc
 796              	.LVL66:
 510:../Peripheral/src/ch32v30x_spi.c ****     return SPIx->CRCR;
 797              		.loc 1 510 5
 798              		.loc 1 510 16 is_stmt 0
 799 0000 0A29     		lhu	a0,16(a0)
 800              	.LVL67:
 511:../Peripheral/src/ch32v30x_spi.c **** }
 801              		.loc 1 511 1
 802 0002 8280     		ret
 803              		.cfi_endproc
 804              	.LFE46:
 806              		.section	.text.SPI_BiDirectionalLineConfig,"ax",@progbits
 807              		.align	1
 808              		.globl	SPI_BiDirectionalLineConfig
 810              	SPI_BiDirectionalLineConfig:
 811              	.LFB47:
 512:../Peripheral/src/ch32v30x_spi.c **** 
 513:../Peripheral/src/ch32v30x_spi.c **** /*********************************************************************
 514:../Peripheral/src/ch32v30x_spi.c ****  * @fn      SPI_BiDirectionalLineConfig
 515:../Peripheral/src/ch32v30x_spi.c ****  *
 516:../Peripheral/src/ch32v30x_spi.c ****  * @brief   Selects the data transfer direction in bi-directional mode
 517:../Peripheral/src/ch32v30x_spi.c ****  *      for the specified SPI.
 518:../Peripheral/src/ch32v30x_spi.c ****  *
 519:../Peripheral/src/ch32v30x_spi.c ****  * @param   SPIx - where x can be 1, 2 or 3 to select the SPI peripheral.
 520:../Peripheral/src/ch32v30x_spi.c ****  *          SPI_Direction - specifies the data transfer direction in
 521:../Peripheral/src/ch32v30x_spi.c ****  *        bi-directional mode.
 522:../Peripheral/src/ch32v30x_spi.c ****  *            SPI_Direction_Tx - Selects Tx transmission direction.
 523:../Peripheral/src/ch32v30x_spi.c ****  *            SPI_Direction_Rx - Selects Rx receive direction.
 524:../Peripheral/src/ch32v30x_spi.c ****  *
 525:../Peripheral/src/ch32v30x_spi.c ****  * @return  none
 526:../Peripheral/src/ch32v30x_spi.c ****  */
 527:../Peripheral/src/ch32v30x_spi.c **** void SPI_BiDirectionalLineConfig(SPI_TypeDef *SPIx, uint16_t SPI_Direction)
 528:../Peripheral/src/ch32v30x_spi.c **** {
 812              		.loc 1 528 1 is_stmt 1
 813              		.cfi_startproc
 814              	.LVL68:
 529:../Peripheral/src/ch32v30x_spi.c ****     if(SPI_Direction == SPI_Direction_Tx)
 815              		.loc 1 529 5
 816              		.loc 1 529 7 is_stmt 0
 817 0000 9167     		li	a5,16384
 818 0002 6397F500 		bne	a1,a5,.L57
 530:../Peripheral/src/ch32v30x_spi.c ****     {
 531:../Peripheral/src/ch32v30x_spi.c ****         SPIx->CTLR1 |= SPI_Direction_Tx;
 819              		.loc 1 531 9 is_stmt 1
 820              		.loc 1 531 13 is_stmt 0
 821 0006 1E21     		lhu	a5,0(a0)
 822              		.loc 1 531 21
 823 0008 1167     		li	a4,16384
 824 000a D98F     		or	a5,a5,a4
 825              	.L59:
 532:../Peripheral/src/ch32v30x_spi.c ****     }
 533:../Peripheral/src/ch32v30x_spi.c ****     else
 534:../Peripheral/src/ch32v30x_spi.c ****     {
 535:../Peripheral/src/ch32v30x_spi.c ****         SPIx->CTLR1 &= SPI_Direction_Rx;
 826              		.loc 1 535 21
 827 000c 1EA1     		sh	a5,0(a0)
 536:../Peripheral/src/ch32v30x_spi.c ****     }
 537:../Peripheral/src/ch32v30x_spi.c **** }
 828              		.loc 1 537 1
 829 000e 8280     		ret
 830              	.L57:
 535:../Peripheral/src/ch32v30x_spi.c ****     }
 831              		.loc 1 535 9 is_stmt 1
 535:../Peripheral/src/ch32v30x_spi.c ****     }
 832              		.loc 1 535 13 is_stmt 0
 833 0010 1E21     		lhu	a5,0(a0)
 535:../Peripheral/src/ch32v30x_spi.c ****     }
 834              		.loc 1 535 21
 835 0012 7177     		li	a4,-16384
 836 0014 7D17     		addi	a4,a4,-1
 837 0016 F98F     		and	a5,a5,a4
 838 0018 D5BF     		j	.L59
 839              		.cfi_endproc
 840              	.LFE47:
 842              		.section	.text.SPI_I2S_GetFlagStatus,"ax",@progbits
 843              		.align	1
 844              		.globl	SPI_I2S_GetFlagStatus
 846              	SPI_I2S_GetFlagStatus:
 847              	.LFB48:
 538:../Peripheral/src/ch32v30x_spi.c **** 
 539:../Peripheral/src/ch32v30x_spi.c **** /*********************************************************************
 540:../Peripheral/src/ch32v30x_spi.c ****  * @fn      SPI_I2S_GetFlagStatus
 541:../Peripheral/src/ch32v30x_spi.c ****  *
 542:../Peripheral/src/ch32v30x_spi.c ****  * @brief   Checks whether the specified SPI/I2S flag is set or not.
 543:../Peripheral/src/ch32v30x_spi.c ****  *
 544:../Peripheral/src/ch32v30x_spi.c ****  * @param   SPIx - where x can be
 545:../Peripheral/src/ch32v30x_spi.c ****  *            - 1, 2 or 3 in SPI mode.
 546:../Peripheral/src/ch32v30x_spi.c ****  *            - 2 or 3 in I2S mode.
 547:../Peripheral/src/ch32v30x_spi.c ****  *          SPI_I2S_FLAG - specifies the SPI/I2S flag to check.
 548:../Peripheral/src/ch32v30x_spi.c ****  *            SPI_I2S_FLAG_TXE - Transmit buffer empty flag.
 549:../Peripheral/src/ch32v30x_spi.c ****  *            SPI_I2S_FLAG_RXNE - Receive buffer not empty flag.
 550:../Peripheral/src/ch32v30x_spi.c ****  *            SPI_I2S_FLAG_BSY - Busy flag.
 551:../Peripheral/src/ch32v30x_spi.c ****  *            SPI_I2S_FLAG_OVR - Overrun flag.
 552:../Peripheral/src/ch32v30x_spi.c ****  *            SPI_FLAG_MODF - Mode Fault flag.
 553:../Peripheral/src/ch32v30x_spi.c ****  *            SPI_FLAG_CRCERR - CRC Error flag.
 554:../Peripheral/src/ch32v30x_spi.c ****  *            I2S_FLAG_UDR - Underrun Error flag.
 555:../Peripheral/src/ch32v30x_spi.c ****  *            I2S_FLAG_CHSIDE - Channel Side flag.
 556:../Peripheral/src/ch32v30x_spi.c ****  *
 557:../Peripheral/src/ch32v30x_spi.c ****  * @return  FlagStatus: SET or RESET.
 558:../Peripheral/src/ch32v30x_spi.c ****  */
 559:../Peripheral/src/ch32v30x_spi.c **** FlagStatus SPI_I2S_GetFlagStatus(SPI_TypeDef *SPIx, uint16_t SPI_I2S_FLAG)
 560:../Peripheral/src/ch32v30x_spi.c **** {
 848              		.loc 1 560 1 is_stmt 1
 849              		.cfi_startproc
 850              	.LVL69:
 561:../Peripheral/src/ch32v30x_spi.c ****     FlagStatus bitstatus = RESET;
 851              		.loc 1 561 5
 562:../Peripheral/src/ch32v30x_spi.c **** 
 563:../Peripheral/src/ch32v30x_spi.c ****     if((SPIx->STATR & SPI_I2S_FLAG) != (uint16_t)RESET)
 852              		.loc 1 563 5
 853              		.loc 1 563 13 is_stmt 0
 854 0000 0A25     		lhu	a0,8(a0)
 855              	.LVL70:
 564:../Peripheral/src/ch32v30x_spi.c ****     {
 565:../Peripheral/src/ch32v30x_spi.c ****         bitstatus = SET;
 566:../Peripheral/src/ch32v30x_spi.c ****     }
 567:../Peripheral/src/ch32v30x_spi.c ****     else
 568:../Peripheral/src/ch32v30x_spi.c ****     {
 569:../Peripheral/src/ch32v30x_spi.c ****         bitstatus = RESET;
 570:../Peripheral/src/ch32v30x_spi.c ****     }
 571:../Peripheral/src/ch32v30x_spi.c **** 
 572:../Peripheral/src/ch32v30x_spi.c ****     return bitstatus;
 856              		.loc 1 572 5 is_stmt 1
 563:../Peripheral/src/ch32v30x_spi.c ****     {
 857              		.loc 1 563 7 is_stmt 0
 858 0002 6D8D     		and	a0,a0,a1
 859              	.LVL71:
 573:../Peripheral/src/ch32v30x_spi.c **** }
 860              		.loc 1 573 1
 861 0004 3335A000 		snez	a0,a0
 862 0008 8280     		ret
 863              		.cfi_endproc
 864              	.LFE48:
 866              		.section	.text.SPI_I2S_ClearFlag,"ax",@progbits
 867              		.align	1
 868              		.globl	SPI_I2S_ClearFlag
 870              	SPI_I2S_ClearFlag:
 871              	.LFB49:
 574:../Peripheral/src/ch32v30x_spi.c **** 
 575:../Peripheral/src/ch32v30x_spi.c **** /*********************************************************************
 576:../Peripheral/src/ch32v30x_spi.c ****  * @fn      SPI_I2S_ClearFlag
 577:../Peripheral/src/ch32v30x_spi.c ****  *
 578:../Peripheral/src/ch32v30x_spi.c ****  * @brief   Clears the SPIx CRC Error (CRCERR) flag.
 579:../Peripheral/src/ch32v30x_spi.c ****  *
 580:../Peripheral/src/ch32v30x_spi.c ****  * @param   SPIx - where x can be
 581:../Peripheral/src/ch32v30x_spi.c ****  *            - 1, 2 or 3 in SPI mode.
 582:../Peripheral/src/ch32v30x_spi.c ****  *            - 2 or 3 in I2S mode.
 583:../Peripheral/src/ch32v30x_spi.c ****  *          SPI_I2S_FLAG - specifies the SPI flag to clear.
 584:../Peripheral/src/ch32v30x_spi.c ****  *            SPI_FLAG_CRCERR - CRC Error flag.
 585:../Peripheral/src/ch32v30x_spi.c ****  *          Note-
 586:../Peripheral/src/ch32v30x_spi.c ****  *          - OVR (OverRun error) flag is cleared by software sequence: a read 
 587:../Peripheral/src/ch32v30x_spi.c ****  *          operation to SPI_DATAR register (SPI_I2S_ReceiveData()) followed by a read 
 588:../Peripheral/src/ch32v30x_spi.c ****  *          operation to SPI_STATR register (SPI_I2S_GetFlagStatus()).
 589:../Peripheral/src/ch32v30x_spi.c ****  *          - UDR (UnderRun error) flag is cleared by a read operation to 
 590:../Peripheral/src/ch32v30x_spi.c ****  *          SPI_STATR register (SPI_I2S_GetFlagStatus()).
 591:../Peripheral/src/ch32v30x_spi.c ****  *          - MODF (Mode Fault) flag is cleared by software sequence: a read/write 
 592:../Peripheral/src/ch32v30x_spi.c ****  *          operation to SPI_STATR register (SPI_I2S_GetFlagStatus()) followed by a 
 593:../Peripheral/src/ch32v30x_spi.c ****  *          write operation to SPI_CTLR1 register (SPI_Cmd() to enable the SPI).
 594:../Peripheral/src/ch32v30x_spi.c ****  * @return  FlagStatus: SET or RESET.
 595:../Peripheral/src/ch32v30x_spi.c ****  */
 596:../Peripheral/src/ch32v30x_spi.c **** void SPI_I2S_ClearFlag(SPI_TypeDef *SPIx, uint16_t SPI_I2S_FLAG)
 597:../Peripheral/src/ch32v30x_spi.c **** {
 872              		.loc 1 597 1 is_stmt 1
 873              		.cfi_startproc
 874              	.LVL72:
 598:../Peripheral/src/ch32v30x_spi.c ****     SPIx->STATR = (uint16_t)~SPI_I2S_FLAG;
 875              		.loc 1 598 5
 876              		.loc 1 598 19 is_stmt 0
 877 0000 93C5F5FF 		not	a1,a1
 878              	.LVL73:
 879 0004 C205     		slli	a1,a1,16
 880 0006 C181     		srli	a1,a1,16
 881              		.loc 1 598 17
 882 0008 0EA5     		sh	a1,8(a0)
 599:../Peripheral/src/ch32v30x_spi.c **** }
 883              		.loc 1 599 1
 884 000a 8280     		ret
 885              		.cfi_endproc
 886              	.LFE49:
 888              		.section	.text.SPI_I2S_GetITStatus,"ax",@progbits
 889              		.align	1
 890              		.globl	SPI_I2S_GetITStatus
 892              	SPI_I2S_GetITStatus:
 893              	.LFB50:
 600:../Peripheral/src/ch32v30x_spi.c **** 
 601:../Peripheral/src/ch32v30x_spi.c **** /*********************************************************************
 602:../Peripheral/src/ch32v30x_spi.c ****  * @fn      SPI_I2S_GetITStatus
 603:../Peripheral/src/ch32v30x_spi.c ****  *
 604:../Peripheral/src/ch32v30x_spi.c ****  * @brief   Checks whether the specified SPI/I2S interrupt has occurred or not.
 605:../Peripheral/src/ch32v30x_spi.c ****  *
 606:../Peripheral/src/ch32v30x_spi.c ****  * @param   SPIx - where x can be
 607:../Peripheral/src/ch32v30x_spi.c ****  *            - 1, 2 or 3 in SPI mode.
 608:../Peripheral/src/ch32v30x_spi.c ****  *            - 2 or 3 in I2S mode.
 609:../Peripheral/src/ch32v30x_spi.c ****  *          SPI_I2S_IT - specifies the SPI/I2S interrupt source to check..
 610:../Peripheral/src/ch32v30x_spi.c ****  *            SPI_I2S_IT_TXE - Transmit buffer empty interrupt.
 611:../Peripheral/src/ch32v30x_spi.c ****  *            SPI_I2S_IT_RXNE - Receive buffer not empty interrupt.
 612:../Peripheral/src/ch32v30x_spi.c ****  *            SPI_I2S_IT_OVR - Overrun interrupt.
 613:../Peripheral/src/ch32v30x_spi.c ****  *            SPI_IT_MODF - Mode Fault interrupt.
 614:../Peripheral/src/ch32v30x_spi.c ****  *            SPI_IT_CRCERR - CRC Error interrupt.
 615:../Peripheral/src/ch32v30x_spi.c ****  *            I2S_IT_UDR - Underrun Error interrupt.
 616:../Peripheral/src/ch32v30x_spi.c ****  *
 617:../Peripheral/src/ch32v30x_spi.c ****  * @return  FlagStatus: SET or RESET.
 618:../Peripheral/src/ch32v30x_spi.c ****  */
 619:../Peripheral/src/ch32v30x_spi.c **** ITStatus SPI_I2S_GetITStatus(SPI_TypeDef *SPIx, uint8_t SPI_I2S_IT)
 620:../Peripheral/src/ch32v30x_spi.c **** {
 894              		.loc 1 620 1 is_stmt 1
 895              		.cfi_startproc
 896              	.LVL74:
 621:../Peripheral/src/ch32v30x_spi.c ****     ITStatus bitstatus = RESET;
 897              		.loc 1 621 5
 622:../Peripheral/src/ch32v30x_spi.c ****     uint16_t itpos = 0, itmask = 0, enablestatus = 0;
 898              		.loc 1 622 5
 623:../Peripheral/src/ch32v30x_spi.c **** 
 624:../Peripheral/src/ch32v30x_spi.c ****     itpos = 0x01 << (SPI_I2S_IT & 0x0F);
 899              		.loc 1 624 5
 625:../Peripheral/src/ch32v30x_spi.c ****     itmask = SPI_I2S_IT >> 4;
 900              		.loc 1 625 5
 626:../Peripheral/src/ch32v30x_spi.c ****     itmask = 0x01 << itmask;
 901              		.loc 1 626 5
 627:../Peripheral/src/ch32v30x_spi.c ****     enablestatus = (SPIx->CTLR2 & itmask);
 902              		.loc 1 627 5
 903              		.loc 1 627 25 is_stmt 0
 904 0000 5E21     		lhu	a5,4(a0)
 628:../Peripheral/src/ch32v30x_spi.c **** 
 629:../Peripheral/src/ch32v30x_spi.c ****     if(((SPIx->STATR & itpos) != (uint16_t)RESET) && enablestatus)
 905              		.loc 1 629 14
 906 0002 1625     		lhu	a3,8(a0)
 624:../Peripheral/src/ch32v30x_spi.c ****     itmask = SPI_I2S_IT >> 4;
 907              		.loc 1 624 33
 908 0004 13F6F500 		andi	a2,a1,15
 624:../Peripheral/src/ch32v30x_spi.c ****     itmask = SPI_I2S_IT >> 4;
 909              		.loc 1 624 18
 910 0008 0547     		li	a4,1
 911 000a 3316C700 		sll	a2,a4,a2
 627:../Peripheral/src/ch32v30x_spi.c ****     enablestatus = (SPIx->CTLR2 & itmask);
 912              		.loc 1 627 25
 913 000e C207     		slli	a5,a5,16
 914              		.loc 1 629 7
 915 0010 F18E     		and	a3,a3,a2
 627:../Peripheral/src/ch32v30x_spi.c ****     enablestatus = (SPIx->CTLR2 & itmask);
 916              		.loc 1 627 25
 917 0012 C183     		srli	a5,a5,16
 918              	.LVL75:
 919              		.loc 1 629 5 is_stmt 1
 920              		.loc 1 629 7 is_stmt 0
 921 0014 89CA     		beq	a3,zero,.L64
 626:../Peripheral/src/ch32v30x_spi.c ****     enablestatus = (SPIx->CTLR2 & itmask);
 922              		.loc 1 626 19 discriminator 1
 923 0016 9181     		srli	a1,a1,4
 924              	.LVL76:
 925 0018 3317B700 		sll	a4,a4,a1
 926              		.loc 1 629 51 discriminator 1
 927 001c 33F5E700 		and	a0,a5,a4
 928              	.LVL77:
 929 0020 3335A000 		snez	a0,a0
 930 0024 8280     		ret
 931              	.LVL78:
 932              	.L64:
 630:../Peripheral/src/ch32v30x_spi.c ****     {
 631:../Peripheral/src/ch32v30x_spi.c ****         bitstatus = SET;
 632:../Peripheral/src/ch32v30x_spi.c ****     }
 633:../Peripheral/src/ch32v30x_spi.c ****     else
 634:../Peripheral/src/ch32v30x_spi.c ****     {
 635:../Peripheral/src/ch32v30x_spi.c ****         bitstatus = RESET;
 933              		.loc 1 635 19
 934 0026 0145     		li	a0,0
 935              	.LVL79:
 636:../Peripheral/src/ch32v30x_spi.c ****     }
 637:../Peripheral/src/ch32v30x_spi.c **** 
 638:../Peripheral/src/ch32v30x_spi.c ****     return bitstatus;
 936              		.loc 1 638 5 is_stmt 1
 639:../Peripheral/src/ch32v30x_spi.c **** }
 937              		.loc 1 639 1 is_stmt 0
 938 0028 8280     		ret
 939              		.cfi_endproc
 940              	.LFE50:
 942              		.section	.text.SPI_I2S_ClearITPendingBit,"ax",@progbits
 943              		.align	1
 944              		.globl	SPI_I2S_ClearITPendingBit
 946              	SPI_I2S_ClearITPendingBit:
 947              	.LFB51:
 640:../Peripheral/src/ch32v30x_spi.c **** 
 641:../Peripheral/src/ch32v30x_spi.c **** /*********************************************************************
 642:../Peripheral/src/ch32v30x_spi.c ****  * @fn      SPI_I2S_ClearITPendingBit
 643:../Peripheral/src/ch32v30x_spi.c ****  *
 644:../Peripheral/src/ch32v30x_spi.c ****  * @brief   Clears the SPIx CRC Error (CRCERR) interrupt pending bit.
 645:../Peripheral/src/ch32v30x_spi.c ****  *
 646:../Peripheral/src/ch32v30x_spi.c ****  * @param   SPIx - where x can be
 647:../Peripheral/src/ch32v30x_spi.c ****  *            - 1, 2 or 3 in SPI mode.
 648:../Peripheral/src/ch32v30x_spi.c ****  *          SPI_I2S_IT - specifies the SPI interrupt pending bit to clear.
 649:../Peripheral/src/ch32v30x_spi.c ****  *            SPI_IT_CRCERR - CRC Error interrupt.
 650:../Peripheral/src/ch32v30x_spi.c ****  *         Note-
 651:../Peripheral/src/ch32v30x_spi.c ****  *         - OVR (OverRun Error) interrupt pending bit is cleared by software 
 652:../Peripheral/src/ch32v30x_spi.c ****  *         sequence: a read operation to SPI_DATAR register (SPI_I2S_ReceiveData()) 
 653:../Peripheral/src/ch32v30x_spi.c ****  *         followed by a read operation to SPI_STATR register (SPI_I2S_GetITStatus()).
 654:../Peripheral/src/ch32v30x_spi.c ****  *         - UDR (UnderRun Error) interrupt pending bit is cleared by a read 
 655:../Peripheral/src/ch32v30x_spi.c ****  *         operation to SPI_STATR register (SPI_I2S_GetITStatus()).
 656:../Peripheral/src/ch32v30x_spi.c ****  *         - MODF (Mode Fault) interrupt pending bit is cleared by software sequence:
 657:../Peripheral/src/ch32v30x_spi.c ****  *         a read/write operation to SPI_STATR register (SPI_I2S_GetITStatus()) 
 658:../Peripheral/src/ch32v30x_spi.c ****  *         followed by a write operation to SPI_CTLR1 register (SPI_Cmd() to enable 
 659:../Peripheral/src/ch32v30x_spi.c ****  *         the SPI).      
 660:../Peripheral/src/ch32v30x_spi.c ****  * @return  none
 661:../Peripheral/src/ch32v30x_spi.c ****  */
 662:../Peripheral/src/ch32v30x_spi.c **** void SPI_I2S_ClearITPendingBit(SPI_TypeDef *SPIx, uint8_t SPI_I2S_IT)
 663:../Peripheral/src/ch32v30x_spi.c **** {
 948              		.loc 1 663 1 is_stmt 1
 949              		.cfi_startproc
 950              	.LVL80:
 664:../Peripheral/src/ch32v30x_spi.c ****     uint16_t itpos = 0;
 951              		.loc 1 664 5
 665:../Peripheral/src/ch32v30x_spi.c **** 
 666:../Peripheral/src/ch32v30x_spi.c ****     itpos = 0x01 << (SPI_I2S_IT & 0x0F);
 952              		.loc 1 666 5
 667:../Peripheral/src/ch32v30x_spi.c ****     SPIx->STATR = (uint16_t)~itpos;
 953              		.loc 1 667 5
 666:../Peripheral/src/ch32v30x_spi.c ****     SPIx->STATR = (uint16_t)~itpos;
 954              		.loc 1 666 33 is_stmt 0
 955 0000 BD89     		andi	a1,a1,15
 956              	.LVL81:
 666:../Peripheral/src/ch32v30x_spi.c ****     SPIx->STATR = (uint16_t)~itpos;
 957              		.loc 1 666 18
 958 0002 8547     		li	a5,1
 959 0004 B397B700 		sll	a5,a5,a1
 960              		.loc 1 667 19
 961 0008 93C7F7FF 		not	a5,a5
 962 000c C207     		slli	a5,a5,16
 963 000e C183     		srli	a5,a5,16
 964              		.loc 1 667 17
 965 0010 1EA5     		sh	a5,8(a0)
 668:../Peripheral/src/ch32v30x_spi.c **** }
 966              		.loc 1 668 1
 967 0012 8280     		ret
 968              		.cfi_endproc
 969              	.LFE51:
 971              		.text
 972              	.Letext0:
 973              		.file 2 "d:\\software\\mounriver_studio\\toolchain\\risc-v embedded gcc12\\riscv-none-elf\\include
 974              		.file 3 "d:\\software\\mounriver_studio\\toolchain\\risc-v embedded gcc12\\riscv-none-elf\\include
 975              		.file 4 "C:\\Users\\localhost\\Documents\\turbomoskal-repo\\qqexpert\\firmware\\MasterController\\
 976              		.file 5 "C:\\Users\\localhost\\Documents\\turbomoskal-repo\\qqexpert\\firmware\\MasterController\\
 977              		.file 6 "C:\\Users\\localhost\\Documents\\turbomoskal-repo\\qqexpert\\firmware\\MasterController\\
 978              		.file 7 "C:\\Users\\localhost\\Documents\\turbomoskal-repo\\qqexpert\\firmware\\MasterController\\