   1              		.file	"ch32v30x_flash.c"
   2              		.option nopic
   3              		.attribute arch, "rv32i2p0_m2p0_a2p0_f2p0_c2p0_xw"
   4              		.attribute unaligned_access, 0
   5              		.attribute stack_align, 16
   6              		.text
   7              	.Ltext0:
   8              		.cfi_sections	.debug_frame
   9              		.file 0 "C:\\Users\\localhost\\Documents\\turbomoskal-repo\\qqexpert\\firmware\\MasterController\\
  10              		.section	.text.ROM_ERASE,"ax",@progbits
  11              		.align	1
  13              	ROM_ERASE:
  14              	.LFB61:
  15              		.file 1 "../Peripheral/src/ch32v30x_flash.c"
   1:../Peripheral/src/ch32v30x_flash.c **** /********************************** (C) COPYRIGHT  *******************************
   2:../Peripheral/src/ch32v30x_flash.c **** * File Name          : ch32v30x_flash.c
   3:../Peripheral/src/ch32v30x_flash.c **** * Author             : WCH
   4:../Peripheral/src/ch32v30x_flash.c **** * Version            : V1.0.0
   5:../Peripheral/src/ch32v30x_flash.c **** * Date               : 2024/05/24
   6:../Peripheral/src/ch32v30x_flash.c **** * Description        : This file provides all the FLASH firmware functions.
   7:../Peripheral/src/ch32v30x_flash.c **** *********************************************************************************
   8:../Peripheral/src/ch32v30x_flash.c **** * Copyright (c) 2021 Nanjing Qinheng Microelectronics Co., Ltd.
   9:../Peripheral/src/ch32v30x_flash.c **** * Attention: This software (modified or not) and binary are used for 
  10:../Peripheral/src/ch32v30x_flash.c **** * microcontroller manufactured by Nanjing Qinheng Microelectronics.
  11:../Peripheral/src/ch32v30x_flash.c **** *******************************************************************************/
  12:../Peripheral/src/ch32v30x_flash.c **** #include "ch32v30x_flash.h"
  13:../Peripheral/src/ch32v30x_flash.c **** 
  14:../Peripheral/src/ch32v30x_flash.c **** /* Flash Control Register bits */
  15:../Peripheral/src/ch32v30x_flash.c **** #define CR_PG_Set                  ((uint32_t)0x00000001)
  16:../Peripheral/src/ch32v30x_flash.c **** #define CR_PG_Reset                ((uint32_t)0xFFFFFFFE)
  17:../Peripheral/src/ch32v30x_flash.c **** #define CR_PER_Set                 ((uint32_t)0x00000002)
  18:../Peripheral/src/ch32v30x_flash.c **** #define CR_PER_Reset               ((uint32_t)0xFFFFFFFD)
  19:../Peripheral/src/ch32v30x_flash.c **** #define CR_MER_Set                 ((uint32_t)0x00000004)
  20:../Peripheral/src/ch32v30x_flash.c **** #define CR_MER_Reset               ((uint32_t)0xFFFFFFFB)
  21:../Peripheral/src/ch32v30x_flash.c **** #define CR_OPTPG_Set               ((uint32_t)0x00000010)
  22:../Peripheral/src/ch32v30x_flash.c **** #define CR_OPTPG_Reset             ((uint32_t)0xFFFFFFEF)
  23:../Peripheral/src/ch32v30x_flash.c **** #define CR_OPTER_Set               ((uint32_t)0x00000020)
  24:../Peripheral/src/ch32v30x_flash.c **** #define CR_OPTER_Reset             ((uint32_t)0xFFFFFFDF)
  25:../Peripheral/src/ch32v30x_flash.c **** #define CR_STRT_Set                ((uint32_t)0x00000040)
  26:../Peripheral/src/ch32v30x_flash.c **** #define CR_LOCK_Set                ((uint32_t)0x00000080)
  27:../Peripheral/src/ch32v30x_flash.c **** #define CR_FLOCK_Set               ((uint32_t)0x00008000)
  28:../Peripheral/src/ch32v30x_flash.c **** #define CR_PAGE_PG                 ((uint32_t)0x00010000)
  29:../Peripheral/src/ch32v30x_flash.c **** #define CR_PAGE_ER                 ((uint32_t)0x00020000)
  30:../Peripheral/src/ch32v30x_flash.c **** #define CR_BER32                   ((uint32_t)0x00040000)
  31:../Peripheral/src/ch32v30x_flash.c **** #define CR_BER64                   ((uint32_t)0x00080000)
  32:../Peripheral/src/ch32v30x_flash.c **** #define CR_PG_STRT                 ((uint32_t)0x00200000)
  33:../Peripheral/src/ch32v30x_flash.c **** 
  34:../Peripheral/src/ch32v30x_flash.c **** /* FLASH Status Register bits */
  35:../Peripheral/src/ch32v30x_flash.c **** #define SR_BSY                     ((uint32_t)0x00000001)
  36:../Peripheral/src/ch32v30x_flash.c **** #define SR_WR_BSY                  ((uint32_t)0x00000002)
  37:../Peripheral/src/ch32v30x_flash.c **** #define SR_WRPRTERR                ((uint32_t)0x00000010)
  38:../Peripheral/src/ch32v30x_flash.c **** #define SR_EOP                     ((uint32_t)0x00000020)
  39:../Peripheral/src/ch32v30x_flash.c **** 
  40:../Peripheral/src/ch32v30x_flash.c **** /* FLASH Mask */
  41:../Peripheral/src/ch32v30x_flash.c **** #define RDPRT_Mask                 ((uint32_t)0x00000002)
  42:../Peripheral/src/ch32v30x_flash.c **** #define WRP0_Mask                  ((uint32_t)0x000000FF)
  43:../Peripheral/src/ch32v30x_flash.c **** #define WRP1_Mask                  ((uint32_t)0x0000FF00)
  44:../Peripheral/src/ch32v30x_flash.c **** #define WRP2_Mask                  ((uint32_t)0x00FF0000)
  45:../Peripheral/src/ch32v30x_flash.c **** #define WRP3_Mask                  ((uint32_t)0xFF000000)
  46:../Peripheral/src/ch32v30x_flash.c **** #define OB_USER_BFB2               ((uint16_t)0x0008)
  47:../Peripheral/src/ch32v30x_flash.c **** 
  48:../Peripheral/src/ch32v30x_flash.c **** /* FLASH Keys */
  49:../Peripheral/src/ch32v30x_flash.c **** #define RDP_Key                    ((uint16_t)0x00A5)
  50:../Peripheral/src/ch32v30x_flash.c **** #define FLASH_KEY1                 ((uint32_t)0x45670123)
  51:../Peripheral/src/ch32v30x_flash.c **** #define FLASH_KEY2                 ((uint32_t)0xCDEF89AB)
  52:../Peripheral/src/ch32v30x_flash.c **** 
  53:../Peripheral/src/ch32v30x_flash.c **** /* FLASH BANK address */
  54:../Peripheral/src/ch32v30x_flash.c **** #define FLASH_BANK1_END_ADDRESS    ((uint32_t)0x807FFFF)
  55:../Peripheral/src/ch32v30x_flash.c **** 
  56:../Peripheral/src/ch32v30x_flash.c **** /* Delay definition */
  57:../Peripheral/src/ch32v30x_flash.c **** #define EraseTimeout               ((uint32_t)0x000B0000)
  58:../Peripheral/src/ch32v30x_flash.c **** #define ProgramTimeout             ((uint32_t)0x00005000)
  59:../Peripheral/src/ch32v30x_flash.c **** 
  60:../Peripheral/src/ch32v30x_flash.c **** /* Flash Program Valid Address */
  61:../Peripheral/src/ch32v30x_flash.c **** #define ValidAddrStart             (FLASH_BASE)
  62:../Peripheral/src/ch32v30x_flash.c **** #define ValidAddrEnd               (FLASH_BASE + 0x78000)
  63:../Peripheral/src/ch32v30x_flash.c **** 
  64:../Peripheral/src/ch32v30x_flash.c **** /* FLASH Size */
  65:../Peripheral/src/ch32v30x_flash.c **** #define Size_256B                  0x100
  66:../Peripheral/src/ch32v30x_flash.c **** #define Size_4KB                   0x1000
  67:../Peripheral/src/ch32v30x_flash.c **** #define Size_32KB                  0x8000
  68:../Peripheral/src/ch32v30x_flash.c **** 
  69:../Peripheral/src/ch32v30x_flash.c **** /*********************************************************************
  70:../Peripheral/src/ch32v30x_flash.c ****  * @fn      FLASH_Unlock
  71:../Peripheral/src/ch32v30x_flash.c ****  *
  72:../Peripheral/src/ch32v30x_flash.c ****  * @brief   Unlocks the FLASH Program Erase Controller.
  73:../Peripheral/src/ch32v30x_flash.c ****  *
  74:../Peripheral/src/ch32v30x_flash.c ****  * @return  none
  75:../Peripheral/src/ch32v30x_flash.c ****  */
  76:../Peripheral/src/ch32v30x_flash.c **** void FLASH_Unlock(void)
  77:../Peripheral/src/ch32v30x_flash.c **** {
  78:../Peripheral/src/ch32v30x_flash.c ****     /* Authorize the FPEC of Bank1 Access */
  79:../Peripheral/src/ch32v30x_flash.c ****     FLASH->KEYR = FLASH_KEY1;
  80:../Peripheral/src/ch32v30x_flash.c ****     FLASH->KEYR = FLASH_KEY2;
  81:../Peripheral/src/ch32v30x_flash.c **** }
  82:../Peripheral/src/ch32v30x_flash.c **** 
  83:../Peripheral/src/ch32v30x_flash.c **** /*********************************************************************
  84:../Peripheral/src/ch32v30x_flash.c ****  * @fn      FLASH_UnlockBank1
  85:../Peripheral/src/ch32v30x_flash.c ****  *
  86:../Peripheral/src/ch32v30x_flash.c ****  * @brief   Unlocks the FLASH Bank1 Program Erase Controller.
  87:../Peripheral/src/ch32v30x_flash.c ****  *          equivalent to FLASH_Unlock function.
  88:../Peripheral/src/ch32v30x_flash.c ****  *
  89:../Peripheral/src/ch32v30x_flash.c ****  * @return  none
  90:../Peripheral/src/ch32v30x_flash.c ****  */
  91:../Peripheral/src/ch32v30x_flash.c **** void FLASH_UnlockBank1(void)
  92:../Peripheral/src/ch32v30x_flash.c **** {
  93:../Peripheral/src/ch32v30x_flash.c ****     FLASH->KEYR = FLASH_KEY1;
  94:../Peripheral/src/ch32v30x_flash.c ****     FLASH->KEYR = FLASH_KEY2;
  95:../Peripheral/src/ch32v30x_flash.c **** }
  96:../Peripheral/src/ch32v30x_flash.c **** 
  97:../Peripheral/src/ch32v30x_flash.c **** /*********************************************************************
  98:../Peripheral/src/ch32v30x_flash.c ****  * @fn      FLASH_Lock
  99:../Peripheral/src/ch32v30x_flash.c ****  *
 100:../Peripheral/src/ch32v30x_flash.c ****  * @brief   Locks the FLASH Program Erase Controller.
 101:../Peripheral/src/ch32v30x_flash.c ****  *
 102:../Peripheral/src/ch32v30x_flash.c ****  * @return  none
 103:../Peripheral/src/ch32v30x_flash.c ****  */
 104:../Peripheral/src/ch32v30x_flash.c **** void FLASH_Lock(void)
 105:../Peripheral/src/ch32v30x_flash.c **** {
 106:../Peripheral/src/ch32v30x_flash.c ****     FLASH->CTLR |= CR_LOCK_Set;
 107:../Peripheral/src/ch32v30x_flash.c **** }
 108:../Peripheral/src/ch32v30x_flash.c **** 
 109:../Peripheral/src/ch32v30x_flash.c **** /*********************************************************************
 110:../Peripheral/src/ch32v30x_flash.c ****  * @fn      FLASH_LockBank1
 111:../Peripheral/src/ch32v30x_flash.c ****  *
 112:../Peripheral/src/ch32v30x_flash.c ****  * @brief   Locks the FLASH Bank1 Program Erase Controller.
 113:../Peripheral/src/ch32v30x_flash.c ****  *
 114:../Peripheral/src/ch32v30x_flash.c ****  * @return  none
 115:../Peripheral/src/ch32v30x_flash.c ****  */
 116:../Peripheral/src/ch32v30x_flash.c **** void FLASH_LockBank1(void)
 117:../Peripheral/src/ch32v30x_flash.c **** {
 118:../Peripheral/src/ch32v30x_flash.c ****     FLASH->CTLR |= CR_LOCK_Set;
 119:../Peripheral/src/ch32v30x_flash.c **** }
 120:../Peripheral/src/ch32v30x_flash.c **** 
 121:../Peripheral/src/ch32v30x_flash.c **** /*********************************************************************
 122:../Peripheral/src/ch32v30x_flash.c ****  * @fn      FLASH_ErasePage
 123:../Peripheral/src/ch32v30x_flash.c ****  *
 124:../Peripheral/src/ch32v30x_flash.c ****  * @brief   Erases a specified FLASH page(page size 4KB).
 125:../Peripheral/src/ch32v30x_flash.c ****  *
 126:../Peripheral/src/ch32v30x_flash.c ****  * @param   Page_Address - The page address to be erased.
 127:../Peripheral/src/ch32v30x_flash.c ****  *
 128:../Peripheral/src/ch32v30x_flash.c ****  * @return  FLASH Status - The returned value can be: FLASH_BUSY, FLASH_ERROR_PG,
 129:../Peripheral/src/ch32v30x_flash.c ****  *        FLASH_ERROR_WRP, FLASH_COMPLETE or FLASH_TIMEOUT.
 130:../Peripheral/src/ch32v30x_flash.c ****  */
 131:../Peripheral/src/ch32v30x_flash.c **** FLASH_Status FLASH_ErasePage(uint32_t Page_Address)
 132:../Peripheral/src/ch32v30x_flash.c **** {
 133:../Peripheral/src/ch32v30x_flash.c ****     FLASH_Status status = FLASH_COMPLETE;
 134:../Peripheral/src/ch32v30x_flash.c **** 
 135:../Peripheral/src/ch32v30x_flash.c ****     status = FLASH_WaitForLastOperation(EraseTimeout);
 136:../Peripheral/src/ch32v30x_flash.c **** 
 137:../Peripheral/src/ch32v30x_flash.c ****     if(status == FLASH_COMPLETE)
 138:../Peripheral/src/ch32v30x_flash.c ****     {
 139:../Peripheral/src/ch32v30x_flash.c ****         FLASH->CTLR |= CR_PER_Set;
 140:../Peripheral/src/ch32v30x_flash.c ****         FLASH->ADDR = Page_Address;
 141:../Peripheral/src/ch32v30x_flash.c ****         FLASH->CTLR |= CR_STRT_Set;
 142:../Peripheral/src/ch32v30x_flash.c **** 
 143:../Peripheral/src/ch32v30x_flash.c ****         status = FLASH_WaitForLastOperation(EraseTimeout);
 144:../Peripheral/src/ch32v30x_flash.c **** 
 145:../Peripheral/src/ch32v30x_flash.c ****         FLASH->CTLR &= CR_PER_Reset;
 146:../Peripheral/src/ch32v30x_flash.c ****     }
 147:../Peripheral/src/ch32v30x_flash.c **** 
 148:../Peripheral/src/ch32v30x_flash.c ****     return status;
 149:../Peripheral/src/ch32v30x_flash.c **** }
 150:../Peripheral/src/ch32v30x_flash.c **** 
 151:../Peripheral/src/ch32v30x_flash.c **** /*********************************************************************
 152:../Peripheral/src/ch32v30x_flash.c ****  * @fn      FLASH_EraseAllPages
 153:../Peripheral/src/ch32v30x_flash.c ****  *
 154:../Peripheral/src/ch32v30x_flash.c ****  * @brief   Erases all FLASH pages.
 155:../Peripheral/src/ch32v30x_flash.c ****  *
 156:../Peripheral/src/ch32v30x_flash.c ****  * @return  FLASH Status - The returned value can be: FLASH_BUSY, FLASH_ERROR_PG,
 157:../Peripheral/src/ch32v30x_flash.c ****  *        FLASH_ERROR_WRP, FLASH_COMPLETE or FLASH_TIMEOUT.
 158:../Peripheral/src/ch32v30x_flash.c ****  */
 159:../Peripheral/src/ch32v30x_flash.c **** FLASH_Status FLASH_EraseAllPages(void)
 160:../Peripheral/src/ch32v30x_flash.c **** {
 161:../Peripheral/src/ch32v30x_flash.c ****     FLASH_Status status = FLASH_COMPLETE;
 162:../Peripheral/src/ch32v30x_flash.c **** 
 163:../Peripheral/src/ch32v30x_flash.c ****     status = FLASH_WaitForLastOperation(EraseTimeout);
 164:../Peripheral/src/ch32v30x_flash.c ****     if(status == FLASH_COMPLETE)
 165:../Peripheral/src/ch32v30x_flash.c ****     {
 166:../Peripheral/src/ch32v30x_flash.c ****         FLASH->CTLR |= CR_MER_Set;
 167:../Peripheral/src/ch32v30x_flash.c ****         FLASH->CTLR |= CR_STRT_Set;
 168:../Peripheral/src/ch32v30x_flash.c **** 
 169:../Peripheral/src/ch32v30x_flash.c ****         status = FLASH_WaitForLastOperation(EraseTimeout);
 170:../Peripheral/src/ch32v30x_flash.c **** 
 171:../Peripheral/src/ch32v30x_flash.c ****         FLASH->CTLR &= CR_MER_Reset;
 172:../Peripheral/src/ch32v30x_flash.c ****     }
 173:../Peripheral/src/ch32v30x_flash.c **** 
 174:../Peripheral/src/ch32v30x_flash.c ****     return status;
 175:../Peripheral/src/ch32v30x_flash.c **** }
 176:../Peripheral/src/ch32v30x_flash.c **** 
 177:../Peripheral/src/ch32v30x_flash.c **** /*********************************************************************
 178:../Peripheral/src/ch32v30x_flash.c ****  * @fn      FLASH_EraseAllBank1Pages
 179:../Peripheral/src/ch32v30x_flash.c ****  *
 180:../Peripheral/src/ch32v30x_flash.c ****  * @brief   Erases all Bank1 FLASH pages.
 181:../Peripheral/src/ch32v30x_flash.c ****  *
 182:../Peripheral/src/ch32v30x_flash.c ****  * @return  FLASH Status - The returned value can be: FLASH_BUSY, FLASH_ERROR_PG,
 183:../Peripheral/src/ch32v30x_flash.c ****  *        FLASH_ERROR_WRP, FLASH_COMPLETE or FLASH_TIMEOUT.
 184:../Peripheral/src/ch32v30x_flash.c ****  */
 185:../Peripheral/src/ch32v30x_flash.c **** FLASH_Status FLASH_EraseAllBank1Pages(void)
 186:../Peripheral/src/ch32v30x_flash.c **** {
 187:../Peripheral/src/ch32v30x_flash.c ****     FLASH_Status status = FLASH_COMPLETE;
 188:../Peripheral/src/ch32v30x_flash.c ****     status = FLASH_WaitForLastBank1Operation(EraseTimeout);
 189:../Peripheral/src/ch32v30x_flash.c **** 
 190:../Peripheral/src/ch32v30x_flash.c ****     if(status == FLASH_COMPLETE)
 191:../Peripheral/src/ch32v30x_flash.c ****     {
 192:../Peripheral/src/ch32v30x_flash.c ****         FLASH->CTLR |= CR_MER_Set;
 193:../Peripheral/src/ch32v30x_flash.c ****         FLASH->CTLR |= CR_STRT_Set;
 194:../Peripheral/src/ch32v30x_flash.c **** 
 195:../Peripheral/src/ch32v30x_flash.c ****         status = FLASH_WaitForLastBank1Operation(EraseTimeout);
 196:../Peripheral/src/ch32v30x_flash.c **** 
 197:../Peripheral/src/ch32v30x_flash.c ****         FLASH->CTLR &= CR_MER_Reset;
 198:../Peripheral/src/ch32v30x_flash.c ****     }
 199:../Peripheral/src/ch32v30x_flash.c ****     return status;
 200:../Peripheral/src/ch32v30x_flash.c **** }
 201:../Peripheral/src/ch32v30x_flash.c **** 
 202:../Peripheral/src/ch32v30x_flash.c **** /*********************************************************************
 203:../Peripheral/src/ch32v30x_flash.c ****  * @fn      FLASH_EraseOptionBytes
 204:../Peripheral/src/ch32v30x_flash.c ****  *
 205:../Peripheral/src/ch32v30x_flash.c ****  * @brief   Erases the FLASH option bytes.
 206:../Peripheral/src/ch32v30x_flash.c ****  *
 207:../Peripheral/src/ch32v30x_flash.c ****  * @return  FLASH Status - The returned value can be: FLASH_BUSY, FLASH_ERROR_PG,
 208:../Peripheral/src/ch32v30x_flash.c ****  *        FLASH_ERROR_WRP, FLASH_COMPLETE or FLASH_TIMEOUT.
 209:../Peripheral/src/ch32v30x_flash.c ****  */
 210:../Peripheral/src/ch32v30x_flash.c **** FLASH_Status FLASH_EraseOptionBytes(void)
 211:../Peripheral/src/ch32v30x_flash.c **** {
 212:../Peripheral/src/ch32v30x_flash.c ****     uint16_t     rdptmp = RDP_Key;
 213:../Peripheral/src/ch32v30x_flash.c ****     uint32_t     Address = 0x1FFFF800;
 214:../Peripheral/src/ch32v30x_flash.c ****     __IO uint8_t i;
 215:../Peripheral/src/ch32v30x_flash.c **** 
 216:../Peripheral/src/ch32v30x_flash.c ****     FLASH_Status status = FLASH_COMPLETE;
 217:../Peripheral/src/ch32v30x_flash.c ****     if(FLASH_GetReadOutProtectionStatus() != RESET)
 218:../Peripheral/src/ch32v30x_flash.c ****     {
 219:../Peripheral/src/ch32v30x_flash.c ****         rdptmp = 0x00;
 220:../Peripheral/src/ch32v30x_flash.c ****     }
 221:../Peripheral/src/ch32v30x_flash.c ****     status = FLASH_WaitForLastOperation(EraseTimeout);
 222:../Peripheral/src/ch32v30x_flash.c ****     if(status == FLASH_COMPLETE)
 223:../Peripheral/src/ch32v30x_flash.c ****     {
 224:../Peripheral/src/ch32v30x_flash.c ****         FLASH->OBKEYR = FLASH_KEY1;
 225:../Peripheral/src/ch32v30x_flash.c ****         FLASH->OBKEYR = FLASH_KEY2;
 226:../Peripheral/src/ch32v30x_flash.c **** 
 227:../Peripheral/src/ch32v30x_flash.c ****         FLASH->CTLR |= CR_OPTER_Set;
 228:../Peripheral/src/ch32v30x_flash.c ****         FLASH->CTLR |= CR_STRT_Set;
 229:../Peripheral/src/ch32v30x_flash.c ****         status = FLASH_WaitForLastOperation(EraseTimeout);
 230:../Peripheral/src/ch32v30x_flash.c **** 
 231:../Peripheral/src/ch32v30x_flash.c ****         if(status == FLASH_COMPLETE)
 232:../Peripheral/src/ch32v30x_flash.c ****         {
 233:../Peripheral/src/ch32v30x_flash.c ****             FLASH->CTLR &= CR_OPTER_Reset;
 234:../Peripheral/src/ch32v30x_flash.c ****             FLASH->CTLR |= CR_OPTPG_Set;
 235:../Peripheral/src/ch32v30x_flash.c ****             OB->RDPR = (uint16_t)rdptmp;
 236:../Peripheral/src/ch32v30x_flash.c ****             status = FLASH_WaitForLastOperation(ProgramTimeout);
 237:../Peripheral/src/ch32v30x_flash.c **** 
 238:../Peripheral/src/ch32v30x_flash.c ****             if(status != FLASH_TIMEOUT)
 239:../Peripheral/src/ch32v30x_flash.c ****             {
 240:../Peripheral/src/ch32v30x_flash.c ****                 FLASH->CTLR &= CR_OPTPG_Reset;
 241:../Peripheral/src/ch32v30x_flash.c ****             }
 242:../Peripheral/src/ch32v30x_flash.c ****         }
 243:../Peripheral/src/ch32v30x_flash.c ****         else
 244:../Peripheral/src/ch32v30x_flash.c ****         {
 245:../Peripheral/src/ch32v30x_flash.c ****             if(status != FLASH_TIMEOUT)
 246:../Peripheral/src/ch32v30x_flash.c ****             {
 247:../Peripheral/src/ch32v30x_flash.c ****                 FLASH->CTLR &= CR_OPTPG_Reset;
 248:../Peripheral/src/ch32v30x_flash.c ****             }
 249:../Peripheral/src/ch32v30x_flash.c ****         }
 250:../Peripheral/src/ch32v30x_flash.c **** 
 251:../Peripheral/src/ch32v30x_flash.c ****         /* Write 0xFF */
 252:../Peripheral/src/ch32v30x_flash.c ****         FLASH->CTLR |= CR_OPTPG_Set;
 253:../Peripheral/src/ch32v30x_flash.c **** 
 254:../Peripheral/src/ch32v30x_flash.c ****         for(i = 0; i < 8; i++)
 255:../Peripheral/src/ch32v30x_flash.c ****         {
 256:../Peripheral/src/ch32v30x_flash.c ****             *(uint16_t *)(Address + 2 * i) = 0x00FF;
 257:../Peripheral/src/ch32v30x_flash.c ****             while(FLASH->STATR & SR_BSY)
 258:../Peripheral/src/ch32v30x_flash.c ****                 ;
 259:../Peripheral/src/ch32v30x_flash.c ****         }
 260:../Peripheral/src/ch32v30x_flash.c **** 
 261:../Peripheral/src/ch32v30x_flash.c ****         FLASH->CTLR &= ~CR_OPTPG_Set;
 262:../Peripheral/src/ch32v30x_flash.c ****     }
 263:../Peripheral/src/ch32v30x_flash.c ****     return status;
 264:../Peripheral/src/ch32v30x_flash.c **** }
 265:../Peripheral/src/ch32v30x_flash.c **** 
 266:../Peripheral/src/ch32v30x_flash.c **** /*********************************************************************
 267:../Peripheral/src/ch32v30x_flash.c ****  * @fn      FLASH_ProgramWord
 268:../Peripheral/src/ch32v30x_flash.c ****  *
 269:../Peripheral/src/ch32v30x_flash.c ****  * @brief   Programs a word at a specified address.
 270:../Peripheral/src/ch32v30x_flash.c ****  *
 271:../Peripheral/src/ch32v30x_flash.c ****  * @param   Address - specifies the address to be programmed.
 272:../Peripheral/src/ch32v30x_flash.c ****  *          Data - specifies the data to be programmed.
 273:../Peripheral/src/ch32v30x_flash.c ****  *
 274:../Peripheral/src/ch32v30x_flash.c ****  * @return  FLASH Status - The returned value can be: FLASH_BUSY, FLASH_ERROR_PG,
 275:../Peripheral/src/ch32v30x_flash.c ****  *        FLASH_ERROR_WRP, FLASH_COMPLETE or FLASH_TIMEOUT.
 276:../Peripheral/src/ch32v30x_flash.c ****  */
 277:../Peripheral/src/ch32v30x_flash.c **** FLASH_Status FLASH_ProgramWord(uint32_t Address, uint32_t Data)
 278:../Peripheral/src/ch32v30x_flash.c **** {
 279:../Peripheral/src/ch32v30x_flash.c ****     FLASH_Status  status = FLASH_COMPLETE;
 280:../Peripheral/src/ch32v30x_flash.c ****     __IO uint32_t tmp = 0;
 281:../Peripheral/src/ch32v30x_flash.c **** 
 282:../Peripheral/src/ch32v30x_flash.c ****     status = FLASH_WaitForLastOperation(ProgramTimeout);
 283:../Peripheral/src/ch32v30x_flash.c **** 
 284:../Peripheral/src/ch32v30x_flash.c ****     if(status == FLASH_COMPLETE)
 285:../Peripheral/src/ch32v30x_flash.c ****     {
 286:../Peripheral/src/ch32v30x_flash.c ****         FLASH->CTLR |= CR_PG_Set;
 287:../Peripheral/src/ch32v30x_flash.c **** 
 288:../Peripheral/src/ch32v30x_flash.c ****         *(__IO uint16_t *)Address = (uint16_t)Data;
 289:../Peripheral/src/ch32v30x_flash.c ****         status = FLASH_WaitForLastOperation(ProgramTimeout);
 290:../Peripheral/src/ch32v30x_flash.c **** 
 291:../Peripheral/src/ch32v30x_flash.c ****         if(status == FLASH_COMPLETE)
 292:../Peripheral/src/ch32v30x_flash.c ****         {
 293:../Peripheral/src/ch32v30x_flash.c ****             tmp = Address + 2;
 294:../Peripheral/src/ch32v30x_flash.c ****             *(__IO uint16_t *)tmp = Data >> 16;
 295:../Peripheral/src/ch32v30x_flash.c ****             status = FLASH_WaitForLastOperation(ProgramTimeout);
 296:../Peripheral/src/ch32v30x_flash.c ****             FLASH->CTLR &= CR_PG_Reset;
 297:../Peripheral/src/ch32v30x_flash.c ****         }
 298:../Peripheral/src/ch32v30x_flash.c ****         else
 299:../Peripheral/src/ch32v30x_flash.c ****         {
 300:../Peripheral/src/ch32v30x_flash.c ****             FLASH->CTLR &= CR_PG_Reset;
 301:../Peripheral/src/ch32v30x_flash.c ****         }
 302:../Peripheral/src/ch32v30x_flash.c ****     }
 303:../Peripheral/src/ch32v30x_flash.c **** 
 304:../Peripheral/src/ch32v30x_flash.c ****     return status;
 305:../Peripheral/src/ch32v30x_flash.c **** }
 306:../Peripheral/src/ch32v30x_flash.c **** 
 307:../Peripheral/src/ch32v30x_flash.c **** /*********************************************************************
 308:../Peripheral/src/ch32v30x_flash.c ****  * @fn      FLASH_ProgramHalfWord
 309:../Peripheral/src/ch32v30x_flash.c ****  *
 310:../Peripheral/src/ch32v30x_flash.c ****  * @brief   Programs a half word at a specified address.
 311:../Peripheral/src/ch32v30x_flash.c ****  *
 312:../Peripheral/src/ch32v30x_flash.c ****  * @param   Address - specifies the address to be programmed.
 313:../Peripheral/src/ch32v30x_flash.c ****  *          Data - specifies the data to be programmed.
 314:../Peripheral/src/ch32v30x_flash.c ****  *
 315:../Peripheral/src/ch32v30x_flash.c ****  * @return  FLASH Status - The returned value can be: FLASH_BUSY, FLASH_ERROR_PG,
 316:../Peripheral/src/ch32v30x_flash.c ****  *        FLASH_ERROR_WRP, FLASH_COMPLETE or FLASH_TIMEOUT.
 317:../Peripheral/src/ch32v30x_flash.c ****  */
 318:../Peripheral/src/ch32v30x_flash.c **** FLASH_Status FLASH_ProgramHalfWord(uint32_t Address, uint16_t Data)
 319:../Peripheral/src/ch32v30x_flash.c **** {
 320:../Peripheral/src/ch32v30x_flash.c ****     FLASH_Status status = FLASH_COMPLETE;
 321:../Peripheral/src/ch32v30x_flash.c **** 
 322:../Peripheral/src/ch32v30x_flash.c ****     status = FLASH_WaitForLastOperation(ProgramTimeout);
 323:../Peripheral/src/ch32v30x_flash.c **** 
 324:../Peripheral/src/ch32v30x_flash.c ****     if(status == FLASH_COMPLETE)
 325:../Peripheral/src/ch32v30x_flash.c ****     {
 326:../Peripheral/src/ch32v30x_flash.c ****         FLASH->CTLR |= CR_PG_Set;
 327:../Peripheral/src/ch32v30x_flash.c ****         *(__IO uint16_t *)Address = Data;
 328:../Peripheral/src/ch32v30x_flash.c ****         status = FLASH_WaitForLastOperation(ProgramTimeout);
 329:../Peripheral/src/ch32v30x_flash.c ****         FLASH->CTLR &= CR_PG_Reset;
 330:../Peripheral/src/ch32v30x_flash.c ****     }
 331:../Peripheral/src/ch32v30x_flash.c **** 
 332:../Peripheral/src/ch32v30x_flash.c ****     return status;
 333:../Peripheral/src/ch32v30x_flash.c **** }
 334:../Peripheral/src/ch32v30x_flash.c **** 
 335:../Peripheral/src/ch32v30x_flash.c **** /*********************************************************************
 336:../Peripheral/src/ch32v30x_flash.c ****  * @fn      FLASH_ProgramOptionByteData
 337:../Peripheral/src/ch32v30x_flash.c ****  *
 338:../Peripheral/src/ch32v30x_flash.c ****  * @brief   Programs a half word at a specified Option Byte Data address.
 339:../Peripheral/src/ch32v30x_flash.c ****  *
 340:../Peripheral/src/ch32v30x_flash.c ****  * @param   Address - specifies the address to be programmed.
 341:../Peripheral/src/ch32v30x_flash.c ****  *          Data - specifies the data to be programmed.
 342:../Peripheral/src/ch32v30x_flash.c ****  *
 343:../Peripheral/src/ch32v30x_flash.c ****  * @return  FLASH Status - The returned value can be: FLASH_BUSY, FLASH_ERROR_PG,
 344:../Peripheral/src/ch32v30x_flash.c ****  *        FLASH_ERROR_WRP, FLASH_COMPLETE or FLASH_TIMEOUT.
 345:../Peripheral/src/ch32v30x_flash.c ****  */
 346:../Peripheral/src/ch32v30x_flash.c **** FLASH_Status FLASH_ProgramOptionByteData(uint32_t Address, uint8_t Data)
 347:../Peripheral/src/ch32v30x_flash.c **** {
 348:../Peripheral/src/ch32v30x_flash.c ****     FLASH_Status status = FLASH_COMPLETE;
 349:../Peripheral/src/ch32v30x_flash.c ****     uint32_t     Addr = 0x1FFFF800;
 350:../Peripheral/src/ch32v30x_flash.c ****     __IO uint8_t i;
 351:../Peripheral/src/ch32v30x_flash.c ****     uint16_t     pbuf[8];
 352:../Peripheral/src/ch32v30x_flash.c **** 
 353:../Peripheral/src/ch32v30x_flash.c ****     status = FLASH_WaitForLastOperation(ProgramTimeout);
 354:../Peripheral/src/ch32v30x_flash.c ****     if(status == FLASH_COMPLETE)
 355:../Peripheral/src/ch32v30x_flash.c ****     {
 356:../Peripheral/src/ch32v30x_flash.c ****         FLASH->OBKEYR = FLASH_KEY1;
 357:../Peripheral/src/ch32v30x_flash.c ****         FLASH->OBKEYR = FLASH_KEY2;
 358:../Peripheral/src/ch32v30x_flash.c **** 
 359:../Peripheral/src/ch32v30x_flash.c ****         /* Read optionbytes */
 360:../Peripheral/src/ch32v30x_flash.c ****         for(i = 0; i < 8; i++)
 361:../Peripheral/src/ch32v30x_flash.c ****         {
 362:../Peripheral/src/ch32v30x_flash.c ****             pbuf[i] = *(uint16_t *)(Addr + 2 * i);
 363:../Peripheral/src/ch32v30x_flash.c ****         }
 364:../Peripheral/src/ch32v30x_flash.c **** 
 365:../Peripheral/src/ch32v30x_flash.c ****         /* Erase optionbytes */
 366:../Peripheral/src/ch32v30x_flash.c ****         FLASH->CTLR |= CR_OPTER_Set;
 367:../Peripheral/src/ch32v30x_flash.c ****         FLASH->CTLR |= CR_STRT_Set;
 368:../Peripheral/src/ch32v30x_flash.c ****         while(FLASH->STATR & SR_BSY)
 369:../Peripheral/src/ch32v30x_flash.c ****             ;
 370:../Peripheral/src/ch32v30x_flash.c ****         FLASH->CTLR &= ~CR_OPTER_Set;
 371:../Peripheral/src/ch32v30x_flash.c **** 
 372:../Peripheral/src/ch32v30x_flash.c ****         /* Write optionbytes */
 373:../Peripheral/src/ch32v30x_flash.c ****         pbuf[((Address - 0x1FFFF800) / 2)] = ((((uint16_t) ~(Data)) << 8) | ((uint16_t)Data));
 374:../Peripheral/src/ch32v30x_flash.c **** 
 375:../Peripheral/src/ch32v30x_flash.c ****         FLASH->CTLR |= CR_OPTPG_Set;
 376:../Peripheral/src/ch32v30x_flash.c **** 
 377:../Peripheral/src/ch32v30x_flash.c ****         for(i = 0; i < 8; i++)
 378:../Peripheral/src/ch32v30x_flash.c ****         {
 379:../Peripheral/src/ch32v30x_flash.c ****             *(uint16_t *)(Addr + 2 * i) = pbuf[i];
 380:../Peripheral/src/ch32v30x_flash.c ****             while(FLASH->STATR & SR_BSY)
 381:../Peripheral/src/ch32v30x_flash.c ****                 ;
 382:../Peripheral/src/ch32v30x_flash.c ****         }
 383:../Peripheral/src/ch32v30x_flash.c **** 
 384:../Peripheral/src/ch32v30x_flash.c ****         FLASH->CTLR &= ~CR_OPTPG_Set;
 385:../Peripheral/src/ch32v30x_flash.c ****     }
 386:../Peripheral/src/ch32v30x_flash.c **** 
 387:../Peripheral/src/ch32v30x_flash.c ****     return status;
 388:../Peripheral/src/ch32v30x_flash.c **** }
 389:../Peripheral/src/ch32v30x_flash.c **** 
 390:../Peripheral/src/ch32v30x_flash.c **** /*********************************************************************
 391:../Peripheral/src/ch32v30x_flash.c ****  * @fn      FLASH_EnableWriteProtection
 392:../Peripheral/src/ch32v30x_flash.c ****  *
 393:../Peripheral/src/ch32v30x_flash.c ****  * @brief   Write protects the desired sectors
 394:../Peripheral/src/ch32v30x_flash.c ****  *
 395:../Peripheral/src/ch32v30x_flash.c ****  * @param   FLASH_Sectors - specifies the address of the pages to be write protected.
 396:../Peripheral/src/ch32v30x_flash.c ****  *
 397:../Peripheral/src/ch32v30x_flash.c ****  * @return  FLASH Status - The returned value can be: FLASH_BUSY, FLASH_ERROR_PG,
 398:../Peripheral/src/ch32v30x_flash.c ****  *        FLASH_ERROR_WRP, FLASH_COMPLETE or FLASH_TIMEOUT.
 399:../Peripheral/src/ch32v30x_flash.c ****  */
 400:../Peripheral/src/ch32v30x_flash.c **** FLASH_Status FLASH_EnableWriteProtection(uint32_t FLASH_Sectors)
 401:../Peripheral/src/ch32v30x_flash.c **** {
 402:../Peripheral/src/ch32v30x_flash.c ****     uint16_t     WRP0_Data = 0xFFFF, WRP1_Data = 0xFFFF, WRP2_Data = 0xFFFF, WRP3_Data = 0xFFFF;
 403:../Peripheral/src/ch32v30x_flash.c ****     FLASH_Status status = FLASH_COMPLETE;
 404:../Peripheral/src/ch32v30x_flash.c ****     uint32_t     Addr = 0x1FFFF800;
 405:../Peripheral/src/ch32v30x_flash.c ****     __IO uint8_t i;
 406:../Peripheral/src/ch32v30x_flash.c ****     uint16_t     pbuf[8];
 407:../Peripheral/src/ch32v30x_flash.c **** 
 408:../Peripheral/src/ch32v30x_flash.c ****     FLASH_Sectors = (uint32_t)(~FLASH_Sectors);
 409:../Peripheral/src/ch32v30x_flash.c ****     WRP0_Data = (uint16_t)(FLASH_Sectors & WRP0_Mask);
 410:../Peripheral/src/ch32v30x_flash.c ****     WRP1_Data = (uint16_t)((FLASH_Sectors & WRP1_Mask) >> 8);
 411:../Peripheral/src/ch32v30x_flash.c ****     WRP2_Data = (uint16_t)((FLASH_Sectors & WRP2_Mask) >> 16);
 412:../Peripheral/src/ch32v30x_flash.c ****     WRP3_Data = (uint16_t)((FLASH_Sectors & WRP3_Mask) >> 24);
 413:../Peripheral/src/ch32v30x_flash.c **** 
 414:../Peripheral/src/ch32v30x_flash.c ****     status = FLASH_WaitForLastOperation(ProgramTimeout);
 415:../Peripheral/src/ch32v30x_flash.c **** 
 416:../Peripheral/src/ch32v30x_flash.c ****     if(status == FLASH_COMPLETE)
 417:../Peripheral/src/ch32v30x_flash.c ****     {
 418:../Peripheral/src/ch32v30x_flash.c ****         FLASH->OBKEYR = FLASH_KEY1;
 419:../Peripheral/src/ch32v30x_flash.c ****         FLASH->OBKEYR = FLASH_KEY2;
 420:../Peripheral/src/ch32v30x_flash.c **** 
 421:../Peripheral/src/ch32v30x_flash.c ****         /* Read optionbytes */
 422:../Peripheral/src/ch32v30x_flash.c ****         for(i = 0; i < 8; i++)
 423:../Peripheral/src/ch32v30x_flash.c ****         {
 424:../Peripheral/src/ch32v30x_flash.c ****             pbuf[i] = *(uint16_t *)(Addr + 2 * i);
 425:../Peripheral/src/ch32v30x_flash.c ****         }
 426:../Peripheral/src/ch32v30x_flash.c **** 
 427:../Peripheral/src/ch32v30x_flash.c ****         /* Erase optionbytes */
 428:../Peripheral/src/ch32v30x_flash.c ****         FLASH->CTLR |= CR_OPTER_Set;
 429:../Peripheral/src/ch32v30x_flash.c ****         FLASH->CTLR |= CR_STRT_Set;
 430:../Peripheral/src/ch32v30x_flash.c ****         while(FLASH->STATR & SR_BSY)
 431:../Peripheral/src/ch32v30x_flash.c ****             ;
 432:../Peripheral/src/ch32v30x_flash.c ****         FLASH->CTLR &= ~CR_OPTER_Set;
 433:../Peripheral/src/ch32v30x_flash.c **** 
 434:../Peripheral/src/ch32v30x_flash.c ****         /* Write optionbytes */
 435:../Peripheral/src/ch32v30x_flash.c ****         pbuf[4] = WRP0_Data;
 436:../Peripheral/src/ch32v30x_flash.c ****         pbuf[5] = WRP1_Data;
 437:../Peripheral/src/ch32v30x_flash.c ****         pbuf[6] = WRP2_Data;
 438:../Peripheral/src/ch32v30x_flash.c ****         pbuf[7] = WRP3_Data;
 439:../Peripheral/src/ch32v30x_flash.c **** 
 440:../Peripheral/src/ch32v30x_flash.c ****         FLASH->CTLR |= CR_OPTPG_Set;
 441:../Peripheral/src/ch32v30x_flash.c ****         for(i = 0; i < 8; i++)
 442:../Peripheral/src/ch32v30x_flash.c ****         {
 443:../Peripheral/src/ch32v30x_flash.c ****             *(uint16_t *)(Addr + 2 * i) = pbuf[i];
 444:../Peripheral/src/ch32v30x_flash.c ****             while(FLASH->STATR & SR_BSY)
 445:../Peripheral/src/ch32v30x_flash.c ****                 ;
 446:../Peripheral/src/ch32v30x_flash.c ****         }
 447:../Peripheral/src/ch32v30x_flash.c ****         FLASH->CTLR &= ~CR_OPTPG_Set;
 448:../Peripheral/src/ch32v30x_flash.c ****     }
 449:../Peripheral/src/ch32v30x_flash.c ****     return status;
 450:../Peripheral/src/ch32v30x_flash.c **** }
 451:../Peripheral/src/ch32v30x_flash.c **** 
 452:../Peripheral/src/ch32v30x_flash.c **** /*********************************************************************
 453:../Peripheral/src/ch32v30x_flash.c ****  * @fn      FLASH_ReadOutProtection
 454:../Peripheral/src/ch32v30x_flash.c ****  *
 455:../Peripheral/src/ch32v30x_flash.c ****  * @brief   Enables or disables the read out protection.
 456:../Peripheral/src/ch32v30x_flash.c ****  *
 457:../Peripheral/src/ch32v30x_flash.c ****  * @param   Newstate - new state of the ReadOut Protection(ENABLE or DISABLE).
 458:../Peripheral/src/ch32v30x_flash.c ****  *
 459:../Peripheral/src/ch32v30x_flash.c ****  * @return  FLASH Status - The returned value can be: FLASH_BUSY, FLASH_ERROR_PG,
 460:../Peripheral/src/ch32v30x_flash.c ****  *        FLASH_ERROR_WRP, FLASH_COMPLETE or FLASH_TIMEOUT.
 461:../Peripheral/src/ch32v30x_flash.c ****  */
 462:../Peripheral/src/ch32v30x_flash.c **** FLASH_Status FLASH_ReadOutProtection(FunctionalState NewState)
 463:../Peripheral/src/ch32v30x_flash.c **** {
 464:../Peripheral/src/ch32v30x_flash.c ****     FLASH_Status status = FLASH_COMPLETE;
 465:../Peripheral/src/ch32v30x_flash.c ****     uint32_t     Addr = 0x1FFFF800;
 466:../Peripheral/src/ch32v30x_flash.c ****     __IO uint8_t i;
 467:../Peripheral/src/ch32v30x_flash.c ****     uint16_t     pbuf[8];
 468:../Peripheral/src/ch32v30x_flash.c **** 
 469:../Peripheral/src/ch32v30x_flash.c ****     status = FLASH_WaitForLastOperation(EraseTimeout);
 470:../Peripheral/src/ch32v30x_flash.c ****     if(status == FLASH_COMPLETE)
 471:../Peripheral/src/ch32v30x_flash.c ****     {
 472:../Peripheral/src/ch32v30x_flash.c ****         FLASH->OBKEYR = FLASH_KEY1;
 473:../Peripheral/src/ch32v30x_flash.c ****         FLASH->OBKEYR = FLASH_KEY2;
 474:../Peripheral/src/ch32v30x_flash.c **** 
 475:../Peripheral/src/ch32v30x_flash.c ****         /* Read optionbytes */
 476:../Peripheral/src/ch32v30x_flash.c ****         for(i = 0; i < 8; i++)
 477:../Peripheral/src/ch32v30x_flash.c ****         {
 478:../Peripheral/src/ch32v30x_flash.c ****             pbuf[i] = *(uint16_t *)(Addr + 2 * i);
 479:../Peripheral/src/ch32v30x_flash.c ****         }
 480:../Peripheral/src/ch32v30x_flash.c **** 
 481:../Peripheral/src/ch32v30x_flash.c ****         /* Erase optionbytes */
 482:../Peripheral/src/ch32v30x_flash.c ****         FLASH->CTLR |= CR_OPTER_Set;
 483:../Peripheral/src/ch32v30x_flash.c ****         FLASH->CTLR |= CR_STRT_Set;
 484:../Peripheral/src/ch32v30x_flash.c ****         while(FLASH->STATR & SR_BSY)
 485:../Peripheral/src/ch32v30x_flash.c ****             ;
 486:../Peripheral/src/ch32v30x_flash.c ****         FLASH->CTLR &= ~CR_OPTER_Set;
 487:../Peripheral/src/ch32v30x_flash.c **** 
 488:../Peripheral/src/ch32v30x_flash.c ****         /* Write optionbytes */
 489:../Peripheral/src/ch32v30x_flash.c ****         if(NewState == DISABLE)
 490:../Peripheral/src/ch32v30x_flash.c ****             pbuf[0] = 0x5AA5;
 491:../Peripheral/src/ch32v30x_flash.c ****         else
 492:../Peripheral/src/ch32v30x_flash.c ****             pbuf[0] = 0x00FF;
 493:../Peripheral/src/ch32v30x_flash.c **** 
 494:../Peripheral/src/ch32v30x_flash.c ****         FLASH->CTLR |= CR_OPTPG_Set;
 495:../Peripheral/src/ch32v30x_flash.c ****         for(i = 0; i < 8; i++)
 496:../Peripheral/src/ch32v30x_flash.c ****         {
 497:../Peripheral/src/ch32v30x_flash.c ****             *(uint16_t *)(Addr + 2 * i) = pbuf[i];
 498:../Peripheral/src/ch32v30x_flash.c ****             while(FLASH->STATR & SR_BSY)
 499:../Peripheral/src/ch32v30x_flash.c ****                 ;
 500:../Peripheral/src/ch32v30x_flash.c ****         }
 501:../Peripheral/src/ch32v30x_flash.c ****         FLASH->CTLR &= ~CR_OPTPG_Set;
 502:../Peripheral/src/ch32v30x_flash.c ****     }
 503:../Peripheral/src/ch32v30x_flash.c ****     return status;
 504:../Peripheral/src/ch32v30x_flash.c **** }
 505:../Peripheral/src/ch32v30x_flash.c **** 
 506:../Peripheral/src/ch32v30x_flash.c **** /*********************************************************************
 507:../Peripheral/src/ch32v30x_flash.c ****  * @fn      FLASH_UserOptionByteConfig
 508:../Peripheral/src/ch32v30x_flash.c ****  *
 509:../Peripheral/src/ch32v30x_flash.c ****  * @brief   Programs the FLASH User Option Byte - IWDG_SW / RST_STOP / RST_STDBY.
 510:../Peripheral/src/ch32v30x_flash.c ****  *
 511:../Peripheral/src/ch32v30x_flash.c ****  * @param   OB_IWDG - Selects the IWDG mode
 512:../Peripheral/src/ch32v30x_flash.c ****  *            OB_IWDG_SW - Software IWDG selected
 513:../Peripheral/src/ch32v30x_flash.c ****  *            OB_IWDG_HW - Hardware IWDG selected
 514:../Peripheral/src/ch32v30x_flash.c ****  *          OB_STOP - Reset event when entering STOP mode.
 515:../Peripheral/src/ch32v30x_flash.c ****  *            OB_STOP_NoRST - No reset generated when entering in STOP
 516:../Peripheral/src/ch32v30x_flash.c ****  *            OB_STOP_RST - Reset generated when entering in STOP
 517:../Peripheral/src/ch32v30x_flash.c ****  *          OB_STDBY - Reset event when entering Standby mode.
 518:../Peripheral/src/ch32v30x_flash.c ****  *            OB_STDBY_NoRST - No reset generated when entering in STANDBY
 519:../Peripheral/src/ch32v30x_flash.c ****  *            OB_STDBY_RST - Reset generated when entering in STANDBY
 520:../Peripheral/src/ch32v30x_flash.c ****  *
 521:../Peripheral/src/ch32v30x_flash.c ****  * @return  FLASH Status - The returned value can be: FLASH_BUSY, FLASH_ERROR_PG,
 522:../Peripheral/src/ch32v30x_flash.c ****  *        FLASH_ERROR_WRP, FLASH_COMPLETE or FLASH_TIMEOUT.
 523:../Peripheral/src/ch32v30x_flash.c ****  */
 524:../Peripheral/src/ch32v30x_flash.c **** FLASH_Status FLASH_UserOptionByteConfig(uint16_t OB_IWDG, uint16_t OB_STOP, uint16_t OB_STDBY)
 525:../Peripheral/src/ch32v30x_flash.c **** {
 526:../Peripheral/src/ch32v30x_flash.c ****     FLASH_Status status = FLASH_COMPLETE;
 527:../Peripheral/src/ch32v30x_flash.c ****     uint32_t     Addr = 0x1FFFF800;
 528:../Peripheral/src/ch32v30x_flash.c ****     __IO uint8_t i;
 529:../Peripheral/src/ch32v30x_flash.c ****     uint16_t     pbuf[8];
 530:../Peripheral/src/ch32v30x_flash.c **** 
 531:../Peripheral/src/ch32v30x_flash.c ****     FLASH->OBKEYR = FLASH_KEY1;
 532:../Peripheral/src/ch32v30x_flash.c ****     FLASH->OBKEYR = FLASH_KEY2;
 533:../Peripheral/src/ch32v30x_flash.c ****     status = FLASH_WaitForLastOperation(ProgramTimeout);
 534:../Peripheral/src/ch32v30x_flash.c **** 
 535:../Peripheral/src/ch32v30x_flash.c ****     if(status == FLASH_COMPLETE)
 536:../Peripheral/src/ch32v30x_flash.c ****     {
 537:../Peripheral/src/ch32v30x_flash.c ****         /* Read optionbytes */
 538:../Peripheral/src/ch32v30x_flash.c ****         for(i = 0; i < 8; i++)
 539:../Peripheral/src/ch32v30x_flash.c ****         {
 540:../Peripheral/src/ch32v30x_flash.c ****             pbuf[i] = *(uint16_t *)(Addr + 2 * i);
 541:../Peripheral/src/ch32v30x_flash.c ****         }
 542:../Peripheral/src/ch32v30x_flash.c **** 
 543:../Peripheral/src/ch32v30x_flash.c ****         /* Erase optionbytes */
 544:../Peripheral/src/ch32v30x_flash.c ****         FLASH->CTLR |= CR_OPTER_Set;
 545:../Peripheral/src/ch32v30x_flash.c ****         FLASH->CTLR |= CR_STRT_Set;
 546:../Peripheral/src/ch32v30x_flash.c ****         while(FLASH->STATR & SR_BSY)
 547:../Peripheral/src/ch32v30x_flash.c ****             ;
 548:../Peripheral/src/ch32v30x_flash.c ****         FLASH->CTLR &= ~CR_OPTER_Set;
 549:../Peripheral/src/ch32v30x_flash.c **** 
 550:../Peripheral/src/ch32v30x_flash.c ****         /* Write optionbytes */
 551:../Peripheral/src/ch32v30x_flash.c ****         pbuf[1] = OB_IWDG | (uint16_t)(OB_STOP | (uint16_t)(OB_STDBY | ((uint16_t)0xF8)));
 552:../Peripheral/src/ch32v30x_flash.c **** 
 553:../Peripheral/src/ch32v30x_flash.c ****         FLASH->CTLR |= CR_OPTPG_Set;
 554:../Peripheral/src/ch32v30x_flash.c ****         for(i = 0; i < 8; i++)
 555:../Peripheral/src/ch32v30x_flash.c ****         {
 556:../Peripheral/src/ch32v30x_flash.c ****             *(uint16_t *)(Addr + 2 * i) = pbuf[i];
 557:../Peripheral/src/ch32v30x_flash.c ****             while(FLASH->STATR & SR_BSY)
 558:../Peripheral/src/ch32v30x_flash.c ****                 ;
 559:../Peripheral/src/ch32v30x_flash.c ****         }
 560:../Peripheral/src/ch32v30x_flash.c ****         FLASH->CTLR &= ~CR_OPTPG_Set;
 561:../Peripheral/src/ch32v30x_flash.c ****     }
 562:../Peripheral/src/ch32v30x_flash.c ****     return status;
 563:../Peripheral/src/ch32v30x_flash.c **** }
 564:../Peripheral/src/ch32v30x_flash.c **** 
 565:../Peripheral/src/ch32v30x_flash.c **** /*********************************************************************
 566:../Peripheral/src/ch32v30x_flash.c ****  * @fn      FLASH_GetUserOptionByte
 567:../Peripheral/src/ch32v30x_flash.c ****  *
 568:../Peripheral/src/ch32v30x_flash.c ****  * @brief   Returns the FLASH User Option Bytes values.
 569:../Peripheral/src/ch32v30x_flash.c ****  *
 570:../Peripheral/src/ch32v30x_flash.c ****  * @return  The FLASH User Option Bytes values:IWDG_SW(Bit0), RST_STOP(Bit1)
 571:../Peripheral/src/ch32v30x_flash.c ****  *        and RST_STDBY(Bit2).
 572:../Peripheral/src/ch32v30x_flash.c ****  */
 573:../Peripheral/src/ch32v30x_flash.c **** uint32_t FLASH_GetUserOptionByte(void)
 574:../Peripheral/src/ch32v30x_flash.c **** {
 575:../Peripheral/src/ch32v30x_flash.c ****     return (uint32_t)(FLASH->OBR >> 2);
 576:../Peripheral/src/ch32v30x_flash.c **** }
 577:../Peripheral/src/ch32v30x_flash.c **** 
 578:../Peripheral/src/ch32v30x_flash.c **** /*********************************************************************
 579:../Peripheral/src/ch32v30x_flash.c ****  * @fn      FLASH_GetWriteProtectionOptionByte
 580:../Peripheral/src/ch32v30x_flash.c ****  *
 581:../Peripheral/src/ch32v30x_flash.c ****  * @brief   Returns the FLASH Write Protection Option Bytes Register value.
 582:../Peripheral/src/ch32v30x_flash.c ****  *
 583:../Peripheral/src/ch32v30x_flash.c ****  * @return  The FLASH Write Protection Option Bytes Register value.
 584:../Peripheral/src/ch32v30x_flash.c ****  */
 585:../Peripheral/src/ch32v30x_flash.c **** uint32_t FLASH_GetWriteProtectionOptionByte(void)
 586:../Peripheral/src/ch32v30x_flash.c **** {
 587:../Peripheral/src/ch32v30x_flash.c ****     return (uint32_t)(FLASH->WPR);
 588:../Peripheral/src/ch32v30x_flash.c **** }
 589:../Peripheral/src/ch32v30x_flash.c **** 
 590:../Peripheral/src/ch32v30x_flash.c **** /*********************************************************************
 591:../Peripheral/src/ch32v30x_flash.c ****  * @fn      FLASH_GetReadOutProtectionStatus
 592:../Peripheral/src/ch32v30x_flash.c ****  *
 593:../Peripheral/src/ch32v30x_flash.c ****  * @brief   Checks whether the FLASH Read Out Protection Status is set or not.
 594:../Peripheral/src/ch32v30x_flash.c ****  *
 595:../Peripheral/src/ch32v30x_flash.c ****  * @return  FLASH ReadOut Protection Status(SET or RESET)
 596:../Peripheral/src/ch32v30x_flash.c ****  */
 597:../Peripheral/src/ch32v30x_flash.c **** FlagStatus FLASH_GetReadOutProtectionStatus(void)
 598:../Peripheral/src/ch32v30x_flash.c **** {
 599:../Peripheral/src/ch32v30x_flash.c ****     FlagStatus readoutstatus = RESET;
 600:../Peripheral/src/ch32v30x_flash.c ****     if((FLASH->OBR & RDPRT_Mask) != (uint32_t)RESET)
 601:../Peripheral/src/ch32v30x_flash.c ****     {
 602:../Peripheral/src/ch32v30x_flash.c ****         readoutstatus = SET;
 603:../Peripheral/src/ch32v30x_flash.c ****     }
 604:../Peripheral/src/ch32v30x_flash.c ****     else
 605:../Peripheral/src/ch32v30x_flash.c ****     {
 606:../Peripheral/src/ch32v30x_flash.c ****         readoutstatus = RESET;
 607:../Peripheral/src/ch32v30x_flash.c ****     }
 608:../Peripheral/src/ch32v30x_flash.c ****     return readoutstatus;
 609:../Peripheral/src/ch32v30x_flash.c **** }
 610:../Peripheral/src/ch32v30x_flash.c **** 
 611:../Peripheral/src/ch32v30x_flash.c **** /*********************************************************************
 612:../Peripheral/src/ch32v30x_flash.c ****  * @fn      FLASH_ITConfig
 613:../Peripheral/src/ch32v30x_flash.c ****  *
 614:../Peripheral/src/ch32v30x_flash.c ****  * @brief   Enables or disables the specified FLASH interrupts.
 615:../Peripheral/src/ch32v30x_flash.c ****  *
 616:../Peripheral/src/ch32v30x_flash.c ****  * @param   FLASH_IT - specifies the FLASH interrupt sources to be enabled or disabled.
 617:../Peripheral/src/ch32v30x_flash.c ****  *            FLASH_IT_ERROR - FLASH Error Interrupt
 618:../Peripheral/src/ch32v30x_flash.c ****  *            FLASH_IT_EOP - FLASH end of operation Interrupt
 619:../Peripheral/src/ch32v30x_flash.c ****  *          NewState - new state of the specified Flash interrupts(ENABLE or DISABLE).
 620:../Peripheral/src/ch32v30x_flash.c ****  *
 621:../Peripheral/src/ch32v30x_flash.c ****  * @return  FLASH Prefetch Buffer Status (SET or RESET).
 622:../Peripheral/src/ch32v30x_flash.c ****  */
 623:../Peripheral/src/ch32v30x_flash.c **** void FLASH_ITConfig(uint32_t FLASH_IT, FunctionalState NewState)
 624:../Peripheral/src/ch32v30x_flash.c **** {
 625:../Peripheral/src/ch32v30x_flash.c ****     if(NewState != DISABLE)
 626:../Peripheral/src/ch32v30x_flash.c ****     {
 627:../Peripheral/src/ch32v30x_flash.c ****         FLASH->CTLR |= FLASH_IT;
 628:../Peripheral/src/ch32v30x_flash.c ****     }
 629:../Peripheral/src/ch32v30x_flash.c ****     else
 630:../Peripheral/src/ch32v30x_flash.c ****     {
 631:../Peripheral/src/ch32v30x_flash.c ****         FLASH->CTLR &= ~(uint32_t)FLASH_IT;
 632:../Peripheral/src/ch32v30x_flash.c ****     }
 633:../Peripheral/src/ch32v30x_flash.c **** }
 634:../Peripheral/src/ch32v30x_flash.c **** 
 635:../Peripheral/src/ch32v30x_flash.c **** /*********************************************************************
 636:../Peripheral/src/ch32v30x_flash.c ****  * @fn      FLASH_GetFlagStatus
 637:../Peripheral/src/ch32v30x_flash.c ****  *
 638:../Peripheral/src/ch32v30x_flash.c ****  * @brief   Checks whether the specified FLASH flag is set or not.
 639:../Peripheral/src/ch32v30x_flash.c ****  *
 640:../Peripheral/src/ch32v30x_flash.c ****  * @param   FLASH_FLAG - specifies the FLASH flag to check.
 641:../Peripheral/src/ch32v30x_flash.c ****  *            FLASH_FLAG_BSY - FLASH Busy flag
 642:../Peripheral/src/ch32v30x_flash.c ****  *            FLASH_FLAG_WRPRTERR - FLASH Write protected error flag
 643:../Peripheral/src/ch32v30x_flash.c ****  *            FLASH_FLAG_EOP - FLASH End of Operation flag
 644:../Peripheral/src/ch32v30x_flash.c ****  *            FLASH_FLAG_OPTERR - FLASH Option Byte error flag
 645:../Peripheral/src/ch32v30x_flash.c ****  *
 646:../Peripheral/src/ch32v30x_flash.c ****  * @return  The new state of FLASH_FLAG (SET or RESET).
 647:../Peripheral/src/ch32v30x_flash.c ****  */
 648:../Peripheral/src/ch32v30x_flash.c **** FlagStatus FLASH_GetFlagStatus(uint32_t FLASH_FLAG)
 649:../Peripheral/src/ch32v30x_flash.c **** {
 650:../Peripheral/src/ch32v30x_flash.c ****     FlagStatus bitstatus = RESET;
 651:../Peripheral/src/ch32v30x_flash.c **** 
 652:../Peripheral/src/ch32v30x_flash.c ****     if(FLASH_FLAG == FLASH_FLAG_OPTERR)
 653:../Peripheral/src/ch32v30x_flash.c ****     {
 654:../Peripheral/src/ch32v30x_flash.c ****         if((FLASH->OBR & FLASH_FLAG_OPTERR) != (uint32_t)RESET)
 655:../Peripheral/src/ch32v30x_flash.c ****         {
 656:../Peripheral/src/ch32v30x_flash.c ****             bitstatus = SET;
 657:../Peripheral/src/ch32v30x_flash.c ****         }
 658:../Peripheral/src/ch32v30x_flash.c ****         else
 659:../Peripheral/src/ch32v30x_flash.c ****         {
 660:../Peripheral/src/ch32v30x_flash.c ****             bitstatus = RESET;
 661:../Peripheral/src/ch32v30x_flash.c ****         }
 662:../Peripheral/src/ch32v30x_flash.c ****     }
 663:../Peripheral/src/ch32v30x_flash.c ****     else
 664:../Peripheral/src/ch32v30x_flash.c ****     {
 665:../Peripheral/src/ch32v30x_flash.c ****         if((FLASH->STATR & FLASH_FLAG) != (uint32_t)RESET)
 666:../Peripheral/src/ch32v30x_flash.c ****         {
 667:../Peripheral/src/ch32v30x_flash.c ****             bitstatus = SET;
 668:../Peripheral/src/ch32v30x_flash.c ****         }
 669:../Peripheral/src/ch32v30x_flash.c ****         else
 670:../Peripheral/src/ch32v30x_flash.c ****         {
 671:../Peripheral/src/ch32v30x_flash.c ****             bitstatus = RESET;
 672:../Peripheral/src/ch32v30x_flash.c ****         }
 673:../Peripheral/src/ch32v30x_flash.c ****     }
 674:../Peripheral/src/ch32v30x_flash.c ****     return bitstatus;
 675:../Peripheral/src/ch32v30x_flash.c **** }
 676:../Peripheral/src/ch32v30x_flash.c **** 
 677:../Peripheral/src/ch32v30x_flash.c **** /*********************************************************************
 678:../Peripheral/src/ch32v30x_flash.c ****  * @fn      FLASH_ClearFlag
 679:../Peripheral/src/ch32v30x_flash.c ****  *
 680:../Peripheral/src/ch32v30x_flash.c ****  * @brief   Clears the FLASH's pending flags.
 681:../Peripheral/src/ch32v30x_flash.c ****  *
 682:../Peripheral/src/ch32v30x_flash.c ****  * @param   FLASH_FLAG - specifies the FLASH flags to clear.
 683:../Peripheral/src/ch32v30x_flash.c ****  *            FLASH_FLAG_WRPRTERR - FLASH Write protected error flag
 684:../Peripheral/src/ch32v30x_flash.c ****  *            FLASH_FLAG_EOP - FLASH End of Operation flag
 685:../Peripheral/src/ch32v30x_flash.c ****  *
 686:../Peripheral/src/ch32v30x_flash.c ****  * @return  none
 687:../Peripheral/src/ch32v30x_flash.c ****  */
 688:../Peripheral/src/ch32v30x_flash.c **** void FLASH_ClearFlag(uint32_t FLASH_FLAG)
 689:../Peripheral/src/ch32v30x_flash.c **** {
 690:../Peripheral/src/ch32v30x_flash.c ****     FLASH->STATR = FLASH_FLAG;
 691:../Peripheral/src/ch32v30x_flash.c **** }
 692:../Peripheral/src/ch32v30x_flash.c **** 
 693:../Peripheral/src/ch32v30x_flash.c **** /*********************************************************************
 694:../Peripheral/src/ch32v30x_flash.c ****  * @fn      FLASH_GetStatus
 695:../Peripheral/src/ch32v30x_flash.c ****  *
 696:../Peripheral/src/ch32v30x_flash.c ****  * @brief   Returns the FLASH Status.
 697:../Peripheral/src/ch32v30x_flash.c ****  *
 698:../Peripheral/src/ch32v30x_flash.c ****  * @return  FLASH Status - The returned value can be: FLASH_BUSY, FLASH_ERROR_PG,
 699:../Peripheral/src/ch32v30x_flash.c ****  *        FLASH_ERROR_WRP or FLASH_COMPLETE.
 700:../Peripheral/src/ch32v30x_flash.c ****  */
 701:../Peripheral/src/ch32v30x_flash.c **** FLASH_Status FLASH_GetStatus(void)
 702:../Peripheral/src/ch32v30x_flash.c **** {
 703:../Peripheral/src/ch32v30x_flash.c ****     FLASH_Status flashstatus = FLASH_COMPLETE;
 704:../Peripheral/src/ch32v30x_flash.c **** 
 705:../Peripheral/src/ch32v30x_flash.c ****     if((FLASH->STATR & FLASH_FLAG_BSY) == FLASH_FLAG_BSY)
 706:../Peripheral/src/ch32v30x_flash.c ****     {
 707:../Peripheral/src/ch32v30x_flash.c ****         flashstatus = FLASH_BUSY;
 708:../Peripheral/src/ch32v30x_flash.c ****     }
 709:../Peripheral/src/ch32v30x_flash.c ****     else
 710:../Peripheral/src/ch32v30x_flash.c ****     {
 711:../Peripheral/src/ch32v30x_flash.c ****         if((FLASH->STATR & FLASH_FLAG_WRPRTERR) != 0)
 712:../Peripheral/src/ch32v30x_flash.c ****         {
 713:../Peripheral/src/ch32v30x_flash.c ****             flashstatus = FLASH_ERROR_WRP;
 714:../Peripheral/src/ch32v30x_flash.c ****         }
 715:../Peripheral/src/ch32v30x_flash.c ****         else
 716:../Peripheral/src/ch32v30x_flash.c ****         {
 717:../Peripheral/src/ch32v30x_flash.c ****             flashstatus = FLASH_COMPLETE;
 718:../Peripheral/src/ch32v30x_flash.c ****         }
 719:../Peripheral/src/ch32v30x_flash.c ****     }
 720:../Peripheral/src/ch32v30x_flash.c ****     return flashstatus;
 721:../Peripheral/src/ch32v30x_flash.c **** }
 722:../Peripheral/src/ch32v30x_flash.c **** 
 723:../Peripheral/src/ch32v30x_flash.c **** /*********************************************************************
 724:../Peripheral/src/ch32v30x_flash.c ****  * @fn      FLASH_GetBank1Status
 725:../Peripheral/src/ch32v30x_flash.c ****  *
 726:../Peripheral/src/ch32v30x_flash.c ****  * @brief   Returns the FLASH Bank1 Status.
 727:../Peripheral/src/ch32v30x_flash.c ****  *
 728:../Peripheral/src/ch32v30x_flash.c ****  * @return  FLASH Status - The returned value can be: FLASH_BUSY, FLASH_ERROR_PG,
 729:../Peripheral/src/ch32v30x_flash.c ****  *        FLASH_ERROR_WRP or FLASH_COMPLETE.
 730:../Peripheral/src/ch32v30x_flash.c ****  */
 731:../Peripheral/src/ch32v30x_flash.c **** FLASH_Status FLASH_GetBank1Status(void)
 732:../Peripheral/src/ch32v30x_flash.c **** {
 733:../Peripheral/src/ch32v30x_flash.c ****     FLASH_Status flashstatus = FLASH_COMPLETE;
 734:../Peripheral/src/ch32v30x_flash.c **** 
 735:../Peripheral/src/ch32v30x_flash.c ****     if((FLASH->STATR & FLASH_FLAG_BANK1_BSY) == FLASH_FLAG_BSY)
 736:../Peripheral/src/ch32v30x_flash.c ****     {
 737:../Peripheral/src/ch32v30x_flash.c ****         flashstatus = FLASH_BUSY;
 738:../Peripheral/src/ch32v30x_flash.c ****     }
 739:../Peripheral/src/ch32v30x_flash.c ****     else
 740:../Peripheral/src/ch32v30x_flash.c ****     {
 741:../Peripheral/src/ch32v30x_flash.c ****         if((FLASH->STATR & FLASH_FLAG_BANK1_WRPRTERR) != 0)
 742:../Peripheral/src/ch32v30x_flash.c ****         {
 743:../Peripheral/src/ch32v30x_flash.c ****             flashstatus = FLASH_ERROR_WRP;
 744:../Peripheral/src/ch32v30x_flash.c ****         }
 745:../Peripheral/src/ch32v30x_flash.c ****         else
 746:../Peripheral/src/ch32v30x_flash.c ****         {
 747:../Peripheral/src/ch32v30x_flash.c ****             flashstatus = FLASH_COMPLETE;
 748:../Peripheral/src/ch32v30x_flash.c ****         }
 749:../Peripheral/src/ch32v30x_flash.c ****     }
 750:../Peripheral/src/ch32v30x_flash.c ****     return flashstatus;
 751:../Peripheral/src/ch32v30x_flash.c **** }
 752:../Peripheral/src/ch32v30x_flash.c **** 
 753:../Peripheral/src/ch32v30x_flash.c **** /*********************************************************************
 754:../Peripheral/src/ch32v30x_flash.c ****  * @fn      FLASH_WaitForLastOperation
 755:../Peripheral/src/ch32v30x_flash.c ****  *
 756:../Peripheral/src/ch32v30x_flash.c ****  * @brief   Waits for a Flash operation to complete or a TIMEOUT to occur.
 757:../Peripheral/src/ch32v30x_flash.c ****  *
 758:../Peripheral/src/ch32v30x_flash.c ****  * @param   Timeout - FLASH programming Timeout
 759:../Peripheral/src/ch32v30x_flash.c ****  *
 760:../Peripheral/src/ch32v30x_flash.c ****  * @return  FLASH Status - The returned value can be: FLASH_BUSY, FLASH_ERROR_PG,
 761:../Peripheral/src/ch32v30x_flash.c ****  *        FLASH_ERROR_WRP or FLASH_COMPLETE.
 762:../Peripheral/src/ch32v30x_flash.c ****  */
 763:../Peripheral/src/ch32v30x_flash.c **** FLASH_Status FLASH_WaitForLastOperation(uint32_t Timeout)
 764:../Peripheral/src/ch32v30x_flash.c **** {
 765:../Peripheral/src/ch32v30x_flash.c ****     FLASH_Status status = FLASH_COMPLETE;
 766:../Peripheral/src/ch32v30x_flash.c **** 
 767:../Peripheral/src/ch32v30x_flash.c ****     status = FLASH_GetBank1Status();
 768:../Peripheral/src/ch32v30x_flash.c ****     while((status == FLASH_BUSY) && (Timeout != 0x00))
 769:../Peripheral/src/ch32v30x_flash.c ****     {
 770:../Peripheral/src/ch32v30x_flash.c ****         status = FLASH_GetBank1Status();
 771:../Peripheral/src/ch32v30x_flash.c ****         Timeout--;
 772:../Peripheral/src/ch32v30x_flash.c ****     }
 773:../Peripheral/src/ch32v30x_flash.c ****     if(Timeout == 0x00)
 774:../Peripheral/src/ch32v30x_flash.c ****     {
 775:../Peripheral/src/ch32v30x_flash.c ****         status = FLASH_TIMEOUT;
 776:../Peripheral/src/ch32v30x_flash.c ****     }
 777:../Peripheral/src/ch32v30x_flash.c ****     return status;
 778:../Peripheral/src/ch32v30x_flash.c **** }
 779:../Peripheral/src/ch32v30x_flash.c **** 
 780:../Peripheral/src/ch32v30x_flash.c **** /*********************************************************************
 781:../Peripheral/src/ch32v30x_flash.c ****  * @fn      FLASH_WaitForLastBank1Operation
 782:../Peripheral/src/ch32v30x_flash.c ****  *
 783:../Peripheral/src/ch32v30x_flash.c ****  * @brief   Waits for a Flash operation on Bank1 to complete or a TIMEOUT to occur.
 784:../Peripheral/src/ch32v30x_flash.c ****  *
 785:../Peripheral/src/ch32v30x_flash.c ****  * @param   Timeout - FLASH programming Timeout
 786:../Peripheral/src/ch32v30x_flash.c ****  *
 787:../Peripheral/src/ch32v30x_flash.c ****  * @return  FLASH Status - The returned value can be: FLASH_BUSY, FLASH_ERROR_PG,
 788:../Peripheral/src/ch32v30x_flash.c ****  *        FLASH_ERROR_WRP or FLASH_COMPLETE.
 789:../Peripheral/src/ch32v30x_flash.c ****  */
 790:../Peripheral/src/ch32v30x_flash.c **** FLASH_Status FLASH_WaitForLastBank1Operation(uint32_t Timeout)
 791:../Peripheral/src/ch32v30x_flash.c **** {
 792:../Peripheral/src/ch32v30x_flash.c ****     FLASH_Status status = FLASH_COMPLETE;
 793:../Peripheral/src/ch32v30x_flash.c **** 
 794:../Peripheral/src/ch32v30x_flash.c ****     status = FLASH_GetBank1Status();
 795:../Peripheral/src/ch32v30x_flash.c ****     while((status == FLASH_FLAG_BANK1_BSY) && (Timeout != 0x00))
 796:../Peripheral/src/ch32v30x_flash.c ****     {
 797:../Peripheral/src/ch32v30x_flash.c ****         status = FLASH_GetBank1Status();
 798:../Peripheral/src/ch32v30x_flash.c ****         Timeout--;
 799:../Peripheral/src/ch32v30x_flash.c ****     }
 800:../Peripheral/src/ch32v30x_flash.c ****     if(Timeout == 0x00)
 801:../Peripheral/src/ch32v30x_flash.c ****     {
 802:../Peripheral/src/ch32v30x_flash.c ****         status = FLASH_TIMEOUT;
 803:../Peripheral/src/ch32v30x_flash.c ****     }
 804:../Peripheral/src/ch32v30x_flash.c ****     return status;
 805:../Peripheral/src/ch32v30x_flash.c **** }
 806:../Peripheral/src/ch32v30x_flash.c **** 
 807:../Peripheral/src/ch32v30x_flash.c **** /*********************************************************************
 808:../Peripheral/src/ch32v30x_flash.c ****  * @fn      FLASH_Unlock_Fast
 809:../Peripheral/src/ch32v30x_flash.c ****  *
 810:../Peripheral/src/ch32v30x_flash.c ****  * @brief   Unlocks the Fast Program Erase Mode.
 811:../Peripheral/src/ch32v30x_flash.c ****  *
 812:../Peripheral/src/ch32v30x_flash.c ****  * @return  none
 813:../Peripheral/src/ch32v30x_flash.c ****  */
 814:../Peripheral/src/ch32v30x_flash.c **** void FLASH_Unlock_Fast(void)
 815:../Peripheral/src/ch32v30x_flash.c **** {
 816:../Peripheral/src/ch32v30x_flash.c ****     /* Authorize the FPEC of Bank1 Access */
 817:../Peripheral/src/ch32v30x_flash.c ****     FLASH->KEYR = FLASH_KEY1;
 818:../Peripheral/src/ch32v30x_flash.c ****     FLASH->KEYR = FLASH_KEY2;
 819:../Peripheral/src/ch32v30x_flash.c **** 
 820:../Peripheral/src/ch32v30x_flash.c ****     /* Fast program mode unlock */
 821:../Peripheral/src/ch32v30x_flash.c ****     FLASH->MODEKEYR = FLASH_KEY1;
 822:../Peripheral/src/ch32v30x_flash.c ****     FLASH->MODEKEYR = FLASH_KEY2;
 823:../Peripheral/src/ch32v30x_flash.c **** }
 824:../Peripheral/src/ch32v30x_flash.c **** 
 825:../Peripheral/src/ch32v30x_flash.c **** /*********************************************************************
 826:../Peripheral/src/ch32v30x_flash.c ****  * @fn      FLASH_Lock_Fast
 827:../Peripheral/src/ch32v30x_flash.c ****  *
 828:../Peripheral/src/ch32v30x_flash.c ****  * @brief   Locks the Fast Program Erase Mode.
 829:../Peripheral/src/ch32v30x_flash.c ****  *
 830:../Peripheral/src/ch32v30x_flash.c ****  * @return  none
 831:../Peripheral/src/ch32v30x_flash.c ****  */
 832:../Peripheral/src/ch32v30x_flash.c **** void FLASH_Lock_Fast(void)
 833:../Peripheral/src/ch32v30x_flash.c **** {
 834:../Peripheral/src/ch32v30x_flash.c ****     FLASH->CTLR |= CR_FLOCK_Set;
 835:../Peripheral/src/ch32v30x_flash.c **** }
 836:../Peripheral/src/ch32v30x_flash.c **** 
 837:../Peripheral/src/ch32v30x_flash.c **** /*********************************************************************
 838:../Peripheral/src/ch32v30x_flash.c ****  * @fn      FLASH_ErasePage_Fast
 839:../Peripheral/src/ch32v30x_flash.c ****  *
 840:../Peripheral/src/ch32v30x_flash.c ****  * @brief   Erases a specified FLASH page (1page = 256Byte).
 841:../Peripheral/src/ch32v30x_flash.c ****  *
 842:../Peripheral/src/ch32v30x_flash.c ****  * @param   Page_Address - The page address to be erased.
 843:../Peripheral/src/ch32v30x_flash.c ****  *
 844:../Peripheral/src/ch32v30x_flash.c ****  * @return  none
 845:../Peripheral/src/ch32v30x_flash.c ****  */
 846:../Peripheral/src/ch32v30x_flash.c **** void FLASH_ErasePage_Fast(uint32_t Page_Address)
 847:../Peripheral/src/ch32v30x_flash.c **** {
 848:../Peripheral/src/ch32v30x_flash.c ****     Page_Address &= 0xFFFFFF00;
 849:../Peripheral/src/ch32v30x_flash.c **** 
 850:../Peripheral/src/ch32v30x_flash.c ****     FLASH->CTLR |= CR_PAGE_ER;
 851:../Peripheral/src/ch32v30x_flash.c ****     FLASH->ADDR = Page_Address;
 852:../Peripheral/src/ch32v30x_flash.c ****     FLASH->CTLR |= CR_STRT_Set;
 853:../Peripheral/src/ch32v30x_flash.c ****     while(FLASH->STATR & SR_BSY)
 854:../Peripheral/src/ch32v30x_flash.c ****         ;
 855:../Peripheral/src/ch32v30x_flash.c ****     FLASH->CTLR &= ~CR_PAGE_ER;
 856:../Peripheral/src/ch32v30x_flash.c **** }
 857:../Peripheral/src/ch32v30x_flash.c **** 
 858:../Peripheral/src/ch32v30x_flash.c **** /*********************************************************************
 859:../Peripheral/src/ch32v30x_flash.c ****  * @fn      FLASH_EraseBlock_32K_Fast
 860:../Peripheral/src/ch32v30x_flash.c ****  *
 861:../Peripheral/src/ch32v30x_flash.c ****  * @brief   Erases a specified FLASH Block (1Block = 32KByte).
 862:../Peripheral/src/ch32v30x_flash.c ****  *
 863:../Peripheral/src/ch32v30x_flash.c ****  * @param   Block_Address - The block address to be erased.
 864:../Peripheral/src/ch32v30x_flash.c ****  *
 865:../Peripheral/src/ch32v30x_flash.c ****  * @return  none
 866:../Peripheral/src/ch32v30x_flash.c ****  */
 867:../Peripheral/src/ch32v30x_flash.c **** void FLASH_EraseBlock_32K_Fast(uint32_t Block_Address)
 868:../Peripheral/src/ch32v30x_flash.c **** {
 869:../Peripheral/src/ch32v30x_flash.c ****     Block_Address &= 0xFFFF8000;
 870:../Peripheral/src/ch32v30x_flash.c **** 
 871:../Peripheral/src/ch32v30x_flash.c ****     FLASH->CTLR |= CR_BER32;
 872:../Peripheral/src/ch32v30x_flash.c ****     FLASH->ADDR = Block_Address;
 873:../Peripheral/src/ch32v30x_flash.c ****     FLASH->CTLR |= CR_STRT_Set;
 874:../Peripheral/src/ch32v30x_flash.c ****     while(FLASH->STATR & SR_BSY)
 875:../Peripheral/src/ch32v30x_flash.c ****         ;
 876:../Peripheral/src/ch32v30x_flash.c ****     FLASH->CTLR &= ~CR_BER32;
 877:../Peripheral/src/ch32v30x_flash.c **** }
 878:../Peripheral/src/ch32v30x_flash.c **** 
 879:../Peripheral/src/ch32v30x_flash.c **** /*********************************************************************
 880:../Peripheral/src/ch32v30x_flash.c ****  * @fn      FLASH_EraseBlock_64K_Fast
 881:../Peripheral/src/ch32v30x_flash.c ****  *
 882:../Peripheral/src/ch32v30x_flash.c ****  * @brief   Erases a specified FLASH Block (1Block = 64KByte).
 883:../Peripheral/src/ch32v30x_flash.c ****  *
 884:../Peripheral/src/ch32v30x_flash.c ****  * @param   Block_Address - The block address to be erased.
 885:../Peripheral/src/ch32v30x_flash.c ****  *
 886:../Peripheral/src/ch32v30x_flash.c ****  * @return  none
 887:../Peripheral/src/ch32v30x_flash.c ****  */
 888:../Peripheral/src/ch32v30x_flash.c **** void FLASH_EraseBlock_64K_Fast(uint32_t Block_Address)
 889:../Peripheral/src/ch32v30x_flash.c **** {
 890:../Peripheral/src/ch32v30x_flash.c ****     Block_Address &= 0xFFFF0000;
 891:../Peripheral/src/ch32v30x_flash.c **** 
 892:../Peripheral/src/ch32v30x_flash.c ****     FLASH->CTLR |= CR_BER64;
 893:../Peripheral/src/ch32v30x_flash.c ****     FLASH->ADDR = Block_Address;
 894:../Peripheral/src/ch32v30x_flash.c ****     FLASH->CTLR |= CR_STRT_Set;
 895:../Peripheral/src/ch32v30x_flash.c ****     while(FLASH->STATR & SR_BSY)
 896:../Peripheral/src/ch32v30x_flash.c ****         ;
 897:../Peripheral/src/ch32v30x_flash.c ****     FLASH->CTLR &= ~CR_BER64;
 898:../Peripheral/src/ch32v30x_flash.c **** }
 899:../Peripheral/src/ch32v30x_flash.c **** 
 900:../Peripheral/src/ch32v30x_flash.c **** /*********************************************************************
 901:../Peripheral/src/ch32v30x_flash.c ****  * @fn      FLASH_ProgramPage_Fast
 902:../Peripheral/src/ch32v30x_flash.c ****  *
 903:../Peripheral/src/ch32v30x_flash.c ****  * @brief   Program a specified FLASH page (1page = 256Byte).
 904:../Peripheral/src/ch32v30x_flash.c ****  *
 905:../Peripheral/src/ch32v30x_flash.c ****  * @param   Page_Address - The page address to be programed.
 906:../Peripheral/src/ch32v30x_flash.c ****  *
 907:../Peripheral/src/ch32v30x_flash.c ****  * @return  none
 908:../Peripheral/src/ch32v30x_flash.c ****  */
 909:../Peripheral/src/ch32v30x_flash.c **** void FLASH_ProgramPage_Fast(uint32_t Page_Address, uint32_t *pbuf)
 910:../Peripheral/src/ch32v30x_flash.c **** {
 911:../Peripheral/src/ch32v30x_flash.c ****     uint8_t size = 64;
 912:../Peripheral/src/ch32v30x_flash.c **** 
 913:../Peripheral/src/ch32v30x_flash.c ****     Page_Address &= 0xFFFFFF00;
 914:../Peripheral/src/ch32v30x_flash.c **** 
 915:../Peripheral/src/ch32v30x_flash.c ****     FLASH->CTLR |= CR_PAGE_PG;
 916:../Peripheral/src/ch32v30x_flash.c ****     while(FLASH->STATR & SR_BSY)
 917:../Peripheral/src/ch32v30x_flash.c ****         ;
 918:../Peripheral/src/ch32v30x_flash.c ****     while(FLASH->STATR & SR_WR_BSY)
 919:../Peripheral/src/ch32v30x_flash.c ****         ;
 920:../Peripheral/src/ch32v30x_flash.c **** 
 921:../Peripheral/src/ch32v30x_flash.c ****     while(size)
 922:../Peripheral/src/ch32v30x_flash.c ****     {
 923:../Peripheral/src/ch32v30x_flash.c ****         *(uint32_t *)Page_Address = *(uint32_t *)pbuf;
 924:../Peripheral/src/ch32v30x_flash.c ****         Page_Address += 4;
 925:../Peripheral/src/ch32v30x_flash.c ****         pbuf += 1;
 926:../Peripheral/src/ch32v30x_flash.c ****         size -= 1;
 927:../Peripheral/src/ch32v30x_flash.c ****         while(FLASH->STATR & SR_WR_BSY)
 928:../Peripheral/src/ch32v30x_flash.c ****             ;
 929:../Peripheral/src/ch32v30x_flash.c ****     }
 930:../Peripheral/src/ch32v30x_flash.c **** 
 931:../Peripheral/src/ch32v30x_flash.c ****     FLASH->CTLR |= CR_PG_STRT;
 932:../Peripheral/src/ch32v30x_flash.c ****     while(FLASH->STATR & SR_BSY)
 933:../Peripheral/src/ch32v30x_flash.c ****         ;
 934:../Peripheral/src/ch32v30x_flash.c ****     FLASH->CTLR &= ~CR_PAGE_PG;
 935:../Peripheral/src/ch32v30x_flash.c **** }
 936:../Peripheral/src/ch32v30x_flash.c **** 
 937:../Peripheral/src/ch32v30x_flash.c **** /*********************************************************************
 938:../Peripheral/src/ch32v30x_flash.c ****  * @fn      FLASH_Access_Clock_Cfg
 939:../Peripheral/src/ch32v30x_flash.c ****  *
 940:../Peripheral/src/ch32v30x_flash.c ****  * @brief   Config FLASH Access Clock(Need to unlock )
 941:../Peripheral/src/ch32v30x_flash.c ****  *
 942:../Peripheral/src/ch32v30x_flash.c ****  * @param   FLASH_Access_CLK -
 943:../Peripheral/src/ch32v30x_flash.c ****  *            FLASH_Access_SYSTEM_HALF - System clock/2
 944:../Peripheral/src/ch32v30x_flash.c ****  *            FLASH_Access_SYSTEM - System clock
 945:../Peripheral/src/ch32v30x_flash.c ****  *
 946:../Peripheral/src/ch32v30x_flash.c ****  * @return  none
 947:../Peripheral/src/ch32v30x_flash.c ****  */
 948:../Peripheral/src/ch32v30x_flash.c **** void FLASH_Access_Clock_Cfg(uint32_t FLASH_Access_CLK)
 949:../Peripheral/src/ch32v30x_flash.c **** {
 950:../Peripheral/src/ch32v30x_flash.c ****     FLASH->CTLR &= ~(1 << 25);
 951:../Peripheral/src/ch32v30x_flash.c ****     FLASH->CTLR |= FLASH_Access_CLK;
 952:../Peripheral/src/ch32v30x_flash.c **** }
 953:../Peripheral/src/ch32v30x_flash.c **** 
 954:../Peripheral/src/ch32v30x_flash.c **** /*********************************************************************
 955:../Peripheral/src/ch32v30x_flash.c ****  * @fn      FLASH_Enhance_Mode
 956:../Peripheral/src/ch32v30x_flash.c ****  *
 957:../Peripheral/src/ch32v30x_flash.c ****  * @brief   Read FLASH Enhance Mode
 958:../Peripheral/src/ch32v30x_flash.c ****  *
 959:../Peripheral/src/ch32v30x_flash.c ****  * @param   Newstate - new state of the ReadOut Protection(ENABLE or DISABLE).
 960:../Peripheral/src/ch32v30x_flash.c ****  *
 961:../Peripheral/src/ch32v30x_flash.c ****  * @return  none
 962:../Peripheral/src/ch32v30x_flash.c ****  */
 963:../Peripheral/src/ch32v30x_flash.c **** void FLASH_Enhance_Mode(FunctionalState NewState)
 964:../Peripheral/src/ch32v30x_flash.c **** {
 965:../Peripheral/src/ch32v30x_flash.c ****     if(NewState)
 966:../Peripheral/src/ch32v30x_flash.c ****     {
 967:../Peripheral/src/ch32v30x_flash.c ****         FLASH->CTLR |= (1 << 24);
 968:../Peripheral/src/ch32v30x_flash.c ****     }
 969:../Peripheral/src/ch32v30x_flash.c ****     else
 970:../Peripheral/src/ch32v30x_flash.c ****     {
 971:../Peripheral/src/ch32v30x_flash.c ****         FLASH->CTLR &= ~(1 << 24);
 972:../Peripheral/src/ch32v30x_flash.c ****         FLASH->CTLR |= (1 << 22);
 973:../Peripheral/src/ch32v30x_flash.c ****     }
 974:../Peripheral/src/ch32v30x_flash.c **** }
 975:../Peripheral/src/ch32v30x_flash.c **** 
 976:../Peripheral/src/ch32v30x_flash.c **** /*********************************************************************
 977:../Peripheral/src/ch32v30x_flash.c ****  * @fn      ROM_ERASE
 978:../Peripheral/src/ch32v30x_flash.c ****  *
 979:../Peripheral/src/ch32v30x_flash.c ****  * @brief   Select erases a specified FLASH .
 980:../Peripheral/src/ch32v30x_flash.c ****  *
 981:../Peripheral/src/ch32v30x_flash.c ****  * @param   StartAddr - Erases Flash start address(StartAddr%256 == 0).
 982:../Peripheral/src/ch32v30x_flash.c ****  *          Cnt - Erases count.
 983:../Peripheral/src/ch32v30x_flash.c ****  *          Erase_Size - Erases size select.The returned value can be:
 984:../Peripheral/src/ch32v30x_flash.c ****  *          Size_32KB, Size_4KB, Size_256B.
 985:../Peripheral/src/ch32v30x_flash.c ****  *
 986:../Peripheral/src/ch32v30x_flash.c ****  * @return  none.
 987:../Peripheral/src/ch32v30x_flash.c ****  */
 988:../Peripheral/src/ch32v30x_flash.c **** static void ROM_ERASE(uint32_t StartAddr, uint32_t Cnt, uint32_t Erase_Size)
 989:../Peripheral/src/ch32v30x_flash.c **** {
  16              		.loc 1 989 1
  17              		.cfi_startproc
  18              	.LVL0:
 990:../Peripheral/src/ch32v30x_flash.c ****     do{
  19              		.loc 1 990 5
 991:../Peripheral/src/ch32v30x_flash.c ****         if(Erase_Size == Size_32KB)
  20              		.loc 1 991 9
  21              		.loc 1 991 11 is_stmt 0
  22 0000 A167     		li	a5,32768
  23 0002 6319F600 		bne	a2,a5,.L2
  24              	.L8:
  25              	.LVL1:
 992:../Peripheral/src/ch32v30x_flash.c ****         {
 993:../Peripheral/src/ch32v30x_flash.c ****             FLASH->CTLR |= CR_BER32;
  26              		.loc 1 993 13 is_stmt 1
  27              		.loc 1 993 18 is_stmt 0
  28 0006 37270240 		li	a4,1073881088
  29 000a 1C4B     		lw	a5,16(a4)
  30              		.loc 1 993 25
  31 000c B7060400 		li	a3,262144
  32              	.L13:
 994:../Peripheral/src/ch32v30x_flash.c ****         }
 995:../Peripheral/src/ch32v30x_flash.c ****         else if(Erase_Size == Size_4KB)
 996:../Peripheral/src/ch32v30x_flash.c ****         {
 997:../Peripheral/src/ch32v30x_flash.c ****             FLASH->CTLR |= CR_PER_Set;
 998:../Peripheral/src/ch32v30x_flash.c ****         }
 999:../Peripheral/src/ch32v30x_flash.c ****         else if(Erase_Size == Size_256B)
1000:../Peripheral/src/ch32v30x_flash.c ****         {
1001:../Peripheral/src/ch32v30x_flash.c ****             FLASH->CTLR |= CR_PAGE_ER;
  33              		.loc 1 1001 25
  34 0010 D58F     		or	a5,a5,a3
  35 0012 09A8     		j	.L14
  36              	.LVL2:
  37              	.L2:
 995:../Peripheral/src/ch32v30x_flash.c ****         {
  38              		.loc 1 995 14 is_stmt 1
 995:../Peripheral/src/ch32v30x_flash.c ****         {
  39              		.loc 1 995 16 is_stmt 0
  40 0014 8567     		li	a5,4096
  41 0016 631FF602 		bne	a2,a5,.L4
 997:../Peripheral/src/ch32v30x_flash.c ****         }
  42              		.loc 1 997 13 is_stmt 1
 997:../Peripheral/src/ch32v30x_flash.c ****         }
  43              		.loc 1 997 18 is_stmt 0
  44 001a 37270240 		li	a4,1073881088
  45 001e 1C4B     		lw	a5,16(a4)
 997:../Peripheral/src/ch32v30x_flash.c ****         }
  46              		.loc 1 997 25
  47 0020 93E72700 		ori	a5,a5,2
  48              	.L14:
  49              		.loc 1 1001 25
  50 0024 1CCB     		sw	a5,16(a4)
  51              	.L3:
1002:../Peripheral/src/ch32v30x_flash.c ****         }
1003:../Peripheral/src/ch32v30x_flash.c **** 
1004:../Peripheral/src/ch32v30x_flash.c ****         FLASH->ADDR = StartAddr;
  52              		.loc 1 1004 9 is_stmt 1
  53              		.loc 1 1004 21 is_stmt 0
  54 0026 B7270240 		li	a5,1073881088
  55 002a C8CB     		sw	a0,20(a5)
1005:../Peripheral/src/ch32v30x_flash.c ****         FLASH->CTLR |= CR_STRT_Set;
  56              		.loc 1 1005 9 is_stmt 1
  57              		.loc 1 1005 14 is_stmt 0
  58 002c 984B     		lw	a4,16(a5)
  59              		.loc 1 1005 21
  60 002e 13670704 		ori	a4,a4,64
  61 0032 98CB     		sw	a4,16(a5)
1006:../Peripheral/src/ch32v30x_flash.c ****         while(FLASH->STATR & SR_BSY)
  62              		.loc 1 1006 9 is_stmt 1
  63              	.L6:
  64              		.loc 1 1006 15 discriminator 1
  65              		.loc 1 1006 20 is_stmt 0 discriminator 1
  66 0034 D847     		lw	a4,12(a5)
  67              		.loc 1 1006 28 discriminator 1
  68 0036 058B     		andi	a4,a4,1
  69              		.loc 1 1006 15 discriminator 1
  70 0038 75FF     		bne	a4,zero,.L6
1007:../Peripheral/src/ch32v30x_flash.c ****             ;
1008:../Peripheral/src/ch32v30x_flash.c **** 
1009:../Peripheral/src/ch32v30x_flash.c ****         if(Erase_Size == Size_32KB)
  71              		.loc 1 1009 9 is_stmt 1
  72              		.loc 1 1009 11 is_stmt 0
  73 003a 2167     		li	a4,32768
  74 003c FD15     		addi	a1,a1,-1
  75 003e 6315E602 		bne	a2,a4,.L7
1010:../Peripheral/src/ch32v30x_flash.c ****         {
1011:../Peripheral/src/ch32v30x_flash.c ****             FLASH->CTLR &= ~CR_BER32;
  76              		.loc 1 1011 13 is_stmt 1
  77              		.loc 1 1011 18 is_stmt 0
  78 0042 984B     		lw	a4,16(a5)
  79              		.loc 1 1011 25
  80 0044 B706FCFF 		li	a3,-262144
  81 0048 FD16     		addi	a3,a3,-1
  82 004a 758F     		and	a4,a4,a3
  83 004c 98CB     		sw	a4,16(a5)
1012:../Peripheral/src/ch32v30x_flash.c ****             StartAddr += Size_32KB;
  84              		.loc 1 1012 13 is_stmt 1
  85              		.loc 1 1012 23 is_stmt 0
  86 004e 3295     		add	a0,a0,a2
  87              	.LVL3:
1013:../Peripheral/src/ch32v30x_flash.c ****         }
1014:../Peripheral/src/ch32v30x_flash.c ****         else if(Erase_Size == Size_4KB)
1015:../Peripheral/src/ch32v30x_flash.c ****         {
1016:../Peripheral/src/ch32v30x_flash.c ****             FLASH->CTLR &= ~CR_PER_Set;
1017:../Peripheral/src/ch32v30x_flash.c ****             StartAddr += Size_4KB;
1018:../Peripheral/src/ch32v30x_flash.c ****         }
1019:../Peripheral/src/ch32v30x_flash.c ****         else if(Erase_Size == Size_256B)
1020:../Peripheral/src/ch32v30x_flash.c ****         {
1021:../Peripheral/src/ch32v30x_flash.c ****             FLASH->CTLR &= ~CR_PAGE_ER;
1022:../Peripheral/src/ch32v30x_flash.c ****             StartAddr += Size_256B;
1023:../Peripheral/src/ch32v30x_flash.c ****         }
1024:../Peripheral/src/ch32v30x_flash.c ****     }while(--Cnt);
  88              		.loc 1 1024 12 is_stmt 1
  89 0050 DDF9     		bne	a1,zero,.L8
  90 0052 8280     		ret
  91              	.LVL4:
  92              	.L4:
 999:../Peripheral/src/ch32v30x_flash.c ****         {
  93              		.loc 1 999 14
 999:../Peripheral/src/ch32v30x_flash.c ****         {
  94              		.loc 1 999 16 is_stmt 0
  95 0054 93070010 		li	a5,256
  96 0058 E317F6FC 		bne	a2,a5,.L3
1001:../Peripheral/src/ch32v30x_flash.c ****         }
  97              		.loc 1 1001 13 is_stmt 1
1001:../Peripheral/src/ch32v30x_flash.c ****         }
  98              		.loc 1 1001 18 is_stmt 0
  99 005c 37270240 		li	a4,1073881088
 100 0060 1C4B     		lw	a5,16(a4)
1001:../Peripheral/src/ch32v30x_flash.c ****         }
 101              		.loc 1 1001 25
 102 0062 B7060200 		li	a3,131072
 103 0066 6DB7     		j	.L13
 104              	.L7:
1014:../Peripheral/src/ch32v30x_flash.c ****         {
 105              		.loc 1 1014 14 is_stmt 1
1014:../Peripheral/src/ch32v30x_flash.c ****         {
 106              		.loc 1 1014 16 is_stmt 0
 107 0068 0567     		li	a4,4096
 108 006a 6318E600 		bne	a2,a4,.L10
1016:../Peripheral/src/ch32v30x_flash.c ****             StartAddr += Size_4KB;
 109              		.loc 1 1016 13 is_stmt 1
1016:../Peripheral/src/ch32v30x_flash.c ****             StartAddr += Size_4KB;
 110              		.loc 1 1016 18 is_stmt 0
 111 006e 984B     		lw	a4,16(a5)
1017:../Peripheral/src/ch32v30x_flash.c ****         }
 112              		.loc 1 1017 23
 113 0070 3295     		add	a0,a0,a2
1016:../Peripheral/src/ch32v30x_flash.c ****             StartAddr += Size_4KB;
 114              		.loc 1 1016 25
 115 0072 759B     		andi	a4,a4,-3
 116 0074 98CB     		sw	a4,16(a5)
1017:../Peripheral/src/ch32v30x_flash.c ****         }
 117              		.loc 1 1017 13 is_stmt 1
 118              	.LVL5:
 119              		.loc 1 1024 12
 120 0076 D9FD     		bne	a1,zero,.L2
 121 0078 8280     		ret
 122              	.LVL6:
 123              	.L10:
1019:../Peripheral/src/ch32v30x_flash.c ****         {
 124              		.loc 1 1019 14
1019:../Peripheral/src/ch32v30x_flash.c ****         {
 125              		.loc 1 1019 16 is_stmt 0
 126 007a 13070010 		li	a4,256
 127 007e 631BE600 		bne	a2,a4,.L11
1021:../Peripheral/src/ch32v30x_flash.c ****             StartAddr += Size_256B;
 128              		.loc 1 1021 13 is_stmt 1
1021:../Peripheral/src/ch32v30x_flash.c ****             StartAddr += Size_256B;
 129              		.loc 1 1021 18 is_stmt 0
 130 0082 984B     		lw	a4,16(a5)
1021:../Peripheral/src/ch32v30x_flash.c ****             StartAddr += Size_256B;
 131              		.loc 1 1021 25
 132 0084 8176     		li	a3,-131072
 133 0086 FD16     		addi	a3,a3,-1
 134 0088 758F     		and	a4,a4,a3
 135 008a 98CB     		sw	a4,16(a5)
1022:../Peripheral/src/ch32v30x_flash.c ****         }
 136              		.loc 1 1022 13 is_stmt 1
1022:../Peripheral/src/ch32v30x_flash.c ****         }
 137              		.loc 1 1022 23 is_stmt 0
 138 008c 13050510 		addi	a0,a0,256
 139              	.LVL7:
 140              		.loc 1 1024 12 is_stmt 1
 141 0090 D1F1     		bne	a1,zero,.L2
 142 0092 8280     		ret
 143              	.LVL8:
 144              	.L11:
 145              		.loc 1 1024 12
 146 0094 C1F1     		bne	a1,zero,.L2
1025:../Peripheral/src/ch32v30x_flash.c **** }
 147              		.loc 1 1025 1 is_stmt 0
 148 0096 8280     		ret
 149              		.cfi_endproc
 150              	.LFE61:
 152              		.section	.text.FLASH_Unlock,"ax",@progbits
 153              		.align	1
 154              		.globl	FLASH_Unlock
 156              	FLASH_Unlock:
 157              	.LFB29:
  77:../Peripheral/src/ch32v30x_flash.c ****     /* Authorize the FPEC of Bank1 Access */
 158              		.loc 1 77 1 is_stmt 1
 159              		.cfi_startproc
  79:../Peripheral/src/ch32v30x_flash.c ****     FLASH->KEYR = FLASH_KEY2;
 160              		.loc 1 79 5
  79:../Peripheral/src/ch32v30x_flash.c ****     FLASH->KEYR = FLASH_KEY2;
 161              		.loc 1 79 17 is_stmt 0
 162 0000 B7076745 		li	a5,1164378112
 163 0004 37270240 		li	a4,1073881088
 164 0008 93873712 		addi	a5,a5,291
 165 000c 5CC3     		sw	a5,4(a4)
  80:../Peripheral/src/ch32v30x_flash.c **** }
 166              		.loc 1 80 5 is_stmt 1
  80:../Peripheral/src/ch32v30x_flash.c **** }
 167              		.loc 1 80 17 is_stmt 0
 168 000e B797EFCD 		li	a5,-839938048
 169 0012 9387B79A 		addi	a5,a5,-1621
 170 0016 5CC3     		sw	a5,4(a4)
  81:../Peripheral/src/ch32v30x_flash.c **** 
 171              		.loc 1 81 1
 172 0018 8280     		ret
 173              		.cfi_endproc
 174              	.LFE29:
 176              		.section	.text.FLASH_UnlockBank1,"ax",@progbits
 177              		.align	1
 178              		.globl	FLASH_UnlockBank1
 180              	FLASH_UnlockBank1:
 181              	.LFB66:
 182              		.cfi_startproc
  91:../Peripheral/src/ch32v30x_flash.c **** {
 183              		.loc 1 91 6 is_stmt 1
 184 0000 17030000 		tail	FLASH_Unlock
 184      67000300 
 185              		.cfi_endproc
 186              	.LFE66:
 188              		.section	.text.FLASH_Lock,"ax",@progbits
 189              		.align	1
 190              		.globl	FLASH_Lock
 192              	FLASH_Lock:
 193              	.LFB31:
 105:../Peripheral/src/ch32v30x_flash.c ****     FLASH->CTLR |= CR_LOCK_Set;
 194              		.loc 1 105 1
 195              		.cfi_startproc
 106:../Peripheral/src/ch32v30x_flash.c **** }
 196              		.loc 1 106 5
 106:../Peripheral/src/ch32v30x_flash.c **** }
 197              		.loc 1 106 10 is_stmt 0
 198 0000 37270240 		li	a4,1073881088
 199 0004 1C4B     		lw	a5,16(a4)
 106:../Peripheral/src/ch32v30x_flash.c **** }
 200              		.loc 1 106 17
 201 0006 93E70708 		ori	a5,a5,128
 202 000a 1CCB     		sw	a5,16(a4)
 107:../Peripheral/src/ch32v30x_flash.c **** 
 203              		.loc 1 107 1
 204 000c 8280     		ret
 205              		.cfi_endproc
 206              	.LFE31:
 208              		.section	.text.FLASH_LockBank1,"ax",@progbits
 209              		.align	1
 210              		.globl	FLASH_LockBank1
 212              	FLASH_LockBank1:
 213              	.LFB68:
 214              		.cfi_startproc
 116:../Peripheral/src/ch32v30x_flash.c **** {
 215              		.loc 1 116 6 is_stmt 1
 216 0000 17030000 		tail	FLASH_Lock
 216      67000300 
 217              		.cfi_endproc
 218              	.LFE68:
 220              		.section	.text.FLASH_GetUserOptionByte,"ax",@progbits
 221              		.align	1
 222              		.globl	FLASH_GetUserOptionByte
 224              	FLASH_GetUserOptionByte:
 225              	.LFB43:
 574:../Peripheral/src/ch32v30x_flash.c ****     return (uint32_t)(FLASH->OBR >> 2);
 226              		.loc 1 574 1
 227              		.cfi_startproc
 575:../Peripheral/src/ch32v30x_flash.c **** }
 228              		.loc 1 575 5
 575:../Peripheral/src/ch32v30x_flash.c **** }
 229              		.loc 1 575 28 is_stmt 0
 230 0000 B7270240 		li	a5,1073881088
 231 0004 C84F     		lw	a0,28(a5)
 576:../Peripheral/src/ch32v30x_flash.c **** 
 232              		.loc 1 576 1
 233 0006 0981     		srli	a0,a0,2
 234 0008 8280     		ret
 235              		.cfi_endproc
 236              	.LFE43:
 238              		.section	.text.FLASH_GetWriteProtectionOptionByte,"ax",@progbits
 239              		.align	1
 240              		.globl	FLASH_GetWriteProtectionOptionByte
 242              	FLASH_GetWriteProtectionOptionByte:
 243              	.LFB44:
 586:../Peripheral/src/ch32v30x_flash.c ****     return (uint32_t)(FLASH->WPR);
 244              		.loc 1 586 1 is_stmt 1
 245              		.cfi_startproc
 587:../Peripheral/src/ch32v30x_flash.c **** }
 246              		.loc 1 587 5
 587:../Peripheral/src/ch32v30x_flash.c **** }
 247              		.loc 1 587 12 is_stmt 0
 248 0000 B7270240 		li	a5,1073881088
 249 0004 8853     		lw	a0,32(a5)
 588:../Peripheral/src/ch32v30x_flash.c **** 
 250              		.loc 1 588 1
 251 0006 8280     		ret
 252              		.cfi_endproc
 253              	.LFE44:
 255              		.section	.text.FLASH_GetReadOutProtectionStatus,"ax",@progbits
 256              		.align	1
 257              		.globl	FLASH_GetReadOutProtectionStatus
 259              	FLASH_GetReadOutProtectionStatus:
 260              	.LFB45:
 598:../Peripheral/src/ch32v30x_flash.c ****     FlagStatus readoutstatus = RESET;
 261              		.loc 1 598 1 is_stmt 1
 262              		.cfi_startproc
 599:../Peripheral/src/ch32v30x_flash.c ****     if((FLASH->OBR & RDPRT_Mask) != (uint32_t)RESET)
 263              		.loc 1 599 5
 264              	.LVL9:
 600:../Peripheral/src/ch32v30x_flash.c ****     {
 265              		.loc 1 600 5
 600:../Peripheral/src/ch32v30x_flash.c ****     {
 266              		.loc 1 600 14 is_stmt 0
 267 0000 B7270240 		li	a5,1073881088
 268 0004 C84F     		lw	a0,28(a5)
 269              	.LVL10:
 608:../Peripheral/src/ch32v30x_flash.c **** }
 270              		.loc 1 608 5 is_stmt 1
 600:../Peripheral/src/ch32v30x_flash.c ****     {
 271              		.loc 1 600 7 is_stmt 0
 272 0006 0581     		srli	a0,a0,1
 273              	.LVL11:
 609:../Peripheral/src/ch32v30x_flash.c **** 
 274              		.loc 1 609 1
 275 0008 0589     		andi	a0,a0,1
 276 000a 8280     		ret
 277              		.cfi_endproc
 278              	.LFE45:
 280              		.section	.text.FLASH_ITConfig,"ax",@progbits
 281              		.align	1
 282              		.globl	FLASH_ITConfig
 284              	FLASH_ITConfig:
 285              	.LFB46:
 624:../Peripheral/src/ch32v30x_flash.c ****     if(NewState != DISABLE)
 286              		.loc 1 624 1 is_stmt 1
 287              		.cfi_startproc
 288              	.LVL12:
 625:../Peripheral/src/ch32v30x_flash.c ****     {
 289              		.loc 1 625 5
 625:../Peripheral/src/ch32v30x_flash.c ****     {
 290              		.loc 1 625 7 is_stmt 0
 291 0000 99C5     		beq	a1,zero,.L25
 627:../Peripheral/src/ch32v30x_flash.c ****     }
 292              		.loc 1 627 9 is_stmt 1
 627:../Peripheral/src/ch32v30x_flash.c ****     }
 293              		.loc 1 627 14 is_stmt 0
 294 0002 37270240 		li	a4,1073881088
 295 0006 1C4B     		lw	a5,16(a4)
 627:../Peripheral/src/ch32v30x_flash.c ****     }
 296              		.loc 1 627 21
 297 0008 C98F     		or	a5,a5,a0
 298 000a 1CCB     		sw	a5,16(a4)
 299 000c 8280     		ret
 300              	.L25:
 631:../Peripheral/src/ch32v30x_flash.c ****     }
 301              		.loc 1 631 9 is_stmt 1
 631:../Peripheral/src/ch32v30x_flash.c ****     }
 302              		.loc 1 631 14 is_stmt 0
 303 000e B7270240 		li	a5,1073881088
 304 0012 984B     		lw	a4,16(a5)
 631:../Peripheral/src/ch32v30x_flash.c ****     }
 305              		.loc 1 631 24
 306 0014 1345F5FF 		not	a0,a0
 307              	.LVL13:
 631:../Peripheral/src/ch32v30x_flash.c ****     }
 308              		.loc 1 631 21
 309 0018 798D     		and	a0,a0,a4
 310              	.LVL14:
 311 001a 88CB     		sw	a0,16(a5)
 633:../Peripheral/src/ch32v30x_flash.c **** 
 312              		.loc 1 633 1
 313 001c 8280     		ret
 314              		.cfi_endproc
 315              	.LFE46:
 317              		.section	.text.FLASH_GetFlagStatus,"ax",@progbits
 318              		.align	1
 319              		.globl	FLASH_GetFlagStatus
 321              	FLASH_GetFlagStatus:
 322              	.LFB47:
 649:../Peripheral/src/ch32v30x_flash.c ****     FlagStatus bitstatus = RESET;
 323              		.loc 1 649 1 is_stmt 1
 324              		.cfi_startproc
 325              	.LVL15:
 650:../Peripheral/src/ch32v30x_flash.c **** 
 326              		.loc 1 650 5
 652:../Peripheral/src/ch32v30x_flash.c ****     {
 327              		.loc 1 652 5
 652:../Peripheral/src/ch32v30x_flash.c ****     {
 328              		.loc 1 652 7 is_stmt 0
 329 0000 8547     		li	a5,1
 330 0002 6317F500 		bne	a0,a5,.L28
 654:../Peripheral/src/ch32v30x_flash.c ****         {
 331              		.loc 1 654 9 is_stmt 1
 654:../Peripheral/src/ch32v30x_flash.c ****         {
 332              		.loc 1 654 18 is_stmt 0
 333 0006 B7270240 		li	a5,1073881088
 334 000a C84F     		lw	a0,28(a5)
 335              	.LVL16:
 654:../Peripheral/src/ch32v30x_flash.c ****         {
 336              		.loc 1 654 24
 337 000c 0589     		andi	a0,a0,1
 338 000e 8280     		ret
 339              	.LVL17:
 340              	.L28:
 665:../Peripheral/src/ch32v30x_flash.c ****         {
 341              		.loc 1 665 9 is_stmt 1
 665:../Peripheral/src/ch32v30x_flash.c ****         {
 342              		.loc 1 665 18 is_stmt 0
 343 0010 B7270240 		li	a5,1073881088
 344 0014 DC47     		lw	a5,12(a5)
 665:../Peripheral/src/ch32v30x_flash.c ****         {
 345              		.loc 1 665 26
 346 0016 7D8D     		and	a0,a5,a0
 347              	.LVL18:
 665:../Peripheral/src/ch32v30x_flash.c ****         {
 348              		.loc 1 665 11
 349 0018 3335A000 		snez	a0,a0
 350              	.LVL19:
 674:../Peripheral/src/ch32v30x_flash.c **** }
 351              		.loc 1 674 5 is_stmt 1
 675:../Peripheral/src/ch32v30x_flash.c **** 
 352              		.loc 1 675 1 is_stmt 0
 353 001c 8280     		ret
 354              		.cfi_endproc
 355              	.LFE47:
 357              		.section	.text.FLASH_ClearFlag,"ax",@progbits
 358              		.align	1
 359              		.globl	FLASH_ClearFlag
 361              	FLASH_ClearFlag:
 362              	.LFB48:
 689:../Peripheral/src/ch32v30x_flash.c ****     FLASH->STATR = FLASH_FLAG;
 363              		.loc 1 689 1 is_stmt 1
 364              		.cfi_startproc
 365              	.LVL20:
 690:../Peripheral/src/ch32v30x_flash.c **** }
 366              		.loc 1 690 5
 690:../Peripheral/src/ch32v30x_flash.c **** }
 367              		.loc 1 690 18 is_stmt 0
 368 0000 B7270240 		li	a5,1073881088
 369 0004 C8C7     		sw	a0,12(a5)
 691:../Peripheral/src/ch32v30x_flash.c **** 
 370              		.loc 1 691 1
 371 0006 8280     		ret
 372              		.cfi_endproc
 373              	.LFE48:
 375              		.section	.text.FLASH_GetStatus,"ax",@progbits
 376              		.align	1
 377              		.globl	FLASH_GetStatus
 379              	FLASH_GetStatus:
 380              	.LFB49:
 702:../Peripheral/src/ch32v30x_flash.c ****     FLASH_Status flashstatus = FLASH_COMPLETE;
 381              		.loc 1 702 1 is_stmt 1
 382              		.cfi_startproc
 703:../Peripheral/src/ch32v30x_flash.c **** 
 383              		.loc 1 703 5
 384              	.LVL21:
 705:../Peripheral/src/ch32v30x_flash.c ****     {
 385              		.loc 1 705 5
 705:../Peripheral/src/ch32v30x_flash.c ****     {
 386              		.loc 1 705 14 is_stmt 0
 387 0000 B7270240 		li	a5,1073881088
 388 0004 C847     		lw	a0,12(a5)
 705:../Peripheral/src/ch32v30x_flash.c ****     {
 389              		.loc 1 705 22
 390 0006 0589     		andi	a0,a0,1
 705:../Peripheral/src/ch32v30x_flash.c ****     {
 391              		.loc 1 705 7
 392 0008 11E5     		bne	a0,zero,.L31
 711:../Peripheral/src/ch32v30x_flash.c ****         {
 393              		.loc 1 711 9 is_stmt 1
 711:../Peripheral/src/ch32v30x_flash.c ****         {
 394              		.loc 1 711 18 is_stmt 0
 395 000a C847     		lw	a0,12(a5)
 711:../Peripheral/src/ch32v30x_flash.c ****         {
 396              		.loc 1 711 26
 397 000c 4189     		andi	a0,a0,16
 713:../Peripheral/src/ch32v30x_flash.c ****         }
 398              		.loc 1 713 25
 399 000e 13351500 		seqz	a0,a0
 400 0012 0D05     		addi	a0,a0,3
 401              	.L31:
 721:../Peripheral/src/ch32v30x_flash.c **** 
 402              		.loc 1 721 1
 403 0014 8280     		ret
 404              		.cfi_endproc
 405              	.LFE49:
 407              		.section	.text.FLASH_GetBank1Status,"ax",@progbits
 408              		.align	1
 409              		.globl	FLASH_GetBank1Status
 411              	FLASH_GetBank1Status:
 412              	.LFB50:
 732:../Peripheral/src/ch32v30x_flash.c ****     FLASH_Status flashstatus = FLASH_COMPLETE;
 413              		.loc 1 732 1 is_stmt 1
 414              		.cfi_startproc
 733:../Peripheral/src/ch32v30x_flash.c **** 
 415              		.loc 1 733 5
 416              	.LVL22:
 735:../Peripheral/src/ch32v30x_flash.c ****     {
 417              		.loc 1 735 5
 735:../Peripheral/src/ch32v30x_flash.c ****     {
 418              		.loc 1 735 14 is_stmt 0
 419 0000 B7270240 		li	a5,1073881088
 420 0004 C847     		lw	a0,12(a5)
 735:../Peripheral/src/ch32v30x_flash.c ****     {
 421              		.loc 1 735 22
 422 0006 0589     		andi	a0,a0,1
 735:../Peripheral/src/ch32v30x_flash.c ****     {
 423              		.loc 1 735 7
 424 0008 11E5     		bne	a0,zero,.L34
 425              	.LBB4:
 426              	.LBB5:
 741:../Peripheral/src/ch32v30x_flash.c ****         {
 427              		.loc 1 741 9 is_stmt 1
 741:../Peripheral/src/ch32v30x_flash.c ****         {
 428              		.loc 1 741 18 is_stmt 0
 429 000a C847     		lw	a0,12(a5)
 741:../Peripheral/src/ch32v30x_flash.c ****         {
 430              		.loc 1 741 26
 431 000c 4189     		andi	a0,a0,16
 743:../Peripheral/src/ch32v30x_flash.c ****         }
 432              		.loc 1 743 25
 433 000e 13351500 		seqz	a0,a0
 434 0012 0D05     		addi	a0,a0,3
 435              	.L34:
 436              	.LBE5:
 437              	.LBE4:
 751:../Peripheral/src/ch32v30x_flash.c **** 
 438              		.loc 1 751 1
 439 0014 8280     		ret
 440              		.cfi_endproc
 441              	.LFE50:
 443              		.section	.text.FLASH_WaitForLastOperation,"ax",@progbits
 444              		.align	1
 445              		.globl	FLASH_WaitForLastOperation
 447              	FLASH_WaitForLastOperation:
 448              	.LFB51:
 764:../Peripheral/src/ch32v30x_flash.c ****     FLASH_Status status = FLASH_COMPLETE;
 449              		.loc 1 764 1 is_stmt 1
 450              		.cfi_startproc
 451              	.LVL23:
 452 0000 17030000 		call	t0,__riscv_save_2
 452      E7020300 
 453              		.cfi_offset 9, -12
 454              		.cfi_offset 8, -8
 455              		.cfi_offset 1, -4
 456              		.cfi_def_cfa_offset 16
 765:../Peripheral/src/ch32v30x_flash.c **** 
 457              		.loc 1 765 5
 458              	.LVL24:
 767:../Peripheral/src/ch32v30x_flash.c ****     while((status == FLASH_BUSY) && (Timeout != 0x00))
 459              		.loc 1 767 5
 764:../Peripheral/src/ch32v30x_flash.c ****     FLASH_Status status = FLASH_COMPLETE;
 460              		.loc 1 764 1 is_stmt 0
 461 0008 2A84     		mv	s0,a0
 768:../Peripheral/src/ch32v30x_flash.c ****     {
 462              		.loc 1 768 34
 463 000a 8544     		li	s1,1
 767:../Peripheral/src/ch32v30x_flash.c ****     while((status == FLASH_BUSY) && (Timeout != 0x00))
 464              		.loc 1 767 14
 465 000c 97000000 		call	FLASH_GetBank1Status
 465      E7800000 
 466              	.LVL25:
 768:../Peripheral/src/ch32v30x_flash.c ****     {
 467              		.loc 1 768 5 is_stmt 1
 468              	.L38:
 768:../Peripheral/src/ch32v30x_flash.c ****     {
 469              		.loc 1 768 34
 470 0014 631B9500 		bne	a0,s1,.L39
 768:../Peripheral/src/ch32v30x_flash.c ****     {
 471              		.loc 1 768 34 is_stmt 0 discriminator 1
 472 0018 19E0     		bne	s0,zero,.L40
 473              	.L43:
 775:../Peripheral/src/ch32v30x_flash.c ****     }
 474              		.loc 1 775 16
 475 001a 1545     		li	a0,5
 476              	.LVL26:
 777:../Peripheral/src/ch32v30x_flash.c **** }
 477              		.loc 1 777 5 is_stmt 1
 777:../Peripheral/src/ch32v30x_flash.c **** }
 478              		.loc 1 777 12 is_stmt 0
 479 001c 01A8     		j	.L37
 480              	.LVL27:
 481              	.L40:
 770:../Peripheral/src/ch32v30x_flash.c ****         Timeout--;
 482              		.loc 1 770 9 is_stmt 1
 770:../Peripheral/src/ch32v30x_flash.c ****         Timeout--;
 483              		.loc 1 770 18 is_stmt 0
 484 001e 97000000 		call	FLASH_GetBank1Status
 484      E7800000 
 485              	.LVL28:
 771:../Peripheral/src/ch32v30x_flash.c ****     }
 486              		.loc 1 771 9 is_stmt 1
 771:../Peripheral/src/ch32v30x_flash.c ****     }
 487              		.loc 1 771 16 is_stmt 0
 488 0026 7D14     		addi	s0,s0,-1
 489              	.LVL29:
 490 0028 F5B7     		j	.L38
 491              	.L39:
 773:../Peripheral/src/ch32v30x_flash.c ****     {
 492              		.loc 1 773 5 is_stmt 1
 773:../Peripheral/src/ch32v30x_flash.c ****     {
 493              		.loc 1 773 7 is_stmt 0
 494 002a 65D8     		beq	s0,zero,.L43
 495              	.LVL30:
 496              	.L37:
 778:../Peripheral/src/ch32v30x_flash.c **** 
 497              		.loc 1 778 1
 498 002c 17030000 		tail	__riscv_restore_2
 498      67000300 
 499              		.cfi_restore 9
 500              		.cfi_restore 8
 501              		.cfi_restore 1
 502              		.cfi_def_cfa_offset 0
 503              		.cfi_endproc
 504              	.LFE51:
 506              		.section	.text.FLASH_ErasePage,"ax",@progbits
 507              		.align	1
 508              		.globl	FLASH_ErasePage
 510              	FLASH_ErasePage:
 511              	.LFB33:
 132:../Peripheral/src/ch32v30x_flash.c ****     FLASH_Status status = FLASH_COMPLETE;
 512              		.loc 1 132 1 is_stmt 1
 513              		.cfi_startproc
 514              	.LVL31:
 515 0000 17030000 		call	t0,__riscv_save_2
 515      E7020300 
 516              		.cfi_offset 9, -12
 517              		.cfi_offset 8, -8
 518              		.cfi_offset 1, -4
 519              		.cfi_def_cfa_offset 16
 133:../Peripheral/src/ch32v30x_flash.c **** 
 520              		.loc 1 133 5
 521              	.LVL32:
 135:../Peripheral/src/ch32v30x_flash.c **** 
 522              		.loc 1 135 5
 132:../Peripheral/src/ch32v30x_flash.c ****     FLASH_Status status = FLASH_COMPLETE;
 523              		.loc 1 132 1 is_stmt 0
 524 0008 AA84     		mv	s1,a0
 135:../Peripheral/src/ch32v30x_flash.c **** 
 525              		.loc 1 135 14
 526 000a 37050B00 		li	a0,720896
 527              	.LVL33:
 528 000e 97000000 		call	FLASH_WaitForLastOperation
 528      E7800000 
 529              	.LVL34:
 137:../Peripheral/src/ch32v30x_flash.c ****     {
 530              		.loc 1 137 5 is_stmt 1
 137:../Peripheral/src/ch32v30x_flash.c ****     {
 531              		.loc 1 137 7 is_stmt 0
 532 0016 9147     		li	a5,4
 533 0018 6316F502 		bne	a0,a5,.L44
 139:../Peripheral/src/ch32v30x_flash.c ****         FLASH->ADDR = Page_Address;
 534              		.loc 1 139 9 is_stmt 1
 139:../Peripheral/src/ch32v30x_flash.c ****         FLASH->ADDR = Page_Address;
 535              		.loc 1 139 14 is_stmt 0
 536 001c 37240240 		li	s0,1073881088
 537 0020 1C48     		lw	a5,16(s0)
 143:../Peripheral/src/ch32v30x_flash.c **** 
 538              		.loc 1 143 18
 539 0022 37050B00 		li	a0,720896
 540              	.LVL35:
 139:../Peripheral/src/ch32v30x_flash.c ****         FLASH->ADDR = Page_Address;
 541              		.loc 1 139 21
 542 0026 93E72700 		ori	a5,a5,2
 543 002a 1CC8     		sw	a5,16(s0)
 140:../Peripheral/src/ch32v30x_flash.c ****         FLASH->CTLR |= CR_STRT_Set;
 544              		.loc 1 140 9 is_stmt 1
 140:../Peripheral/src/ch32v30x_flash.c ****         FLASH->CTLR |= CR_STRT_Set;
 545              		.loc 1 140 21 is_stmt 0
 546 002c 44C8     		sw	s1,20(s0)
 141:../Peripheral/src/ch32v30x_flash.c **** 
 547              		.loc 1 141 9 is_stmt 1
 141:../Peripheral/src/ch32v30x_flash.c **** 
 548              		.loc 1 141 14 is_stmt 0
 549 002e 1C48     		lw	a5,16(s0)
 141:../Peripheral/src/ch32v30x_flash.c **** 
 550              		.loc 1 141 21
 551 0030 93E70704 		ori	a5,a5,64
 552 0034 1CC8     		sw	a5,16(s0)
 143:../Peripheral/src/ch32v30x_flash.c **** 
 553              		.loc 1 143 9 is_stmt 1
 143:../Peripheral/src/ch32v30x_flash.c **** 
 554              		.loc 1 143 18 is_stmt 0
 555 0036 97000000 		call	FLASH_WaitForLastOperation
 555      E7800000 
 556              	.LVL36:
 145:../Peripheral/src/ch32v30x_flash.c ****     }
 557              		.loc 1 145 9 is_stmt 1
 145:../Peripheral/src/ch32v30x_flash.c ****     }
 558              		.loc 1 145 14 is_stmt 0
 559 003e 1C48     		lw	a5,16(s0)
 145:../Peripheral/src/ch32v30x_flash.c ****     }
 560              		.loc 1 145 21
 561 0040 F59B     		andi	a5,a5,-3
 562 0042 1CC8     		sw	a5,16(s0)
 148:../Peripheral/src/ch32v30x_flash.c **** }
 563              		.loc 1 148 5 is_stmt 1
 564              	.L44:
 149:../Peripheral/src/ch32v30x_flash.c **** 
 565              		.loc 1 149 1 is_stmt 0
 566 0044 17030000 		tail	__riscv_restore_2
 566      67000300 
 567              		.cfi_restore 9
 568              		.cfi_restore 8
 569              		.cfi_restore 1
 570              		.cfi_def_cfa_offset 0
 571              		.cfi_endproc
 572              	.LFE33:
 574              		.section	.text.FLASH_EraseAllPages,"ax",@progbits
 575              		.align	1
 576              		.globl	FLASH_EraseAllPages
 578              	FLASH_EraseAllPages:
 579              	.LFB34:
 160:../Peripheral/src/ch32v30x_flash.c ****     FLASH_Status status = FLASH_COMPLETE;
 580              		.loc 1 160 1 is_stmt 1
 581              		.cfi_startproc
 582 0000 17030000 		call	t0,__riscv_save_1
 582      E7020300 
 583              		.cfi_offset 8, -8
 584              		.cfi_offset 1, -4
 585              		.cfi_def_cfa_offset 16
 161:../Peripheral/src/ch32v30x_flash.c **** 
 586              		.loc 1 161 5
 587              	.LVL37:
 163:../Peripheral/src/ch32v30x_flash.c ****     if(status == FLASH_COMPLETE)
 588              		.loc 1 163 5
 163:../Peripheral/src/ch32v30x_flash.c ****     if(status == FLASH_COMPLETE)
 589              		.loc 1 163 14 is_stmt 0
 590 0008 37050B00 		li	a0,720896
 591 000c 97000000 		call	FLASH_WaitForLastOperation
 591      E7800000 
 592              	.LVL38:
 164:../Peripheral/src/ch32v30x_flash.c ****     {
 593              		.loc 1 164 5 is_stmt 1
 164:../Peripheral/src/ch32v30x_flash.c ****     {
 594              		.loc 1 164 7 is_stmt 0
 595 0014 9147     		li	a5,4
 596 0016 6315F502 		bne	a0,a5,.L47
 166:../Peripheral/src/ch32v30x_flash.c ****         FLASH->CTLR |= CR_STRT_Set;
 597              		.loc 1 166 9 is_stmt 1
 166:../Peripheral/src/ch32v30x_flash.c ****         FLASH->CTLR |= CR_STRT_Set;
 598              		.loc 1 166 14 is_stmt 0
 599 001a 37240240 		li	s0,1073881088
 600 001e 1C48     		lw	a5,16(s0)
 169:../Peripheral/src/ch32v30x_flash.c **** 
 601              		.loc 1 169 18
 602 0020 37050B00 		li	a0,720896
 603              	.LVL39:
 166:../Peripheral/src/ch32v30x_flash.c ****         FLASH->CTLR |= CR_STRT_Set;
 604              		.loc 1 166 21
 605 0024 93E74700 		ori	a5,a5,4
 606 0028 1CC8     		sw	a5,16(s0)
 167:../Peripheral/src/ch32v30x_flash.c **** 
 607              		.loc 1 167 9 is_stmt 1
 167:../Peripheral/src/ch32v30x_flash.c **** 
 608              		.loc 1 167 14 is_stmt 0
 609 002a 1C48     		lw	a5,16(s0)
 167:../Peripheral/src/ch32v30x_flash.c **** 
 610              		.loc 1 167 21
 611 002c 93E70704 		ori	a5,a5,64
 612 0030 1CC8     		sw	a5,16(s0)
 169:../Peripheral/src/ch32v30x_flash.c **** 
 613              		.loc 1 169 9 is_stmt 1
 169:../Peripheral/src/ch32v30x_flash.c **** 
 614              		.loc 1 169 18 is_stmt 0
 615 0032 97000000 		call	FLASH_WaitForLastOperation
 615      E7800000 
 616              	.LVL40:
 171:../Peripheral/src/ch32v30x_flash.c ****     }
 617              		.loc 1 171 9 is_stmt 1
 171:../Peripheral/src/ch32v30x_flash.c ****     }
 618              		.loc 1 171 14 is_stmt 0
 619 003a 1C48     		lw	a5,16(s0)
 171:../Peripheral/src/ch32v30x_flash.c ****     }
 620              		.loc 1 171 21
 621 003c ED9B     		andi	a5,a5,-5
 622 003e 1CC8     		sw	a5,16(s0)
 174:../Peripheral/src/ch32v30x_flash.c **** }
 623              		.loc 1 174 5 is_stmt 1
 624              	.L47:
 175:../Peripheral/src/ch32v30x_flash.c **** 
 625              		.loc 1 175 1 is_stmt 0
 626 0040 17030000 		tail	__riscv_restore_1
 626      67000300 
 627              		.cfi_restore 8
 628              		.cfi_restore 1
 629              		.cfi_def_cfa_offset 0
 630              		.cfi_endproc
 631              	.LFE34:
 633              		.section	.text.FLASH_EraseAllBank1Pages,"ax",@progbits
 634              		.align	1
 635              		.globl	FLASH_EraseAllBank1Pages
 637              	FLASH_EraseAllBank1Pages:
 638              	.LFB70:
 639              		.cfi_startproc
 185:../Peripheral/src/ch32v30x_flash.c **** {
 640              		.loc 1 185 14 is_stmt 1
 641 0000 17030000 		tail	FLASH_EraseAllPages
 641      67000300 
 642              		.cfi_endproc
 643              	.LFE70:
 645              		.section	.text.FLASH_EraseOptionBytes,"ax",@progbits
 646              		.align	1
 647              		.globl	FLASH_EraseOptionBytes
 649              	FLASH_EraseOptionBytes:
 650              	.LFB36:
 211:../Peripheral/src/ch32v30x_flash.c ****     uint16_t     rdptmp = RDP_Key;
 651              		.loc 1 211 1
 652              		.cfi_startproc
 653 0000 17030000 		call	t0,__riscv_save_3
 653      E7020300 
 654              		.cfi_offset 18, -16
 655              		.cfi_offset 9, -12
 656              		.cfi_offset 8, -8
 657              		.cfi_offset 1, -4
 658              		.cfi_def_cfa_offset 16
 212:../Peripheral/src/ch32v30x_flash.c ****     uint32_t     Address = 0x1FFFF800;
 659              		.loc 1 212 5
 660              	.LVL41:
 213:../Peripheral/src/ch32v30x_flash.c ****     __IO uint8_t i;
 661              		.loc 1 213 5
 214:../Peripheral/src/ch32v30x_flash.c **** 
 662              		.loc 1 214 5
 216:../Peripheral/src/ch32v30x_flash.c ****     if(FLASH_GetReadOutProtectionStatus() != RESET)
 663              		.loc 1 216 5
 217:../Peripheral/src/ch32v30x_flash.c ****     {
 664              		.loc 1 217 5
 211:../Peripheral/src/ch32v30x_flash.c ****     uint16_t     rdptmp = RDP_Key;
 665              		.loc 1 211 1 is_stmt 0
 666 0008 4111     		addi	sp,sp,-16
 667              		.cfi_def_cfa_offset 32
 217:../Peripheral/src/ch32v30x_flash.c ****     {
 668              		.loc 1 217 8
 669 000a 97000000 		call	FLASH_GetReadOutProtectionStatus
 669      E7800000 
 670              	.LVL42:
 212:../Peripheral/src/ch32v30x_flash.c ****     uint32_t     Address = 0x1FFFF800;
 671              		.loc 1 212 18
 672 0012 9304500A 		li	s1,165
 217:../Peripheral/src/ch32v30x_flash.c ****     {
 673              		.loc 1 217 7
 674 0016 11C1     		beq	a0,zero,.L53
 675 0018 8144     		li	s1,0
 676              	.L53:
 677              	.LVL43:
 221:../Peripheral/src/ch32v30x_flash.c ****     if(status == FLASH_COMPLETE)
 678              		.loc 1 221 5 is_stmt 1
 221:../Peripheral/src/ch32v30x_flash.c ****     if(status == FLASH_COMPLETE)
 679              		.loc 1 221 14 is_stmt 0
 680 001a 37050B00 		li	a0,720896
 681 001e 97000000 		call	FLASH_WaitForLastOperation
 681      E7800000 
 682              	.LVL44:
 222:../Peripheral/src/ch32v30x_flash.c ****     {
 683              		.loc 1 222 5 is_stmt 1
 222:../Peripheral/src/ch32v30x_flash.c ****     {
 684              		.loc 1 222 7 is_stmt 0
 685 0026 1149     		li	s2,4
 686 0028 631C2509 		bne	a0,s2,.L52
 224:../Peripheral/src/ch32v30x_flash.c ****         FLASH->OBKEYR = FLASH_KEY2;
 687              		.loc 1 224 9 is_stmt 1
 224:../Peripheral/src/ch32v30x_flash.c ****         FLASH->OBKEYR = FLASH_KEY2;
 688              		.loc 1 224 23 is_stmt 0
 689 002c B7076745 		li	a5,1164378112
 690 0030 37240240 		li	s0,1073881088
 691 0034 93873712 		addi	a5,a5,291
 692 0038 1CC4     		sw	a5,8(s0)
 225:../Peripheral/src/ch32v30x_flash.c **** 
 693              		.loc 1 225 9 is_stmt 1
 225:../Peripheral/src/ch32v30x_flash.c **** 
 694              		.loc 1 225 23 is_stmt 0
 695 003a B797EFCD 		li	a5,-839938048
 696 003e 9387B79A 		addi	a5,a5,-1621
 697 0042 1CC4     		sw	a5,8(s0)
 227:../Peripheral/src/ch32v30x_flash.c ****         FLASH->CTLR |= CR_STRT_Set;
 698              		.loc 1 227 9 is_stmt 1
 227:../Peripheral/src/ch32v30x_flash.c ****         FLASH->CTLR |= CR_STRT_Set;
 699              		.loc 1 227 14 is_stmt 0
 700 0044 1C48     		lw	a5,16(s0)
 229:../Peripheral/src/ch32v30x_flash.c **** 
 701              		.loc 1 229 18
 702 0046 37050B00 		li	a0,720896
 703              	.LVL45:
 227:../Peripheral/src/ch32v30x_flash.c ****         FLASH->CTLR |= CR_STRT_Set;
 704              		.loc 1 227 21
 705 004a 93E70702 		ori	a5,a5,32
 706 004e 1CC8     		sw	a5,16(s0)
 228:../Peripheral/src/ch32v30x_flash.c ****         status = FLASH_WaitForLastOperation(EraseTimeout);
 707              		.loc 1 228 9 is_stmt 1
 228:../Peripheral/src/ch32v30x_flash.c ****         status = FLASH_WaitForLastOperation(EraseTimeout);
 708              		.loc 1 228 14 is_stmt 0
 709 0050 1C48     		lw	a5,16(s0)
 228:../Peripheral/src/ch32v30x_flash.c ****         status = FLASH_WaitForLastOperation(EraseTimeout);
 710              		.loc 1 228 21
 711 0052 93E70704 		ori	a5,a5,64
 712 0056 1CC8     		sw	a5,16(s0)
 229:../Peripheral/src/ch32v30x_flash.c **** 
 713              		.loc 1 229 9 is_stmt 1
 229:../Peripheral/src/ch32v30x_flash.c **** 
 714              		.loc 1 229 18 is_stmt 0
 715 0058 97000000 		call	FLASH_WaitForLastOperation
 715      E7800000 
 716              	.LVL46:
 231:../Peripheral/src/ch32v30x_flash.c ****         {
 717              		.loc 1 231 9 is_stmt 1
 231:../Peripheral/src/ch32v30x_flash.c ****         {
 718              		.loc 1 231 11 is_stmt 0
 719 0060 63132503 		bne	a0,s2,.L55
 233:../Peripheral/src/ch32v30x_flash.c ****             FLASH->CTLR |= CR_OPTPG_Set;
 720              		.loc 1 233 13 is_stmt 1
 233:../Peripheral/src/ch32v30x_flash.c ****             FLASH->CTLR |= CR_OPTPG_Set;
 721              		.loc 1 233 18 is_stmt 0
 722 0064 1C48     		lw	a5,16(s0)
 236:../Peripheral/src/ch32v30x_flash.c **** 
 723              		.loc 1 236 22
 724 0066 1565     		li	a0,20480
 725              	.LVL47:
 233:../Peripheral/src/ch32v30x_flash.c ****             FLASH->CTLR |= CR_OPTPG_Set;
 726              		.loc 1 233 25
 727 0068 93F7F7FD 		andi	a5,a5,-33
 728 006c 1CC8     		sw	a5,16(s0)
 234:../Peripheral/src/ch32v30x_flash.c ****             OB->RDPR = (uint16_t)rdptmp;
 729              		.loc 1 234 13 is_stmt 1
 234:../Peripheral/src/ch32v30x_flash.c ****             OB->RDPR = (uint16_t)rdptmp;
 730              		.loc 1 234 18 is_stmt 0
 731 006e 1C48     		lw	a5,16(s0)
 234:../Peripheral/src/ch32v30x_flash.c ****             OB->RDPR = (uint16_t)rdptmp;
 732              		.loc 1 234 25
 733 0070 93E70701 		ori	a5,a5,16
 734 0074 1CC8     		sw	a5,16(s0)
 235:../Peripheral/src/ch32v30x_flash.c ****             status = FLASH_WaitForLastOperation(ProgramTimeout);
 735              		.loc 1 235 13 is_stmt 1
 235:../Peripheral/src/ch32v30x_flash.c ****             status = FLASH_WaitForLastOperation(ProgramTimeout);
 736              		.loc 1 235 22 is_stmt 0
 737 0076 B7070020 		li	a5,536870912
 738 007a 23909780 		sh	s1,-2048(a5)
 236:../Peripheral/src/ch32v30x_flash.c **** 
 739              		.loc 1 236 13 is_stmt 1
 236:../Peripheral/src/ch32v30x_flash.c **** 
 740              		.loc 1 236 22 is_stmt 0
 741 007e 97000000 		call	FLASH_WaitForLastOperation
 741      E7800000 
 742              	.LVL48:
 238:../Peripheral/src/ch32v30x_flash.c ****             {
 743              		.loc 1 238 13 is_stmt 1
 744              	.L55:
 245:../Peripheral/src/ch32v30x_flash.c ****             {
 745              		.loc 1 245 13
 245:../Peripheral/src/ch32v30x_flash.c ****             {
 746              		.loc 1 245 15 is_stmt 0
 747 0086 9547     		li	a5,5
 748 0088 6305F500 		beq	a0,a5,.L57
 247:../Peripheral/src/ch32v30x_flash.c ****             }
 749              		.loc 1 247 17 is_stmt 1
 247:../Peripheral/src/ch32v30x_flash.c ****             }
 750              		.loc 1 247 22 is_stmt 0
 751 008c 1C48     		lw	a5,16(s0)
 247:../Peripheral/src/ch32v30x_flash.c ****             }
 752              		.loc 1 247 29
 753 008e BD9B     		andi	a5,a5,-17
 754 0090 1CC8     		sw	a5,16(s0)
 755              	.L57:
 252:../Peripheral/src/ch32v30x_flash.c **** 
 756              		.loc 1 252 9 is_stmt 1
 252:../Peripheral/src/ch32v30x_flash.c **** 
 757              		.loc 1 252 14 is_stmt 0
 758 0092 37270240 		li	a4,1073881088
 759 0096 1C4B     		lw	a5,16(a4)
 256:../Peripheral/src/ch32v30x_flash.c ****             while(FLASH->STATR & SR_BSY)
 760              		.loc 1 256 44
 761 0098 B7060020 		li	a3,536870912
 762 009c 1306F00F 		li	a2,255
 252:../Peripheral/src/ch32v30x_flash.c **** 
 763              		.loc 1 252 21
 764 00a0 93E70701 		ori	a5,a5,16
 765 00a4 1CCB     		sw	a5,16(a4)
 254:../Peripheral/src/ch32v30x_flash.c ****         {
 766              		.loc 1 254 9 is_stmt 1
 254:../Peripheral/src/ch32v30x_flash.c ****         {
 767              		.loc 1 254 15 is_stmt 0
 768 00a6 A3070100 		sb	zero,15(sp)
 254:../Peripheral/src/ch32v30x_flash.c ****         {
 769              		.loc 1 254 22
 770 00aa 1D47     		li	a4,7
 257:../Peripheral/src/ch32v30x_flash.c ****                 ;
 771              		.loc 1 257 24
 772 00ac B7250240 		li	a1,1073881088
 773              	.L59:
 254:../Peripheral/src/ch32v30x_flash.c ****         {
 774              		.loc 1 254 22 is_stmt 1 discriminator 1
 775 00b0 9C87     		lbu	a5,15(sp)
 776 00b2 637CF700 		bleu	a5,a4,.L61
 261:../Peripheral/src/ch32v30x_flash.c ****     }
 777              		.loc 1 261 9
 261:../Peripheral/src/ch32v30x_flash.c ****     }
 778              		.loc 1 261 14 is_stmt 0
 779 00b6 37270240 		li	a4,1073881088
 780 00ba 1C4B     		lw	a5,16(a4)
 261:../Peripheral/src/ch32v30x_flash.c ****     }
 781              		.loc 1 261 21
 782 00bc BD9B     		andi	a5,a5,-17
 783 00be 1CCB     		sw	a5,16(a4)
 263:../Peripheral/src/ch32v30x_flash.c **** }
 784              		.loc 1 263 5 is_stmt 1
 785              	.L52:
 264:../Peripheral/src/ch32v30x_flash.c **** 
 786              		.loc 1 264 1 is_stmt 0
 787 00c0 4101     		addi	sp,sp,16
 788              		.cfi_remember_state
 789              		.cfi_def_cfa_offset 0
 790 00c2 17030000 		tail	__riscv_restore_3
 790      67000300 
 791              		.cfi_restore 18
 792              		.cfi_restore 9
 793              		.cfi_restore 8
 794              		.cfi_restore 1
 795              		.cfi_def_cfa_offset -16
 796              	.L61:
 797              		.cfi_restore_state
 256:../Peripheral/src/ch32v30x_flash.c ****             while(FLASH->STATR & SR_BSY)
 798              		.loc 1 256 13 is_stmt 1
 256:../Peripheral/src/ch32v30x_flash.c ****             while(FLASH->STATR & SR_BSY)
 799              		.loc 1 256 39 is_stmt 0
 800 00ca 9C87     		lbu	a5,15(sp)
 256:../Peripheral/src/ch32v30x_flash.c ****             while(FLASH->STATR & SR_BSY)
 801              		.loc 1 256 44
 802 00cc 8607     		slli	a5,a5,1
 803 00ce B697     		add	a5,a3,a5
 804 00d0 2390C780 		sh	a2,-2048(a5)
 257:../Peripheral/src/ch32v30x_flash.c ****                 ;
 805              		.loc 1 257 13 is_stmt 1
 806              	.L60:
 257:../Peripheral/src/ch32v30x_flash.c ****                 ;
 807              		.loc 1 257 19 discriminator 1
 257:../Peripheral/src/ch32v30x_flash.c ****                 ;
 808              		.loc 1 257 24 is_stmt 0 discriminator 1
 809 00d4 DC45     		lw	a5,12(a1)
 257:../Peripheral/src/ch32v30x_flash.c ****                 ;
 810              		.loc 1 257 32 discriminator 1
 811 00d6 858B     		andi	a5,a5,1
 257:../Peripheral/src/ch32v30x_flash.c ****                 ;
 812              		.loc 1 257 19 discriminator 1
 813 00d8 F5FF     		bne	a5,zero,.L60
 254:../Peripheral/src/ch32v30x_flash.c ****         {
 814              		.loc 1 254 28 is_stmt 1 discriminator 2
 815 00da 9C87     		lbu	a5,15(sp)
 816 00dc 8507     		addi	a5,a5,1
 817 00de 93F7F70F 		andi	a5,a5,0xff
 818 00e2 DC87     		sb	a5,15(sp)
 819 00e4 F1B7     		j	.L59
 820              		.cfi_endproc
 821              	.LFE36:
 823              		.section	.text.FLASH_ProgramWord,"ax",@progbits
 824              		.align	1
 825              		.globl	FLASH_ProgramWord
 827              	FLASH_ProgramWord:
 828              	.LFB37:
 278:../Peripheral/src/ch32v30x_flash.c ****     FLASH_Status  status = FLASH_COMPLETE;
 829              		.loc 1 278 1
 830              		.cfi_startproc
 831              	.LVL49:
 832 0000 17030000 		call	t0,__riscv_save_4
 832      E7020300 
 833              		.cfi_offset 19, -20
 834              		.cfi_offset 18, -16
 835              		.cfi_offset 9, -12
 836              		.cfi_offset 8, -8
 837              		.cfi_offset 1, -4
 838              		.cfi_def_cfa_offset 32
 279:../Peripheral/src/ch32v30x_flash.c ****     __IO uint32_t tmp = 0;
 839              		.loc 1 279 5
 840              	.LVL50:
 280:../Peripheral/src/ch32v30x_flash.c **** 
 841              		.loc 1 280 5
 278:../Peripheral/src/ch32v30x_flash.c ****     FLASH_Status  status = FLASH_COMPLETE;
 842              		.loc 1 278 1 is_stmt 0
 843 0008 4111     		addi	sp,sp,-16
 844              		.cfi_def_cfa_offset 48
 278:../Peripheral/src/ch32v30x_flash.c ****     FLASH_Status  status = FLASH_COMPLETE;
 845              		.loc 1 278 1
 846 000a 2A89     		mv	s2,a0
 282:../Peripheral/src/ch32v30x_flash.c **** 
 847              		.loc 1 282 14
 848 000c 1565     		li	a0,20480
 849              	.LVL51:
 278:../Peripheral/src/ch32v30x_flash.c ****     FLASH_Status  status = FLASH_COMPLETE;
 850              		.loc 1 278 1
 851 000e AE84     		mv	s1,a1
 280:../Peripheral/src/ch32v30x_flash.c **** 
 852              		.loc 1 280 19
 853 0010 02C6     		sw	zero,12(sp)
 282:../Peripheral/src/ch32v30x_flash.c **** 
 854              		.loc 1 282 5 is_stmt 1
 284:../Peripheral/src/ch32v30x_flash.c ****     {
 855              		.loc 1 284 7 is_stmt 0
 856 0012 9149     		li	s3,4
 282:../Peripheral/src/ch32v30x_flash.c **** 
 857              		.loc 1 282 14
 858 0014 97000000 		call	FLASH_WaitForLastOperation
 858      E7800000 
 859              	.LVL52:
 284:../Peripheral/src/ch32v30x_flash.c ****     {
 860              		.loc 1 284 5 is_stmt 1
 284:../Peripheral/src/ch32v30x_flash.c ****     {
 861              		.loc 1 284 7 is_stmt 0
 862 001c 63113505 		bne	a0,s3,.L68
 286:../Peripheral/src/ch32v30x_flash.c **** 
 863              		.loc 1 286 9 is_stmt 1
 286:../Peripheral/src/ch32v30x_flash.c **** 
 864              		.loc 1 286 14 is_stmt 0
 865 0020 37240240 		li	s0,1073881088
 866 0024 1C48     		lw	a5,16(s0)
 289:../Peripheral/src/ch32v30x_flash.c **** 
 867              		.loc 1 289 18
 868 0026 1565     		li	a0,20480
 869              	.LVL53:
 286:../Peripheral/src/ch32v30x_flash.c **** 
 870              		.loc 1 286 21
 871 0028 93E71700 		ori	a5,a5,1
 872 002c 1CC8     		sw	a5,16(s0)
 288:../Peripheral/src/ch32v30x_flash.c ****         status = FLASH_WaitForLastOperation(ProgramTimeout);
 873              		.loc 1 288 9 is_stmt 1
 288:../Peripheral/src/ch32v30x_flash.c ****         status = FLASH_WaitForLastOperation(ProgramTimeout);
 874              		.loc 1 288 37 is_stmt 0
 875 002e 93970401 		slli	a5,s1,16
 876 0032 C183     		srli	a5,a5,16
 288:../Peripheral/src/ch32v30x_flash.c ****         status = FLASH_WaitForLastOperation(ProgramTimeout);
 877              		.loc 1 288 35
 878 0034 2310F900 		sh	a5,0(s2)
 289:../Peripheral/src/ch32v30x_flash.c **** 
 879              		.loc 1 289 9 is_stmt 1
 289:../Peripheral/src/ch32v30x_flash.c **** 
 880              		.loc 1 289 18 is_stmt 0
 881 0038 97000000 		call	FLASH_WaitForLastOperation
 881      E7800000 
 882              	.LVL54:
 291:../Peripheral/src/ch32v30x_flash.c ****         {
 883              		.loc 1 291 9 is_stmt 1
 291:../Peripheral/src/ch32v30x_flash.c ****         {
 884              		.loc 1 291 11 is_stmt 0
 885 0040 631C3501 		bne	a0,s3,.L70
 293:../Peripheral/src/ch32v30x_flash.c ****             *(__IO uint16_t *)tmp = Data >> 16;
 886              		.loc 1 293 13 is_stmt 1
 293:../Peripheral/src/ch32v30x_flash.c ****             *(__IO uint16_t *)tmp = Data >> 16;
 887              		.loc 1 293 27 is_stmt 0
 888 0044 0909     		addi	s2,s2,2
 889              	.LVL55:
 293:../Peripheral/src/ch32v30x_flash.c ****             *(__IO uint16_t *)tmp = Data >> 16;
 890              		.loc 1 293 17
 891 0046 4AC6     		sw	s2,12(sp)
 294:../Peripheral/src/ch32v30x_flash.c ****             status = FLASH_WaitForLastOperation(ProgramTimeout);
 892              		.loc 1 294 13 is_stmt 1
 294:../Peripheral/src/ch32v30x_flash.c ****             status = FLASH_WaitForLastOperation(ProgramTimeout);
 893              		.loc 1 294 14 is_stmt 0
 894 0048 B247     		lw	a5,12(sp)
 294:../Peripheral/src/ch32v30x_flash.c ****             status = FLASH_WaitForLastOperation(ProgramTimeout);
 895              		.loc 1 294 35
 896 004a C180     		srli	s1,s1,16
 897              	.LVL56:
 295:../Peripheral/src/ch32v30x_flash.c ****             FLASH->CTLR &= CR_PG_Reset;
 898              		.loc 1 295 22
 899 004c 1565     		li	a0,20480
 900              	.LVL57:
 294:../Peripheral/src/ch32v30x_flash.c ****             status = FLASH_WaitForLastOperation(ProgramTimeout);
 901              		.loc 1 294 35
 902 004e 86A3     		sh	s1,0(a5)
 295:../Peripheral/src/ch32v30x_flash.c ****             FLASH->CTLR &= CR_PG_Reset;
 903              		.loc 1 295 13 is_stmt 1
 295:../Peripheral/src/ch32v30x_flash.c ****             FLASH->CTLR &= CR_PG_Reset;
 904              		.loc 1 295 22 is_stmt 0
 905 0050 97000000 		call	FLASH_WaitForLastOperation
 905      E7800000 
 906              	.LVL58:
 296:../Peripheral/src/ch32v30x_flash.c ****         }
 907              		.loc 1 296 13 is_stmt 1
 908              	.L70:
 300:../Peripheral/src/ch32v30x_flash.c ****         }
 909              		.loc 1 300 13
 300:../Peripheral/src/ch32v30x_flash.c ****         }
 910              		.loc 1 300 18 is_stmt 0
 911 0058 1C48     		lw	a5,16(s0)
 300:../Peripheral/src/ch32v30x_flash.c ****         }
 912              		.loc 1 300 25
 913 005a F99B     		andi	a5,a5,-2
 914 005c 1CC8     		sw	a5,16(s0)
 304:../Peripheral/src/ch32v30x_flash.c **** }
 915              		.loc 1 304 5 is_stmt 1
 916              	.L68:
 305:../Peripheral/src/ch32v30x_flash.c **** 
 917              		.loc 1 305 1 is_stmt 0
 918 005e 4101     		addi	sp,sp,16
 919              		.cfi_def_cfa_offset 0
 920 0060 17030000 		tail	__riscv_restore_4
 920      67000300 
 921              		.cfi_restore 19
 922              		.cfi_restore 18
 923              		.cfi_restore 9
 924              		.cfi_restore 8
 925              		.cfi_restore 1
 926              		.cfi_def_cfa_offset -32
 927              		.cfi_endproc
 928              	.LFE37:
 930              		.section	.text.FLASH_ProgramHalfWord,"ax",@progbits
 931              		.align	1
 932              		.globl	FLASH_ProgramHalfWord
 934              	FLASH_ProgramHalfWord:
 935              	.LFB38:
 319:../Peripheral/src/ch32v30x_flash.c ****     FLASH_Status status = FLASH_COMPLETE;
 936              		.loc 1 319 1 is_stmt 1
 937              		.cfi_startproc
 938              	.LVL59:
 939 0000 17030000 		call	t0,__riscv_save_3
 939      E7020300 
 940              		.cfi_offset 18, -16
 941              		.cfi_offset 9, -12
 942              		.cfi_offset 8, -8
 943              		.cfi_offset 1, -4
 944              		.cfi_def_cfa_offset 16
 320:../Peripheral/src/ch32v30x_flash.c **** 
 945              		.loc 1 320 5
 946              	.LVL60:
 322:../Peripheral/src/ch32v30x_flash.c **** 
 947              		.loc 1 322 5
 319:../Peripheral/src/ch32v30x_flash.c ****     FLASH_Status status = FLASH_COMPLETE;
 948              		.loc 1 319 1 is_stmt 0
 949 0008 AA84     		mv	s1,a0
 322:../Peripheral/src/ch32v30x_flash.c **** 
 950              		.loc 1 322 14
 951 000a 1565     		li	a0,20480
 952              	.LVL61:
 319:../Peripheral/src/ch32v30x_flash.c ****     FLASH_Status status = FLASH_COMPLETE;
 953              		.loc 1 319 1
 954 000c 2E89     		mv	s2,a1
 322:../Peripheral/src/ch32v30x_flash.c **** 
 955              		.loc 1 322 14
 956 000e 97000000 		call	FLASH_WaitForLastOperation
 956      E7800000 
 957              	.LVL62:
 324:../Peripheral/src/ch32v30x_flash.c ****     {
 958              		.loc 1 324 5 is_stmt 1
 324:../Peripheral/src/ch32v30x_flash.c ****     {
 959              		.loc 1 324 7 is_stmt 0
 960 0016 9147     		li	a5,4
 961 0018 6312F502 		bne	a0,a5,.L72
 326:../Peripheral/src/ch32v30x_flash.c ****         *(__IO uint16_t *)Address = Data;
 962              		.loc 1 326 9 is_stmt 1
 326:../Peripheral/src/ch32v30x_flash.c ****         *(__IO uint16_t *)Address = Data;
 963              		.loc 1 326 14 is_stmt 0
 964 001c 37240240 		li	s0,1073881088
 965 0020 1C48     		lw	a5,16(s0)
 328:../Peripheral/src/ch32v30x_flash.c ****         FLASH->CTLR &= CR_PG_Reset;
 966              		.loc 1 328 18
 967 0022 1565     		li	a0,20480
 968              	.LVL63:
 326:../Peripheral/src/ch32v30x_flash.c ****         *(__IO uint16_t *)Address = Data;
 969              		.loc 1 326 21
 970 0024 93E71700 		ori	a5,a5,1
 971 0028 1CC8     		sw	a5,16(s0)
 327:../Peripheral/src/ch32v30x_flash.c ****         status = FLASH_WaitForLastOperation(ProgramTimeout);
 972              		.loc 1 327 9 is_stmt 1
 327:../Peripheral/src/ch32v30x_flash.c ****         status = FLASH_WaitForLastOperation(ProgramTimeout);
 973              		.loc 1 327 35 is_stmt 0
 974 002a 23902401 		sh	s2,0(s1)
 328:../Peripheral/src/ch32v30x_flash.c ****         FLASH->CTLR &= CR_PG_Reset;
 975              		.loc 1 328 9 is_stmt 1
 328:../Peripheral/src/ch32v30x_flash.c ****         FLASH->CTLR &= CR_PG_Reset;
 976              		.loc 1 328 18 is_stmt 0
 977 002e 97000000 		call	FLASH_WaitForLastOperation
 977      E7800000 
 978              	.LVL64:
 329:../Peripheral/src/ch32v30x_flash.c ****     }
 979              		.loc 1 329 9 is_stmt 1
 329:../Peripheral/src/ch32v30x_flash.c ****     }
 980              		.loc 1 329 14 is_stmt 0
 981 0036 1C48     		lw	a5,16(s0)
 329:../Peripheral/src/ch32v30x_flash.c ****     }
 982              		.loc 1 329 21
 983 0038 F99B     		andi	a5,a5,-2
 984 003a 1CC8     		sw	a5,16(s0)
 332:../Peripheral/src/ch32v30x_flash.c **** }
 985              		.loc 1 332 5 is_stmt 1
 986              	.L72:
 333:../Peripheral/src/ch32v30x_flash.c **** 
 987              		.loc 1 333 1 is_stmt 0
 988 003c 17030000 		tail	__riscv_restore_3
 988      67000300 
 989              		.cfi_restore 18
 990              		.cfi_restore 9
 991              		.cfi_restore 8
 992              		.cfi_restore 1
 993              		.cfi_def_cfa_offset 0
 994              		.cfi_endproc
 995              	.LFE38:
 997              		.section	.text.FLASH_ProgramOptionByteData,"ax",@progbits
 998              		.align	1
 999              		.globl	FLASH_ProgramOptionByteData
 1001              	FLASH_ProgramOptionByteData:
 1002              	.LFB39:
 347:../Peripheral/src/ch32v30x_flash.c ****     FLASH_Status status = FLASH_COMPLETE;
 1003              		.loc 1 347 1 is_stmt 1
 1004              		.cfi_startproc
 1005              	.LVL65:
 1006 0000 17030000 		call	t0,__riscv_save_2
 1006      E7020300 
 1007              		.cfi_offset 9, -12
 1008              		.cfi_offset 8, -8
 1009              		.cfi_offset 1, -4
 1010              		.cfi_def_cfa_offset 16
 348:../Peripheral/src/ch32v30x_flash.c ****     uint32_t     Addr = 0x1FFFF800;
 1011              		.loc 1 348 5
 1012              	.LVL66:
 349:../Peripheral/src/ch32v30x_flash.c ****     __IO uint8_t i;
 1013              		.loc 1 349 5
 350:../Peripheral/src/ch32v30x_flash.c ****     uint16_t     pbuf[8];
 1014              		.loc 1 350 5
 351:../Peripheral/src/ch32v30x_flash.c **** 
 1015              		.loc 1 351 5
 353:../Peripheral/src/ch32v30x_flash.c ****     if(status == FLASH_COMPLETE)
 1016              		.loc 1 353 5
 347:../Peripheral/src/ch32v30x_flash.c ****     FLASH_Status status = FLASH_COMPLETE;
 1017              		.loc 1 347 1 is_stmt 0
 1018 0008 0111     		addi	sp,sp,-32
 1019              		.cfi_def_cfa_offset 48
 347:../Peripheral/src/ch32v30x_flash.c ****     FLASH_Status status = FLASH_COMPLETE;
 1020              		.loc 1 347 1
 1021 000a 2A84     		mv	s0,a0
 353:../Peripheral/src/ch32v30x_flash.c ****     if(status == FLASH_COMPLETE)
 1022              		.loc 1 353 14
 1023 000c 1565     		li	a0,20480
 1024              	.LVL67:
 347:../Peripheral/src/ch32v30x_flash.c ****     FLASH_Status status = FLASH_COMPLETE;
 1025              		.loc 1 347 1
 1026 000e AE84     		mv	s1,a1
 353:../Peripheral/src/ch32v30x_flash.c ****     if(status == FLASH_COMPLETE)
 1027              		.loc 1 353 14
 1028 0010 97000000 		call	FLASH_WaitForLastOperation
 1028      E7800000 
 1029              	.LVL68:
 354:../Peripheral/src/ch32v30x_flash.c ****     {
 1030              		.loc 1 354 5 is_stmt 1
 354:../Peripheral/src/ch32v30x_flash.c ****     {
 1031              		.loc 1 354 7 is_stmt 0
 1032 0018 9147     		li	a5,4
 1033 001a 6311F50A 		bne	a0,a5,.L75
 356:../Peripheral/src/ch32v30x_flash.c ****         FLASH->OBKEYR = FLASH_KEY2;
 1034              		.loc 1 356 9 is_stmt 1
 356:../Peripheral/src/ch32v30x_flash.c ****         FLASH->OBKEYR = FLASH_KEY2;
 1035              		.loc 1 356 23 is_stmt 0
 1036 001e B7076745 		li	a5,1164378112
 1037 0022 37270240 		li	a4,1073881088
 1038 0026 93873712 		addi	a5,a5,291
 1039 002a 1CC7     		sw	a5,8(a4)
 357:../Peripheral/src/ch32v30x_flash.c **** 
 1040              		.loc 1 357 9 is_stmt 1
 357:../Peripheral/src/ch32v30x_flash.c **** 
 1041              		.loc 1 357 23 is_stmt 0
 1042 002c B797EFCD 		li	a5,-839938048
 1043 0030 9387B79A 		addi	a5,a5,-1621
 1044 0034 1CC7     		sw	a5,8(a4)
 360:../Peripheral/src/ch32v30x_flash.c ****         {
 1045              		.loc 1 360 9 is_stmt 1
 360:../Peripheral/src/ch32v30x_flash.c ****         {
 1046              		.loc 1 360 15 is_stmt 0
 1047 0036 A3070100 		sb	zero,15(sp)
 360:../Peripheral/src/ch32v30x_flash.c ****         {
 1048              		.loc 1 360 22
 1049 003a 9D46     		li	a3,7
 362:../Peripheral/src/ch32v30x_flash.c ****         }
 1050              		.loc 1 362 23
 1051 003c 37060020 		li	a2,536870912
 1052              	.L77:
 360:../Peripheral/src/ch32v30x_flash.c ****         {
 1053              		.loc 1 360 22 is_stmt 1 discriminator 1
 1054 0040 9C87     		lbu	a5,15(sp)
 1055 0042 63F2F608 		bleu	a5,a3,.L78
 366:../Peripheral/src/ch32v30x_flash.c ****         FLASH->CTLR |= CR_STRT_Set;
 1056              		.loc 1 366 9
 366:../Peripheral/src/ch32v30x_flash.c ****         FLASH->CTLR |= CR_STRT_Set;
 1057              		.loc 1 366 14 is_stmt 0
 1058 0046 B7270240 		li	a5,1073881088
 1059 004a 984B     		lw	a4,16(a5)
 366:../Peripheral/src/ch32v30x_flash.c ****         FLASH->CTLR |= CR_STRT_Set;
 1060              		.loc 1 366 21
 1061 004c 13670702 		ori	a4,a4,32
 1062 0050 98CB     		sw	a4,16(a5)
 367:../Peripheral/src/ch32v30x_flash.c ****         while(FLASH->STATR & SR_BSY)
 1063              		.loc 1 367 9 is_stmt 1
 367:../Peripheral/src/ch32v30x_flash.c ****         while(FLASH->STATR & SR_BSY)
 1064              		.loc 1 367 14 is_stmt 0
 1065 0052 984B     		lw	a4,16(a5)
 367:../Peripheral/src/ch32v30x_flash.c ****         while(FLASH->STATR & SR_BSY)
 1066              		.loc 1 367 21
 1067 0054 13670704 		ori	a4,a4,64
 1068 0058 98CB     		sw	a4,16(a5)
 368:../Peripheral/src/ch32v30x_flash.c ****             ;
 1069              		.loc 1 368 9 is_stmt 1
 368:../Peripheral/src/ch32v30x_flash.c ****             ;
 1070              		.loc 1 368 20 is_stmt 0
 1071 005a 37270240 		li	a4,1073881088
 1072              	.L79:
 368:../Peripheral/src/ch32v30x_flash.c ****             ;
 1073              		.loc 1 368 15 is_stmt 1 discriminator 1
 368:../Peripheral/src/ch32v30x_flash.c ****             ;
 1074              		.loc 1 368 20 is_stmt 0 discriminator 1
 1075 005e 5C47     		lw	a5,12(a4)
 368:../Peripheral/src/ch32v30x_flash.c ****             ;
 1076              		.loc 1 368 28 discriminator 1
 1077 0060 858B     		andi	a5,a5,1
 368:../Peripheral/src/ch32v30x_flash.c ****             ;
 1078              		.loc 1 368 15 discriminator 1
 1079 0062 F5FF     		bne	a5,zero,.L79
 370:../Peripheral/src/ch32v30x_flash.c **** 
 1080              		.loc 1 370 9 is_stmt 1
 370:../Peripheral/src/ch32v30x_flash.c **** 
 1081              		.loc 1 370 14 is_stmt 0
 1082 0064 37270240 		li	a4,1073881088
 1083 0068 1C4B     		lw	a5,16(a4)
 377:../Peripheral/src/ch32v30x_flash.c ****         {
 1084              		.loc 1 377 22
 1085 006a 9D46     		li	a3,7
 379:../Peripheral/src/ch32v30x_flash.c ****             while(FLASH->STATR & SR_BSY)
 1086              		.loc 1 379 41
 1087 006c 37060020 		li	a2,536870912
 370:../Peripheral/src/ch32v30x_flash.c **** 
 1088              		.loc 1 370 21
 1089 0070 93F7F7FD 		andi	a5,a5,-33
 1090 0074 1CCB     		sw	a5,16(a4)
 373:../Peripheral/src/ch32v30x_flash.c **** 
 1091              		.loc 1 373 9 is_stmt 1
 373:../Peripheral/src/ch32v30x_flash.c **** 
 1092              		.loc 1 373 24 is_stmt 0
 1093 0076 B71700E0 		li	a5,-536866816
 1094 007a 93870780 		addi	a5,a5,-2048
 1095 007e 3E94     		add	s0,s0,a5
 1096              	.LVL69:
 373:../Peripheral/src/ch32v30x_flash.c **** 
 1097              		.loc 1 373 44
 1098 0080 7998     		andi	s0,s0,-2
 1099              	.LVL70:
 1100 0082 93070402 		addi	a5,s0,32
 1101 0086 33842700 		add	s0,a5,sp
 373:../Peripheral/src/ch32v30x_flash.c **** 
 1102              		.loc 1 373 49
 1103 008a 93C7F4FF 		not	a5,s1
 1104 008e C207     		slli	a5,a5,16
 1105 0090 C183     		srli	a5,a5,16
 373:../Peripheral/src/ch32v30x_flash.c **** 
 1106              		.loc 1 373 69
 1107 0092 A207     		slli	a5,a5,8
 373:../Peripheral/src/ch32v30x_flash.c **** 
 1108              		.loc 1 373 75
 1109 0094 B3E59700 		or	a1,a5,s1
 375:../Peripheral/src/ch32v30x_flash.c **** 
 1110              		.loc 1 375 14
 1111 0098 1C4B     		lw	a5,16(a4)
 373:../Peripheral/src/ch32v30x_flash.c **** 
 1112              		.loc 1 373 44
 1113 009a 2318B4FE 		sh	a1,-16(s0)
 375:../Peripheral/src/ch32v30x_flash.c **** 
 1114              		.loc 1 375 9 is_stmt 1
 380:../Peripheral/src/ch32v30x_flash.c ****                 ;
 1115              		.loc 1 380 24 is_stmt 0
 1116 009e B7250240 		li	a1,1073881088
 375:../Peripheral/src/ch32v30x_flash.c **** 
 1117              		.loc 1 375 21
 1118 00a2 93E70701 		ori	a5,a5,16
 1119 00a6 1CCB     		sw	a5,16(a4)
 377:../Peripheral/src/ch32v30x_flash.c ****         {
 1120              		.loc 1 377 9 is_stmt 1
 377:../Peripheral/src/ch32v30x_flash.c ****         {
 1121              		.loc 1 377 15 is_stmt 0
 1122 00a8 A3070100 		sb	zero,15(sp)
 1123              	.L80:
 377:../Peripheral/src/ch32v30x_flash.c ****         {
 1124              		.loc 1 377 22 is_stmt 1 discriminator 1
 1125 00ac 9C87     		lbu	a5,15(sp)
 1126 00ae 63FEF602 		bleu	a5,a3,.L82
 384:../Peripheral/src/ch32v30x_flash.c ****     }
 1127              		.loc 1 384 9
 384:../Peripheral/src/ch32v30x_flash.c ****     }
 1128              		.loc 1 384 14 is_stmt 0
 1129 00b2 37270240 		li	a4,1073881088
 1130 00b6 1C4B     		lw	a5,16(a4)
 384:../Peripheral/src/ch32v30x_flash.c ****     }
 1131              		.loc 1 384 21
 1132 00b8 BD9B     		andi	a5,a5,-17
 1133 00ba 1CCB     		sw	a5,16(a4)
 387:../Peripheral/src/ch32v30x_flash.c **** }
 1134              		.loc 1 387 5 is_stmt 1
 1135              	.L75:
 388:../Peripheral/src/ch32v30x_flash.c **** 
 1136              		.loc 1 388 1 is_stmt 0
 1137 00bc 0561     		addi	sp,sp,32
 1138              		.cfi_remember_state
 1139              		.cfi_def_cfa_offset 0
 1140 00be 17030000 		tail	__riscv_restore_2
 1140      67000300 
 1141              		.cfi_restore 9
 1142              		.cfi_restore 8
 1143              		.cfi_restore 1
 1144              		.cfi_def_cfa_offset -16
 1145              	.LVL71:
 1146              	.L78:
 1147              		.cfi_restore_state
 362:../Peripheral/src/ch32v30x_flash.c ****         }
 1148              		.loc 1 362 13 is_stmt 1 discriminator 3
 362:../Peripheral/src/ch32v30x_flash.c ****         }
 1149              		.loc 1 362 46 is_stmt 0 discriminator 3
 1150 00c6 9887     		lbu	a4,15(sp)
 362:../Peripheral/src/ch32v30x_flash.c ****         }
 1151              		.loc 1 362 17 discriminator 3
 1152 00c8 9C87     		lbu	a5,15(sp)
 362:../Peripheral/src/ch32v30x_flash.c ****         }
 1153              		.loc 1 362 23 discriminator 3
 1154 00ca 0607     		slli	a4,a4,1
 1155 00cc 3297     		add	a4,a2,a4
 362:../Peripheral/src/ch32v30x_flash.c ****         }
 1156              		.loc 1 362 21 discriminator 3
 1157 00ce 03570780 		lhu	a4,-2048(a4)
 1158 00d2 8607     		slli	a5,a5,1
 1159 00d4 93870702 		addi	a5,a5,32
 1160 00d8 8A97     		add	a5,a5,sp
 1161 00da 2398E7FE 		sh	a4,-16(a5)
 360:../Peripheral/src/ch32v30x_flash.c ****         {
 1162              		.loc 1 360 28 is_stmt 1 discriminator 3
 1163 00de 9C87     		lbu	a5,15(sp)
 1164 00e0 8507     		addi	a5,a5,1
 1165 00e2 93F7F70F 		andi	a5,a5,0xff
 1166 00e6 DC87     		sb	a5,15(sp)
 1167 00e8 A1BF     		j	.L77
 1168              	.LVL72:
 1169              	.L82:
 379:../Peripheral/src/ch32v30x_flash.c ****             while(FLASH->STATR & SR_BSY)
 1170              		.loc 1 379 13
 379:../Peripheral/src/ch32v30x_flash.c ****             while(FLASH->STATR & SR_BSY)
 1171              		.loc 1 379 47 is_stmt 0
 1172 00ea 9887     		lbu	a4,15(sp)
 379:../Peripheral/src/ch32v30x_flash.c ****             while(FLASH->STATR & SR_BSY)
 1173              		.loc 1 379 36
 1174 00ec 9C87     		lbu	a5,15(sp)
 379:../Peripheral/src/ch32v30x_flash.c ****             while(FLASH->STATR & SR_BSY)
 1175              		.loc 1 379 47
 1176 00ee 0607     		slli	a4,a4,1
 1177 00f0 13070702 		addi	a4,a4,32
 1178 00f4 0A97     		add	a4,a4,sp
 379:../Peripheral/src/ch32v30x_flash.c ****             while(FLASH->STATR & SR_BSY)
 1179              		.loc 1 379 41
 1180 00f6 035707FF 		lhu	a4,-16(a4)
 1181 00fa 8607     		slli	a5,a5,1
 1182 00fc B297     		add	a5,a2,a5
 1183 00fe 2390E780 		sh	a4,-2048(a5)
 380:../Peripheral/src/ch32v30x_flash.c ****                 ;
 1184              		.loc 1 380 13 is_stmt 1
 1185              	.L81:
 380:../Peripheral/src/ch32v30x_flash.c ****                 ;
 1186              		.loc 1 380 19 discriminator 1
 380:../Peripheral/src/ch32v30x_flash.c ****                 ;
 1187              		.loc 1 380 24 is_stmt 0 discriminator 1
 1188 0102 DC45     		lw	a5,12(a1)
 380:../Peripheral/src/ch32v30x_flash.c ****                 ;
 1189              		.loc 1 380 32 discriminator 1
 1190 0104 858B     		andi	a5,a5,1
 380:../Peripheral/src/ch32v30x_flash.c ****                 ;
 1191              		.loc 1 380 19 discriminator 1
 1192 0106 F5FF     		bne	a5,zero,.L81
 377:../Peripheral/src/ch32v30x_flash.c ****         {
 1193              		.loc 1 377 28 is_stmt 1 discriminator 2
 1194 0108 9C87     		lbu	a5,15(sp)
 1195 010a 8507     		addi	a5,a5,1
 1196 010c 93F7F70F 		andi	a5,a5,0xff
 1197 0110 DC87     		sb	a5,15(sp)
 1198 0112 69BF     		j	.L80
 1199              		.cfi_endproc
 1200              	.LFE39:
 1202              		.section	.text.FLASH_EnableWriteProtection,"ax",@progbits
 1203              		.align	1
 1204              		.globl	FLASH_EnableWriteProtection
 1206              	FLASH_EnableWriteProtection:
 1207              	.LFB40:
 401:../Peripheral/src/ch32v30x_flash.c ****     uint16_t     WRP0_Data = 0xFFFF, WRP1_Data = 0xFFFF, WRP2_Data = 0xFFFF, WRP3_Data = 0xFFFF;
 1208              		.loc 1 401 1
 1209              		.cfi_startproc
 1210              	.LVL73:
 1211 0000 17030000 		call	t0,__riscv_save_1
 1211      E7020300 
 1212              		.cfi_offset 8, -8
 1213              		.cfi_offset 1, -4
 1214              		.cfi_def_cfa_offset 16
 402:../Peripheral/src/ch32v30x_flash.c ****     FLASH_Status status = FLASH_COMPLETE;
 1215              		.loc 1 402 5
 1216              	.LVL74:
 403:../Peripheral/src/ch32v30x_flash.c ****     uint32_t     Addr = 0x1FFFF800;
 1217              		.loc 1 403 5
 404:../Peripheral/src/ch32v30x_flash.c ****     __IO uint8_t i;
 1218              		.loc 1 404 5
 405:../Peripheral/src/ch32v30x_flash.c ****     uint16_t     pbuf[8];
 1219              		.loc 1 405 5
 406:../Peripheral/src/ch32v30x_flash.c **** 
 1220              		.loc 1 406 5
 408:../Peripheral/src/ch32v30x_flash.c ****     WRP0_Data = (uint16_t)(FLASH_Sectors & WRP0_Mask);
 1221              		.loc 1 408 5
 401:../Peripheral/src/ch32v30x_flash.c ****     uint16_t     WRP0_Data = 0xFFFF, WRP1_Data = 0xFFFF, WRP2_Data = 0xFFFF, WRP3_Data = 0xFFFF;
 1222              		.loc 1 401 1 is_stmt 0
 1223 0008 0111     		addi	sp,sp,-32
 1224              		.cfi_def_cfa_offset 48
 401:../Peripheral/src/ch32v30x_flash.c ****     uint16_t     WRP0_Data = 0xFFFF, WRP1_Data = 0xFFFF, WRP2_Data = 0xFFFF, WRP3_Data = 0xFFFF;
 1225              		.loc 1 401 1
 1226 000a 2A84     		mv	s0,a0
 1227              	.LVL75:
 409:../Peripheral/src/ch32v30x_flash.c ****     WRP1_Data = (uint16_t)((FLASH_Sectors & WRP1_Mask) >> 8);
 1228              		.loc 1 409 5 is_stmt 1
 410:../Peripheral/src/ch32v30x_flash.c ****     WRP2_Data = (uint16_t)((FLASH_Sectors & WRP2_Mask) >> 16);
 1229              		.loc 1 410 5
 411:../Peripheral/src/ch32v30x_flash.c ****     WRP3_Data = (uint16_t)((FLASH_Sectors & WRP3_Mask) >> 24);
 1230              		.loc 1 411 5
 412:../Peripheral/src/ch32v30x_flash.c **** 
 1231              		.loc 1 412 5
 414:../Peripheral/src/ch32v30x_flash.c **** 
 1232              		.loc 1 414 5
 414:../Peripheral/src/ch32v30x_flash.c **** 
 1233              		.loc 1 414 14 is_stmt 0
 1234 000c 1565     		li	a0,20480
 1235              	.LVL76:
 1236 000e 97000000 		call	FLASH_WaitForLastOperation
 1236      E7800000 
 1237              	.LVL77:
 416:../Peripheral/src/ch32v30x_flash.c ****     {
 1238              		.loc 1 416 5 is_stmt 1
 416:../Peripheral/src/ch32v30x_flash.c ****     {
 1239              		.loc 1 416 7 is_stmt 0
 1240 0016 9147     		li	a5,4
 1241 0018 631FF508 		bne	a0,a5,.L86
 418:../Peripheral/src/ch32v30x_flash.c ****         FLASH->OBKEYR = FLASH_KEY2;
 1242              		.loc 1 418 9 is_stmt 1
 418:../Peripheral/src/ch32v30x_flash.c ****         FLASH->OBKEYR = FLASH_KEY2;
 1243              		.loc 1 418 23 is_stmt 0
 1244 001c B7076745 		li	a5,1164378112
 1245 0020 37270240 		li	a4,1073881088
 1246 0024 93873712 		addi	a5,a5,291
 1247 0028 1CC7     		sw	a5,8(a4)
 419:../Peripheral/src/ch32v30x_flash.c **** 
 1248              		.loc 1 419 9 is_stmt 1
 419:../Peripheral/src/ch32v30x_flash.c **** 
 1249              		.loc 1 419 23 is_stmt 0
 1250 002a B797EFCD 		li	a5,-839938048
 1251 002e 9387B79A 		addi	a5,a5,-1621
 1252 0032 1CC7     		sw	a5,8(a4)
 422:../Peripheral/src/ch32v30x_flash.c ****         {
 1253              		.loc 1 422 9 is_stmt 1
 422:../Peripheral/src/ch32v30x_flash.c ****         {
 1254              		.loc 1 422 15 is_stmt 0
 1255 0034 A3070100 		sb	zero,15(sp)
 422:../Peripheral/src/ch32v30x_flash.c ****         {
 1256              		.loc 1 422 22
 1257 0038 9D46     		li	a3,7
 424:../Peripheral/src/ch32v30x_flash.c ****         }
 1258              		.loc 1 424 23
 1259 003a 37060020 		li	a2,536870912
 1260              	.L88:
 422:../Peripheral/src/ch32v30x_flash.c ****         {
 1261              		.loc 1 422 22 is_stmt 1 discriminator 1
 1262 003e 9C87     		lbu	a5,15(sp)
 1263 0040 63F0F608 		bleu	a5,a3,.L89
 428:../Peripheral/src/ch32v30x_flash.c ****         FLASH->CTLR |= CR_STRT_Set;
 1264              		.loc 1 428 9
 428:../Peripheral/src/ch32v30x_flash.c ****         FLASH->CTLR |= CR_STRT_Set;
 1265              		.loc 1 428 14 is_stmt 0
 1266 0044 B7270240 		li	a5,1073881088
 1267 0048 984B     		lw	a4,16(a5)
 428:../Peripheral/src/ch32v30x_flash.c ****         FLASH->CTLR |= CR_STRT_Set;
 1268              		.loc 1 428 21
 1269 004a 13670702 		ori	a4,a4,32
 1270 004e 98CB     		sw	a4,16(a5)
 429:../Peripheral/src/ch32v30x_flash.c ****         while(FLASH->STATR & SR_BSY)
 1271              		.loc 1 429 9 is_stmt 1
 429:../Peripheral/src/ch32v30x_flash.c ****         while(FLASH->STATR & SR_BSY)
 1272              		.loc 1 429 14 is_stmt 0
 1273 0050 984B     		lw	a4,16(a5)
 429:../Peripheral/src/ch32v30x_flash.c ****         while(FLASH->STATR & SR_BSY)
 1274              		.loc 1 429 21
 1275 0052 13670704 		ori	a4,a4,64
 1276 0056 98CB     		sw	a4,16(a5)
 430:../Peripheral/src/ch32v30x_flash.c ****             ;
 1277              		.loc 1 430 9 is_stmt 1
 430:../Peripheral/src/ch32v30x_flash.c ****             ;
 1278              		.loc 1 430 20 is_stmt 0
 1279 0058 37270240 		li	a4,1073881088
 1280              	.L90:
 430:../Peripheral/src/ch32v30x_flash.c ****             ;
 1281              		.loc 1 430 15 is_stmt 1 discriminator 1
 430:../Peripheral/src/ch32v30x_flash.c ****             ;
 1282              		.loc 1 430 20 is_stmt 0 discriminator 1
 1283 005c 5C47     		lw	a5,12(a4)
 430:../Peripheral/src/ch32v30x_flash.c ****             ;
 1284              		.loc 1 430 28 discriminator 1
 1285 005e 858B     		andi	a5,a5,1
 430:../Peripheral/src/ch32v30x_flash.c ****             ;
 1286              		.loc 1 430 15 discriminator 1
 1287 0060 F5FF     		bne	a5,zero,.L90
 432:../Peripheral/src/ch32v30x_flash.c **** 
 1288              		.loc 1 432 14
 1289 0062 37270240 		li	a4,1073881088
 1290 0066 144B     		lw	a3,16(a4)
 408:../Peripheral/src/ch32v30x_flash.c ****     WRP0_Data = (uint16_t)(FLASH_Sectors & WRP0_Mask);
 1291              		.loc 1 408 19
 1292 0068 9347F4FF 		not	a5,s0
 432:../Peripheral/src/ch32v30x_flash.c **** 
 1293              		.loc 1 432 9 is_stmt 1
 443:../Peripheral/src/ch32v30x_flash.c ****             while(FLASH->STATR & SR_BSY)
 1294              		.loc 1 443 41 is_stmt 0
 1295 006c 37060020 		li	a2,536870912
 432:../Peripheral/src/ch32v30x_flash.c **** 
 1296              		.loc 1 432 21
 1297 0070 93F6F6FD 		andi	a3,a3,-33
 1298 0074 14CB     		sw	a3,16(a4)
 435:../Peripheral/src/ch32v30x_flash.c ****         pbuf[5] = WRP1_Data;
 1299              		.loc 1 435 9 is_stmt 1
 409:../Peripheral/src/ch32v30x_flash.c ****     WRP1_Data = (uint16_t)((FLASH_Sectors & WRP1_Mask) >> 8);
 1300              		.loc 1 409 15 is_stmt 0
 1301 0076 93F6F70F 		andi	a3,a5,255
 435:../Peripheral/src/ch32v30x_flash.c ****         pbuf[5] = WRP1_Data;
 1302              		.loc 1 435 17
 1303 007a F484     		sh	a3,24(sp)
 436:../Peripheral/src/ch32v30x_flash.c ****         pbuf[6] = WRP2_Data;
 1304              		.loc 1 436 9 is_stmt 1
 410:../Peripheral/src/ch32v30x_flash.c ****     WRP2_Data = (uint16_t)((FLASH_Sectors & WRP2_Mask) >> 16);
 1305              		.loc 1 410 56 is_stmt 0
 1306 007c 93D68700 		srli	a3,a5,8
 410:../Peripheral/src/ch32v30x_flash.c ****     WRP2_Data = (uint16_t)((FLASH_Sectors & WRP2_Mask) >> 16);
 1307              		.loc 1 410 15
 1308 0080 93F6F60F 		andi	a3,a3,255
 436:../Peripheral/src/ch32v30x_flash.c ****         pbuf[6] = WRP2_Data;
 1309              		.loc 1 436 17
 1310 0084 F485     		sh	a3,26(sp)
 437:../Peripheral/src/ch32v30x_flash.c ****         pbuf[7] = WRP3_Data;
 1311              		.loc 1 437 9 is_stmt 1
 411:../Peripheral/src/ch32v30x_flash.c ****     WRP3_Data = (uint16_t)((FLASH_Sectors & WRP3_Mask) >> 24);
 1312              		.loc 1 411 56 is_stmt 0
 1313 0086 93D60701 		srli	a3,a5,16
 412:../Peripheral/src/ch32v30x_flash.c **** 
 1314              		.loc 1 412 56
 1315 008a E183     		srli	a5,a5,24
 412:../Peripheral/src/ch32v30x_flash.c **** 
 1316              		.loc 1 412 15
 1317 008c FC87     		sh	a5,30(sp)
 440:../Peripheral/src/ch32v30x_flash.c ****         for(i = 0; i < 8; i++)
 1318              		.loc 1 440 14
 1319 008e 1C4B     		lw	a5,16(a4)
 411:../Peripheral/src/ch32v30x_flash.c ****     WRP3_Data = (uint16_t)((FLASH_Sectors & WRP3_Mask) >> 24);
 1320              		.loc 1 411 15
 1321 0090 93F6F60F 		andi	a3,a3,255
 437:../Peripheral/src/ch32v30x_flash.c ****         pbuf[7] = WRP3_Data;
 1322              		.loc 1 437 17
 1323 0094 F486     		sh	a3,28(sp)
 438:../Peripheral/src/ch32v30x_flash.c **** 
 1324              		.loc 1 438 9 is_stmt 1
 440:../Peripheral/src/ch32v30x_flash.c ****         for(i = 0; i < 8; i++)
 1325              		.loc 1 440 9
 440:../Peripheral/src/ch32v30x_flash.c ****         for(i = 0; i < 8; i++)
 1326              		.loc 1 440 21 is_stmt 0
 1327 0096 93E70701 		ori	a5,a5,16
 1328 009a 1CCB     		sw	a5,16(a4)
 441:../Peripheral/src/ch32v30x_flash.c ****         {
 1329              		.loc 1 441 9 is_stmt 1
 441:../Peripheral/src/ch32v30x_flash.c ****         {
 1330              		.loc 1 441 15 is_stmt 0
 1331 009c A3070100 		sb	zero,15(sp)
 441:../Peripheral/src/ch32v30x_flash.c ****         {
 1332              		.loc 1 441 22
 1333 00a0 9D46     		li	a3,7
 444:../Peripheral/src/ch32v30x_flash.c ****                 ;
 1334              		.loc 1 444 24
 1335 00a2 B7250240 		li	a1,1073881088
 1336              	.L91:
 441:../Peripheral/src/ch32v30x_flash.c ****         {
 1337              		.loc 1 441 22 is_stmt 1 discriminator 1
 1338 00a6 9C87     		lbu	a5,15(sp)
 1339 00a8 63FEF602 		bleu	a5,a3,.L93
 447:../Peripheral/src/ch32v30x_flash.c ****     }
 1340              		.loc 1 447 9
 447:../Peripheral/src/ch32v30x_flash.c ****     }
 1341              		.loc 1 447 14 is_stmt 0
 1342 00ac 37270240 		li	a4,1073881088
 1343 00b0 1C4B     		lw	a5,16(a4)
 447:../Peripheral/src/ch32v30x_flash.c ****     }
 1344              		.loc 1 447 21
 1345 00b2 BD9B     		andi	a5,a5,-17
 1346 00b4 1CCB     		sw	a5,16(a4)
 449:../Peripheral/src/ch32v30x_flash.c **** }
 1347              		.loc 1 449 5 is_stmt 1
 1348              	.L86:
 450:../Peripheral/src/ch32v30x_flash.c **** 
 1349              		.loc 1 450 1 is_stmt 0
 1350 00b6 0561     		addi	sp,sp,32
 1351              		.cfi_remember_state
 1352              		.cfi_def_cfa_offset 0
 1353 00b8 17030000 		tail	__riscv_restore_1
 1353      67000300 
 1354              		.cfi_restore 8
 1355              		.cfi_restore 1
 1356              		.cfi_def_cfa_offset -16
 1357              	.L89:
 1358              		.cfi_restore_state
 424:../Peripheral/src/ch32v30x_flash.c ****         }
 1359              		.loc 1 424 13 is_stmt 1 discriminator 3
 424:../Peripheral/src/ch32v30x_flash.c ****         }
 1360              		.loc 1 424 46 is_stmt 0 discriminator 3
 1361 00c0 9887     		lbu	a4,15(sp)
 424:../Peripheral/src/ch32v30x_flash.c ****         }
 1362              		.loc 1 424 17 discriminator 3
 1363 00c2 9C87     		lbu	a5,15(sp)
 424:../Peripheral/src/ch32v30x_flash.c ****         }
 1364              		.loc 1 424 23 discriminator 3
 1365 00c4 0607     		slli	a4,a4,1
 1366 00c6 3297     		add	a4,a2,a4
 424:../Peripheral/src/ch32v30x_flash.c ****         }
 1367              		.loc 1 424 21 discriminator 3
 1368 00c8 03570780 		lhu	a4,-2048(a4)
 1369 00cc 8607     		slli	a5,a5,1
 1370 00ce 93870702 		addi	a5,a5,32
 1371 00d2 8A97     		add	a5,a5,sp
 1372 00d4 2398E7FE 		sh	a4,-16(a5)
 422:../Peripheral/src/ch32v30x_flash.c ****         {
 1373              		.loc 1 422 28 is_stmt 1 discriminator 3
 1374 00d8 9C87     		lbu	a5,15(sp)
 1375 00da 8507     		addi	a5,a5,1
 1376 00dc 93F7F70F 		andi	a5,a5,0xff
 1377 00e0 DC87     		sb	a5,15(sp)
 1378 00e2 B1BF     		j	.L88
 1379              	.L93:
 443:../Peripheral/src/ch32v30x_flash.c ****             while(FLASH->STATR & SR_BSY)
 1380              		.loc 1 443 13
 443:../Peripheral/src/ch32v30x_flash.c ****             while(FLASH->STATR & SR_BSY)
 1381              		.loc 1 443 47 is_stmt 0
 1382 00e4 9887     		lbu	a4,15(sp)
 443:../Peripheral/src/ch32v30x_flash.c ****             while(FLASH->STATR & SR_BSY)
 1383              		.loc 1 443 36
 1384 00e6 9C87     		lbu	a5,15(sp)
 443:../Peripheral/src/ch32v30x_flash.c ****             while(FLASH->STATR & SR_BSY)
 1385              		.loc 1 443 47
 1386 00e8 0607     		slli	a4,a4,1
 1387 00ea 13070702 		addi	a4,a4,32
 1388 00ee 0A97     		add	a4,a4,sp
 443:../Peripheral/src/ch32v30x_flash.c ****             while(FLASH->STATR & SR_BSY)
 1389              		.loc 1 443 41
 1390 00f0 035707FF 		lhu	a4,-16(a4)
 1391 00f4 8607     		slli	a5,a5,1
 1392 00f6 B297     		add	a5,a2,a5
 1393 00f8 2390E780 		sh	a4,-2048(a5)
 444:../Peripheral/src/ch32v30x_flash.c ****                 ;
 1394              		.loc 1 444 13 is_stmt 1
 1395              	.L92:
 444:../Peripheral/src/ch32v30x_flash.c ****                 ;
 1396              		.loc 1 444 19 discriminator 1
 444:../Peripheral/src/ch32v30x_flash.c ****                 ;
 1397              		.loc 1 444 24 is_stmt 0 discriminator 1
 1398 00fc DC45     		lw	a5,12(a1)
 444:../Peripheral/src/ch32v30x_flash.c ****                 ;
 1399              		.loc 1 444 32 discriminator 1
 1400 00fe 858B     		andi	a5,a5,1
 444:../Peripheral/src/ch32v30x_flash.c ****                 ;
 1401              		.loc 1 444 19 discriminator 1
 1402 0100 F5FF     		bne	a5,zero,.L92
 441:../Peripheral/src/ch32v30x_flash.c ****         {
 1403              		.loc 1 441 28 is_stmt 1 discriminator 2
 1404 0102 9C87     		lbu	a5,15(sp)
 1405 0104 8507     		addi	a5,a5,1
 1406 0106 93F7F70F 		andi	a5,a5,0xff
 1407 010a DC87     		sb	a5,15(sp)
 1408 010c 69BF     		j	.L91
 1409              		.cfi_endproc
 1410              	.LFE40:
 1412              		.section	.text.FLASH_ReadOutProtection,"ax",@progbits
 1413              		.align	1
 1414              		.globl	FLASH_ReadOutProtection
 1416              	FLASH_ReadOutProtection:
 1417              	.LFB41:
 463:../Peripheral/src/ch32v30x_flash.c ****     FLASH_Status status = FLASH_COMPLETE;
 1418              		.loc 1 463 1
 1419              		.cfi_startproc
 1420              	.LVL78:
 1421 0000 17030000 		call	t0,__riscv_save_1
 1421      E7020300 
 1422              		.cfi_offset 8, -8
 1423              		.cfi_offset 1, -4
 1424              		.cfi_def_cfa_offset 16
 464:../Peripheral/src/ch32v30x_flash.c ****     uint32_t     Addr = 0x1FFFF800;
 1425              		.loc 1 464 5
 1426              	.LVL79:
 465:../Peripheral/src/ch32v30x_flash.c ****     __IO uint8_t i;
 1427              		.loc 1 465 5
 466:../Peripheral/src/ch32v30x_flash.c ****     uint16_t     pbuf[8];
 1428              		.loc 1 466 5
 467:../Peripheral/src/ch32v30x_flash.c **** 
 1429              		.loc 1 467 5
 469:../Peripheral/src/ch32v30x_flash.c ****     if(status == FLASH_COMPLETE)
 1430              		.loc 1 469 5
 463:../Peripheral/src/ch32v30x_flash.c ****     FLASH_Status status = FLASH_COMPLETE;
 1431              		.loc 1 463 1 is_stmt 0
 1432 0008 0111     		addi	sp,sp,-32
 1433              		.cfi_def_cfa_offset 48
 463:../Peripheral/src/ch32v30x_flash.c ****     FLASH_Status status = FLASH_COMPLETE;
 1434              		.loc 1 463 1
 1435 000a 2A84     		mv	s0,a0
 469:../Peripheral/src/ch32v30x_flash.c ****     if(status == FLASH_COMPLETE)
 1436              		.loc 1 469 14
 1437 000c 37050B00 		li	a0,720896
 1438              	.LVL80:
 1439 0010 97000000 		call	FLASH_WaitForLastOperation
 1439      E7800000 
 1440              	.LVL81:
 470:../Peripheral/src/ch32v30x_flash.c ****     {
 1441              		.loc 1 470 5 is_stmt 1
 470:../Peripheral/src/ch32v30x_flash.c ****     {
 1442              		.loc 1 470 7 is_stmt 0
 1443 0018 9147     		li	a5,4
 1444 001a 6313F508 		bne	a0,a5,.L97
 472:../Peripheral/src/ch32v30x_flash.c ****         FLASH->OBKEYR = FLASH_KEY2;
 1445              		.loc 1 472 9 is_stmt 1
 472:../Peripheral/src/ch32v30x_flash.c ****         FLASH->OBKEYR = FLASH_KEY2;
 1446              		.loc 1 472 23 is_stmt 0
 1447 001e B7076745 		li	a5,1164378112
 1448 0022 37270240 		li	a4,1073881088
 1449 0026 93873712 		addi	a5,a5,291
 1450 002a 1CC7     		sw	a5,8(a4)
 473:../Peripheral/src/ch32v30x_flash.c **** 
 1451              		.loc 1 473 9 is_stmt 1
 473:../Peripheral/src/ch32v30x_flash.c **** 
 1452              		.loc 1 473 23 is_stmt 0
 1453 002c B797EFCD 		li	a5,-839938048
 1454 0030 9387B79A 		addi	a5,a5,-1621
 1455 0034 1CC7     		sw	a5,8(a4)
 476:../Peripheral/src/ch32v30x_flash.c ****         {
 1456              		.loc 1 476 9 is_stmt 1
 476:../Peripheral/src/ch32v30x_flash.c ****         {
 1457              		.loc 1 476 15 is_stmt 0
 1458 0036 A3070100 		sb	zero,15(sp)
 476:../Peripheral/src/ch32v30x_flash.c ****         {
 1459              		.loc 1 476 22
 1460 003a 9D46     		li	a3,7
 478:../Peripheral/src/ch32v30x_flash.c ****         }
 1461              		.loc 1 478 23
 1462 003c 37060020 		li	a2,536870912
 1463              	.L99:
 476:../Peripheral/src/ch32v30x_flash.c ****         {
 1464              		.loc 1 476 22 is_stmt 1 discriminator 1
 1465 0040 9C87     		lbu	a5,15(sp)
 1466 0042 63F4F606 		bleu	a5,a3,.L100
 482:../Peripheral/src/ch32v30x_flash.c ****         FLASH->CTLR |= CR_STRT_Set;
 1467              		.loc 1 482 9
 482:../Peripheral/src/ch32v30x_flash.c ****         FLASH->CTLR |= CR_STRT_Set;
 1468              		.loc 1 482 14 is_stmt 0
 1469 0046 B7270240 		li	a5,1073881088
 1470 004a 984B     		lw	a4,16(a5)
 482:../Peripheral/src/ch32v30x_flash.c ****         FLASH->CTLR |= CR_STRT_Set;
 1471              		.loc 1 482 21
 1472 004c 13670702 		ori	a4,a4,32
 1473 0050 98CB     		sw	a4,16(a5)
 483:../Peripheral/src/ch32v30x_flash.c ****         while(FLASH->STATR & SR_BSY)
 1474              		.loc 1 483 9 is_stmt 1
 483:../Peripheral/src/ch32v30x_flash.c ****         while(FLASH->STATR & SR_BSY)
 1475              		.loc 1 483 14 is_stmt 0
 1476 0052 984B     		lw	a4,16(a5)
 483:../Peripheral/src/ch32v30x_flash.c ****         while(FLASH->STATR & SR_BSY)
 1477              		.loc 1 483 21
 1478 0054 13670704 		ori	a4,a4,64
 1479 0058 98CB     		sw	a4,16(a5)
 484:../Peripheral/src/ch32v30x_flash.c ****             ;
 1480              		.loc 1 484 9 is_stmt 1
 1481              	.L101:
 484:../Peripheral/src/ch32v30x_flash.c ****             ;
 1482              		.loc 1 484 15 discriminator 1
 484:../Peripheral/src/ch32v30x_flash.c ****             ;
 1483              		.loc 1 484 20 is_stmt 0 discriminator 1
 1484 005a D847     		lw	a4,12(a5)
 484:../Peripheral/src/ch32v30x_flash.c ****             ;
 1485              		.loc 1 484 28 discriminator 1
 1486 005c 058B     		andi	a4,a4,1
 484:../Peripheral/src/ch32v30x_flash.c ****             ;
 1487              		.loc 1 484 15 discriminator 1
 1488 005e 75FF     		bne	a4,zero,.L101
 486:../Peripheral/src/ch32v30x_flash.c **** 
 1489              		.loc 1 486 9 is_stmt 1
 486:../Peripheral/src/ch32v30x_flash.c **** 
 1490              		.loc 1 486 14 is_stmt 0
 1491 0060 984B     		lw	a4,16(a5)
 486:../Peripheral/src/ch32v30x_flash.c **** 
 1492              		.loc 1 486 21
 1493 0062 1377F7FD 		andi	a4,a4,-33
 1494 0066 98CB     		sw	a4,16(a5)
 489:../Peripheral/src/ch32v30x_flash.c ****             pbuf[0] = 0x5AA5;
 1495              		.loc 1 489 9 is_stmt 1
 492:../Peripheral/src/ch32v30x_flash.c **** 
 1496              		.loc 1 492 21 is_stmt 0
 1497 0068 9307F00F 		li	a5,255
 489:../Peripheral/src/ch32v30x_flash.c ****             pbuf[0] = 0x5AA5;
 1498              		.loc 1 489 11
 1499 006c 01E4     		bne	s0,zero,.L102
 490:../Peripheral/src/ch32v30x_flash.c ****         else
 1500              		.loc 1 490 21
 1501 006e 9967     		li	a5,24576
 1502 0070 938757AA 		addi	a5,a5,-1371
 1503              	.L102:
 494:../Peripheral/src/ch32v30x_flash.c ****         for(i = 0; i < 8; i++)
 1504              		.loc 1 494 14
 1505 0074 37270240 		li	a4,1073881088
 1506 0078 FC80     		sh	a5,16(sp)
 494:../Peripheral/src/ch32v30x_flash.c ****         for(i = 0; i < 8; i++)
 1507              		.loc 1 494 9 is_stmt 1
 494:../Peripheral/src/ch32v30x_flash.c ****         for(i = 0; i < 8; i++)
 1508              		.loc 1 494 14 is_stmt 0
 1509 007a 1C4B     		lw	a5,16(a4)
 495:../Peripheral/src/ch32v30x_flash.c ****         {
 1510              		.loc 1 495 22
 1511 007c 9D46     		li	a3,7
 497:../Peripheral/src/ch32v30x_flash.c ****             while(FLASH->STATR & SR_BSY)
 1512              		.loc 1 497 41
 1513 007e 37060020 		li	a2,536870912
 494:../Peripheral/src/ch32v30x_flash.c ****         for(i = 0; i < 8; i++)
 1514              		.loc 1 494 21
 1515 0082 93E70701 		ori	a5,a5,16
 1516 0086 1CCB     		sw	a5,16(a4)
 495:../Peripheral/src/ch32v30x_flash.c ****         {
 1517              		.loc 1 495 9 is_stmt 1
 495:../Peripheral/src/ch32v30x_flash.c ****         {
 1518              		.loc 1 495 15 is_stmt 0
 1519 0088 A3070100 		sb	zero,15(sp)
 498:../Peripheral/src/ch32v30x_flash.c ****                 ;
 1520              		.loc 1 498 24
 1521 008c B7250240 		li	a1,1073881088
 1522              	.L103:
 495:../Peripheral/src/ch32v30x_flash.c ****         {
 1523              		.loc 1 495 22 is_stmt 1 discriminator 1
 1524 0090 9C87     		lbu	a5,15(sp)
 1525 0092 63FEF602 		bleu	a5,a3,.L105
 501:../Peripheral/src/ch32v30x_flash.c ****     }
 1526              		.loc 1 501 9
 501:../Peripheral/src/ch32v30x_flash.c ****     }
 1527              		.loc 1 501 14 is_stmt 0
 1528 0096 37270240 		li	a4,1073881088
 1529 009a 1C4B     		lw	a5,16(a4)
 501:../Peripheral/src/ch32v30x_flash.c ****     }
 1530              		.loc 1 501 21
 1531 009c BD9B     		andi	a5,a5,-17
 1532 009e 1CCB     		sw	a5,16(a4)
 503:../Peripheral/src/ch32v30x_flash.c **** }
 1533              		.loc 1 503 5 is_stmt 1
 1534              	.L97:
 504:../Peripheral/src/ch32v30x_flash.c **** 
 1535              		.loc 1 504 1 is_stmt 0
 1536 00a0 0561     		addi	sp,sp,32
 1537              		.cfi_remember_state
 1538              		.cfi_def_cfa_offset 0
 1539 00a2 17030000 		tail	__riscv_restore_1
 1539      67000300 
 1540              		.cfi_restore 8
 1541              		.cfi_restore 1
 1542              		.cfi_def_cfa_offset -16
 1543              	.L100:
 1544              		.cfi_restore_state
 478:../Peripheral/src/ch32v30x_flash.c ****         }
 1545              		.loc 1 478 13 is_stmt 1 discriminator 3
 478:../Peripheral/src/ch32v30x_flash.c ****         }
 1546              		.loc 1 478 46 is_stmt 0 discriminator 3
 1547 00aa 9887     		lbu	a4,15(sp)
 478:../Peripheral/src/ch32v30x_flash.c ****         }
 1548              		.loc 1 478 17 discriminator 3
 1549 00ac 9C87     		lbu	a5,15(sp)
 478:../Peripheral/src/ch32v30x_flash.c ****         }
 1550              		.loc 1 478 23 discriminator 3
 1551 00ae 0607     		slli	a4,a4,1
 1552 00b0 3297     		add	a4,a2,a4
 478:../Peripheral/src/ch32v30x_flash.c ****         }
 1553              		.loc 1 478 21 discriminator 3
 1554 00b2 03570780 		lhu	a4,-2048(a4)
 1555 00b6 8607     		slli	a5,a5,1
 1556 00b8 93870702 		addi	a5,a5,32
 1557 00bc 8A97     		add	a5,a5,sp
 1558 00be 2398E7FE 		sh	a4,-16(a5)
 476:../Peripheral/src/ch32v30x_flash.c ****         {
 1559              		.loc 1 476 28 is_stmt 1 discriminator 3
 1560 00c2 9C87     		lbu	a5,15(sp)
 1561 00c4 8507     		addi	a5,a5,1
 1562 00c6 93F7F70F 		andi	a5,a5,0xff
 1563 00ca DC87     		sb	a5,15(sp)
 1564 00cc 95BF     		j	.L99
 1565              	.L105:
 497:../Peripheral/src/ch32v30x_flash.c ****             while(FLASH->STATR & SR_BSY)
 1566              		.loc 1 497 13
 497:../Peripheral/src/ch32v30x_flash.c ****             while(FLASH->STATR & SR_BSY)
 1567              		.loc 1 497 47 is_stmt 0
 1568 00ce 9887     		lbu	a4,15(sp)
 497:../Peripheral/src/ch32v30x_flash.c ****             while(FLASH->STATR & SR_BSY)
 1569              		.loc 1 497 36
 1570 00d0 9C87     		lbu	a5,15(sp)
 497:../Peripheral/src/ch32v30x_flash.c ****             while(FLASH->STATR & SR_BSY)
 1571              		.loc 1 497 47
 1572 00d2 0607     		slli	a4,a4,1
 1573 00d4 13070702 		addi	a4,a4,32
 1574 00d8 0A97     		add	a4,a4,sp
 497:../Peripheral/src/ch32v30x_flash.c ****             while(FLASH->STATR & SR_BSY)
 1575              		.loc 1 497 41
 1576 00da 035707FF 		lhu	a4,-16(a4)
 1577 00de 8607     		slli	a5,a5,1
 1578 00e0 B297     		add	a5,a2,a5
 1579 00e2 2390E780 		sh	a4,-2048(a5)
 498:../Peripheral/src/ch32v30x_flash.c ****                 ;
 1580              		.loc 1 498 13 is_stmt 1
 1581              	.L104:
 498:../Peripheral/src/ch32v30x_flash.c ****                 ;
 1582              		.loc 1 498 19 discriminator 1
 498:../Peripheral/src/ch32v30x_flash.c ****                 ;
 1583              		.loc 1 498 24 is_stmt 0 discriminator 1
 1584 00e6 DC45     		lw	a5,12(a1)
 498:../Peripheral/src/ch32v30x_flash.c ****                 ;
 1585              		.loc 1 498 32 discriminator 1
 1586 00e8 858B     		andi	a5,a5,1
 498:../Peripheral/src/ch32v30x_flash.c ****                 ;
 1587              		.loc 1 498 19 discriminator 1
 1588 00ea F5FF     		bne	a5,zero,.L104
 495:../Peripheral/src/ch32v30x_flash.c ****         {
 1589              		.loc 1 495 28 is_stmt 1 discriminator 2
 1590 00ec 9C87     		lbu	a5,15(sp)
 1591 00ee 8507     		addi	a5,a5,1
 1592 00f0 93F7F70F 		andi	a5,a5,0xff
 1593 00f4 DC87     		sb	a5,15(sp)
 1594 00f6 69BF     		j	.L103
 1595              		.cfi_endproc
 1596              	.LFE41:
 1598              		.section	.text.FLASH_UserOptionByteConfig,"ax",@progbits
 1599              		.align	1
 1600              		.globl	FLASH_UserOptionByteConfig
 1602              	FLASH_UserOptionByteConfig:
 1603              	.LFB42:
 525:../Peripheral/src/ch32v30x_flash.c ****     FLASH_Status status = FLASH_COMPLETE;
 1604              		.loc 1 525 1
 1605              		.cfi_startproc
 1606              	.LVL82:
 1607 0000 17030000 		call	t0,__riscv_save_3
 1607      E7020300 
 1608              		.cfi_offset 18, -16
 1609              		.cfi_offset 9, -12
 1610              		.cfi_offset 8, -8
 1611              		.cfi_offset 1, -4
 1612              		.cfi_def_cfa_offset 16
 526:../Peripheral/src/ch32v30x_flash.c ****     uint32_t     Addr = 0x1FFFF800;
 1613              		.loc 1 526 5
 1614              	.LVL83:
 527:../Peripheral/src/ch32v30x_flash.c ****     __IO uint8_t i;
 1615              		.loc 1 527 5
 528:../Peripheral/src/ch32v30x_flash.c ****     uint16_t     pbuf[8];
 1616              		.loc 1 528 5
 529:../Peripheral/src/ch32v30x_flash.c **** 
 1617              		.loc 1 529 5
 531:../Peripheral/src/ch32v30x_flash.c ****     FLASH->OBKEYR = FLASH_KEY2;
 1618              		.loc 1 531 5
 531:../Peripheral/src/ch32v30x_flash.c ****     FLASH->OBKEYR = FLASH_KEY2;
 1619              		.loc 1 531 19 is_stmt 0
 1620 0008 B7076745 		li	a5,1164378112
 1621 000c 37270240 		li	a4,1073881088
 1622 0010 93873712 		addi	a5,a5,291
 1623 0014 1CC7     		sw	a5,8(a4)
 532:../Peripheral/src/ch32v30x_flash.c ****     status = FLASH_WaitForLastOperation(ProgramTimeout);
 1624              		.loc 1 532 5 is_stmt 1
 532:../Peripheral/src/ch32v30x_flash.c ****     status = FLASH_WaitForLastOperation(ProgramTimeout);
 1625              		.loc 1 532 19 is_stmt 0
 1626 0016 B797EFCD 		li	a5,-839938048
 1627 001a 9387B79A 		addi	a5,a5,-1621
 1628 001e 1CC7     		sw	a5,8(a4)
 533:../Peripheral/src/ch32v30x_flash.c **** 
 1629              		.loc 1 533 5 is_stmt 1
 525:../Peripheral/src/ch32v30x_flash.c ****     FLASH_Status status = FLASH_COMPLETE;
 1630              		.loc 1 525 1 is_stmt 0
 1631 0020 0111     		addi	sp,sp,-32
 1632              		.cfi_def_cfa_offset 48
 525:../Peripheral/src/ch32v30x_flash.c ****     FLASH_Status status = FLASH_COMPLETE;
 1633              		.loc 1 525 1
 1634 0022 2A89     		mv	s2,a0
 533:../Peripheral/src/ch32v30x_flash.c **** 
 1635              		.loc 1 533 14
 1636 0024 1565     		li	a0,20480
 1637              	.LVL84:
 525:../Peripheral/src/ch32v30x_flash.c ****     FLASH_Status status = FLASH_COMPLETE;
 1638              		.loc 1 525 1
 1639 0026 2E84     		mv	s0,a1
 1640 0028 B284     		mv	s1,a2
 533:../Peripheral/src/ch32v30x_flash.c **** 
 1641              		.loc 1 533 14
 1642 002a 97000000 		call	FLASH_WaitForLastOperation
 1642      E7800000 
 1643              	.LVL85:
 535:../Peripheral/src/ch32v30x_flash.c ****     {
 1644              		.loc 1 535 5 is_stmt 1
 535:../Peripheral/src/ch32v30x_flash.c ****     {
 1645              		.loc 1 535 7 is_stmt 0
 1646 0032 9147     		li	a5,4
 1647 0034 6318F506 		bne	a0,a5,.L110
 538:../Peripheral/src/ch32v30x_flash.c ****         {
 1648              		.loc 1 538 9 is_stmt 1
 538:../Peripheral/src/ch32v30x_flash.c ****         {
 1649              		.loc 1 538 15 is_stmt 0
 1650 0038 A3070100 		sb	zero,15(sp)
 538:../Peripheral/src/ch32v30x_flash.c ****         {
 1651              		.loc 1 538 22
 1652 003c 9D46     		li	a3,7
 540:../Peripheral/src/ch32v30x_flash.c ****         }
 1653              		.loc 1 540 23
 1654 003e 37060020 		li	a2,536870912
 1655              	.L112:
 538:../Peripheral/src/ch32v30x_flash.c ****         {
 1656              		.loc 1 538 22 is_stmt 1 discriminator 1
 1657 0042 9C87     		lbu	a5,15(sp)
 1658 0044 63F5F606 		bleu	a5,a3,.L113
 544:../Peripheral/src/ch32v30x_flash.c ****         FLASH->CTLR |= CR_STRT_Set;
 1659              		.loc 1 544 9
 544:../Peripheral/src/ch32v30x_flash.c ****         FLASH->CTLR |= CR_STRT_Set;
 1660              		.loc 1 544 14 is_stmt 0
 1661 0048 B7270240 		li	a5,1073881088
 1662 004c 984B     		lw	a4,16(a5)
 544:../Peripheral/src/ch32v30x_flash.c ****         FLASH->CTLR |= CR_STRT_Set;
 1663              		.loc 1 544 21
 1664 004e 13670702 		ori	a4,a4,32
 1665 0052 98CB     		sw	a4,16(a5)
 545:../Peripheral/src/ch32v30x_flash.c ****         while(FLASH->STATR & SR_BSY)
 1666              		.loc 1 545 9 is_stmt 1
 545:../Peripheral/src/ch32v30x_flash.c ****         while(FLASH->STATR & SR_BSY)
 1667              		.loc 1 545 14 is_stmt 0
 1668 0054 984B     		lw	a4,16(a5)
 545:../Peripheral/src/ch32v30x_flash.c ****         while(FLASH->STATR & SR_BSY)
 1669              		.loc 1 545 21
 1670 0056 13670704 		ori	a4,a4,64
 1671 005a 98CB     		sw	a4,16(a5)
 546:../Peripheral/src/ch32v30x_flash.c ****             ;
 1672              		.loc 1 546 9 is_stmt 1
 546:../Peripheral/src/ch32v30x_flash.c ****             ;
 1673              		.loc 1 546 20 is_stmt 0
 1674 005c 37270240 		li	a4,1073881088
 1675              	.L114:
 546:../Peripheral/src/ch32v30x_flash.c ****             ;
 1676              		.loc 1 546 15 is_stmt 1 discriminator 1
 546:../Peripheral/src/ch32v30x_flash.c ****             ;
 1677              		.loc 1 546 20 is_stmt 0 discriminator 1
 1678 0060 5C47     		lw	a5,12(a4)
 546:../Peripheral/src/ch32v30x_flash.c ****             ;
 1679              		.loc 1 546 28 discriminator 1
 1680 0062 858B     		andi	a5,a5,1
 546:../Peripheral/src/ch32v30x_flash.c ****             ;
 1681              		.loc 1 546 15 discriminator 1
 1682 0064 F5FF     		bne	a5,zero,.L114
 548:../Peripheral/src/ch32v30x_flash.c **** 
 1683              		.loc 1 548 9 is_stmt 1
 548:../Peripheral/src/ch32v30x_flash.c **** 
 1684              		.loc 1 548 14 is_stmt 0
 1685 0066 B7270240 		li	a5,1073881088
 1686 006a 984B     		lw	a4,16(a5)
 551:../Peripheral/src/ch32v30x_flash.c **** 
 1687              		.loc 1 551 17
 1688 006c B3E42401 		or	s1,s1,s2
 1689 0070 458C     		or	s0,s0,s1
 548:../Peripheral/src/ch32v30x_flash.c **** 
 1690              		.loc 1 548 21
 1691 0072 1377F7FD 		andi	a4,a4,-33
 1692 0076 98CB     		sw	a4,16(a5)
 551:../Peripheral/src/ch32v30x_flash.c **** 
 1693              		.loc 1 551 9 is_stmt 1
 553:../Peripheral/src/ch32v30x_flash.c ****         for(i = 0; i < 8; i++)
 1694              		.loc 1 553 14 is_stmt 0
 1695 0078 984B     		lw	a4,16(a5)
 551:../Peripheral/src/ch32v30x_flash.c **** 
 1696              		.loc 1 551 17
 1697 007a 1364840F 		ori	s0,s0,248
 1698 007e E081     		sh	s0,18(sp)
 553:../Peripheral/src/ch32v30x_flash.c ****         for(i = 0; i < 8; i++)
 1699              		.loc 1 553 9 is_stmt 1
 553:../Peripheral/src/ch32v30x_flash.c ****         for(i = 0; i < 8; i++)
 1700              		.loc 1 553 21 is_stmt 0
 1701 0080 13670701 		ori	a4,a4,16
 1702 0084 98CB     		sw	a4,16(a5)
 554:../Peripheral/src/ch32v30x_flash.c ****         {
 1703              		.loc 1 554 9 is_stmt 1
 554:../Peripheral/src/ch32v30x_flash.c ****         {
 1704              		.loc 1 554 15 is_stmt 0
 1705 0086 A3070100 		sb	zero,15(sp)
 554:../Peripheral/src/ch32v30x_flash.c ****         {
 1706              		.loc 1 554 22
 1707 008a 9D46     		li	a3,7
 556:../Peripheral/src/ch32v30x_flash.c ****             while(FLASH->STATR & SR_BSY)
 1708              		.loc 1 556 41
 1709 008c 37060020 		li	a2,536870912
 557:../Peripheral/src/ch32v30x_flash.c ****                 ;
 1710              		.loc 1 557 24
 1711 0090 B7250240 		li	a1,1073881088
 1712              	.L115:
 554:../Peripheral/src/ch32v30x_flash.c ****         {
 1713              		.loc 1 554 22 is_stmt 1 discriminator 1
 1714 0094 9C87     		lbu	a5,15(sp)
 1715 0096 63FEF602 		bleu	a5,a3,.L117
 560:../Peripheral/src/ch32v30x_flash.c ****     }
 1716              		.loc 1 560 9
 560:../Peripheral/src/ch32v30x_flash.c ****     }
 1717              		.loc 1 560 14 is_stmt 0
 1718 009a 37270240 		li	a4,1073881088
 1719 009e 1C4B     		lw	a5,16(a4)
 560:../Peripheral/src/ch32v30x_flash.c ****     }
 1720              		.loc 1 560 21
 1721 00a0 BD9B     		andi	a5,a5,-17
 1722 00a2 1CCB     		sw	a5,16(a4)
 562:../Peripheral/src/ch32v30x_flash.c **** }
 1723              		.loc 1 562 5 is_stmt 1
 1724              	.L110:
 563:../Peripheral/src/ch32v30x_flash.c **** 
 1725              		.loc 1 563 1 is_stmt 0
 1726 00a4 0561     		addi	sp,sp,32
 1727              		.cfi_remember_state
 1728              		.cfi_def_cfa_offset 0
 1729 00a6 17030000 		tail	__riscv_restore_3
 1729      67000300 
 1730              		.cfi_restore 18
 1731              		.cfi_restore 9
 1732              		.cfi_restore 8
 1733              		.cfi_restore 1
 1734              		.cfi_def_cfa_offset -16
 1735              	.L113:
 1736              		.cfi_restore_state
 540:../Peripheral/src/ch32v30x_flash.c ****         }
 1737              		.loc 1 540 13 is_stmt 1 discriminator 3
 540:../Peripheral/src/ch32v30x_flash.c ****         }
 1738              		.loc 1 540 46 is_stmt 0 discriminator 3
 1739 00ae 9887     		lbu	a4,15(sp)
 540:../Peripheral/src/ch32v30x_flash.c ****         }
 1740              		.loc 1 540 17 discriminator 3
 1741 00b0 9C87     		lbu	a5,15(sp)
 540:../Peripheral/src/ch32v30x_flash.c ****         }
 1742              		.loc 1 540 23 discriminator 3
 1743 00b2 0607     		slli	a4,a4,1
 1744 00b4 3297     		add	a4,a2,a4
 540:../Peripheral/src/ch32v30x_flash.c ****         }
 1745              		.loc 1 540 21 discriminator 3
 1746 00b6 03570780 		lhu	a4,-2048(a4)
 1747 00ba 8607     		slli	a5,a5,1
 1748 00bc 93870702 		addi	a5,a5,32
 1749 00c0 8A97     		add	a5,a5,sp
 1750 00c2 2398E7FE 		sh	a4,-16(a5)
 538:../Peripheral/src/ch32v30x_flash.c ****         {
 1751              		.loc 1 538 28 is_stmt 1 discriminator 3
 1752 00c6 9C87     		lbu	a5,15(sp)
 1753 00c8 8507     		addi	a5,a5,1
 1754 00ca 93F7F70F 		andi	a5,a5,0xff
 1755 00ce DC87     		sb	a5,15(sp)
 1756 00d0 8DBF     		j	.L112
 1757              	.L117:
 556:../Peripheral/src/ch32v30x_flash.c ****             while(FLASH->STATR & SR_BSY)
 1758              		.loc 1 556 13
 556:../Peripheral/src/ch32v30x_flash.c ****             while(FLASH->STATR & SR_BSY)
 1759              		.loc 1 556 47 is_stmt 0
 1760 00d2 9887     		lbu	a4,15(sp)
 556:../Peripheral/src/ch32v30x_flash.c ****             while(FLASH->STATR & SR_BSY)
 1761              		.loc 1 556 36
 1762 00d4 9C87     		lbu	a5,15(sp)
 556:../Peripheral/src/ch32v30x_flash.c ****             while(FLASH->STATR & SR_BSY)
 1763              		.loc 1 556 47
 1764 00d6 0607     		slli	a4,a4,1
 1765 00d8 13070702 		addi	a4,a4,32
 1766 00dc 0A97     		add	a4,a4,sp
 556:../Peripheral/src/ch32v30x_flash.c ****             while(FLASH->STATR & SR_BSY)
 1767              		.loc 1 556 41
 1768 00de 035707FF 		lhu	a4,-16(a4)
 1769 00e2 8607     		slli	a5,a5,1
 1770 00e4 B297     		add	a5,a2,a5
 1771 00e6 2390E780 		sh	a4,-2048(a5)
 557:../Peripheral/src/ch32v30x_flash.c ****                 ;
 1772              		.loc 1 557 13 is_stmt 1
 1773              	.L116:
 557:../Peripheral/src/ch32v30x_flash.c ****                 ;
 1774              		.loc 1 557 19 discriminator 1
 557:../Peripheral/src/ch32v30x_flash.c ****                 ;
 1775              		.loc 1 557 24 is_stmt 0 discriminator 1
 1776 00ea DC45     		lw	a5,12(a1)
 557:../Peripheral/src/ch32v30x_flash.c ****                 ;
 1777              		.loc 1 557 32 discriminator 1
 1778 00ec 858B     		andi	a5,a5,1
 557:../Peripheral/src/ch32v30x_flash.c ****                 ;
 1779              		.loc 1 557 19 discriminator 1
 1780 00ee F5FF     		bne	a5,zero,.L116
 554:../Peripheral/src/ch32v30x_flash.c ****         {
 1781              		.loc 1 554 28 is_stmt 1 discriminator 2
 1782 00f0 9C87     		lbu	a5,15(sp)
 1783 00f2 8507     		addi	a5,a5,1
 1784 00f4 93F7F70F 		andi	a5,a5,0xff
 1785 00f8 DC87     		sb	a5,15(sp)
 1786 00fa 69BF     		j	.L115
 1787              		.cfi_endproc
 1788              	.LFE42:
 1790              		.section	.text.FLASH_WaitForLastBank1Operation,"ax",@progbits
 1791              		.align	1
 1792              		.globl	FLASH_WaitForLastBank1Operation
 1794              	FLASH_WaitForLastBank1Operation:
 1795              	.LFB72:
 1796              		.cfi_startproc
 790:../Peripheral/src/ch32v30x_flash.c **** {
 1797              		.loc 1 790 14
 1798 0000 17030000 		tail	FLASH_WaitForLastOperation
 1798      67000300 
 1799              		.cfi_endproc
 1800              	.LFE72:
 1802              		.section	.text.FLASH_Unlock_Fast,"ax",@progbits
 1803              		.align	1
 1804              		.globl	FLASH_Unlock_Fast
 1806              	FLASH_Unlock_Fast:
 1807              	.LFB53:
 815:../Peripheral/src/ch32v30x_flash.c ****     /* Authorize the FPEC of Bank1 Access */
 1808              		.loc 1 815 1
 1809              		.cfi_startproc
 817:../Peripheral/src/ch32v30x_flash.c ****     FLASH->KEYR = FLASH_KEY2;
 1810              		.loc 1 817 5
 817:../Peripheral/src/ch32v30x_flash.c ****     FLASH->KEYR = FLASH_KEY2;
 1811              		.loc 1 817 17 is_stmt 0
 1812 0000 B7066745 		li	a3,1164378112
 1813 0004 B7270240 		li	a5,1073881088
 1814 0008 93863612 		addi	a3,a3,291
 818:../Peripheral/src/ch32v30x_flash.c **** 
 1815              		.loc 1 818 17
 1816 000c 3797EFCD 		li	a4,-839938048
 817:../Peripheral/src/ch32v30x_flash.c ****     FLASH->KEYR = FLASH_KEY2;
 1817              		.loc 1 817 17
 1818 0010 D4C3     		sw	a3,4(a5)
 818:../Peripheral/src/ch32v30x_flash.c **** 
 1819              		.loc 1 818 5 is_stmt 1
 818:../Peripheral/src/ch32v30x_flash.c **** 
 1820              		.loc 1 818 17 is_stmt 0
 1821 0012 1307B79A 		addi	a4,a4,-1621
 1822 0016 D8C3     		sw	a4,4(a5)
 821:../Peripheral/src/ch32v30x_flash.c ****     FLASH->MODEKEYR = FLASH_KEY2;
 1823              		.loc 1 821 5 is_stmt 1
 821:../Peripheral/src/ch32v30x_flash.c ****     FLASH->MODEKEYR = FLASH_KEY2;
 1824              		.loc 1 821 21 is_stmt 0
 1825 0018 D4D3     		sw	a3,36(a5)
 822:../Peripheral/src/ch32v30x_flash.c **** }
 1826              		.loc 1 822 5 is_stmt 1
 822:../Peripheral/src/ch32v30x_flash.c **** }
 1827              		.loc 1 822 21 is_stmt 0
 1828 001a D8D3     		sw	a4,36(a5)
 823:../Peripheral/src/ch32v30x_flash.c **** 
 1829              		.loc 1 823 1
 1830 001c 8280     		ret
 1831              		.cfi_endproc
 1832              	.LFE53:
 1834              		.section	.text.FLASH_Lock_Fast,"ax",@progbits
 1835              		.align	1
 1836              		.globl	FLASH_Lock_Fast
 1838              	FLASH_Lock_Fast:
 1839              	.LFB54:
 833:../Peripheral/src/ch32v30x_flash.c ****     FLASH->CTLR |= CR_FLOCK_Set;
 1840              		.loc 1 833 1 is_stmt 1
 1841              		.cfi_startproc
 834:../Peripheral/src/ch32v30x_flash.c **** }
 1842              		.loc 1 834 5
 834:../Peripheral/src/ch32v30x_flash.c **** }
 1843              		.loc 1 834 10 is_stmt 0
 1844 0000 37270240 		li	a4,1073881088
 1845 0004 1C4B     		lw	a5,16(a4)
 834:../Peripheral/src/ch32v30x_flash.c **** }
 1846              		.loc 1 834 17
 1847 0006 A166     		li	a3,32768
 1848 0008 D58F     		or	a5,a5,a3
 1849 000a 1CCB     		sw	a5,16(a4)
 835:../Peripheral/src/ch32v30x_flash.c **** 
 1850              		.loc 1 835 1
 1851 000c 8280     		ret
 1852              		.cfi_endproc
 1853              	.LFE54:
 1855              		.section	.text.FLASH_ErasePage_Fast,"ax",@progbits
 1856              		.align	1
 1857              		.globl	FLASH_ErasePage_Fast
 1859              	FLASH_ErasePage_Fast:
 1860              	.LFB55:
 847:../Peripheral/src/ch32v30x_flash.c ****     Page_Address &= 0xFFFFFF00;
 1861              		.loc 1 847 1 is_stmt 1
 1862              		.cfi_startproc
 1863              	.LVL86:
 848:../Peripheral/src/ch32v30x_flash.c **** 
 1864              		.loc 1 848 5
 850:../Peripheral/src/ch32v30x_flash.c ****     FLASH->ADDR = Page_Address;
 1865              		.loc 1 850 10 is_stmt 0
 1866 0000 B7270240 		li	a5,1073881088
 1867 0004 984B     		lw	a4,16(a5)
 850:../Peripheral/src/ch32v30x_flash.c ****     FLASH->ADDR = Page_Address;
 1868              		.loc 1 850 17
 1869 0006 B7060200 		li	a3,131072
 848:../Peripheral/src/ch32v30x_flash.c **** 
 1870              		.loc 1 848 18
 1871 000a 137505F0 		andi	a0,a0,-256
 1872              	.LVL87:
 850:../Peripheral/src/ch32v30x_flash.c ****     FLASH->ADDR = Page_Address;
 1873              		.loc 1 850 5 is_stmt 1
 850:../Peripheral/src/ch32v30x_flash.c ****     FLASH->ADDR = Page_Address;
 1874              		.loc 1 850 17 is_stmt 0
 1875 000e 558F     		or	a4,a4,a3
 1876 0010 98CB     		sw	a4,16(a5)
 851:../Peripheral/src/ch32v30x_flash.c ****     FLASH->CTLR |= CR_STRT_Set;
 1877              		.loc 1 851 5 is_stmt 1
 851:../Peripheral/src/ch32v30x_flash.c ****     FLASH->CTLR |= CR_STRT_Set;
 1878              		.loc 1 851 17 is_stmt 0
 1879 0012 C8CB     		sw	a0,20(a5)
 852:../Peripheral/src/ch32v30x_flash.c ****     while(FLASH->STATR & SR_BSY)
 1880              		.loc 1 852 5 is_stmt 1
 852:../Peripheral/src/ch32v30x_flash.c ****     while(FLASH->STATR & SR_BSY)
 1881              		.loc 1 852 10 is_stmt 0
 1882 0014 984B     		lw	a4,16(a5)
 852:../Peripheral/src/ch32v30x_flash.c ****     while(FLASH->STATR & SR_BSY)
 1883              		.loc 1 852 17
 1884 0016 13670704 		ori	a4,a4,64
 1885 001a 98CB     		sw	a4,16(a5)
 853:../Peripheral/src/ch32v30x_flash.c ****         ;
 1886              		.loc 1 853 5 is_stmt 1
 1887              	.L126:
 853:../Peripheral/src/ch32v30x_flash.c ****         ;
 1888              		.loc 1 853 11 discriminator 1
 853:../Peripheral/src/ch32v30x_flash.c ****         ;
 1889              		.loc 1 853 16 is_stmt 0 discriminator 1
 1890 001c D847     		lw	a4,12(a5)
 853:../Peripheral/src/ch32v30x_flash.c ****         ;
 1891              		.loc 1 853 24 discriminator 1
 1892 001e 058B     		andi	a4,a4,1
 853:../Peripheral/src/ch32v30x_flash.c ****         ;
 1893              		.loc 1 853 11 discriminator 1
 1894 0020 75FF     		bne	a4,zero,.L126
 855:../Peripheral/src/ch32v30x_flash.c **** }
 1895              		.loc 1 855 5 is_stmt 1
 855:../Peripheral/src/ch32v30x_flash.c **** }
 1896              		.loc 1 855 10 is_stmt 0
 1897 0022 984B     		lw	a4,16(a5)
 855:../Peripheral/src/ch32v30x_flash.c **** }
 1898              		.loc 1 855 17
 1899 0024 8176     		li	a3,-131072
 1900 0026 FD16     		addi	a3,a3,-1
 1901 0028 758F     		and	a4,a4,a3
 1902 002a 98CB     		sw	a4,16(a5)
 856:../Peripheral/src/ch32v30x_flash.c **** 
 1903              		.loc 1 856 1
 1904 002c 8280     		ret
 1905              		.cfi_endproc
 1906              	.LFE55:
 1908              		.section	.text.FLASH_EraseBlock_32K_Fast,"ax",@progbits
 1909              		.align	1
 1910              		.globl	FLASH_EraseBlock_32K_Fast
 1912              	FLASH_EraseBlock_32K_Fast:
 1913              	.LFB56:
 868:../Peripheral/src/ch32v30x_flash.c ****     Block_Address &= 0xFFFF8000;
 1914              		.loc 1 868 1 is_stmt 1
 1915              		.cfi_startproc
 1916              	.LVL88:
 869:../Peripheral/src/ch32v30x_flash.c **** 
 1917              		.loc 1 869 5
 869:../Peripheral/src/ch32v30x_flash.c **** 
 1918              		.loc 1 869 19 is_stmt 0
 1919 0000 E177     		li	a5,-32768
 1920 0002 7D8D     		and	a0,a0,a5
 1921              	.LVL89:
 871:../Peripheral/src/ch32v30x_flash.c ****     FLASH->ADDR = Block_Address;
 1922              		.loc 1 871 5 is_stmt 1
 871:../Peripheral/src/ch32v30x_flash.c ****     FLASH->ADDR = Block_Address;
 1923              		.loc 1 871 10 is_stmt 0
 1924 0004 B7270240 		li	a5,1073881088
 1925 0008 984B     		lw	a4,16(a5)
 871:../Peripheral/src/ch32v30x_flash.c ****     FLASH->ADDR = Block_Address;
 1926              		.loc 1 871 17
 1927 000a B7060400 		li	a3,262144
 1928 000e 558F     		or	a4,a4,a3
 1929 0010 98CB     		sw	a4,16(a5)
 872:../Peripheral/src/ch32v30x_flash.c ****     FLASH->CTLR |= CR_STRT_Set;
 1930              		.loc 1 872 5 is_stmt 1
 872:../Peripheral/src/ch32v30x_flash.c ****     FLASH->CTLR |= CR_STRT_Set;
 1931              		.loc 1 872 17 is_stmt 0
 1932 0012 C8CB     		sw	a0,20(a5)
 873:../Peripheral/src/ch32v30x_flash.c ****     while(FLASH->STATR & SR_BSY)
 1933              		.loc 1 873 5 is_stmt 1
 873:../Peripheral/src/ch32v30x_flash.c ****     while(FLASH->STATR & SR_BSY)
 1934              		.loc 1 873 10 is_stmt 0
 1935 0014 984B     		lw	a4,16(a5)
 873:../Peripheral/src/ch32v30x_flash.c ****     while(FLASH->STATR & SR_BSY)
 1936              		.loc 1 873 17
 1937 0016 13670704 		ori	a4,a4,64
 1938 001a 98CB     		sw	a4,16(a5)
 874:../Peripheral/src/ch32v30x_flash.c ****         ;
 1939              		.loc 1 874 5 is_stmt 1
 1940              	.L129:
 874:../Peripheral/src/ch32v30x_flash.c ****         ;
 1941              		.loc 1 874 11 discriminator 1
 874:../Peripheral/src/ch32v30x_flash.c ****         ;
 1942              		.loc 1 874 16 is_stmt 0 discriminator 1
 1943 001c D847     		lw	a4,12(a5)
 874:../Peripheral/src/ch32v30x_flash.c ****         ;
 1944              		.loc 1 874 24 discriminator 1
 1945 001e 058B     		andi	a4,a4,1
 874:../Peripheral/src/ch32v30x_flash.c ****         ;
 1946              		.loc 1 874 11 discriminator 1
 1947 0020 75FF     		bne	a4,zero,.L129
 876:../Peripheral/src/ch32v30x_flash.c **** }
 1948              		.loc 1 876 5 is_stmt 1
 876:../Peripheral/src/ch32v30x_flash.c **** }
 1949              		.loc 1 876 10 is_stmt 0
 1950 0022 984B     		lw	a4,16(a5)
 876:../Peripheral/src/ch32v30x_flash.c **** }
 1951              		.loc 1 876 17
 1952 0024 B706FCFF 		li	a3,-262144
 1953 0028 FD16     		addi	a3,a3,-1
 1954 002a 758F     		and	a4,a4,a3
 1955 002c 98CB     		sw	a4,16(a5)
 877:../Peripheral/src/ch32v30x_flash.c **** 
 1956              		.loc 1 877 1
 1957 002e 8280     		ret
 1958              		.cfi_endproc
 1959              	.LFE56:
 1961              		.section	.text.FLASH_EraseBlock_64K_Fast,"ax",@progbits
 1962              		.align	1
 1963              		.globl	FLASH_EraseBlock_64K_Fast
 1965              	FLASH_EraseBlock_64K_Fast:
 1966              	.LFB57:
 889:../Peripheral/src/ch32v30x_flash.c ****     Block_Address &= 0xFFFF0000;
 1967              		.loc 1 889 1 is_stmt 1
 1968              		.cfi_startproc
 1969              	.LVL90:
 890:../Peripheral/src/ch32v30x_flash.c **** 
 1970              		.loc 1 890 5
 890:../Peripheral/src/ch32v30x_flash.c **** 
 1971              		.loc 1 890 19 is_stmt 0
 1972 0000 C177     		li	a5,-65536
 1973 0002 7D8D     		and	a0,a0,a5
 1974              	.LVL91:
 892:../Peripheral/src/ch32v30x_flash.c ****     FLASH->ADDR = Block_Address;
 1975              		.loc 1 892 5 is_stmt 1
 892:../Peripheral/src/ch32v30x_flash.c ****     FLASH->ADDR = Block_Address;
 1976              		.loc 1 892 10 is_stmt 0
 1977 0004 B7270240 		li	a5,1073881088
 1978 0008 984B     		lw	a4,16(a5)
 892:../Peripheral/src/ch32v30x_flash.c ****     FLASH->ADDR = Block_Address;
 1979              		.loc 1 892 17
 1980 000a B7060800 		li	a3,524288
 1981 000e 558F     		or	a4,a4,a3
 1982 0010 98CB     		sw	a4,16(a5)
 893:../Peripheral/src/ch32v30x_flash.c ****     FLASH->CTLR |= CR_STRT_Set;
 1983              		.loc 1 893 5 is_stmt 1
 893:../Peripheral/src/ch32v30x_flash.c ****     FLASH->CTLR |= CR_STRT_Set;
 1984              		.loc 1 893 17 is_stmt 0
 1985 0012 C8CB     		sw	a0,20(a5)
 894:../Peripheral/src/ch32v30x_flash.c ****     while(FLASH->STATR & SR_BSY)
 1986              		.loc 1 894 5 is_stmt 1
 894:../Peripheral/src/ch32v30x_flash.c ****     while(FLASH->STATR & SR_BSY)
 1987              		.loc 1 894 10 is_stmt 0
 1988 0014 984B     		lw	a4,16(a5)
 894:../Peripheral/src/ch32v30x_flash.c ****     while(FLASH->STATR & SR_BSY)
 1989              		.loc 1 894 17
 1990 0016 13670704 		ori	a4,a4,64
 1991 001a 98CB     		sw	a4,16(a5)
 895:../Peripheral/src/ch32v30x_flash.c ****         ;
 1992              		.loc 1 895 5 is_stmt 1
 1993              	.L132:
 895:../Peripheral/src/ch32v30x_flash.c ****         ;
 1994              		.loc 1 895 11 discriminator 1
 895:../Peripheral/src/ch32v30x_flash.c ****         ;
 1995              		.loc 1 895 16 is_stmt 0 discriminator 1
 1996 001c D847     		lw	a4,12(a5)
 895:../Peripheral/src/ch32v30x_flash.c ****         ;
 1997              		.loc 1 895 24 discriminator 1
 1998 001e 058B     		andi	a4,a4,1
 895:../Peripheral/src/ch32v30x_flash.c ****         ;
 1999              		.loc 1 895 11 discriminator 1
 2000 0020 75FF     		bne	a4,zero,.L132
 897:../Peripheral/src/ch32v30x_flash.c **** }
 2001              		.loc 1 897 5 is_stmt 1
 897:../Peripheral/src/ch32v30x_flash.c **** }
 2002              		.loc 1 897 10 is_stmt 0
 2003 0022 984B     		lw	a4,16(a5)
 897:../Peripheral/src/ch32v30x_flash.c **** }
 2004              		.loc 1 897 17
 2005 0024 B706F8FF 		li	a3,-524288
 2006 0028 FD16     		addi	a3,a3,-1
 2007 002a 758F     		and	a4,a4,a3
 2008 002c 98CB     		sw	a4,16(a5)
 898:../Peripheral/src/ch32v30x_flash.c **** 
 2009              		.loc 1 898 1
 2010 002e 8280     		ret
 2011              		.cfi_endproc
 2012              	.LFE57:
 2014              		.section	.text.FLASH_ProgramPage_Fast,"ax",@progbits
 2015              		.align	1
 2016              		.globl	FLASH_ProgramPage_Fast
 2018              	FLASH_ProgramPage_Fast:
 2019              	.LFB58:
 910:../Peripheral/src/ch32v30x_flash.c ****     uint8_t size = 64;
 2020              		.loc 1 910 1 is_stmt 1
 2021              		.cfi_startproc
 2022              	.LVL92:
 911:../Peripheral/src/ch32v30x_flash.c **** 
 2023              		.loc 1 911 5
 913:../Peripheral/src/ch32v30x_flash.c **** 
 2024              		.loc 1 913 5
 915:../Peripheral/src/ch32v30x_flash.c ****     while(FLASH->STATR & SR_BSY)
 2025              		.loc 1 915 10 is_stmt 0
 2026 0000 37270240 		li	a4,1073881088
 2027 0004 1C4B     		lw	a5,16(a4)
 915:../Peripheral/src/ch32v30x_flash.c ****     while(FLASH->STATR & SR_BSY)
 2028              		.loc 1 915 17
 2029 0006 C166     		li	a3,65536
 913:../Peripheral/src/ch32v30x_flash.c **** 
 2030              		.loc 1 913 18
 2031 0008 137505F0 		andi	a0,a0,-256
 2032              	.LVL93:
 915:../Peripheral/src/ch32v30x_flash.c ****     while(FLASH->STATR & SR_BSY)
 2033              		.loc 1 915 5 is_stmt 1
 915:../Peripheral/src/ch32v30x_flash.c ****     while(FLASH->STATR & SR_BSY)
 2034              		.loc 1 915 17 is_stmt 0
 2035 000c D58F     		or	a5,a5,a3
 2036 000e 1CCB     		sw	a5,16(a4)
 916:../Peripheral/src/ch32v30x_flash.c ****         ;
 2037              		.loc 1 916 5 is_stmt 1
 2038              	.L135:
 916:../Peripheral/src/ch32v30x_flash.c ****         ;
 2039              		.loc 1 916 11 discriminator 1
 916:../Peripheral/src/ch32v30x_flash.c ****         ;
 2040              		.loc 1 916 16 is_stmt 0 discriminator 1
 2041 0010 5C47     		lw	a5,12(a4)
 916:../Peripheral/src/ch32v30x_flash.c ****         ;
 2042              		.loc 1 916 24 discriminator 1
 2043 0012 858B     		andi	a5,a5,1
 916:../Peripheral/src/ch32v30x_flash.c ****         ;
 2044              		.loc 1 916 11 discriminator 1
 2045 0014 F5FF     		bne	a5,zero,.L135
 918:../Peripheral/src/ch32v30x_flash.c ****         ;
 2046              		.loc 1 918 16
 2047 0016 37270240 		li	a4,1073881088
 2048              	.L136:
 918:../Peripheral/src/ch32v30x_flash.c ****         ;
 2049              		.loc 1 918 11 is_stmt 1 discriminator 1
 918:../Peripheral/src/ch32v30x_flash.c ****         ;
 2050              		.loc 1 918 16 is_stmt 0 discriminator 1
 2051 001a 5C47     		lw	a5,12(a4)
 918:../Peripheral/src/ch32v30x_flash.c ****         ;
 2052              		.loc 1 918 24 discriminator 1
 2053 001c 898B     		andi	a5,a5,2
 918:../Peripheral/src/ch32v30x_flash.c ****         ;
 2054              		.loc 1 918 11 discriminator 1
 2055 001e F5FF     		bne	a5,zero,.L136
 927:../Peripheral/src/ch32v30x_flash.c ****             ;
 2056              		.loc 1 927 20
 2057 0020 37270240 		li	a4,1073881088
 921:../Peripheral/src/ch32v30x_flash.c ****     {
 2058              		.loc 1 921 11
 2059 0024 13060010 		li	a2,256
 2060              	.LVL94:
 2061              	.L138:
 923:../Peripheral/src/ch32v30x_flash.c ****         Page_Address += 4;
 2062              		.loc 1 923 9 is_stmt 1
 923:../Peripheral/src/ch32v30x_flash.c ****         Page_Address += 4;
 2063              		.loc 1 923 37 is_stmt 0
 2064 0028 B386F500 		add	a3,a1,a5
 2065              	.LVL95:
 2066 002c 03A80600 		lw	a6,0(a3)
 923:../Peripheral/src/ch32v30x_flash.c ****         Page_Address += 4;
 2067              		.loc 1 923 35
 2068 0030 B386A700 		add	a3,a5,a0
 2069              	.LVL96:
 2070 0034 23A00601 		sw	a6,0(a3)
 924:../Peripheral/src/ch32v30x_flash.c ****         pbuf += 1;
 2071              		.loc 1 924 9 is_stmt 1
 2072              	.LVL97:
 925:../Peripheral/src/ch32v30x_flash.c ****         size -= 1;
 2073              		.loc 1 925 9
 926:../Peripheral/src/ch32v30x_flash.c ****         while(FLASH->STATR & SR_WR_BSY)
 2074              		.loc 1 926 9
 927:../Peripheral/src/ch32v30x_flash.c ****             ;
 2075              		.loc 1 927 9
 2076              	.L137:
 927:../Peripheral/src/ch32v30x_flash.c ****             ;
 2077              		.loc 1 927 15 discriminator 1
 927:../Peripheral/src/ch32v30x_flash.c ****             ;
 2078              		.loc 1 927 20 is_stmt 0 discriminator 1
 2079 0038 5447     		lw	a3,12(a4)
 927:../Peripheral/src/ch32v30x_flash.c ****             ;
 2080              		.loc 1 927 28 discriminator 1
 2081 003a 898A     		andi	a3,a3,2
 927:../Peripheral/src/ch32v30x_flash.c ****             ;
 2082              		.loc 1 927 15 discriminator 1
 2083 003c F5FE     		bne	a3,zero,.L137
 921:../Peripheral/src/ch32v30x_flash.c ****     {
 2084              		.loc 1 921 11 is_stmt 1
 2085 003e 9107     		addi	a5,a5,4
 2086              	.LVL98:
 2087 0040 E394C7FE 		bne	a5,a2,.L138
 931:../Peripheral/src/ch32v30x_flash.c ****     while(FLASH->STATR & SR_BSY)
 2088              		.loc 1 931 5
 931:../Peripheral/src/ch32v30x_flash.c ****     while(FLASH->STATR & SR_BSY)
 2089              		.loc 1 931 10 is_stmt 0
 2090 0044 1C4B     		lw	a5,16(a4)
 2091              	.LVL99:
 931:../Peripheral/src/ch32v30x_flash.c ****     while(FLASH->STATR & SR_BSY)
 2092              		.loc 1 931 17
 2093 0046 B7062000 		li	a3,2097152
 2094 004a D58F     		or	a5,a5,a3
 2095 004c 1CCB     		sw	a5,16(a4)
 932:../Peripheral/src/ch32v30x_flash.c ****         ;
 2096              		.loc 1 932 5 is_stmt 1
 932:../Peripheral/src/ch32v30x_flash.c ****         ;
 2097              		.loc 1 932 16 is_stmt 0
 2098 004e B7270240 		li	a5,1073881088
 2099              	.L139:
 932:../Peripheral/src/ch32v30x_flash.c ****         ;
 2100              		.loc 1 932 11 is_stmt 1 discriminator 1
 932:../Peripheral/src/ch32v30x_flash.c ****         ;
 2101              		.loc 1 932 16 is_stmt 0 discriminator 1
 2102 0052 D847     		lw	a4,12(a5)
 932:../Peripheral/src/ch32v30x_flash.c ****         ;
 2103              		.loc 1 932 24 discriminator 1
 2104 0054 058B     		andi	a4,a4,1
 932:../Peripheral/src/ch32v30x_flash.c ****         ;
 2105              		.loc 1 932 11 discriminator 1
 2106 0056 75FF     		bne	a4,zero,.L139
 934:../Peripheral/src/ch32v30x_flash.c **** }
 2107              		.loc 1 934 5 is_stmt 1
 934:../Peripheral/src/ch32v30x_flash.c **** }
 2108              		.loc 1 934 10 is_stmt 0
 2109 0058 984B     		lw	a4,16(a5)
 934:../Peripheral/src/ch32v30x_flash.c **** }
 2110              		.loc 1 934 17
 2111 005a C176     		li	a3,-65536
 2112 005c FD16     		addi	a3,a3,-1
 2113 005e 758F     		and	a4,a4,a3
 2114 0060 98CB     		sw	a4,16(a5)
 935:../Peripheral/src/ch32v30x_flash.c **** 
 2115              		.loc 1 935 1
 2116 0062 8280     		ret
 2117              		.cfi_endproc
 2118              	.LFE58:
 2120              		.section	.text.FLASH_Access_Clock_Cfg,"ax",@progbits
 2121              		.align	1
 2122              		.globl	FLASH_Access_Clock_Cfg
 2124              	FLASH_Access_Clock_Cfg:
 2125              	.LFB59:
 949:../Peripheral/src/ch32v30x_flash.c ****     FLASH->CTLR &= ~(1 << 25);
 2126              		.loc 1 949 1 is_stmt 1
 2127              		.cfi_startproc
 2128              	.LVL100:
 950:../Peripheral/src/ch32v30x_flash.c ****     FLASH->CTLR |= FLASH_Access_CLK;
 2129              		.loc 1 950 5
 950:../Peripheral/src/ch32v30x_flash.c ****     FLASH->CTLR |= FLASH_Access_CLK;
 2130              		.loc 1 950 10 is_stmt 0
 2131 0000 B7270240 		li	a5,1073881088
 2132 0004 984B     		lw	a4,16(a5)
 950:../Peripheral/src/ch32v30x_flash.c ****     FLASH->CTLR |= FLASH_Access_CLK;
 2133              		.loc 1 950 17
 2134 0006 B70600FE 		li	a3,-33554432
 2135 000a FD16     		addi	a3,a3,-1
 2136 000c 758F     		and	a4,a4,a3
 2137 000e 98CB     		sw	a4,16(a5)
 951:../Peripheral/src/ch32v30x_flash.c **** }
 2138              		.loc 1 951 5 is_stmt 1
 951:../Peripheral/src/ch32v30x_flash.c **** }
 2139              		.loc 1 951 10 is_stmt 0
 2140 0010 984B     		lw	a4,16(a5)
 951:../Peripheral/src/ch32v30x_flash.c **** }
 2141              		.loc 1 951 17
 2142 0012 498F     		or	a4,a4,a0
 2143 0014 98CB     		sw	a4,16(a5)
 952:../Peripheral/src/ch32v30x_flash.c **** 
 2144              		.loc 1 952 1
 2145 0016 8280     		ret
 2146              		.cfi_endproc
 2147              	.LFE59:
 2149              		.section	.text.FLASH_Enhance_Mode,"ax",@progbits
 2150              		.align	1
 2151              		.globl	FLASH_Enhance_Mode
 2153              	FLASH_Enhance_Mode:
 2154              	.LFB60:
 964:../Peripheral/src/ch32v30x_flash.c ****     if(NewState)
 2155              		.loc 1 964 1 is_stmt 1
 2156              		.cfi_startproc
 2157              	.LVL101:
 965:../Peripheral/src/ch32v30x_flash.c ****     {
 2158              		.loc 1 965 5
 965:../Peripheral/src/ch32v30x_flash.c ****     {
 2159              		.loc 1 965 7 is_stmt 0
 2160 0000 09C9     		beq	a0,zero,.L147
 967:../Peripheral/src/ch32v30x_flash.c ****     }
 2161              		.loc 1 967 9 is_stmt 1
 967:../Peripheral/src/ch32v30x_flash.c ****     }
 2162              		.loc 1 967 14 is_stmt 0
 2163 0002 37270240 		li	a4,1073881088
 2164 0006 1C4B     		lw	a5,16(a4)
 967:../Peripheral/src/ch32v30x_flash.c ****     }
 2165              		.loc 1 967 21
 2166 0008 B7060001 		li	a3,16777216
 2167 000c D58F     		or	a5,a5,a3
 2168 000e 1CCB     		sw	a5,16(a4)
 2169 0010 8280     		ret
 2170              	.L147:
 971:../Peripheral/src/ch32v30x_flash.c ****         FLASH->CTLR |= (1 << 22);
 2171              		.loc 1 971 9 is_stmt 1
 971:../Peripheral/src/ch32v30x_flash.c ****         FLASH->CTLR |= (1 << 22);
 2172              		.loc 1 971 14 is_stmt 0
 2173 0012 B7270240 		li	a5,1073881088
 2174 0016 984B     		lw	a4,16(a5)
 971:../Peripheral/src/ch32v30x_flash.c ****         FLASH->CTLR |= (1 << 22);
 2175              		.loc 1 971 21
 2176 0018 B70600FF 		li	a3,-16777216
 2177 001c FD16     		addi	a3,a3,-1
 2178 001e 758F     		and	a4,a4,a3
 2179 0020 98CB     		sw	a4,16(a5)
 972:../Peripheral/src/ch32v30x_flash.c ****     }
 2180              		.loc 1 972 9 is_stmt 1
 972:../Peripheral/src/ch32v30x_flash.c ****     }
 2181              		.loc 1 972 14 is_stmt 0
 2182 0022 984B     		lw	a4,16(a5)
 972:../Peripheral/src/ch32v30x_flash.c ****     }
 2183              		.loc 1 972 21
 2184 0024 B7064000 		li	a3,4194304
 2185 0028 558F     		or	a4,a4,a3
 2186 002a 98CB     		sw	a4,16(a5)
 974:../Peripheral/src/ch32v30x_flash.c **** 
 2187              		.loc 1 974 1
 2188 002c 8280     		ret
 2189              		.cfi_endproc
 2190              	.LFE60:
 2192              		.section	.text.FLASH_ROM_ERASE,"ax",@progbits
 2193              		.align	1
 2194              		.globl	FLASH_ROM_ERASE
 2196              	FLASH_ROM_ERASE:
 2197              	.LFB62:
1026:../Peripheral/src/ch32v30x_flash.c **** 
1027:../Peripheral/src/ch32v30x_flash.c **** /*********************************************************************
1028:../Peripheral/src/ch32v30x_flash.c ****  * @fn      FLASH_ROM_ERASE
1029:../Peripheral/src/ch32v30x_flash.c ****  *
1030:../Peripheral/src/ch32v30x_flash.c ****  * @brief   Erases a specified FLASH .
1031:../Peripheral/src/ch32v30x_flash.c ****  *
1032:../Peripheral/src/ch32v30x_flash.c ****  * @param   StartAddr - Erases Flash start address(StartAddr%256 == 0).
1033:../Peripheral/src/ch32v30x_flash.c ****  *          Length - Erases Flash start Length(Length%256 == 0).
1034:../Peripheral/src/ch32v30x_flash.c ****  *
1035:../Peripheral/src/ch32v30x_flash.c ****  * @return  FLASH Status - The returned value can be: FLASH_ADR_RANGE_ERROR,
1036:../Peripheral/src/ch32v30x_flash.c ****  *        FLASH_ALIGN_ERROR, FLASH_OP_RANGE_ERROR or FLASH_COMPLETE.
1037:../Peripheral/src/ch32v30x_flash.c ****  */
1038:../Peripheral/src/ch32v30x_flash.c **** FLASH_Status FLASH_ROM_ERASE(uint32_t StartAddr, uint32_t Length)
1039:../Peripheral/src/ch32v30x_flash.c **** {
 2198              		.loc 1 1039 1 is_stmt 1
 2199              		.cfi_startproc
 2200              	.LVL102:
1040:../Peripheral/src/ch32v30x_flash.c ****     uint32_t Addr0 = 0, Addr1 = 0, Length0 = 0, Length1 = 0;
 2201              		.loc 1 1040 5
1041:../Peripheral/src/ch32v30x_flash.c **** 
1042:../Peripheral/src/ch32v30x_flash.c ****     FLASH_Status status = FLASH_COMPLETE;
 2202              		.loc 1 1042 5
1043:../Peripheral/src/ch32v30x_flash.c **** 
1044:../Peripheral/src/ch32v30x_flash.c ****     if((StartAddr < ValidAddrStart) || (StartAddr >= ValidAddrEnd))
 2203              		.loc 1 1044 5
 2204              		.loc 1 1044 37 is_stmt 0
 2205 0000 B70700F8 		li	a5,-134217728
 2206 0004 AA97     		add	a5,a0,a5
 2207              		.loc 1 1044 7
 2208 0006 37870700 		li	a4,491520
 2209 000a 63F7E718 		bgeu	a5,a4,.L167
1039:../Peripheral/src/ch32v30x_flash.c ****     uint32_t Addr0 = 0, Addr1 = 0, Length0 = 0, Length1 = 0;
 2210              		.loc 1 1039 1
 2211 000e 17030000 		call	t0,__riscv_save_7
 2211      E7020300 
 2212              		.cfi_offset 22, -32
 2213              		.cfi_offset 21, -28
 2214              		.cfi_offset 20, -24
 2215              		.cfi_offset 19, -20
 2216              		.cfi_offset 18, -16
 2217              		.cfi_offset 9, -12
 2218              		.cfi_offset 8, -8
 2219              		.cfi_offset 1, -4
 2220              		.cfi_def_cfa_offset 32
1045:../Peripheral/src/ch32v30x_flash.c ****     {
1046:../Peripheral/src/ch32v30x_flash.c ****         return FLASH_ADR_RANGE_ERROR;
1047:../Peripheral/src/ch32v30x_flash.c ****     }
1048:../Peripheral/src/ch32v30x_flash.c **** 
1049:../Peripheral/src/ch32v30x_flash.c ****     if((StartAddr + Length) > ValidAddrEnd)
 2221              		.loc 1 1049 19
 2222 0016 3307B500 		add	a4,a0,a1
 2223              		.loc 1 1049 7
 2224 001a B7860708 		li	a3,134709248
 2225 001e 2A89     		mv	s2,a0
 2226              		.loc 1 1049 5 is_stmt 1
1050:../Peripheral/src/ch32v30x_flash.c ****     {
1051:../Peripheral/src/ch32v30x_flash.c ****         return FLASH_OP_RANGE_ERROR;
 2227              		.loc 1 1051 16 is_stmt 0
 2228 0020 9307D00F 		li	a5,253
1049:../Peripheral/src/ch32v30x_flash.c ****     {
 2229              		.loc 1 1049 7
 2230 0024 63E1E614 		bgtu	a4,a3,.L149
1052:../Peripheral/src/ch32v30x_flash.c ****     }
1053:../Peripheral/src/ch32v30x_flash.c **** 
1054:../Peripheral/src/ch32v30x_flash.c ****     if((StartAddr & (Size_256B-1)) || (Length & (Size_256B-1)) || (Length == 0))
 2231              		.loc 1 1054 5 is_stmt 1
 2232 0028 B364B500 		or	s1,a0,a1
 2233 002c 93F4F40F 		andi	s1,s1,255
1055:../Peripheral/src/ch32v30x_flash.c ****     {
1056:../Peripheral/src/ch32v30x_flash.c ****         return FLASH_ALIGN_ERROR;
 2234              		.loc 1 1056 16 is_stmt 0
 2235 0030 9307E00F 		li	a5,254
1054:../Peripheral/src/ch32v30x_flash.c ****     {
 2236              		.loc 1 1054 36
 2237 0034 63990412 		bne	s1,zero,.L149
1054:../Peripheral/src/ch32v30x_flash.c ****     {
 2238              		.loc 1 1054 64 discriminator 2
 2239 0038 63870512 		beq	a1,zero,.L149
1057:../Peripheral/src/ch32v30x_flash.c ****     }
1058:../Peripheral/src/ch32v30x_flash.c **** 
1059:../Peripheral/src/ch32v30x_flash.c ****     /* Authorize the FPEC of Bank1 Access */
1060:../Peripheral/src/ch32v30x_flash.c ****     FLASH->KEYR = FLASH_KEY1;
 2240              		.loc 1 1060 5 is_stmt 1
 2241              		.loc 1 1060 17 is_stmt 0
 2242 003c B7066745 		li	a3,1164378112
 2243 0040 B7270240 		li	a5,1073881088
 2244 0044 93863612 		addi	a3,a3,291
1061:../Peripheral/src/ch32v30x_flash.c ****     FLASH->KEYR = FLASH_KEY2;
 2245              		.loc 1 1061 17
 2246 0048 3797EFCD 		li	a4,-839938048
1060:../Peripheral/src/ch32v30x_flash.c ****     FLASH->KEYR = FLASH_KEY2;
 2247              		.loc 1 1060 17
 2248 004c D4C3     		sw	a3,4(a5)
 2249              		.loc 1 1061 5 is_stmt 1
 2250              		.loc 1 1061 17 is_stmt 0
 2251 004e 1307B79A 		addi	a4,a4,-1621
 2252 0052 D8C3     		sw	a4,4(a5)
1062:../Peripheral/src/ch32v30x_flash.c **** 
1063:../Peripheral/src/ch32v30x_flash.c ****     /* Fast mode unlock */
1064:../Peripheral/src/ch32v30x_flash.c ****     FLASH->MODEKEYR = FLASH_KEY1;
 2253              		.loc 1 1064 5 is_stmt 1
 2254              		.loc 1 1064 21 is_stmt 0
 2255 0054 D4D3     		sw	a3,36(a5)
1065:../Peripheral/src/ch32v30x_flash.c ****     FLASH->MODEKEYR = FLASH_KEY2;
 2256              		.loc 1 1065 5 is_stmt 1
 2257              		.loc 1 1065 21 is_stmt 0
 2258 0056 D8D3     		sw	a4,36(a5)
1066:../Peripheral/src/ch32v30x_flash.c **** 
1067:../Peripheral/src/ch32v30x_flash.c ****     Addr0 = StartAddr;
 2259              		.loc 1 1067 5 is_stmt 1
 2260              	.LVL103:
1068:../Peripheral/src/ch32v30x_flash.c **** 
1069:../Peripheral/src/ch32v30x_flash.c ****     if(Length >= Size_32KB)
 2261              		.loc 1 1069 5
 2262              		.loc 1 1069 7 is_stmt 0
 2263 0058 A167     		li	a5,32768
 2264 005a 63E9F504 		bltu	a1,a5,.L151
1070:../Peripheral/src/ch32v30x_flash.c ****     {
1071:../Peripheral/src/ch32v30x_flash.c ****         Length0 = Size_32KB - (Addr0 & (Size_32KB - 1));
 2265              		.loc 1 1071 9 is_stmt 1
 2266              		.loc 1 1071 38 is_stmt 0
 2267 005e 1387F7FF 		addi	a4,a5,-1
 2268 0062 698F     		and	a4,a0,a4
 2269              		.loc 1 1071 17
 2270 0064 338AE740 		sub	s4,a5,a4
 2271              	.LVL104:
1072:../Peripheral/src/ch32v30x_flash.c ****         Addr1 = StartAddr + Length0;
 2272              		.loc 1 1072 9 is_stmt 1
1073:../Peripheral/src/ch32v30x_flash.c ****         Length1 = Length - Length0;
 2273              		.loc 1 1073 17 is_stmt 0
 2274 0068 9D8D     		sub	a1,a1,a5
 2275              	.LVL105:
1072:../Peripheral/src/ch32v30x_flash.c ****         Addr1 = StartAddr + Length0;
 2276              		.loc 1 1072 15
 2277 006a B3094501 		add	s3,a0,s4
 2278              	.LVL106:
 2279              		.loc 1 1073 9 is_stmt 1
 2280              		.loc 1 1073 17 is_stmt 0
 2281 006e 3384E500 		add	s0,a1,a4
 2282              	.LVL107:
1074:../Peripheral/src/ch32v30x_flash.c ****     }
1075:../Peripheral/src/ch32v30x_flash.c ****     else if(Length >= Size_4KB)
1076:../Peripheral/src/ch32v30x_flash.c ****     {
1077:../Peripheral/src/ch32v30x_flash.c ****         Length0 = Size_4KB - (Addr0 & (Size_4KB - 1));
1078:../Peripheral/src/ch32v30x_flash.c ****         Addr1 = StartAddr + Length0;
1079:../Peripheral/src/ch32v30x_flash.c ****         Length1 = Length - Length0;
1080:../Peripheral/src/ch32v30x_flash.c ****     }
1081:../Peripheral/src/ch32v30x_flash.c ****     else if(Length >= Size_256B)
1082:../Peripheral/src/ch32v30x_flash.c ****     {
1083:../Peripheral/src/ch32v30x_flash.c ****         Length0 = Length;
1084:../Peripheral/src/ch32v30x_flash.c ****     }
1085:../Peripheral/src/ch32v30x_flash.c **** 
1086:../Peripheral/src/ch32v30x_flash.c ****     /* Erase 32KB */
1087:../Peripheral/src/ch32v30x_flash.c ****     if(Length0 >= Size_32KB)//front
 2283              		.loc 1 1087 5 is_stmt 1
 2284              		.loc 1 1087 7 is_stmt 0
 2285 0072 630FFA0E 		beq	s4,a5,.L152
 2286              	.LVL108:
1088:../Peripheral/src/ch32v30x_flash.c ****     {
1089:../Peripheral/src/ch32v30x_flash.c ****         Length = Length0;
1090:../Peripheral/src/ch32v30x_flash.c ****         if(Addr0 & (Size_32KB - 1))
1091:../Peripheral/src/ch32v30x_flash.c ****         {
1092:../Peripheral/src/ch32v30x_flash.c ****             Length0 = Size_32KB - (Addr0 & (Size_32KB - 1));
1093:../Peripheral/src/ch32v30x_flash.c ****         }
1094:../Peripheral/src/ch32v30x_flash.c ****         else
1095:../Peripheral/src/ch32v30x_flash.c ****         {
1096:../Peripheral/src/ch32v30x_flash.c ****             Length0 = 0;
1097:../Peripheral/src/ch32v30x_flash.c ****         }
1098:../Peripheral/src/ch32v30x_flash.c **** 
1099:../Peripheral/src/ch32v30x_flash.c ****         ROM_ERASE((Addr0 + Length0), ((Length - Length0) >> 15), Size_32KB);
1100:../Peripheral/src/ch32v30x_flash.c ****     }
1101:../Peripheral/src/ch32v30x_flash.c **** 
1102:../Peripheral/src/ch32v30x_flash.c ****     if(Length1 >= Size_32KB)//back
 2287              		.loc 1 1102 5 is_stmt 1
 2288 0076 D284     		mv	s1,s4
 2289              		.loc 1 1102 7 is_stmt 0
 2290 0078 6367F404 		bltu	s0,a5,.L155
 2291              	.LVL109:
 2292              	.L157:
1103:../Peripheral/src/ch32v30x_flash.c ****     {
1104:../Peripheral/src/ch32v30x_flash.c ****         StartAddr = Addr1;
 2293              		.loc 1 1104 9 is_stmt 1
1105:../Peripheral/src/ch32v30x_flash.c ****         Length = Length1;
 2294              		.loc 1 1105 9
1106:../Peripheral/src/ch32v30x_flash.c **** 
1107:../Peripheral/src/ch32v30x_flash.c ****         if((Addr1 + Length1) & (Size_32KB - 1))
 2295              		.loc 1 1107 9
 2296              		.loc 1 1107 19 is_stmt 0
 2297 007c B3878900 		add	a5,s3,s0
 2298              		.loc 1 1107 30
 2299 0080 13971701 		slli	a4,a5,17
 2300 0084 135B1701 		srli	s6,a4,17
 2301 0088 CE8A     		mv	s5,s3
 2302              		.loc 1 1107 11
 2303 008a 01C7     		beq	a4,zero,.L160
1108:../Peripheral/src/ch32v30x_flash.c ****         {
1109:../Peripheral/src/ch32v30x_flash.c ****             Addr1 = ((StartAddr + Length1) & (~(Size_32KB - 1)));
 2304              		.loc 1 1109 13 is_stmt 1
 2305              		.loc 1 1109 19 is_stmt 0
 2306 008c E17A     		li	s5,-32768
 2307 008e B3FA5701 		and	s5,a5,s5
 2308              	.LVL110:
1110:../Peripheral/src/ch32v30x_flash.c ****             Length1 = (StartAddr + Length1) & (Size_32KB - 1);
 2309              		.loc 1 1110 13 is_stmt 1
 2310              	.L160:
1111:../Peripheral/src/ch32v30x_flash.c ****         }
1112:../Peripheral/src/ch32v30x_flash.c ****         else
1113:../Peripheral/src/ch32v30x_flash.c ****         {
1114:../Peripheral/src/ch32v30x_flash.c ****             Length1 = 0;
1115:../Peripheral/src/ch32v30x_flash.c ****         }
1116:../Peripheral/src/ch32v30x_flash.c **** 
1117:../Peripheral/src/ch32v30x_flash.c ****         ROM_ERASE(StartAddr, ((Length - Length1) >> 15), Size_32KB);
 2311              		.loc 1 1117 9
 2312              		.loc 1 1117 39 is_stmt 0
 2313 0092 B3056441 		sub	a1,s0,s6
 2314              		.loc 1 1117 9
 2315 0096 4E85     		mv	a0,s3
 2316 0098 2166     		li	a2,32768
 2317 009a BD81     		srli	a1,a1,15
 2318 009c 97000000 		call	ROM_ERASE
 2318      E7800000 
 2319              	.LVL111:
 2320 00a4 D284     		mv	s1,s4
 2321 00a6 5A84     		mv	s0,s6
 2322              	.LVL112:
 2323 00a8 D689     		mv	s3,s5
 2324              	.LVL113:
 2325 00aa 31A8     		j	.L155
 2326              	.LVL114:
 2327              	.L151:
1075:../Peripheral/src/ch32v30x_flash.c ****     {
 2328              		.loc 1 1075 10 is_stmt 1
1075:../Peripheral/src/ch32v30x_flash.c ****     {
 2329              		.loc 1 1075 12 is_stmt 0
 2330 00ac 0567     		li	a4,4096
 2331 00ae 63E6E508 		bltu	a1,a4,.L154
1077:../Peripheral/src/ch32v30x_flash.c ****         Addr1 = StartAddr + Length0;
 2332              		.loc 1 1077 9 is_stmt 1
1077:../Peripheral/src/ch32v30x_flash.c ****         Addr1 = StartAddr + Length0;
 2333              		.loc 1 1077 37 is_stmt 0
 2334 00b2 9307F7FF 		addi	a5,a4,-1
 2335 00b6 E98F     		and	a5,a0,a5
1077:../Peripheral/src/ch32v30x_flash.c ****         Addr1 = StartAddr + Length0;
 2336              		.loc 1 1077 17
 2337 00b8 B304F740 		sub	s1,a4,a5
 2338              	.LVL115:
1078:../Peripheral/src/ch32v30x_flash.c ****         Length1 = Length - Length0;
 2339              		.loc 1 1078 9 is_stmt 1
1079:../Peripheral/src/ch32v30x_flash.c ****     }
 2340              		.loc 1 1079 17 is_stmt 0
 2341 00bc 998D     		sub	a1,a1,a4
 2342              	.LVL116:
1078:../Peripheral/src/ch32v30x_flash.c ****         Length1 = Length - Length0;
 2343              		.loc 1 1078 15
 2344 00be B3099500 		add	s3,a0,s1
 2345              	.LVL117:
1079:../Peripheral/src/ch32v30x_flash.c ****     }
 2346              		.loc 1 1079 9 is_stmt 1
1079:../Peripheral/src/ch32v30x_flash.c ****     }
 2347              		.loc 1 1079 17 is_stmt 0
 2348 00c2 3384F500 		add	s0,a1,a5
 2349              	.LVL118:
1087:../Peripheral/src/ch32v30x_flash.c ****     {
 2350              		.loc 1 1087 5 is_stmt 1
1102:../Peripheral/src/ch32v30x_flash.c ****     {
 2351              		.loc 1 1102 5
 2352              	.L155:
1118:../Peripheral/src/ch32v30x_flash.c ****     }
1119:../Peripheral/src/ch32v30x_flash.c **** 
1120:../Peripheral/src/ch32v30x_flash.c ****     /* Erase 4KB */
1121:../Peripheral/src/ch32v30x_flash.c ****     if(Length0 >= Size_4KB) //front
 2353              		.loc 1 1121 5
 2354              		.loc 1 1121 7 is_stmt 0
 2355 00c6 8567     		li	a5,4096
 2356 00c8 63E5F402 		bltu	s1,a5,.L161
1122:../Peripheral/src/ch32v30x_flash.c ****     {
1123:../Peripheral/src/ch32v30x_flash.c ****         Length = Length0;
 2357              		.loc 1 1123 9 is_stmt 1
 2358              	.LVL119:
1124:../Peripheral/src/ch32v30x_flash.c ****         if(Addr0 & (Size_4KB - 1))
 2359              		.loc 1 1124 9
 2360              		.loc 1 1124 18 is_stmt 0
 2361 00cc 138AF7FF 		addi	s4,a5,-1
 2362 00d0 337A4901 		and	s4,s2,s4
 2363              		.loc 1 1124 11
 2364 00d4 63040A00 		beq	s4,zero,.L162
1125:../Peripheral/src/ch32v30x_flash.c ****         {
1126:../Peripheral/src/ch32v30x_flash.c ****             Length0 = Size_4KB - (Addr0 & (Size_4KB - 1));
 2365              		.loc 1 1126 13 is_stmt 1
 2366              		.loc 1 1126 21 is_stmt 0
 2367 00d8 338A4741 		sub	s4,a5,s4
 2368              	.LVL120:
 2369              	.L162:
1127:../Peripheral/src/ch32v30x_flash.c ****         }
1128:../Peripheral/src/ch32v30x_flash.c ****         else
1129:../Peripheral/src/ch32v30x_flash.c ****         {
1130:../Peripheral/src/ch32v30x_flash.c ****             Length0 = 0;
1131:../Peripheral/src/ch32v30x_flash.c ****         }
1132:../Peripheral/src/ch32v30x_flash.c **** 
1133:../Peripheral/src/ch32v30x_flash.c ****         ROM_ERASE((Addr0 + Length0), ((Length - Length0) >> 12), Size_4KB);
 2370              		.loc 1 1133 9 is_stmt 1
 2371              		.loc 1 1133 47 is_stmt 0
 2372 00dc B3854441 		sub	a1,s1,s4
 2373              		.loc 1 1133 9
 2374 00e0 0566     		li	a2,4096
 2375 00e2 B181     		srli	a1,a1,12
 2376 00e4 33052A01 		add	a0,s4,s2
 2377 00e8 97000000 		call	ROM_ERASE
 2377      E7800000 
 2378              	.LVL121:
 2379 00f0 D284     		mv	s1,s4
 2380              	.LVL122:
 2381              	.L161:
1134:../Peripheral/src/ch32v30x_flash.c ****     }
1135:../Peripheral/src/ch32v30x_flash.c **** 
1136:../Peripheral/src/ch32v30x_flash.c ****     if(Length1 >= Size_4KB) //back
 2382              		.loc 1 1136 5 is_stmt 1
 2383              		.loc 1 1136 7 is_stmt 0
 2384 00f2 8567     		li	a5,4096
 2385 00f4 6368F402 		bltu	s0,a5,.L163
 2386              	.LVL123:
 2387              	.L158:
1137:../Peripheral/src/ch32v30x_flash.c ****     {
1138:../Peripheral/src/ch32v30x_flash.c ****         StartAddr = Addr1;
 2388              		.loc 1 1138 9 is_stmt 1
1139:../Peripheral/src/ch32v30x_flash.c ****         Length = Length1;
 2389              		.loc 1 1139 9
1140:../Peripheral/src/ch32v30x_flash.c **** 
1141:../Peripheral/src/ch32v30x_flash.c ****         if((Addr1 + Length1) & (Size_4KB - 1))
 2390              		.loc 1 1141 9
 2391              		.loc 1 1141 19 is_stmt 0
 2392 00f8 B3073401 		add	a5,s0,s3
 2393              		.loc 1 1141 30
 2394 00fc 13974701 		slli	a4,a5,20
 2395 0100 935A4701 		srli	s5,a4,20
 2396 0104 4E8A     		mv	s4,s3
 2397              		.loc 1 1141 11
 2398 0106 01C7     		beq	a4,zero,.L164
1142:../Peripheral/src/ch32v30x_flash.c ****         {
1143:../Peripheral/src/ch32v30x_flash.c ****             Addr1 = ((StartAddr + Length1) & (~(Size_4KB - 1)));
 2399              		.loc 1 1143 13 is_stmt 1
 2400              		.loc 1 1143 19 is_stmt 0
 2401 0108 7D7A     		li	s4,-4096
 2402 010a 33FA4701 		and	s4,a5,s4
 2403              	.LVL124:
1144:../Peripheral/src/ch32v30x_flash.c ****             Length1 = (StartAddr + Length1) & (Size_4KB - 1);
 2404              		.loc 1 1144 13 is_stmt 1
 2405              	.L164:
1145:../Peripheral/src/ch32v30x_flash.c ****         }
1146:../Peripheral/src/ch32v30x_flash.c ****         else
1147:../Peripheral/src/ch32v30x_flash.c ****         {
1148:../Peripheral/src/ch32v30x_flash.c ****             Length1 = 0;
1149:../Peripheral/src/ch32v30x_flash.c ****         }
1150:../Peripheral/src/ch32v30x_flash.c **** 
1151:../Peripheral/src/ch32v30x_flash.c ****         ROM_ERASE(StartAddr, ((Length - Length1) >> 12), Size_4KB);
 2406              		.loc 1 1151 9
 2407              		.loc 1 1151 39 is_stmt 0
 2408 010e B3055441 		sub	a1,s0,s5
 2409              		.loc 1 1151 9
 2410 0112 4E85     		mv	a0,s3
 2411 0114 0566     		li	a2,4096
 2412 0116 B181     		srli	a1,a1,12
 2413 0118 97000000 		call	ROM_ERASE
 2413      E7800000 
 2414              	.LVL125:
 2415 0120 5684     		mv	s0,s5
 2416              	.LVL126:
 2417 0122 D289     		mv	s3,s4
 2418              	.LVL127:
 2419              	.L163:
1152:../Peripheral/src/ch32v30x_flash.c ****     }
1153:../Peripheral/src/ch32v30x_flash.c **** 
1154:../Peripheral/src/ch32v30x_flash.c ****     /* Erase 256B */
1155:../Peripheral/src/ch32v30x_flash.c ****     if(Length0)//front
 2420              		.loc 1 1155 5 is_stmt 1
 2421              		.loc 1 1155 7 is_stmt 0
 2422 0124 ADC0     		beq	s1,zero,.L159
1156:../Peripheral/src/ch32v30x_flash.c ****     {
1157:../Peripheral/src/ch32v30x_flash.c ****         ROM_ERASE(Addr0, (Length0 >> 8), Size_256B);
 2423              		.loc 1 1157 9 is_stmt 1
 2424 0126 13060010 		li	a2,256
 2425 012a 93D58400 		srli	a1,s1,8
 2426 012e 4A85     		mv	a0,s2
 2427 0130 97000000 		call	ROM_ERASE
 2427      E7800000 
 2428              	.LVL128:
 2429 0138 B9A0     		j	.L159
 2430              	.LVL129:
 2431              	.L154:
1081:../Peripheral/src/ch32v30x_flash.c ****     {
 2432              		.loc 1 1081 10
1081:../Peripheral/src/ch32v30x_flash.c ****     {
 2433              		.loc 1 1081 12 is_stmt 0
 2434 013a 9307F00F 		li	a5,255
 2435 013e 63F9B700 		bleu	a1,a5,.L156
 2436              	.LVL130:
1136:../Peripheral/src/ch32v30x_flash.c ****     {
 2437              		.loc 1 1136 5 is_stmt 1
1155:../Peripheral/src/ch32v30x_flash.c ****     {
 2438              		.loc 1 1155 5
 2439              		.loc 1 1157 9
 2440 0142 13060010 		li	a2,256
 2441 0146 A181     		srli	a1,a1,8
 2442              	.LVL131:
 2443              	.L188:
1158:../Peripheral/src/ch32v30x_flash.c ****     }
1159:../Peripheral/src/ch32v30x_flash.c **** 
1160:../Peripheral/src/ch32v30x_flash.c ****     if(Length1)//back
1161:../Peripheral/src/ch32v30x_flash.c ****     {
1162:../Peripheral/src/ch32v30x_flash.c ****         ROM_ERASE(Addr1, (Length1 >> 8), Size_256B);
 2444              		.loc 1 1162 9 is_stmt 0
 2445 0148 97000000 		call	ROM_ERASE
 2445      E7800000 
 2446              	.LVL132:
 2447              	.L156:
1163:../Peripheral/src/ch32v30x_flash.c ****     }
1164:../Peripheral/src/ch32v30x_flash.c **** 
1165:../Peripheral/src/ch32v30x_flash.c ****     FLASH->CTLR |= CR_FLOCK_Set;
 2448              		.loc 1 1165 5 is_stmt 1
 2449              		.loc 1 1165 10 is_stmt 0
 2450 0150 B7270240 		li	a5,1073881088
 2451 0154 984B     		lw	a4,16(a5)
 2452              		.loc 1 1165 17
 2453 0156 A166     		li	a3,32768
 2454 0158 558F     		or	a4,a4,a3
 2455 015a 98CB     		sw	a4,16(a5)
1166:../Peripheral/src/ch32v30x_flash.c ****     FLASH->CTLR |= CR_LOCK_Set;
 2456              		.loc 1 1166 5 is_stmt 1
 2457              		.loc 1 1166 10 is_stmt 0
 2458 015c 984B     		lw	a4,16(a5)
 2459              		.loc 1 1166 17
 2460 015e 13670708 		ori	a4,a4,128
 2461 0162 98CB     		sw	a4,16(a5)
1167:../Peripheral/src/ch32v30x_flash.c **** 
1168:../Peripheral/src/ch32v30x_flash.c ****     return status;
 2462              		.loc 1 1168 5 is_stmt 1
 2463              		.loc 1 1168 12 is_stmt 0
 2464 0164 9147     		li	a5,4
 2465              	.LVL133:
 2466              	.L149:
1169:../Peripheral/src/ch32v30x_flash.c **** }
 2467              		.loc 1 1169 1
 2468 0166 3E85     		mv	a0,a5
 2469 0168 17030000 		tail	__riscv_restore_7
 2469      67000300 
 2470              		.cfi_remember_state
 2471              		.cfi_restore 22
 2472              		.cfi_restore 21
 2473              		.cfi_restore 20
 2474              		.cfi_restore 19
 2475              		.cfi_restore 18
 2476              		.cfi_restore 9
 2477              		.cfi_restore 8
 2478              		.cfi_restore 1
 2479              		.cfi_def_cfa_offset 0
 2480              	.LVL134:
 2481              	.L152:
 2482              		.cfi_restore_state
1089:../Peripheral/src/ch32v30x_flash.c ****         if(Addr0 & (Size_32KB - 1))
 2483              		.loc 1 1089 9 is_stmt 1
1090:../Peripheral/src/ch32v30x_flash.c ****         {
 2484              		.loc 1 1090 9
1099:../Peripheral/src/ch32v30x_flash.c ****     }
 2485              		.loc 1 1099 9
 2486 0170 2166     		li	a2,32768
 2487 0172 8545     		li	a1,1
 2488 0174 97000000 		call	ROM_ERASE
 2488      E7800000 
 2489              	.LVL135:
1102:../Peripheral/src/ch32v30x_flash.c ****     {
 2490              		.loc 1 1102 5
1102:../Peripheral/src/ch32v30x_flash.c ****     {
 2491              		.loc 1 1102 7 is_stmt 0
 2492 017c 637C4401 		bgeu	s0,s4,.L171
1136:../Peripheral/src/ch32v30x_flash.c ****     {
 2493              		.loc 1 1136 5 is_stmt 1
1136:../Peripheral/src/ch32v30x_flash.c ****     {
 2494              		.loc 1 1136 7 is_stmt 0
 2495 0180 8567     		li	a5,4096
 2496 0182 E37BF4F6 		bgeu	s0,a5,.L158
 2497              	.LVL136:
 2498              	.L159:
1160:../Peripheral/src/ch32v30x_flash.c ****     {
 2499              		.loc 1 1160 5 is_stmt 1
1160:../Peripheral/src/ch32v30x_flash.c ****     {
 2500              		.loc 1 1160 7 is_stmt 0
 2501 0186 69D4     		beq	s0,zero,.L156
1162:../Peripheral/src/ch32v30x_flash.c ****     }
 2502              		.loc 1 1162 9 is_stmt 1
 2503 0188 13060010 		li	a2,256
 2504 018c 93558400 		srli	a1,s0,8
 2505 0190 4E85     		mv	a0,s3
 2506 0192 5DBF     		j	.L188
 2507              	.LVL137:
 2508              	.L171:
1102:../Peripheral/src/ch32v30x_flash.c ****     {
 2509              		.loc 1 1102 7 is_stmt 0
 2510 0194 014A     		li	s4,0
 2511 0196 DDB5     		j	.L157
 2512              	.LVL138:
 2513              	.L167:
 2514              		.cfi_def_cfa_offset 0
 2515              		.cfi_restore 1
 2516              		.cfi_restore 8
 2517              		.cfi_restore 9
 2518              		.cfi_restore 18
 2519              		.cfi_restore 19
 2520              		.cfi_restore 20
 2521              		.cfi_restore 21
 2522              		.cfi_restore 22
1046:../Peripheral/src/ch32v30x_flash.c ****     }
 2523              		.loc 1 1046 16
 2524 0198 9307F00F 		li	a5,255
 2525              		.loc 1 1169 1
 2526 019c 3E85     		mv	a0,a5
 2527              	.LVL139:
 2528 019e 8280     		ret
 2529              		.cfi_endproc
 2530              	.LFE62:
 2532              		.section	.text.FLASH_ROM_WRITE,"ax",@progbits
 2533              		.align	1
 2534              		.globl	FLASH_ROM_WRITE
 2536              	FLASH_ROM_WRITE:
 2537              	.LFB63:
1170:../Peripheral/src/ch32v30x_flash.c **** 
1171:../Peripheral/src/ch32v30x_flash.c **** /*********************************************************************
1172:../Peripheral/src/ch32v30x_flash.c ****  * @fn      FLASH_ROM_WRITE
1173:../Peripheral/src/ch32v30x_flash.c ****  *
1174:../Peripheral/src/ch32v30x_flash.c ****  * @brief   Writes a specified FLASH .
1175:../Peripheral/src/ch32v30x_flash.c ****  *
1176:../Peripheral/src/ch32v30x_flash.c ****  * @param   StartAddr - Writes Flash start address(StartAddr%256 == 0).
1177:../Peripheral/src/ch32v30x_flash.c ****  *          Length - Writes Flash start Length(Length%256 == 0).
1178:../Peripheral/src/ch32v30x_flash.c ****  *          pbuf - Writes Flash value buffer.
1179:../Peripheral/src/ch32v30x_flash.c ****  *
1180:../Peripheral/src/ch32v30x_flash.c ****  * @return  FLASH Status - The returned value can be: FLASH_ADR_RANGE_ERROR,
1181:../Peripheral/src/ch32v30x_flash.c ****  *        FLASH_ALIGN_ERROR, FLASH_OP_RANGE_ERROR or FLASH_COMPLETE.
1182:../Peripheral/src/ch32v30x_flash.c ****  */
1183:../Peripheral/src/ch32v30x_flash.c **** FLASH_Status FLASH_ROM_WRITE(uint32_t StartAddr, uint32_t *pbuf, uint32_t Length)
1184:../Peripheral/src/ch32v30x_flash.c **** {
 2538              		.loc 1 1184 1 is_stmt 1
 2539              		.cfi_startproc
 2540              	.LVL140:
1185:../Peripheral/src/ch32v30x_flash.c ****     uint32_t i;
 2541              		.loc 1 1185 5
1186:../Peripheral/src/ch32v30x_flash.c ****     uint8_t size;
 2542              		.loc 1 1186 5
1187:../Peripheral/src/ch32v30x_flash.c **** 
1188:../Peripheral/src/ch32v30x_flash.c ****     FLASH_Status status = FLASH_COMPLETE;
 2543              		.loc 1 1188 5
1189:../Peripheral/src/ch32v30x_flash.c **** 
1190:../Peripheral/src/ch32v30x_flash.c ****     if((StartAddr < ValidAddrStart) || (StartAddr >= ValidAddrEnd))
 2544              		.loc 1 1190 5
 2545              		.loc 1 1190 37 is_stmt 0
 2546 0000 370700F8 		li	a4,-134217728
 2547 0004 2A97     		add	a4,a0,a4
 2548              		.loc 1 1190 7
 2549 0006 B7860700 		li	a3,491520
1184:../Peripheral/src/ch32v30x_flash.c ****     uint32_t i;
 2550              		.loc 1 1184 1
 2551 000a AA87     		mv	a5,a0
 2552              		.loc 1 1190 7
 2553 000c 6371D70C 		bgeu	a4,a3,.L197
1191:../Peripheral/src/ch32v30x_flash.c ****     {
1192:../Peripheral/src/ch32v30x_flash.c ****         return FLASH_ADR_RANGE_ERROR;
1193:../Peripheral/src/ch32v30x_flash.c ****     }
1194:../Peripheral/src/ch32v30x_flash.c **** 
1195:../Peripheral/src/ch32v30x_flash.c ****     if((StartAddr + Length) > ValidAddrEnd)
 2554              		.loc 1 1195 5 is_stmt 1
 2555              		.loc 1 1195 19 is_stmt 0
 2556 0010 3307C500 		add	a4,a0,a2
 2557              		.loc 1 1195 7
 2558 0014 B7860708 		li	a3,134709248
1196:../Peripheral/src/ch32v30x_flash.c ****     {
1197:../Peripheral/src/ch32v30x_flash.c ****         return FLASH_OP_RANGE_ERROR;
 2559              		.loc 1 1197 16
 2560 0018 1305D00F 		li	a0,253
 2561              	.LVL141:
1195:../Peripheral/src/ch32v30x_flash.c ****     {
 2562              		.loc 1 1195 7
 2563 001c 63EBE60A 		bgtu	a4,a3,.L189
1198:../Peripheral/src/ch32v30x_flash.c ****     }
1199:../Peripheral/src/ch32v30x_flash.c **** 
1200:../Peripheral/src/ch32v30x_flash.c ****     if((StartAddr & (Size_256B-1)) || (Length & (Size_256B-1)) || (Length == 0))
 2564              		.loc 1 1200 5 is_stmt 1
 2565              		.loc 1 1200 36 is_stmt 0
 2566 0020 33E7C700 		or	a4,a5,a2
 2567 0024 1377F70F 		andi	a4,a4,255
1201:../Peripheral/src/ch32v30x_flash.c ****     {
1202:../Peripheral/src/ch32v30x_flash.c ****         return FLASH_ALIGN_ERROR;
 2568              		.loc 1 1202 16
 2569 0028 1305E00F 		li	a0,254
1200:../Peripheral/src/ch32v30x_flash.c ****     {
 2570              		.loc 1 1200 36
 2571 002c 5DE3     		bne	a4,zero,.L189
1200:../Peripheral/src/ch32v30x_flash.c ****     {
 2572              		.loc 1 1200 64 discriminator 2
 2573 002e 55C2     		beq	a2,zero,.L189
1203:../Peripheral/src/ch32v30x_flash.c ****     }
1204:../Peripheral/src/ch32v30x_flash.c **** 
1205:../Peripheral/src/ch32v30x_flash.c ****     i = Length >> 8;
 2574              		.loc 1 1205 5 is_stmt 1
1206:../Peripheral/src/ch32v30x_flash.c **** 
1207:../Peripheral/src/ch32v30x_flash.c ****     /* Authorize the FPEC of Bank1 Access */
1208:../Peripheral/src/ch32v30x_flash.c ****     FLASH->KEYR = FLASH_KEY1;
 2575              		.loc 1 1208 17 is_stmt 0
 2576 0030 37056745 		li	a0,1164378112
 2577 0034 37270240 		li	a4,1073881088
 2578 0038 13053512 		addi	a0,a0,291
1209:../Peripheral/src/ch32v30x_flash.c ****     FLASH->KEYR = FLASH_KEY2;
 2579              		.loc 1 1209 17
 2580 003c B796EFCD 		li	a3,-839938048
1208:../Peripheral/src/ch32v30x_flash.c ****     FLASH->KEYR = FLASH_KEY2;
 2581              		.loc 1 1208 17
 2582 0040 48C3     		sw	a0,4(a4)
 2583              		.loc 1 1209 17
 2584 0042 9386B69A 		addi	a3,a3,-1621
 2585 0046 54C3     		sw	a3,4(a4)
1210:../Peripheral/src/ch32v30x_flash.c **** 
1211:../Peripheral/src/ch32v30x_flash.c ****     /* Fast program mode unlock */
1212:../Peripheral/src/ch32v30x_flash.c ****     FLASH->MODEKEYR = FLASH_KEY1;
 2586              		.loc 1 1212 21
 2587 0048 48D3     		sw	a0,36(a4)
1213:../Peripheral/src/ch32v30x_flash.c ****     FLASH->MODEKEYR = FLASH_KEY2;
 2588              		.loc 1 1213 21
 2589 004a 54D3     		sw	a3,36(a4)
1214:../Peripheral/src/ch32v30x_flash.c **** 
1215:../Peripheral/src/ch32v30x_flash.c ****     do{
1216:../Peripheral/src/ch32v30x_flash.c ****         FLASH->CTLR |= CR_PAGE_PG;
1217:../Peripheral/src/ch32v30x_flash.c ****         while(FLASH->STATR & SR_BSY)
1218:../Peripheral/src/ch32v30x_flash.c ****             ;
1219:../Peripheral/src/ch32v30x_flash.c ****         while(FLASH->STATR & SR_WR_BSY)
1220:../Peripheral/src/ch32v30x_flash.c ****             ;
1221:../Peripheral/src/ch32v30x_flash.c ****         size = 64;
1222:../Peripheral/src/ch32v30x_flash.c ****         while(size)
1223:../Peripheral/src/ch32v30x_flash.c ****         {
1224:../Peripheral/src/ch32v30x_flash.c ****             *(uint32_t *)StartAddr = *(uint32_t *)pbuf;
1225:../Peripheral/src/ch32v30x_flash.c ****             StartAddr += 4;
1226:../Peripheral/src/ch32v30x_flash.c ****             pbuf += 1;
1227:../Peripheral/src/ch32v30x_flash.c ****             size -= 1;
1228:../Peripheral/src/ch32v30x_flash.c ****             while(FLASH->STATR & SR_WR_BSY)
1229:../Peripheral/src/ch32v30x_flash.c ****                 ;
1230:../Peripheral/src/ch32v30x_flash.c ****         }
1231:../Peripheral/src/ch32v30x_flash.c **** 
1232:../Peripheral/src/ch32v30x_flash.c ****         FLASH->CTLR |= CR_PG_STRT;
1233:../Peripheral/src/ch32v30x_flash.c ****         while(FLASH->STATR & SR_BSY)
1234:../Peripheral/src/ch32v30x_flash.c ****             ;
1235:../Peripheral/src/ch32v30x_flash.c ****         FLASH->CTLR &= ~CR_PAGE_PG;
 2590              		.loc 1 1235 21
 2591 004c C176     		li	a3,-65536
1213:../Peripheral/src/ch32v30x_flash.c ****     FLASH->MODEKEYR = FLASH_KEY2;
 2592              		.loc 1 1213 21
 2593 004e 3E85     		mv	a0,a5
 2594 0050 9D8D     		sub	a1,a1,a5
 2595              	.LVL142:
1205:../Peripheral/src/ch32v30x_flash.c **** 
 2596              		.loc 1 1205 7
 2597 0052 2182     		srli	a2,a2,8
 2598              	.LVL143:
1208:../Peripheral/src/ch32v30x_flash.c ****     FLASH->KEYR = FLASH_KEY2;
 2599              		.loc 1 1208 5 is_stmt 1
1209:../Peripheral/src/ch32v30x_flash.c **** 
 2600              		.loc 1 1209 5
1212:../Peripheral/src/ch32v30x_flash.c ****     FLASH->MODEKEYR = FLASH_KEY2;
 2601              		.loc 1 1212 5
1213:../Peripheral/src/ch32v30x_flash.c **** 
 2602              		.loc 1 1213 5
1216:../Peripheral/src/ch32v30x_flash.c ****         while(FLASH->STATR & SR_BSY)
 2603              		.loc 1 1216 14 is_stmt 0
 2604 0054 B7270240 		li	a5,1073881088
 2605              	.LVL144:
1216:../Peripheral/src/ch32v30x_flash.c ****         while(FLASH->STATR & SR_BSY)
 2606              		.loc 1 1216 21
 2607 0058 C168     		li	a7,65536
1222:../Peripheral/src/ch32v30x_flash.c ****         {
 2608              		.loc 1 1222 15
 2609 005a 13030010 		li	t1,256
1232:../Peripheral/src/ch32v30x_flash.c ****         while(FLASH->STATR & SR_BSY)
 2610              		.loc 1 1232 21
 2611 005e 370E2000 		li	t3,2097152
 2612              		.loc 1 1235 21
 2613 0062 FD16     		addi	a3,a3,-1
 2614              	.LVL145:
 2615              	.L196:
1216:../Peripheral/src/ch32v30x_flash.c ****         while(FLASH->STATR & SR_BSY)
 2616              		.loc 1 1216 14
 2617 0064 984B     		lw	a4,16(a5)
 2618 0066 B38EA500 		add	t4,a1,a0
 2619              	.LVL146:
1215:../Peripheral/src/ch32v30x_flash.c ****         FLASH->CTLR |= CR_PAGE_PG;
 2620              		.loc 1 1215 5 is_stmt 1
1216:../Peripheral/src/ch32v30x_flash.c ****         while(FLASH->STATR & SR_BSY)
 2621              		.loc 1 1216 9
1216:../Peripheral/src/ch32v30x_flash.c ****         while(FLASH->STATR & SR_BSY)
 2622              		.loc 1 1216 21 is_stmt 0
 2623 006a 33671701 		or	a4,a4,a7
 2624 006e 98CB     		sw	a4,16(a5)
1217:../Peripheral/src/ch32v30x_flash.c ****             ;
 2625              		.loc 1 1217 9 is_stmt 1
 2626              	.L191:
1217:../Peripheral/src/ch32v30x_flash.c ****             ;
 2627              		.loc 1 1217 15 discriminator 1
1217:../Peripheral/src/ch32v30x_flash.c ****             ;
 2628              		.loc 1 1217 20 is_stmt 0 discriminator 1
 2629 0070 D847     		lw	a4,12(a5)
1217:../Peripheral/src/ch32v30x_flash.c ****             ;
 2630              		.loc 1 1217 28 discriminator 1
 2631 0072 058B     		andi	a4,a4,1
1217:../Peripheral/src/ch32v30x_flash.c ****             ;
 2632              		.loc 1 1217 15 discriminator 1
 2633 0074 75FF     		bne	a4,zero,.L191
 2634              	.L192:
1219:../Peripheral/src/ch32v30x_flash.c ****             ;
 2635              		.loc 1 1219 15 is_stmt 1 discriminator 1
1219:../Peripheral/src/ch32v30x_flash.c ****             ;
 2636              		.loc 1 1219 20 is_stmt 0 discriminator 1
 2637 0076 D847     		lw	a4,12(a5)
1219:../Peripheral/src/ch32v30x_flash.c ****             ;
 2638              		.loc 1 1219 28 discriminator 1
 2639 0078 098B     		andi	a4,a4,2
1219:../Peripheral/src/ch32v30x_flash.c ****             ;
 2640              		.loc 1 1219 15 discriminator 1
 2641 007a 75FF     		bne	a4,zero,.L192
 2642              	.LVL147:
 2643              	.L194:
1224:../Peripheral/src/ch32v30x_flash.c ****             StartAddr += 4;
 2644              		.loc 1 1224 13 is_stmt 1
1224:../Peripheral/src/ch32v30x_flash.c ****             StartAddr += 4;
 2645              		.loc 1 1224 38 is_stmt 0
 2646 007c 3388EE00 		add	a6,t4,a4
 2647              	.LVL148:
 2648 0080 032F0800 		lw	t5,0(a6)
1224:../Peripheral/src/ch32v30x_flash.c ****             StartAddr += 4;
 2649              		.loc 1 1224 36
 2650 0084 3308E500 		add	a6,a0,a4
 2651              	.LVL149:
 2652 0088 2320E801 		sw	t5,0(a6)
1225:../Peripheral/src/ch32v30x_flash.c ****             pbuf += 1;
 2653              		.loc 1 1225 13 is_stmt 1
 2654              	.LVL150:
1226:../Peripheral/src/ch32v30x_flash.c ****             size -= 1;
 2655              		.loc 1 1226 13
1227:../Peripheral/src/ch32v30x_flash.c ****             while(FLASH->STATR & SR_WR_BSY)
 2656              		.loc 1 1227 13
1228:../Peripheral/src/ch32v30x_flash.c ****                 ;
 2657              		.loc 1 1228 13
 2658              	.L193:
1228:../Peripheral/src/ch32v30x_flash.c ****                 ;
 2659              		.loc 1 1228 19 discriminator 1
1228:../Peripheral/src/ch32v30x_flash.c ****                 ;
 2660              		.loc 1 1228 24 is_stmt 0 discriminator 1
 2661 008c 03A8C700 		lw	a6,12(a5)
1228:../Peripheral/src/ch32v30x_flash.c ****                 ;
 2662              		.loc 1 1228 32 discriminator 1
 2663 0090 13782800 		andi	a6,a6,2
1228:../Peripheral/src/ch32v30x_flash.c ****                 ;
 2664              		.loc 1 1228 19 discriminator 1
 2665 0094 E31C08FE 		bne	a6,zero,.L193
1222:../Peripheral/src/ch32v30x_flash.c ****         {
 2666              		.loc 1 1222 15 is_stmt 1
 2667 0098 1107     		addi	a4,a4,4
 2668              	.LVL151:
 2669 009a E31167FE 		bne	a4,t1,.L194
1232:../Peripheral/src/ch32v30x_flash.c ****         while(FLASH->STATR & SR_BSY)
 2670              		.loc 1 1232 14 is_stmt 0
 2671 009e 984B     		lw	a4,16(a5)
 2672              	.LVL152:
1225:../Peripheral/src/ch32v30x_flash.c ****             pbuf += 1;
 2673              		.loc 1 1225 23
 2674 00a0 13050510 		addi	a0,a0,256
1232:../Peripheral/src/ch32v30x_flash.c ****         while(FLASH->STATR & SR_BSY)
 2675              		.loc 1 1232 9 is_stmt 1
1232:../Peripheral/src/ch32v30x_flash.c ****         while(FLASH->STATR & SR_BSY)
 2676              		.loc 1 1232 21 is_stmt 0
 2677 00a4 3367C701 		or	a4,a4,t3
 2678 00a8 98CB     		sw	a4,16(a5)
1233:../Peripheral/src/ch32v30x_flash.c ****             ;
 2679              		.loc 1 1233 9 is_stmt 1
 2680              	.L195:
1233:../Peripheral/src/ch32v30x_flash.c ****             ;
 2681              		.loc 1 1233 15 discriminator 1
1233:../Peripheral/src/ch32v30x_flash.c ****             ;
 2682              		.loc 1 1233 20 is_stmt 0 discriminator 1
 2683 00aa D847     		lw	a4,12(a5)
1233:../Peripheral/src/ch32v30x_flash.c ****             ;
 2684              		.loc 1 1233 28 discriminator 1
 2685 00ac 058B     		andi	a4,a4,1
1233:../Peripheral/src/ch32v30x_flash.c ****             ;
 2686              		.loc 1 1233 15 discriminator 1
 2687 00ae 75FF     		bne	a4,zero,.L195
 2688              		.loc 1 1235 9 is_stmt 1
 2689              		.loc 1 1235 14 is_stmt 0
 2690 00b0 984B     		lw	a4,16(a5)
1236:../Peripheral/src/ch32v30x_flash.c ****     }while(--i);
 2691              		.loc 1 1236 12
 2692 00b2 7D16     		addi	a2,a2,-1
 2693              	.LVL153:
1235:../Peripheral/src/ch32v30x_flash.c ****     }while(--i);
 2694              		.loc 1 1235 21
 2695 00b4 758F     		and	a4,a4,a3
 2696 00b6 98CB     		sw	a4,16(a5)
 2697              		.loc 1 1236 12 is_stmt 1
 2698              	.LVL154:
 2699 00b8 55F6     		bne	a2,zero,.L196
1237:../Peripheral/src/ch32v30x_flash.c **** 
1238:../Peripheral/src/ch32v30x_flash.c ****     FLASH->CTLR |= CR_FLOCK_Set;
 2700              		.loc 1 1238 5
 2701              		.loc 1 1238 10 is_stmt 0
 2702 00ba 984B     		lw	a4,16(a5)
 2703              		.loc 1 1238 17
 2704 00bc A166     		li	a3,32768
1239:../Peripheral/src/ch32v30x_flash.c ****     FLASH->CTLR |= CR_LOCK_Set;
1240:../Peripheral/src/ch32v30x_flash.c **** 
1241:../Peripheral/src/ch32v30x_flash.c ****     return status;
 2705              		.loc 1 1241 12
 2706 00be 1145     		li	a0,4
1238:../Peripheral/src/ch32v30x_flash.c ****     FLASH->CTLR |= CR_LOCK_Set;
 2707              		.loc 1 1238 17
 2708 00c0 558F     		or	a4,a4,a3
 2709 00c2 98CB     		sw	a4,16(a5)
1239:../Peripheral/src/ch32v30x_flash.c ****     FLASH->CTLR |= CR_LOCK_Set;
 2710              		.loc 1 1239 5 is_stmt 1
1239:../Peripheral/src/ch32v30x_flash.c ****     FLASH->CTLR |= CR_LOCK_Set;
 2711              		.loc 1 1239 10 is_stmt 0
 2712 00c4 984B     		lw	a4,16(a5)
1239:../Peripheral/src/ch32v30x_flash.c ****     FLASH->CTLR |= CR_LOCK_Set;
 2713              		.loc 1 1239 17
 2714 00c6 13670708 		ori	a4,a4,128
 2715 00ca 98CB     		sw	a4,16(a5)
 2716              		.loc 1 1241 5 is_stmt 1
 2717              		.loc 1 1241 12 is_stmt 0
 2718 00cc 8280     		ret
 2719              	.LVL155:
 2720              	.L197:
1192:../Peripheral/src/ch32v30x_flash.c ****     }
 2721              		.loc 1 1192 16
 2722 00ce 1305F00F 		li	a0,255
 2723              	.LVL156:
 2724              	.L189:
1242:../Peripheral/src/ch32v30x_flash.c **** }
 2725              		.loc 1 1242 1
 2726 00d2 8280     		ret
 2727              		.cfi_endproc
 2728              	.LFE63:
 2730              		.text
 2731              	.Letext0:
 2732              		.file 2 "d:\\software\\mounriver_studio\\toolchain\\risc-v embedded gcc12\\riscv-none-elf\\include
 2733              		.file 3 "d:\\software\\mounriver_studio\\toolchain\\risc-v embedded gcc12\\riscv-none-elf\\include
 2734              		.file 4 "C:\\Users\\localhost\\Documents\\turbomoskal-repo\\qqexpert\\firmware\\MasterController\\
 2735              		.file 5 "C:\\Users\\localhost\\Documents\\turbomoskal-repo\\qqexpert\\firmware\\MasterController\\
 2736              		.file 6 "C:\\Users\\localhost\\Documents\\turbomoskal-repo\\qqexpert\\firmware\\MasterController\\
DEFINED SYMBOLS
                            *ABS*:0000000000000000 ch32v30x_flash.c
C:\Users\LOCALH~1\AppData\Local\Temp\cco469pz.s:13     .text.ROM_ERASE:0000000000000000 ROM_ERASE
C:\Users\LOCALH~1\AppData\Local\Temp\cco469pz.s:17     .text.ROM_ERASE:0000000000000000 .L0 
C:\Users\LOCALH~1\AppData\Local\Temp\cco469pz.s:19     .text.ROM_ERASE:0000000000000000 .L0 
C:\Users\LOCALH~1\AppData\Local\Temp\cco469pz.s:20     .text.ROM_ERASE:0000000000000000 .L0 
C:\Users\LOCALH~1\AppData\Local\Temp\cco469pz.s:21     .text.ROM_ERASE:0000000000000000 .L0 
C:\Users\LOCALH~1\AppData\Local\Temp\cco469pz.s:22     .text.ROM_ERASE:0000000000000000 $x
C:\Users\LOCALH~1\AppData\Local\Temp\cco469pz.s:22     .text.ROM_ERASE:0000000000000000 .L0 
C:\Users\LOCALH~1\AppData\Local\Temp\cco469pz.s:27     .text.ROM_ERASE:0000000000000006 .L0 
C:\Users\LOCALH~1\AppData\Local\Temp\cco469pz.s:28     .text.ROM_ERASE:0000000000000006 .L0 
C:\Users\LOCALH~1\AppData\Local\Temp\cco469pz.s:31     .text.ROM_ERASE:000000000000000c .L0 
C:\Users\LOCALH~1\AppData\Local\Temp\cco469pz.s:34     .text.ROM_ERASE:0000000000000010 .L0 
C:\Users\LOCALH~1\AppData\Local\Temp\cco469pz.s:39     .text.ROM_ERASE:0000000000000014 .L0 
C:\Users\LOCALH~1\AppData\Local\Temp\cco469pz.s:40     .text.ROM_ERASE:0000000000000014 .L0 
C:\Users\LOCALH~1\AppData\Local\Temp\cco469pz.s:43     .text.ROM_ERASE:000000000000001a .L0 
C:\Users\LOCALH~1\AppData\Local\Temp\cco469pz.s:44     .text.ROM_ERASE:000000000000001a .L0 
C:\Users\LOCALH~1\AppData\Local\Temp\cco469pz.s:47     .text.ROM_ERASE:0000000000000020 .L0 
C:\Users\LOCALH~1\AppData\Local\Temp\cco469pz.s:50     .text.ROM_ERASE:0000000000000024 .L0 
C:\Users\LOCALH~1\AppData\Local\Temp\cco469pz.s:53     .text.ROM_ERASE:0000000000000026 .L0 
C:\Users\LOCALH~1\AppData\Local\Temp\cco469pz.s:54     .text.ROM_ERASE:0000000000000026 .L0 
C:\Users\LOCALH~1\AppData\Local\Temp\cco469pz.s:57     .text.ROM_ERASE:000000000000002c .L0 
C:\Users\LOCALH~1\AppData\Local\Temp\cco469pz.s:58     .text.ROM_ERASE:000000000000002c .L0 
C:\Users\LOCALH~1\AppData\Local\Temp\cco469pz.s:60     .text.ROM_ERASE:000000000000002e .L0 
C:\Users\LOCALH~1\AppData\Local\Temp\cco469pz.s:64     .text.ROM_ERASE:0000000000000034 .L0 
C:\Users\LOCALH~1\AppData\Local\Temp\cco469pz.s:65     .text.ROM_ERASE:0000000000000034 .L0 
C:\Users\LOCALH~1\AppData\Local\Temp\cco469pz.s:66     .text.ROM_ERASE:0000000000000034 .L0 
C:\Users\LOCALH~1\AppData\Local\Temp\cco469pz.s:68     .text.ROM_ERASE:0000000000000036 .L0 
C:\Users\LOCALH~1\AppData\Local\Temp\cco469pz.s:70     .text.ROM_ERASE:0000000000000038 .L0 
C:\Users\LOCALH~1\AppData\Local\Temp\cco469pz.s:72     .text.ROM_ERASE:000000000000003a .L0 
C:\Users\LOCALH~1\AppData\Local\Temp\cco469pz.s:73     .text.ROM_ERASE:000000000000003a .L0 
C:\Users\LOCALH~1\AppData\Local\Temp\cco469pz.s:77     .text.ROM_ERASE:0000000000000042 .L0 
C:\Users\LOCALH~1\AppData\Local\Temp\cco469pz.s:78     .text.ROM_ERASE:0000000000000042 .L0 
C:\Users\LOCALH~1\AppData\Local\Temp\cco469pz.s:80     .text.ROM_ERASE:0000000000000044 .L0 
C:\Users\LOCALH~1\AppData\Local\Temp\cco469pz.s:85     .text.ROM_ERASE:000000000000004e .L0 
C:\Users\LOCALH~1\AppData\Local\Temp\cco469pz.s:86     .text.ROM_ERASE:000000000000004e .L0 
C:\Users\LOCALH~1\AppData\Local\Temp\cco469pz.s:89     .text.ROM_ERASE:0000000000000050 .L0 
C:\Users\LOCALH~1\AppData\Local\Temp\cco469pz.s:94     .text.ROM_ERASE:0000000000000054 .L0 
C:\Users\LOCALH~1\AppData\Local\Temp\cco469pz.s:95     .text.ROM_ERASE:0000000000000054 .L0 
C:\Users\LOCALH~1\AppData\Local\Temp\cco469pz.s:98     .text.ROM_ERASE:000000000000005c .L0 
C:\Users\LOCALH~1\AppData\Local\Temp\cco469pz.s:99     .text.ROM_ERASE:000000000000005c .L0 
C:\Users\LOCALH~1\AppData\Local\Temp\cco469pz.s:102    .text.ROM_ERASE:0000000000000062 .L0 
C:\Users\LOCALH~1\AppData\Local\Temp\cco469pz.s:106    .text.ROM_ERASE:0000000000000068 .L0 
C:\Users\LOCALH~1\AppData\Local\Temp\cco469pz.s:107    .text.ROM_ERASE:0000000000000068 .L0 
C:\Users\LOCALH~1\AppData\Local\Temp\cco469pz.s:110    .text.ROM_ERASE:000000000000006e .L0 
C:\Users\LOCALH~1\AppData\Local\Temp\cco469pz.s:111    .text.ROM_ERASE:000000000000006e .L0 
C:\Users\LOCALH~1\AppData\Local\Temp\cco469pz.s:113    .text.ROM_ERASE:0000000000000070 .L0 
C:\Users\LOCALH~1\AppData\Local\Temp\cco469pz.s:115    .text.ROM_ERASE:0000000000000072 .L0 
C:\Users\LOCALH~1\AppData\Local\Temp\cco469pz.s:119    .text.ROM_ERASE:0000000000000076 .L0 
C:\Users\LOCALH~1\AppData\Local\Temp\cco469pz.s:120    .text.ROM_ERASE:0000000000000076 .L0 
C:\Users\LOCALH~1\AppData\Local\Temp\cco469pz.s:125    .text.ROM_ERASE:000000000000007a .L0 
C:\Users\LOCALH~1\AppData\Local\Temp\cco469pz.s:126    .text.ROM_ERASE:000000000000007a .L0 
C:\Users\LOCALH~1\AppData\Local\Temp\cco469pz.s:129    .text.ROM_ERASE:0000000000000082 .L0 
C:\Users\LOCALH~1\AppData\Local\Temp\cco469pz.s:130    .text.ROM_ERASE:0000000000000082 .L0 
C:\Users\LOCALH~1\AppData\Local\Temp\cco469pz.s:132    .text.ROM_ERASE:0000000000000084 .L0 
C:\Users\LOCALH~1\AppData\Local\Temp\cco469pz.s:137    .text.ROM_ERASE:000000000000008c .L0 
C:\Users\LOCALH~1\AppData\Local\Temp\cco469pz.s:138    .text.ROM_ERASE:000000000000008c .L0 
C:\Users\LOCALH~1\AppData\Local\Temp\cco469pz.s:141    .text.ROM_ERASE:0000000000000090 .L0 
C:\Users\LOCALH~1\AppData\Local\Temp\cco469pz.s:146    .text.ROM_ERASE:0000000000000094 .L0 
C:\Users\LOCALH~1\AppData\Local\Temp\cco469pz.s:148    .text.ROM_ERASE:0000000000000096 .L0 
C:\Users\LOCALH~1\AppData\Local\Temp\cco469pz.s:149    .text.ROM_ERASE:0000000000000098 .L0 
C:\Users\LOCALH~1\AppData\Local\Temp\cco469pz.s:156    .text.FLASH_Unlock:0000000000000000 FLASH_Unlock
C:\Users\LOCALH~1\AppData\Local\Temp\cco469pz.s:159    .text.FLASH_Unlock:0000000000000000 .L0 
C:\Users\LOCALH~1\AppData\Local\Temp\cco469pz.s:160    .text.FLASH_Unlock:0000000000000000 .L0 
C:\Users\LOCALH~1\AppData\Local\Temp\cco469pz.s:161    .text.FLASH_Unlock:0000000000000000 .L0 
C:\Users\LOCALH~1\AppData\Local\Temp\cco469pz.s:162    .text.FLASH_Unlock:0000000000000000 $x
C:\Users\LOCALH~1\AppData\Local\Temp\cco469pz.s:162    .text.FLASH_Unlock:0000000000000000 .L0 
C:\Users\LOCALH~1\AppData\Local\Temp\cco469pz.s:167    .text.FLASH_Unlock:000000000000000e .L0 
C:\Users\LOCALH~1\AppData\Local\Temp\cco469pz.s:168    .text.FLASH_Unlock:000000000000000e .L0 
C:\Users\LOCALH~1\AppData\Local\Temp\cco469pz.s:172    .text.FLASH_Unlock:0000000000000018 .L0 
C:\Users\LOCALH~1\AppData\Local\Temp\cco469pz.s:173    .text.FLASH_Unlock:000000000000001a .L0 
C:\Users\LOCALH~1\AppData\Local\Temp\cco469pz.s:180    .text.FLASH_UnlockBank1:0000000000000000 FLASH_UnlockBank1
C:\Users\LOCALH~1\AppData\Local\Temp\cco469pz.s:182    .text.FLASH_UnlockBank1:0000000000000000 .L0 
C:\Users\LOCALH~1\AppData\Local\Temp\cco469pz.s:184    .text.FLASH_UnlockBank1:0000000000000000 $x
C:\Users\LOCALH~1\AppData\Local\Temp\cco469pz.s:184    .text.FLASH_UnlockBank1:0000000000000000 .L0 
C:\Users\LOCALH~1\AppData\Local\Temp\cco469pz.s:185    .text.FLASH_UnlockBank1:0000000000000008 .L0 
C:\Users\LOCALH~1\AppData\Local\Temp\cco469pz.s:192    .text.FLASH_Lock:0000000000000000 FLASH_Lock
C:\Users\LOCALH~1\AppData\Local\Temp\cco469pz.s:195    .text.FLASH_Lock:0000000000000000 .L0 
C:\Users\LOCALH~1\AppData\Local\Temp\cco469pz.s:196    .text.FLASH_Lock:0000000000000000 .L0 
C:\Users\LOCALH~1\AppData\Local\Temp\cco469pz.s:197    .text.FLASH_Lock:0000000000000000 .L0 
C:\Users\LOCALH~1\AppData\Local\Temp\cco469pz.s:198    .text.FLASH_Lock:0000000000000000 $x
C:\Users\LOCALH~1\AppData\Local\Temp\cco469pz.s:198    .text.FLASH_Lock:0000000000000000 .L0 
C:\Users\LOCALH~1\AppData\Local\Temp\cco469pz.s:201    .text.FLASH_Lock:0000000000000006 .L0 
C:\Users\LOCALH~1\AppData\Local\Temp\cco469pz.s:204    .text.FLASH_Lock:000000000000000c .L0 
C:\Users\LOCALH~1\AppData\Local\Temp\cco469pz.s:205    .text.FLASH_Lock:000000000000000e .L0 
C:\Users\LOCALH~1\AppData\Local\Temp\cco469pz.s:212    .text.FLASH_LockBank1:0000000000000000 FLASH_LockBank1
C:\Users\LOCALH~1\AppData\Local\Temp\cco469pz.s:214    .text.FLASH_LockBank1:0000000000000000 .L0 
C:\Users\LOCALH~1\AppData\Local\Temp\cco469pz.s:216    .text.FLASH_LockBank1:0000000000000000 $x
C:\Users\LOCALH~1\AppData\Local\Temp\cco469pz.s:216    .text.FLASH_LockBank1:0000000000000000 .L0 
C:\Users\LOCALH~1\AppData\Local\Temp\cco469pz.s:217    .text.FLASH_LockBank1:0000000000000008 .L0 
C:\Users\LOCALH~1\AppData\Local\Temp\cco469pz.s:224    .text.FLASH_GetUserOptionByte:0000000000000000 FLASH_GetUserOptionByte
C:\Users\LOCALH~1\AppData\Local\Temp\cco469pz.s:227    .text.FLASH_GetUserOptionByte:0000000000000000 .L0 
C:\Users\LOCALH~1\AppData\Local\Temp\cco469pz.s:228    .text.FLASH_GetUserOptionByte:0000000000000000 .L0 
C:\Users\LOCALH~1\AppData\Local\Temp\cco469pz.s:229    .text.FLASH_GetUserOptionByte:0000000000000000 .L0 
C:\Users\LOCALH~1\AppData\Local\Temp\cco469pz.s:230    .text.FLASH_GetUserOptionByte:0000000000000000 $x
C:\Users\LOCALH~1\AppData\Local\Temp\cco469pz.s:230    .text.FLASH_GetUserOptionByte:0000000000000000 .L0 
C:\Users\LOCALH~1\AppData\Local\Temp\cco469pz.s:233    .text.FLASH_GetUserOptionByte:0000000000000006 .L0 
C:\Users\LOCALH~1\AppData\Local\Temp\cco469pz.s:235    .text.FLASH_GetUserOptionByte:000000000000000a .L0 
C:\Users\LOCALH~1\AppData\Local\Temp\cco469pz.s:242    .text.FLASH_GetWriteProtectionOptionByte:0000000000000000 FLASH_GetWriteProtectionOptionByte
C:\Users\LOCALH~1\AppData\Local\Temp\cco469pz.s:245    .text.FLASH_GetWriteProtectionOptionByte:0000000000000000 .L0 
C:\Users\LOCALH~1\AppData\Local\Temp\cco469pz.s:246    .text.FLASH_GetWriteProtectionOptionByte:0000000000000000 .L0 
C:\Users\LOCALH~1\AppData\Local\Temp\cco469pz.s:247    .text.FLASH_GetWriteProtectionOptionByte:0000000000000000 .L0 
C:\Users\LOCALH~1\AppData\Local\Temp\cco469pz.s:248    .text.FLASH_GetWriteProtectionOptionByte:0000000000000000 $x
C:\Users\LOCALH~1\AppData\Local\Temp\cco469pz.s:248    .text.FLASH_GetWriteProtectionOptionByte:0000000000000000 .L0 
C:\Users\LOCALH~1\AppData\Local\Temp\cco469pz.s:251    .text.FLASH_GetWriteProtectionOptionByte:0000000000000006 .L0 
C:\Users\LOCALH~1\AppData\Local\Temp\cco469pz.s:252    .text.FLASH_GetWriteProtectionOptionByte:0000000000000008 .L0 
C:\Users\LOCALH~1\AppData\Local\Temp\cco469pz.s:259    .text.FLASH_GetReadOutProtectionStatus:0000000000000000 FLASH_GetReadOutProtectionStatus
C:\Users\LOCALH~1\AppData\Local\Temp\cco469pz.s:262    .text.FLASH_GetReadOutProtectionStatus:0000000000000000 .L0 
C:\Users\LOCALH~1\AppData\Local\Temp\cco469pz.s:263    .text.FLASH_GetReadOutProtectionStatus:0000000000000000 .L0 
C:\Users\LOCALH~1\AppData\Local\Temp\cco469pz.s:265    .text.FLASH_GetReadOutProtectionStatus:0000000000000000 .L0 
C:\Users\LOCALH~1\AppData\Local\Temp\cco469pz.s:266    .text.FLASH_GetReadOutProtectionStatus:0000000000000000 .L0 
C:\Users\LOCALH~1\AppData\Local\Temp\cco469pz.s:267    .text.FLASH_GetReadOutProtectionStatus:0000000000000000 $x
C:\Users\LOCALH~1\AppData\Local\Temp\cco469pz.s:267    .text.FLASH_GetReadOutProtectionStatus:0000000000000000 .L0 
C:\Users\LOCALH~1\AppData\Local\Temp\cco469pz.s:271    .text.FLASH_GetReadOutProtectionStatus:0000000000000006 .L0 
C:\Users\LOCALH~1\AppData\Local\Temp\cco469pz.s:272    .text.FLASH_GetReadOutProtectionStatus:0000000000000006 .L0 
C:\Users\LOCALH~1\AppData\Local\Temp\cco469pz.s:275    .text.FLASH_GetReadOutProtectionStatus:0000000000000008 .L0 
C:\Users\LOCALH~1\AppData\Local\Temp\cco469pz.s:277    .text.FLASH_GetReadOutProtectionStatus:000000000000000c .L0 
C:\Users\LOCALH~1\AppData\Local\Temp\cco469pz.s:284    .text.FLASH_ITConfig:0000000000000000 FLASH_ITConfig
C:\Users\LOCALH~1\AppData\Local\Temp\cco469pz.s:287    .text.FLASH_ITConfig:0000000000000000 .L0 
C:\Users\LOCALH~1\AppData\Local\Temp\cco469pz.s:289    .text.FLASH_ITConfig:0000000000000000 .L0 
C:\Users\LOCALH~1\AppData\Local\Temp\cco469pz.s:290    .text.FLASH_ITConfig:0000000000000000 .L0 
C:\Users\LOCALH~1\AppData\Local\Temp\cco469pz.s:291    .text.FLASH_ITConfig:0000000000000000 $x
C:\Users\LOCALH~1\AppData\Local\Temp\cco469pz.s:291    .text.FLASH_ITConfig:0000000000000000 .L0 
C:\Users\LOCALH~1\AppData\Local\Temp\cco469pz.s:293    .text.FLASH_ITConfig:0000000000000002 .L0 
C:\Users\LOCALH~1\AppData\Local\Temp\cco469pz.s:294    .text.FLASH_ITConfig:0000000000000002 .L0 
C:\Users\LOCALH~1\AppData\Local\Temp\cco469pz.s:297    .text.FLASH_ITConfig:0000000000000008 .L0 
C:\Users\LOCALH~1\AppData\Local\Temp\cco469pz.s:302    .text.FLASH_ITConfig:000000000000000e .L0 
C:\Users\LOCALH~1\AppData\Local\Temp\cco469pz.s:303    .text.FLASH_ITConfig:000000000000000e .L0 
C:\Users\LOCALH~1\AppData\Local\Temp\cco469pz.s:306    .text.FLASH_ITConfig:0000000000000014 .L0 
C:\Users\LOCALH~1\AppData\Local\Temp\cco469pz.s:309    .text.FLASH_ITConfig:0000000000000018 .L0 
C:\Users\LOCALH~1\AppData\Local\Temp\cco469pz.s:313    .text.FLASH_ITConfig:000000000000001c .L0 
C:\Users\LOCALH~1\AppData\Local\Temp\cco469pz.s:314    .text.FLASH_ITConfig:000000000000001e .L0 
C:\Users\LOCALH~1\AppData\Local\Temp\cco469pz.s:321    .text.FLASH_GetFlagStatus:0000000000000000 FLASH_GetFlagStatus
C:\Users\LOCALH~1\AppData\Local\Temp\cco469pz.s:324    .text.FLASH_GetFlagStatus:0000000000000000 .L0 
C:\Users\LOCALH~1\AppData\Local\Temp\cco469pz.s:326    .text.FLASH_GetFlagStatus:0000000000000000 .L0 
C:\Users\LOCALH~1\AppData\Local\Temp\cco469pz.s:327    .text.FLASH_GetFlagStatus:0000000000000000 .L0 
C:\Users\LOCALH~1\AppData\Local\Temp\cco469pz.s:328    .text.FLASH_GetFlagStatus:0000000000000000 .L0 
C:\Users\LOCALH~1\AppData\Local\Temp\cco469pz.s:329    .text.FLASH_GetFlagStatus:0000000000000000 $x
C:\Users\LOCALH~1\AppData\Local\Temp\cco469pz.s:329    .text.FLASH_GetFlagStatus:0000000000000000 .L0 
C:\Users\LOCALH~1\AppData\Local\Temp\cco469pz.s:332    .text.FLASH_GetFlagStatus:0000000000000006 .L0 
C:\Users\LOCALH~1\AppData\Local\Temp\cco469pz.s:333    .text.FLASH_GetFlagStatus:0000000000000006 .L0 
C:\Users\LOCALH~1\AppData\Local\Temp\cco469pz.s:337    .text.FLASH_GetFlagStatus:000000000000000c .L0 
C:\Users\LOCALH~1\AppData\Local\Temp\cco469pz.s:342    .text.FLASH_GetFlagStatus:0000000000000010 .L0 
C:\Users\LOCALH~1\AppData\Local\Temp\cco469pz.s:343    .text.FLASH_GetFlagStatus:0000000000000010 .L0 
C:\Users\LOCALH~1\AppData\Local\Temp\cco469pz.s:346    .text.FLASH_GetFlagStatus:0000000000000016 .L0 
C:\Users\LOCALH~1\AppData\Local\Temp\cco469pz.s:349    .text.FLASH_GetFlagStatus:0000000000000018 .L0 
C:\Users\LOCALH~1\AppData\Local\Temp\cco469pz.s:352    .text.FLASH_GetFlagStatus:000000000000001c .L0 
C:\Users\LOCALH~1\AppData\Local\Temp\cco469pz.s:353    .text.FLASH_GetFlagStatus:000000000000001c .L0 
C:\Users\LOCALH~1\AppData\Local\Temp\cco469pz.s:354    .text.FLASH_GetFlagStatus:000000000000001e .L0 
C:\Users\LOCALH~1\AppData\Local\Temp\cco469pz.s:361    .text.FLASH_ClearFlag:0000000000000000 FLASH_ClearFlag
C:\Users\LOCALH~1\AppData\Local\Temp\cco469pz.s:364    .text.FLASH_ClearFlag:0000000000000000 .L0 
C:\Users\LOCALH~1\AppData\Local\Temp\cco469pz.s:366    .text.FLASH_ClearFlag:0000000000000000 .L0 
C:\Users\LOCALH~1\AppData\Local\Temp\cco469pz.s:367    .text.FLASH_ClearFlag:0000000000000000 .L0 
C:\Users\LOCALH~1\AppData\Local\Temp\cco469pz.s:368    .text.FLASH_ClearFlag:0000000000000000 $x
C:\Users\LOCALH~1\AppData\Local\Temp\cco469pz.s:368    .text.FLASH_ClearFlag:0000000000000000 .L0 
C:\Users\LOCALH~1\AppData\Local\Temp\cco469pz.s:371    .text.FLASH_ClearFlag:0000000000000006 .L0 
C:\Users\LOCALH~1\AppData\Local\Temp\cco469pz.s:372    .text.FLASH_ClearFlag:0000000000000008 .L0 
C:\Users\LOCALH~1\AppData\Local\Temp\cco469pz.s:379    .text.FLASH_GetStatus:0000000000000000 FLASH_GetStatus
C:\Users\LOCALH~1\AppData\Local\Temp\cco469pz.s:382    .text.FLASH_GetStatus:0000000000000000 .L0 
C:\Users\LOCALH~1\AppData\Local\Temp\cco469pz.s:383    .text.FLASH_GetStatus:0000000000000000 .L0 
C:\Users\LOCALH~1\AppData\Local\Temp\cco469pz.s:385    .text.FLASH_GetStatus:0000000000000000 .L0 
C:\Users\LOCALH~1\AppData\Local\Temp\cco469pz.s:386    .text.FLASH_GetStatus:0000000000000000 .L0 
C:\Users\LOCALH~1\AppData\Local\Temp\cco469pz.s:387    .text.FLASH_GetStatus:0000000000000000 $x
C:\Users\LOCALH~1\AppData\Local\Temp\cco469pz.s:387    .text.FLASH_GetStatus:0000000000000000 .L0 
C:\Users\LOCALH~1\AppData\Local\Temp\cco469pz.s:390    .text.FLASH_GetStatus:0000000000000006 .L0 
C:\Users\LOCALH~1\AppData\Local\Temp\cco469pz.s:392    .text.FLASH_GetStatus:0000000000000008 .L0 
C:\Users\LOCALH~1\AppData\Local\Temp\cco469pz.s:394    .text.FLASH_GetStatus:000000000000000a .L0 
C:\Users\LOCALH~1\AppData\Local\Temp\cco469pz.s:395    .text.FLASH_GetStatus:000000000000000a .L0 
C:\Users\LOCALH~1\AppData\Local\Temp\cco469pz.s:397    .text.FLASH_GetStatus:000000000000000c .L0 
C:\Users\LOCALH~1\AppData\Local\Temp\cco469pz.s:399    .text.FLASH_GetStatus:000000000000000e .L0 
C:\Users\LOCALH~1\AppData\Local\Temp\cco469pz.s:403    .text.FLASH_GetStatus:0000000000000014 .L0 
C:\Users\LOCALH~1\AppData\Local\Temp\cco469pz.s:404    .text.FLASH_GetStatus:0000000000000016 .L0 
C:\Users\LOCALH~1\AppData\Local\Temp\cco469pz.s:411    .text.FLASH_GetBank1Status:0000000000000000 FLASH_GetBank1Status
C:\Users\LOCALH~1\AppData\Local\Temp\cco469pz.s:414    .text.FLASH_GetBank1Status:0000000000000000 .L0 
C:\Users\LOCALH~1\AppData\Local\Temp\cco469pz.s:415    .text.FLASH_GetBank1Status:0000000000000000 .L0 
C:\Users\LOCALH~1\AppData\Local\Temp\cco469pz.s:417    .text.FLASH_GetBank1Status:0000000000000000 .L0 
C:\Users\LOCALH~1\AppData\Local\Temp\cco469pz.s:418    .text.FLASH_GetBank1Status:0000000000000000 .L0 
C:\Users\LOCALH~1\AppData\Local\Temp\cco469pz.s:419    .text.FLASH_GetBank1Status:0000000000000000 $x
C:\Users\LOCALH~1\AppData\Local\Temp\cco469pz.s:419    .text.FLASH_GetBank1Status:0000000000000000 .L0 
C:\Users\LOCALH~1\AppData\Local\Temp\cco469pz.s:422    .text.FLASH_GetBank1Status:0000000000000006 .L0 
C:\Users\LOCALH~1\AppData\Local\Temp\cco469pz.s:424    .text.FLASH_GetBank1Status:0000000000000008 .L0 
C:\Users\LOCALH~1\AppData\Local\Temp\cco469pz.s:428    .text.FLASH_GetBank1Status:000000000000000a .L0 
C:\Users\LOCALH~1\AppData\Local\Temp\cco469pz.s:429    .text.FLASH_GetBank1Status:000000000000000a .L0 
C:\Users\LOCALH~1\AppData\Local\Temp\cco469pz.s:431    .text.FLASH_GetBank1Status:000000000000000c .L0 
C:\Users\LOCALH~1\AppData\Local\Temp\cco469pz.s:433    .text.FLASH_GetBank1Status:000000000000000e .L0 
C:\Users\LOCALH~1\AppData\Local\Temp\cco469pz.s:439    .text.FLASH_GetBank1Status:0000000000000014 .L0 
C:\Users\LOCALH~1\AppData\Local\Temp\cco469pz.s:440    .text.FLASH_GetBank1Status:0000000000000016 .L0 
C:\Users\LOCALH~1\AppData\Local\Temp\cco469pz.s:447    .text.FLASH_WaitForLastOperation:0000000000000000 FLASH_WaitForLastOperation
C:\Users\LOCALH~1\AppData\Local\Temp\cco469pz.s:450    .text.FLASH_WaitForLastOperation:0000000000000000 .L0 
C:\Users\LOCALH~1\AppData\Local\Temp\cco469pz.s:452    .text.FLASH_WaitForLastOperation:0000000000000000 $x
C:\Users\LOCALH~1\AppData\Local\Temp\cco469pz.s:452    .text.FLASH_WaitForLastOperation:0000000000000000 .L0 
C:\Users\LOCALH~1\AppData\Local\Temp\cco469pz.s:453    .text.FLASH_WaitForLastOperation:0000000000000008 .L0 
C:\Users\LOCALH~1\AppData\Local\Temp\cco469pz.s:454    .text.FLASH_WaitForLastOperation:0000000000000008 .L0 
C:\Users\LOCALH~1\AppData\Local\Temp\cco469pz.s:455    .text.FLASH_WaitForLastOperation:0000000000000008 .L0 
C:\Users\LOCALH~1\AppData\Local\Temp\cco469pz.s:456    .text.FLASH_WaitForLastOperation:0000000000000008 .L0 
C:\Users\LOCALH~1\AppData\Local\Temp\cco469pz.s:459    .text.FLASH_WaitForLastOperation:0000000000000008 .L0 
C:\Users\LOCALH~1\AppData\Local\Temp\cco469pz.s:460    .text.FLASH_WaitForLastOperation:0000000000000008 .L0 
C:\Users\LOCALH~1\AppData\Local\Temp\cco469pz.s:461    .text.FLASH_WaitForLastOperation:0000000000000008 .L0 
C:\Users\LOCALH~1\AppData\Local\Temp\cco469pz.s:463    .text.FLASH_WaitForLastOperation:000000000000000a .L0 
C:\Users\LOCALH~1\AppData\Local\Temp\cco469pz.s:465    .text.FLASH_WaitForLastOperation:000000000000000c .L0 
C:\Users\LOCALH~1\AppData\Local\Temp\cco469pz.s:469    .text.FLASH_WaitForLastOperation:0000000000000014 .L0 
C:\Users\LOCALH~1\AppData\Local\Temp\cco469pz.s:470    .text.FLASH_WaitForLastOperation:0000000000000014 .L0 
C:\Users\LOCALH~1\AppData\Local\Temp\cco469pz.s:472    .text.FLASH_WaitForLastOperation:0000000000000018 .L0 
C:\Users\LOCALH~1\AppData\Local\Temp\cco469pz.s:475    .text.FLASH_WaitForLastOperation:000000000000001a .L0 
C:\Users\LOCALH~1\AppData\Local\Temp\cco469pz.s:478    .text.FLASH_WaitForLastOperation:000000000000001c .L0 
C:\Users\LOCALH~1\AppData\Local\Temp\cco469pz.s:479    .text.FLASH_WaitForLastOperation:000000000000001c .L0 
C:\Users\LOCALH~1\AppData\Local\Temp\cco469pz.s:483    .text.FLASH_WaitForLastOperation:000000000000001e .L0 
C:\Users\LOCALH~1\AppData\Local\Temp\cco469pz.s:484    .text.FLASH_WaitForLastOperation:000000000000001e .L0 
C:\Users\LOCALH~1\AppData\Local\Temp\cco469pz.s:487    .text.FLASH_WaitForLastOperation:0000000000000026 .L0 
C:\Users\LOCALH~1\AppData\Local\Temp\cco469pz.s:488    .text.FLASH_WaitForLastOperation:0000000000000026 .L0 
C:\Users\LOCALH~1\AppData\Local\Temp\cco469pz.s:493    .text.FLASH_WaitForLastOperation:000000000000002a .L0 
C:\Users\LOCALH~1\AppData\Local\Temp\cco469pz.s:494    .text.FLASH_WaitForLastOperation:000000000000002a .L0 
C:\Users\LOCALH~1\AppData\Local\Temp\cco469pz.s:498    .text.FLASH_WaitForLastOperation:000000000000002c .L0 
C:\Users\LOCALH~1\AppData\Local\Temp\cco469pz.s:499    .text.FLASH_WaitForLastOperation:0000000000000034 .L0 
C:\Users\LOCALH~1\AppData\Local\Temp\cco469pz.s:500    .text.FLASH_WaitForLastOperation:0000000000000034 .L0 
C:\Users\LOCALH~1\AppData\Local\Temp\cco469pz.s:501    .text.FLASH_WaitForLastOperation:0000000000000034 .L0 
C:\Users\LOCALH~1\AppData\Local\Temp\cco469pz.s:502    .text.FLASH_WaitForLastOperation:0000000000000034 .L0 
C:\Users\LOCALH~1\AppData\Local\Temp\cco469pz.s:503    .text.FLASH_WaitForLastOperation:0000000000000034 .L0 
C:\Users\LOCALH~1\AppData\Local\Temp\cco469pz.s:510    .text.FLASH_ErasePage:0000000000000000 FLASH_ErasePage
C:\Users\LOCALH~1\AppData\Local\Temp\cco469pz.s:513    .text.FLASH_ErasePage:0000000000000000 .L0 
C:\Users\LOCALH~1\AppData\Local\Temp\cco469pz.s:515    .text.FLASH_ErasePage:0000000000000000 $x
C:\Users\LOCALH~1\AppData\Local\Temp\cco469pz.s:515    .text.FLASH_ErasePage:0000000000000000 .L0 
C:\Users\LOCALH~1\AppData\Local\Temp\cco469pz.s:516    .text.FLASH_ErasePage:0000000000000008 .L0 
C:\Users\LOCALH~1\AppData\Local\Temp\cco469pz.s:517    .text.FLASH_ErasePage:0000000000000008 .L0 
C:\Users\LOCALH~1\AppData\Local\Temp\cco469pz.s:518    .text.FLASH_ErasePage:0000000000000008 .L0 
C:\Users\LOCALH~1\AppData\Local\Temp\cco469pz.s:519    .text.FLASH_ErasePage:0000000000000008 .L0 
C:\Users\LOCALH~1\AppData\Local\Temp\cco469pz.s:522    .text.FLASH_ErasePage:0000000000000008 .L0 
C:\Users\LOCALH~1\AppData\Local\Temp\cco469pz.s:523    .text.FLASH_ErasePage:0000000000000008 .L0 
C:\Users\LOCALH~1\AppData\Local\Temp\cco469pz.s:524    .text.FLASH_ErasePage:0000000000000008 .L0 
C:\Users\LOCALH~1\AppData\Local\Temp\cco469pz.s:526    .text.FLASH_ErasePage:000000000000000a .L0 
C:\Users\LOCALH~1\AppData\Local\Temp\cco469pz.s:531    .text.FLASH_ErasePage:0000000000000016 .L0 
C:\Users\LOCALH~1\AppData\Local\Temp\cco469pz.s:532    .text.FLASH_ErasePage:0000000000000016 .L0 
C:\Users\LOCALH~1\AppData\Local\Temp\cco469pz.s:535    .text.FLASH_ErasePage:000000000000001c .L0 
C:\Users\LOCALH~1\AppData\Local\Temp\cco469pz.s:536    .text.FLASH_ErasePage:000000000000001c .L0 
C:\Users\LOCALH~1\AppData\Local\Temp\cco469pz.s:539    .text.FLASH_ErasePage:0000000000000022 .L0 
C:\Users\LOCALH~1\AppData\Local\Temp\cco469pz.s:542    .text.FLASH_ErasePage:0000000000000026 .L0 
C:\Users\LOCALH~1\AppData\Local\Temp\cco469pz.s:545    .text.FLASH_ErasePage:000000000000002c .L0 
C:\Users\LOCALH~1\AppData\Local\Temp\cco469pz.s:546    .text.FLASH_ErasePage:000000000000002c .L0 
C:\Users\LOCALH~1\AppData\Local\Temp\cco469pz.s:548    .text.FLASH_ErasePage:000000000000002e .L0 
C:\Users\LOCALH~1\AppData\Local\Temp\cco469pz.s:549    .text.FLASH_ErasePage:000000000000002e .L0 
C:\Users\LOCALH~1\AppData\Local\Temp\cco469pz.s:551    .text.FLASH_ErasePage:0000000000000030 .L0 
C:\Users\LOCALH~1\AppData\Local\Temp\cco469pz.s:554    .text.FLASH_ErasePage:0000000000000036 .L0 
C:\Users\LOCALH~1\AppData\Local\Temp\cco469pz.s:555    .text.FLASH_ErasePage:0000000000000036 .L0 
C:\Users\LOCALH~1\AppData\Local\Temp\cco469pz.s:558    .text.FLASH_ErasePage:000000000000003e .L0 
C:\Users\LOCALH~1\AppData\Local\Temp\cco469pz.s:559    .text.FLASH_ErasePage:000000000000003e .L0 
C:\Users\LOCALH~1\AppData\Local\Temp\cco469pz.s:561    .text.FLASH_ErasePage:0000000000000040 .L0 
C:\Users\LOCALH~1\AppData\Local\Temp\cco469pz.s:565    .text.FLASH_ErasePage:0000000000000044 .L0 
C:\Users\LOCALH~1\AppData\Local\Temp\cco469pz.s:566    .text.FLASH_ErasePage:0000000000000044 .L0 
C:\Users\LOCALH~1\AppData\Local\Temp\cco469pz.s:567    .text.FLASH_ErasePage:000000000000004c .L0 
C:\Users\LOCALH~1\AppData\Local\Temp\cco469pz.s:568    .text.FLASH_ErasePage:000000000000004c .L0 
C:\Users\LOCALH~1\AppData\Local\Temp\cco469pz.s:569    .text.FLASH_ErasePage:000000000000004c .L0 
C:\Users\LOCALH~1\AppData\Local\Temp\cco469pz.s:570    .text.FLASH_ErasePage:000000000000004c .L0 
C:\Users\LOCALH~1\AppData\Local\Temp\cco469pz.s:571    .text.FLASH_ErasePage:000000000000004c .L0 
C:\Users\LOCALH~1\AppData\Local\Temp\cco469pz.s:578    .text.FLASH_EraseAllPages:0000000000000000 FLASH_EraseAllPages
C:\Users\LOCALH~1\AppData\Local\Temp\cco469pz.s:581    .text.FLASH_EraseAllPages:0000000000000000 .L0 
C:\Users\LOCALH~1\AppData\Local\Temp\cco469pz.s:582    .text.FLASH_EraseAllPages:0000000000000000 $x
C:\Users\LOCALH~1\AppData\Local\Temp\cco469pz.s:582    .text.FLASH_EraseAllPages:0000000000000000 .L0 
C:\Users\LOCALH~1\AppData\Local\Temp\cco469pz.s:583    .text.FLASH_EraseAllPages:0000000000000008 .L0 
C:\Users\LOCALH~1\AppData\Local\Temp\cco469pz.s:584    .text.FLASH_EraseAllPages:0000000000000008 .L0 
C:\Users\LOCALH~1\AppData\Local\Temp\cco469pz.s:585    .text.FLASH_EraseAllPages:0000000000000008 .L0 
C:\Users\LOCALH~1\AppData\Local\Temp\cco469pz.s:588    .text.FLASH_EraseAllPages:0000000000000008 .L0 
C:\Users\LOCALH~1\AppData\Local\Temp\cco469pz.s:589    .text.FLASH_EraseAllPages:0000000000000008 .L0 
C:\Users\LOCALH~1\AppData\Local\Temp\cco469pz.s:590    .text.FLASH_EraseAllPages:0000000000000008 .L0 
C:\Users\LOCALH~1\AppData\Local\Temp\cco469pz.s:594    .text.FLASH_EraseAllPages:0000000000000014 .L0 
C:\Users\LOCALH~1\AppData\Local\Temp\cco469pz.s:595    .text.FLASH_EraseAllPages:0000000000000014 .L0 
C:\Users\LOCALH~1\AppData\Local\Temp\cco469pz.s:598    .text.FLASH_EraseAllPages:000000000000001a .L0 
C:\Users\LOCALH~1\AppData\Local\Temp\cco469pz.s:599    .text.FLASH_EraseAllPages:000000000000001a .L0 
C:\Users\LOCALH~1\AppData\Local\Temp\cco469pz.s:602    .text.FLASH_EraseAllPages:0000000000000020 .L0 
C:\Users\LOCALH~1\AppData\Local\Temp\cco469pz.s:605    .text.FLASH_EraseAllPages:0000000000000024 .L0 
C:\Users\LOCALH~1\AppData\Local\Temp\cco469pz.s:608    .text.FLASH_EraseAllPages:000000000000002a .L0 
C:\Users\LOCALH~1\AppData\Local\Temp\cco469pz.s:609    .text.FLASH_EraseAllPages:000000000000002a .L0 
C:\Users\LOCALH~1\AppData\Local\Temp\cco469pz.s:611    .text.FLASH_EraseAllPages:000000000000002c .L0 
C:\Users\LOCALH~1\AppData\Local\Temp\cco469pz.s:614    .text.FLASH_EraseAllPages:0000000000000032 .L0 
C:\Users\LOCALH~1\AppData\Local\Temp\cco469pz.s:615    .text.FLASH_EraseAllPages:0000000000000032 .L0 
C:\Users\LOCALH~1\AppData\Local\Temp\cco469pz.s:618    .text.FLASH_EraseAllPages:000000000000003a .L0 
C:\Users\LOCALH~1\AppData\Local\Temp\cco469pz.s:619    .text.FLASH_EraseAllPages:000000000000003a .L0 
C:\Users\LOCALH~1\AppData\Local\Temp\cco469pz.s:621    .text.FLASH_EraseAllPages:000000000000003c .L0 
C:\Users\LOCALH~1\AppData\Local\Temp\cco469pz.s:625    .text.FLASH_EraseAllPages:0000000000000040 .L0 
C:\Users\LOCALH~1\AppData\Local\Temp\cco469pz.s:626    .text.FLASH_EraseAllPages:0000000000000040 .L0 
C:\Users\LOCALH~1\AppData\Local\Temp\cco469pz.s:627    .text.FLASH_EraseAllPages:0000000000000048 .L0 
C:\Users\LOCALH~1\AppData\Local\Temp\cco469pz.s:628    .text.FLASH_EraseAllPages:0000000000000048 .L0 
C:\Users\LOCALH~1\AppData\Local\Temp\cco469pz.s:629    .text.FLASH_EraseAllPages:0000000000000048 .L0 
C:\Users\LOCALH~1\AppData\Local\Temp\cco469pz.s:630    .text.FLASH_EraseAllPages:0000000000000048 .L0 
C:\Users\LOCALH~1\AppData\Local\Temp\cco469pz.s:637    .text.FLASH_EraseAllBank1Pages:0000000000000000 FLASH_EraseAllBank1Pages
C:\Users\LOCALH~1\AppData\Local\Temp\cco469pz.s:639    .text.FLASH_EraseAllBank1Pages:0000000000000000 .L0 
C:\Users\LOCALH~1\AppData\Local\Temp\cco469pz.s:641    .text.FLASH_EraseAllBank1Pages:0000000000000000 $x
C:\Users\LOCALH~1\AppData\Local\Temp\cco469pz.s:641    .text.FLASH_EraseAllBank1Pages:0000000000000000 .L0 
C:\Users\LOCALH~1\AppData\Local\Temp\cco469pz.s:642    .text.FLASH_EraseAllBank1Pages:0000000000000008 .L0 
C:\Users\LOCALH~1\AppData\Local\Temp\cco469pz.s:649    .text.FLASH_EraseOptionBytes:0000000000000000 FLASH_EraseOptionBytes
C:\Users\LOCALH~1\AppData\Local\Temp\cco469pz.s:652    .text.FLASH_EraseOptionBytes:0000000000000000 .L0 
C:\Users\LOCALH~1\AppData\Local\Temp\cco469pz.s:653    .text.FLASH_EraseOptionBytes:0000000000000000 $x
C:\Users\LOCALH~1\AppData\Local\Temp\cco469pz.s:653    .text.FLASH_EraseOptionBytes:0000000000000000 .L0 
C:\Users\LOCALH~1\AppData\Local\Temp\cco469pz.s:654    .text.FLASH_EraseOptionBytes:0000000000000008 .L0 
C:\Users\LOCALH~1\AppData\Local\Temp\cco469pz.s:655    .text.FLASH_EraseOptionBytes:0000000000000008 .L0 
C:\Users\LOCALH~1\AppData\Local\Temp\cco469pz.s:656    .text.FLASH_EraseOptionBytes:0000000000000008 .L0 
C:\Users\LOCALH~1\AppData\Local\Temp\cco469pz.s:657    .text.FLASH_EraseOptionBytes:0000000000000008 .L0 
C:\Users\LOCALH~1\AppData\Local\Temp\cco469pz.s:658    .text.FLASH_EraseOptionBytes:0000000000000008 .L0 
C:\Users\LOCALH~1\AppData\Local\Temp\cco469pz.s:661    .text.FLASH_EraseOptionBytes:0000000000000008 .L0 
C:\Users\LOCALH~1\AppData\Local\Temp\cco469pz.s:662    .text.FLASH_EraseOptionBytes:0000000000000008 .L0 
C:\Users\LOCALH~1\AppData\Local\Temp\cco469pz.s:663    .text.FLASH_EraseOptionBytes:0000000000000008 .L0 
C:\Users\LOCALH~1\AppData\Local\Temp\cco469pz.s:664    .text.FLASH_EraseOptionBytes:0000000000000008 .L0 
C:\Users\LOCALH~1\AppData\Local\Temp\cco469pz.s:665    .text.FLASH_EraseOptionBytes:0000000000000008 .L0 
C:\Users\LOCALH~1\AppData\Local\Temp\cco469pz.s:666    .text.FLASH_EraseOptionBytes:0000000000000008 .L0 
C:\Users\LOCALH~1\AppData\Local\Temp\cco469pz.s:667    .text.FLASH_EraseOptionBytes:000000000000000a .L0 
C:\Users\LOCALH~1\AppData\Local\Temp\cco469pz.s:669    .text.FLASH_EraseOptionBytes:000000000000000a .L0 
C:\Users\LOCALH~1\AppData\Local\Temp\cco469pz.s:672    .text.FLASH_EraseOptionBytes:0000000000000012 .L0 
C:\Users\LOCALH~1\AppData\Local\Temp\cco469pz.s:674    .text.FLASH_EraseOptionBytes:0000000000000016 .L0 
C:\Users\LOCALH~1\AppData\Local\Temp\cco469pz.s:679    .text.FLASH_EraseOptionBytes:000000000000001a .L0 
C:\Users\LOCALH~1\AppData\Local\Temp\cco469pz.s:680    .text.FLASH_EraseOptionBytes:000000000000001a .L0 
C:\Users\LOCALH~1\AppData\Local\Temp\cco469pz.s:684    .text.FLASH_EraseOptionBytes:0000000000000026 .L0 
C:\Users\LOCALH~1\AppData\Local\Temp\cco469pz.s:685    .text.FLASH_EraseOptionBytes:0000000000000026 .L0 
C:\Users\LOCALH~1\AppData\Local\Temp\cco469pz.s:688    .text.FLASH_EraseOptionBytes:000000000000002c .L0 
C:\Users\LOCALH~1\AppData\Local\Temp\cco469pz.s:689    .text.FLASH_EraseOptionBytes:000000000000002c .L0 
C:\Users\LOCALH~1\AppData\Local\Temp\cco469pz.s:694    .text.FLASH_EraseOptionBytes:000000000000003a .L0 
C:\Users\LOCALH~1\AppData\Local\Temp\cco469pz.s:695    .text.FLASH_EraseOptionBytes:000000000000003a .L0 
C:\Users\LOCALH~1\AppData\Local\Temp\cco469pz.s:699    .text.FLASH_EraseOptionBytes:0000000000000044 .L0 
C:\Users\LOCALH~1\AppData\Local\Temp\cco469pz.s:700    .text.FLASH_EraseOptionBytes:0000000000000044 .L0 
C:\Users\LOCALH~1\AppData\Local\Temp\cco469pz.s:702    .text.FLASH_EraseOptionBytes:0000000000000046 .L0 
C:\Users\LOCALH~1\AppData\Local\Temp\cco469pz.s:705    .text.FLASH_EraseOptionBytes:000000000000004a .L0 
C:\Users\LOCALH~1\AppData\Local\Temp\cco469pz.s:708    .text.FLASH_EraseOptionBytes:0000000000000050 .L0 
C:\Users\LOCALH~1\AppData\Local\Temp\cco469pz.s:709    .text.FLASH_EraseOptionBytes:0000000000000050 .L0 
C:\Users\LOCALH~1\AppData\Local\Temp\cco469pz.s:711    .text.FLASH_EraseOptionBytes:0000000000000052 .L0 
C:\Users\LOCALH~1\AppData\Local\Temp\cco469pz.s:714    .text.FLASH_EraseOptionBytes:0000000000000058 .L0 
C:\Users\LOCALH~1\AppData\Local\Temp\cco469pz.s:715    .text.FLASH_EraseOptionBytes:0000000000000058 .L0 
C:\Users\LOCALH~1\AppData\Local\Temp\cco469pz.s:718    .text.FLASH_EraseOptionBytes:0000000000000060 .L0 
C:\Users\LOCALH~1\AppData\Local\Temp\cco469pz.s:719    .text.FLASH_EraseOptionBytes:0000000000000060 .L0 
C:\Users\LOCALH~1\AppData\Local\Temp\cco469pz.s:721    .text.FLASH_EraseOptionBytes:0000000000000064 .L0 
C:\Users\LOCALH~1\AppData\Local\Temp\cco469pz.s:722    .text.FLASH_EraseOptionBytes:0000000000000064 .L0 
C:\Users\LOCALH~1\AppData\Local\Temp\cco469pz.s:724    .text.FLASH_EraseOptionBytes:0000000000000066 .L0 
C:\Users\LOCALH~1\AppData\Local\Temp\cco469pz.s:727    .text.FLASH_EraseOptionBytes:0000000000000068 .L0 
C:\Users\LOCALH~1\AppData\Local\Temp\cco469pz.s:730    .text.FLASH_EraseOptionBytes:000000000000006e .L0 
C:\Users\LOCALH~1\AppData\Local\Temp\cco469pz.s:731    .text.FLASH_EraseOptionBytes:000000000000006e .L0 
C:\Users\LOCALH~1\AppData\Local\Temp\cco469pz.s:733    .text.FLASH_EraseOptionBytes:0000000000000070 .L0 
C:\Users\LOCALH~1\AppData\Local\Temp\cco469pz.s:736    .text.FLASH_EraseOptionBytes:0000000000000076 .L0 
C:\Users\LOCALH~1\AppData\Local\Temp\cco469pz.s:737    .text.FLASH_EraseOptionBytes:0000000000000076 .L0 
C:\Users\LOCALH~1\AppData\Local\Temp\cco469pz.s:740    .text.FLASH_EraseOptionBytes:000000000000007e .L0 
C:\Users\LOCALH~1\AppData\Local\Temp\cco469pz.s:741    .text.FLASH_EraseOptionBytes:000000000000007e .L0 
C:\Users\LOCALH~1\AppData\Local\Temp\cco469pz.s:745    .text.FLASH_EraseOptionBytes:0000000000000086 .L0 
C:\Users\LOCALH~1\AppData\Local\Temp\cco469pz.s:746    .text.FLASH_EraseOptionBytes:0000000000000086 .L0 
C:\Users\LOCALH~1\AppData\Local\Temp\cco469pz.s:747    .text.FLASH_EraseOptionBytes:0000000000000086 .L0 
C:\Users\LOCALH~1\AppData\Local\Temp\cco469pz.s:750    .text.FLASH_EraseOptionBytes:000000000000008c .L0 
C:\Users\LOCALH~1\AppData\Local\Temp\cco469pz.s:751    .text.FLASH_EraseOptionBytes:000000000000008c .L0 
C:\Users\LOCALH~1\AppData\Local\Temp\cco469pz.s:753    .text.FLASH_EraseOptionBytes:000000000000008e .L0 
C:\Users\LOCALH~1\AppData\Local\Temp\cco469pz.s:757    .text.FLASH_EraseOptionBytes:0000000000000092 .L0 
C:\Users\LOCALH~1\AppData\Local\Temp\cco469pz.s:758    .text.FLASH_EraseOptionBytes:0000000000000092 .L0 
C:\Users\LOCALH~1\AppData\Local\Temp\cco469pz.s:761    .text.FLASH_EraseOptionBytes:0000000000000098 .L0 
C:\Users\LOCALH~1\AppData\Local\Temp\cco469pz.s:764    .text.FLASH_EraseOptionBytes:00000000000000a0 .L0 
C:\Users\LOCALH~1\AppData\Local\Temp\cco469pz.s:767    .text.FLASH_EraseOptionBytes:00000000000000a6 .L0 
C:\Users\LOCALH~1\AppData\Local\Temp\cco469pz.s:768    .text.FLASH_EraseOptionBytes:00000000000000a6 .L0 
C:\Users\LOCALH~1\AppData\Local\Temp\cco469pz.s:770    .text.FLASH_EraseOptionBytes:00000000000000aa .L0 
C:\Users\LOCALH~1\AppData\Local\Temp\cco469pz.s:772    .text.FLASH_EraseOptionBytes:00000000000000ac .L0 
C:\Users\LOCALH~1\AppData\Local\Temp\cco469pz.s:775    .text.FLASH_EraseOptionBytes:00000000000000b0 .L0 
C:\Users\LOCALH~1\AppData\Local\Temp\cco469pz.s:778    .text.FLASH_EraseOptionBytes:00000000000000b6 .L0 
C:\Users\LOCALH~1\AppData\Local\Temp\cco469pz.s:779    .text.FLASH_EraseOptionBytes:00000000000000b6 .L0 
C:\Users\LOCALH~1\AppData\Local\Temp\cco469pz.s:782    .text.FLASH_EraseOptionBytes:00000000000000bc .L0 
C:\Users\LOCALH~1\AppData\Local\Temp\cco469pz.s:786    .text.FLASH_EraseOptionBytes:00000000000000c0 .L0 
C:\Users\LOCALH~1\AppData\Local\Temp\cco469pz.s:787    .text.FLASH_EraseOptionBytes:00000000000000c0 .L0 
C:\Users\LOCALH~1\AppData\Local\Temp\cco469pz.s:788    .text.FLASH_EraseOptionBytes:00000000000000c2 .L0 
C:\Users\LOCALH~1\AppData\Local\Temp\cco469pz.s:789    .text.FLASH_EraseOptionBytes:00000000000000c2 .L0 
C:\Users\LOCALH~1\AppData\Local\Temp\cco469pz.s:791    .text.FLASH_EraseOptionBytes:00000000000000ca .L0 
C:\Users\LOCALH~1\AppData\Local\Temp\cco469pz.s:792    .text.FLASH_EraseOptionBytes:00000000000000ca .L0 
C:\Users\LOCALH~1\AppData\Local\Temp\cco469pz.s:793    .text.FLASH_EraseOptionBytes:00000000000000ca .L0 
C:\Users\LOCALH~1\AppData\Local\Temp\cco469pz.s:794    .text.FLASH_EraseOptionBytes:00000000000000ca .L0 
C:\Users\LOCALH~1\AppData\Local\Temp\cco469pz.s:795    .text.FLASH_EraseOptionBytes:00000000000000ca .L0 
C:\Users\LOCALH~1\AppData\Local\Temp\cco469pz.s:797    .text.FLASH_EraseOptionBytes:00000000000000ca .L0 
C:\Users\LOCALH~1\AppData\Local\Temp\cco469pz.s:799    .text.FLASH_EraseOptionBytes:00000000000000ca .L0 
C:\Users\LOCALH~1\AppData\Local\Temp\cco469pz.s:800    .text.FLASH_EraseOptionBytes:00000000000000ca .L0 
C:\Users\LOCALH~1\AppData\Local\Temp\cco469pz.s:802    .text.FLASH_EraseOptionBytes:00000000000000cc .L0 
C:\Users\LOCALH~1\AppData\Local\Temp\cco469pz.s:807    .text.FLASH_EraseOptionBytes:00000000000000d4 .L0 
C:\Users\LOCALH~1\AppData\Local\Temp\cco469pz.s:808    .text.FLASH_EraseOptionBytes:00000000000000d4 .L0 
C:\Users\LOCALH~1\AppData\Local\Temp\cco469pz.s:809    .text.FLASH_EraseOptionBytes:00000000000000d4 .L0 
C:\Users\LOCALH~1\AppData\Local\Temp\cco469pz.s:811    .text.FLASH_EraseOptionBytes:00000000000000d6 .L0 
C:\Users\LOCALH~1\AppData\Local\Temp\cco469pz.s:813    .text.FLASH_EraseOptionBytes:00000000000000d8 .L0 
C:\Users\LOCALH~1\AppData\Local\Temp\cco469pz.s:815    .text.FLASH_EraseOptionBytes:00000000000000da .L0 
C:\Users\LOCALH~1\AppData\Local\Temp\cco469pz.s:820    .text.FLASH_EraseOptionBytes:00000000000000e6 .L0 
C:\Users\LOCALH~1\AppData\Local\Temp\cco469pz.s:827    .text.FLASH_ProgramWord:0000000000000000 FLASH_ProgramWord
C:\Users\LOCALH~1\AppData\Local\Temp\cco469pz.s:830    .text.FLASH_ProgramWord:0000000000000000 .L0 
C:\Users\LOCALH~1\AppData\Local\Temp\cco469pz.s:832    .text.FLASH_ProgramWord:0000000000000000 $x
C:\Users\LOCALH~1\AppData\Local\Temp\cco469pz.s:832    .text.FLASH_ProgramWord:0000000000000000 .L0 
C:\Users\LOCALH~1\AppData\Local\Temp\cco469pz.s:833    .text.FLASH_ProgramWord:0000000000000008 .L0 
C:\Users\LOCALH~1\AppData\Local\Temp\cco469pz.s:834    .text.FLASH_ProgramWord:0000000000000008 .L0 
C:\Users\LOCALH~1\AppData\Local\Temp\cco469pz.s:835    .text.FLASH_ProgramWord:0000000000000008 .L0 
C:\Users\LOCALH~1\AppData\Local\Temp\cco469pz.s:836    .text.FLASH_ProgramWord:0000000000000008 .L0 
C:\Users\LOCALH~1\AppData\Local\Temp\cco469pz.s:837    .text.FLASH_ProgramWord:0000000000000008 .L0 
C:\Users\LOCALH~1\AppData\Local\Temp\cco469pz.s:838    .text.FLASH_ProgramWord:0000000000000008 .L0 
C:\Users\LOCALH~1\AppData\Local\Temp\cco469pz.s:841    .text.FLASH_ProgramWord:0000000000000008 .L0 
C:\Users\LOCALH~1\AppData\Local\Temp\cco469pz.s:842    .text.FLASH_ProgramWord:0000000000000008 .L0 
C:\Users\LOCALH~1\AppData\Local\Temp\cco469pz.s:843    .text.FLASH_ProgramWord:0000000000000008 .L0 
C:\Users\LOCALH~1\AppData\Local\Temp\cco469pz.s:844    .text.FLASH_ProgramWord:000000000000000a .L0 
C:\Users\LOCALH~1\AppData\Local\Temp\cco469pz.s:846    .text.FLASH_ProgramWord:000000000000000a .L0 
C:\Users\LOCALH~1\AppData\Local\Temp\cco469pz.s:848    .text.FLASH_ProgramWord:000000000000000c .L0 
C:\Users\LOCALH~1\AppData\Local\Temp\cco469pz.s:851    .text.FLASH_ProgramWord:000000000000000e .L0 
C:\Users\LOCALH~1\AppData\Local\Temp\cco469pz.s:853    .text.FLASH_ProgramWord:0000000000000010 .L0 
C:\Users\LOCALH~1\AppData\Local\Temp\cco469pz.s:855    .text.FLASH_ProgramWord:0000000000000012 .L0 
C:\Users\LOCALH~1\AppData\Local\Temp\cco469pz.s:856    .text.FLASH_ProgramWord:0000000000000012 .L0 
C:\Users\LOCALH~1\AppData\Local\Temp\cco469pz.s:858    .text.FLASH_ProgramWord:0000000000000014 .L0 
C:\Users\LOCALH~1\AppData\Local\Temp\cco469pz.s:861    .text.FLASH_ProgramWord:000000000000001c .L0 
C:\Users\LOCALH~1\AppData\Local\Temp\cco469pz.s:862    .text.FLASH_ProgramWord:000000000000001c .L0 
C:\Users\LOCALH~1\AppData\Local\Temp\cco469pz.s:864    .text.FLASH_ProgramWord:0000000000000020 .L0 
C:\Users\LOCALH~1\AppData\Local\Temp\cco469pz.s:865    .text.FLASH_ProgramWord:0000000000000020 .L0 
C:\Users\LOCALH~1\AppData\Local\Temp\cco469pz.s:868    .text.FLASH_ProgramWord:0000000000000026 .L0 
C:\Users\LOCALH~1\AppData\Local\Temp\cco469pz.s:871    .text.FLASH_ProgramWord:0000000000000028 .L0 
C:\Users\LOCALH~1\AppData\Local\Temp\cco469pz.s:874    .text.FLASH_ProgramWord:000000000000002e .L0 
C:\Users\LOCALH~1\AppData\Local\Temp\cco469pz.s:875    .text.FLASH_ProgramWord:000000000000002e .L0 
C:\Users\LOCALH~1\AppData\Local\Temp\cco469pz.s:878    .text.FLASH_ProgramWord:0000000000000034 .L0 
C:\Users\LOCALH~1\AppData\Local\Temp\cco469pz.s:880    .text.FLASH_ProgramWord:0000000000000038 .L0 
C:\Users\LOCALH~1\AppData\Local\Temp\cco469pz.s:881    .text.FLASH_ProgramWord:0000000000000038 .L0 
C:\Users\LOCALH~1\AppData\Local\Temp\cco469pz.s:884    .text.FLASH_ProgramWord:0000000000000040 .L0 
C:\Users\LOCALH~1\AppData\Local\Temp\cco469pz.s:885    .text.FLASH_ProgramWord:0000000000000040 .L0 
C:\Users\LOCALH~1\AppData\Local\Temp\cco469pz.s:887    .text.FLASH_ProgramWord:0000000000000044 .L0 
C:\Users\LOCALH~1\AppData\Local\Temp\cco469pz.s:888    .text.FLASH_ProgramWord:0000000000000044 .L0 
C:\Users\LOCALH~1\AppData\Local\Temp\cco469pz.s:891    .text.FLASH_ProgramWord:0000000000000046 .L0 
C:\Users\LOCALH~1\AppData\Local\Temp\cco469pz.s:893    .text.FLASH_ProgramWord:0000000000000048 .L0 
C:\Users\LOCALH~1\AppData\Local\Temp\cco469pz.s:894    .text.FLASH_ProgramWord:0000000000000048 .L0 
C:\Users\LOCALH~1\AppData\Local\Temp\cco469pz.s:896    .text.FLASH_ProgramWord:000000000000004a .L0 
C:\Users\LOCALH~1\AppData\Local\Temp\cco469pz.s:899    .text.FLASH_ProgramWord:000000000000004c .L0 
C:\Users\LOCALH~1\AppData\Local\Temp\cco469pz.s:902    .text.FLASH_ProgramWord:000000000000004e .L0 
C:\Users\LOCALH~1\AppData\Local\Temp\cco469pz.s:904    .text.FLASH_ProgramWord:0000000000000050 .L0 
C:\Users\LOCALH~1\AppData\Local\Temp\cco469pz.s:905    .text.FLASH_ProgramWord:0000000000000050 .L0 
C:\Users\LOCALH~1\AppData\Local\Temp\cco469pz.s:909    .text.FLASH_ProgramWord:0000000000000058 .L0 
C:\Users\LOCALH~1\AppData\Local\Temp\cco469pz.s:910    .text.FLASH_ProgramWord:0000000000000058 .L0 
C:\Users\LOCALH~1\AppData\Local\Temp\cco469pz.s:911    .text.FLASH_ProgramWord:0000000000000058 .L0 
C:\Users\LOCALH~1\AppData\Local\Temp\cco469pz.s:913    .text.FLASH_ProgramWord:000000000000005a .L0 
C:\Users\LOCALH~1\AppData\Local\Temp\cco469pz.s:917    .text.FLASH_ProgramWord:000000000000005e .L0 
C:\Users\LOCALH~1\AppData\Local\Temp\cco469pz.s:918    .text.FLASH_ProgramWord:000000000000005e .L0 
C:\Users\LOCALH~1\AppData\Local\Temp\cco469pz.s:919    .text.FLASH_ProgramWord:0000000000000060 .L0 
C:\Users\LOCALH~1\AppData\Local\Temp\cco469pz.s:921    .text.FLASH_ProgramWord:0000000000000068 .L0 
C:\Users\LOCALH~1\AppData\Local\Temp\cco469pz.s:922    .text.FLASH_ProgramWord:0000000000000068 .L0 
C:\Users\LOCALH~1\AppData\Local\Temp\cco469pz.s:923    .text.FLASH_ProgramWord:0000000000000068 .L0 
C:\Users\LOCALH~1\AppData\Local\Temp\cco469pz.s:924    .text.FLASH_ProgramWord:0000000000000068 .L0 
C:\Users\LOCALH~1\AppData\Local\Temp\cco469pz.s:925    .text.FLASH_ProgramWord:0000000000000068 .L0 
C:\Users\LOCALH~1\AppData\Local\Temp\cco469pz.s:926    .text.FLASH_ProgramWord:0000000000000068 .L0 
C:\Users\LOCALH~1\AppData\Local\Temp\cco469pz.s:927    .text.FLASH_ProgramWord:0000000000000068 .L0 
C:\Users\LOCALH~1\AppData\Local\Temp\cco469pz.s:934    .text.FLASH_ProgramHalfWord:0000000000000000 FLASH_ProgramHalfWord
C:\Users\LOCALH~1\AppData\Local\Temp\cco469pz.s:937    .text.FLASH_ProgramHalfWord:0000000000000000 .L0 
C:\Users\LOCALH~1\AppData\Local\Temp\cco469pz.s:939    .text.FLASH_ProgramHalfWord:0000000000000000 $x
C:\Users\LOCALH~1\AppData\Local\Temp\cco469pz.s:939    .text.FLASH_ProgramHalfWord:0000000000000000 .L0 
C:\Users\LOCALH~1\AppData\Local\Temp\cco469pz.s:940    .text.FLASH_ProgramHalfWord:0000000000000008 .L0 
C:\Users\LOCALH~1\AppData\Local\Temp\cco469pz.s:941    .text.FLASH_ProgramHalfWord:0000000000000008 .L0 
C:\Users\LOCALH~1\AppData\Local\Temp\cco469pz.s:942    .text.FLASH_ProgramHalfWord:0000000000000008 .L0 
C:\Users\LOCALH~1\AppData\Local\Temp\cco469pz.s:943    .text.FLASH_ProgramHalfWord:0000000000000008 .L0 
C:\Users\LOCALH~1\AppData\Local\Temp\cco469pz.s:944    .text.FLASH_ProgramHalfWord:0000000000000008 .L0 
C:\Users\LOCALH~1\AppData\Local\Temp\cco469pz.s:947    .text.FLASH_ProgramHalfWord:0000000000000008 .L0 
C:\Users\LOCALH~1\AppData\Local\Temp\cco469pz.s:948    .text.FLASH_ProgramHalfWord:0000000000000008 .L0 
C:\Users\LOCALH~1\AppData\Local\Temp\cco469pz.s:949    .text.FLASH_ProgramHalfWord:0000000000000008 .L0 
C:\Users\LOCALH~1\AppData\Local\Temp\cco469pz.s:951    .text.FLASH_ProgramHalfWord:000000000000000a .L0 
C:\Users\LOCALH~1\AppData\Local\Temp\cco469pz.s:954    .text.FLASH_ProgramHalfWord:000000000000000c .L0 
C:\Users\LOCALH~1\AppData\Local\Temp\cco469pz.s:956    .text.FLASH_ProgramHalfWord:000000000000000e .L0 
C:\Users\LOCALH~1\AppData\Local\Temp\cco469pz.s:959    .text.FLASH_ProgramHalfWord:0000000000000016 .L0 
C:\Users\LOCALH~1\AppData\Local\Temp\cco469pz.s:960    .text.FLASH_ProgramHalfWord:0000000000000016 .L0 
C:\Users\LOCALH~1\AppData\Local\Temp\cco469pz.s:963    .text.FLASH_ProgramHalfWord:000000000000001c .L0 
C:\Users\LOCALH~1\AppData\Local\Temp\cco469pz.s:964    .text.FLASH_ProgramHalfWord:000000000000001c .L0 
C:\Users\LOCALH~1\AppData\Local\Temp\cco469pz.s:967    .text.FLASH_ProgramHalfWord:0000000000000022 .L0 
C:\Users\LOCALH~1\AppData\Local\Temp\cco469pz.s:970    .text.FLASH_ProgramHalfWord:0000000000000024 .L0 
C:\Users\LOCALH~1\AppData\Local\Temp\cco469pz.s:973    .text.FLASH_ProgramHalfWord:000000000000002a .L0 
C:\Users\LOCALH~1\AppData\Local\Temp\cco469pz.s:974    .text.FLASH_ProgramHalfWord:000000000000002a .L0 
C:\Users\LOCALH~1\AppData\Local\Temp\cco469pz.s:976    .text.FLASH_ProgramHalfWord:000000000000002e .L0 
C:\Users\LOCALH~1\AppData\Local\Temp\cco469pz.s:977    .text.FLASH_ProgramHalfWord:000000000000002e .L0 
C:\Users\LOCALH~1\AppData\Local\Temp\cco469pz.s:980    .text.FLASH_ProgramHalfWord:0000000000000036 .L0 
C:\Users\LOCALH~1\AppData\Local\Temp\cco469pz.s:981    .text.FLASH_ProgramHalfWord:0000000000000036 .L0 
C:\Users\LOCALH~1\AppData\Local\Temp\cco469pz.s:983    .text.FLASH_ProgramHalfWord:0000000000000038 .L0 
C:\Users\LOCALH~1\AppData\Local\Temp\cco469pz.s:987    .text.FLASH_ProgramHalfWord:000000000000003c .L0 
C:\Users\LOCALH~1\AppData\Local\Temp\cco469pz.s:988    .text.FLASH_ProgramHalfWord:000000000000003c .L0 
C:\Users\LOCALH~1\AppData\Local\Temp\cco469pz.s:989    .text.FLASH_ProgramHalfWord:0000000000000044 .L0 
C:\Users\LOCALH~1\AppData\Local\Temp\cco469pz.s:990    .text.FLASH_ProgramHalfWord:0000000000000044 .L0 
C:\Users\LOCALH~1\AppData\Local\Temp\cco469pz.s:991    .text.FLASH_ProgramHalfWord:0000000000000044 .L0 
C:\Users\LOCALH~1\AppData\Local\Temp\cco469pz.s:992    .text.FLASH_ProgramHalfWord:0000000000000044 .L0 
C:\Users\LOCALH~1\AppData\Local\Temp\cco469pz.s:993    .text.FLASH_ProgramHalfWord:0000000000000044 .L0 
C:\Users\LOCALH~1\AppData\Local\Temp\cco469pz.s:994    .text.FLASH_ProgramHalfWord:0000000000000044 .L0 
C:\Users\LOCALH~1\AppData\Local\Temp\cco469pz.s:1001   .text.FLASH_ProgramOptionByteData:0000000000000000 FLASH_ProgramOptionByteData
C:\Users\LOCALH~1\AppData\Local\Temp\cco469pz.s:1004   .text.FLASH_ProgramOptionByteData:0000000000000000 .L0 
C:\Users\LOCALH~1\AppData\Local\Temp\cco469pz.s:1006   .text.FLASH_ProgramOptionByteData:0000000000000000 $x
C:\Users\LOCALH~1\AppData\Local\Temp\cco469pz.s:1006   .text.FLASH_ProgramOptionByteData:0000000000000000 .L0 
C:\Users\LOCALH~1\AppData\Local\Temp\cco469pz.s:1007   .text.FLASH_ProgramOptionByteData:0000000000000008 .L0 
C:\Users\LOCALH~1\AppData\Local\Temp\cco469pz.s:1008   .text.FLASH_ProgramOptionByteData:0000000000000008 .L0 
C:\Users\LOCALH~1\AppData\Local\Temp\cco469pz.s:1009   .text.FLASH_ProgramOptionByteData:0000000000000008 .L0 
C:\Users\LOCALH~1\AppData\Local\Temp\cco469pz.s:1010   .text.FLASH_ProgramOptionByteData:0000000000000008 .L0 
C:\Users\LOCALH~1\AppData\Local\Temp\cco469pz.s:1013   .text.FLASH_ProgramOptionByteData:0000000000000008 .L0 
C:\Users\LOCALH~1\AppData\Local\Temp\cco469pz.s:1014   .text.FLASH_ProgramOptionByteData:0000000000000008 .L0 
C:\Users\LOCALH~1\AppData\Local\Temp\cco469pz.s:1015   .text.FLASH_ProgramOptionByteData:0000000000000008 .L0 
C:\Users\LOCALH~1\AppData\Local\Temp\cco469pz.s:1016   .text.FLASH_ProgramOptionByteData:0000000000000008 .L0 
C:\Users\LOCALH~1\AppData\Local\Temp\cco469pz.s:1017   .text.FLASH_ProgramOptionByteData:0000000000000008 .L0 
C:\Users\LOCALH~1\AppData\Local\Temp\cco469pz.s:1018   .text.FLASH_ProgramOptionByteData:0000000000000008 .L0 
C:\Users\LOCALH~1\AppData\Local\Temp\cco469pz.s:1019   .text.FLASH_ProgramOptionByteData:000000000000000a .L0 
C:\Users\LOCALH~1\AppData\Local\Temp\cco469pz.s:1021   .text.FLASH_ProgramOptionByteData:000000000000000a .L0 
C:\Users\LOCALH~1\AppData\Local\Temp\cco469pz.s:1023   .text.FLASH_ProgramOptionByteData:000000000000000c .L0 
C:\Users\LOCALH~1\AppData\Local\Temp\cco469pz.s:1026   .text.FLASH_ProgramOptionByteData:000000000000000e .L0 
C:\Users\LOCALH~1\AppData\Local\Temp\cco469pz.s:1028   .text.FLASH_ProgramOptionByteData:0000000000000010 .L0 
C:\Users\LOCALH~1\AppData\Local\Temp\cco469pz.s:1031   .text.FLASH_ProgramOptionByteData:0000000000000018 .L0 
C:\Users\LOCALH~1\AppData\Local\Temp\cco469pz.s:1032   .text.FLASH_ProgramOptionByteData:0000000000000018 .L0 
C:\Users\LOCALH~1\AppData\Local\Temp\cco469pz.s:1035   .text.FLASH_ProgramOptionByteData:000000000000001e .L0 
C:\Users\LOCALH~1\AppData\Local\Temp\cco469pz.s:1036   .text.FLASH_ProgramOptionByteData:000000000000001e .L0 
C:\Users\LOCALH~1\AppData\Local\Temp\cco469pz.s:1041   .text.FLASH_ProgramOptionByteData:000000000000002c .L0 
C:\Users\LOCALH~1\AppData\Local\Temp\cco469pz.s:1042   .text.FLASH_ProgramOptionByteData:000000000000002c .L0 
C:\Users\LOCALH~1\AppData\Local\Temp\cco469pz.s:1046   .text.FLASH_ProgramOptionByteData:0000000000000036 .L0 
C:\Users\LOCALH~1\AppData\Local\Temp\cco469pz.s:1047   .text.FLASH_ProgramOptionByteData:0000000000000036 .L0 
C:\Users\LOCALH~1\AppData\Local\Temp\cco469pz.s:1049   .text.FLASH_ProgramOptionByteData:000000000000003a .L0 
C:\Users\LOCALH~1\AppData\Local\Temp\cco469pz.s:1051   .text.FLASH_ProgramOptionByteData:000000000000003c .L0 
C:\Users\LOCALH~1\AppData\Local\Temp\cco469pz.s:1054   .text.FLASH_ProgramOptionByteData:0000000000000040 .L0 
C:\Users\LOCALH~1\AppData\Local\Temp\cco469pz.s:1057   .text.FLASH_ProgramOptionByteData:0000000000000046 .L0 
C:\Users\LOCALH~1\AppData\Local\Temp\cco469pz.s:1058   .text.FLASH_ProgramOptionByteData:0000000000000046 .L0 
C:\Users\LOCALH~1\AppData\Local\Temp\cco469pz.s:1061   .text.FLASH_ProgramOptionByteData:000000000000004c .L0 
C:\Users\LOCALH~1\AppData\Local\Temp\cco469pz.s:1064   .text.FLASH_ProgramOptionByteData:0000000000000052 .L0 
C:\Users\LOCALH~1\AppData\Local\Temp\cco469pz.s:1065   .text.FLASH_ProgramOptionByteData:0000000000000052 .L0 
C:\Users\LOCALH~1\AppData\Local\Temp\cco469pz.s:1067   .text.FLASH_ProgramOptionByteData:0000000000000054 .L0 
C:\Users\LOCALH~1\AppData\Local\Temp\cco469pz.s:1070   .text.FLASH_ProgramOptionByteData:000000000000005a .L0 
C:\Users\LOCALH~1\AppData\Local\Temp\cco469pz.s:1071   .text.FLASH_ProgramOptionByteData:000000000000005a .L0 
C:\Users\LOCALH~1\AppData\Local\Temp\cco469pz.s:1074   .text.FLASH_ProgramOptionByteData:000000000000005e .L0 
C:\Users\LOCALH~1\AppData\Local\Temp\cco469pz.s:1075   .text.FLASH_ProgramOptionByteData:000000000000005e .L0 
C:\Users\LOCALH~1\AppData\Local\Temp\cco469pz.s:1077   .text.FLASH_ProgramOptionByteData:0000000000000060 .L0 
C:\Users\LOCALH~1\AppData\Local\Temp\cco469pz.s:1079   .text.FLASH_ProgramOptionByteData:0000000000000062 .L0 
C:\Users\LOCALH~1\AppData\Local\Temp\cco469pz.s:1081   .text.FLASH_ProgramOptionByteData:0000000000000064 .L0 
C:\Users\LOCALH~1\AppData\Local\Temp\cco469pz.s:1082   .text.FLASH_ProgramOptionByteData:0000000000000064 .L0 
C:\Users\LOCALH~1\AppData\Local\Temp\cco469pz.s:1085   .text.FLASH_ProgramOptionByteData:000000000000006a .L0 
C:\Users\LOCALH~1\AppData\Local\Temp\cco469pz.s:1087   .text.FLASH_ProgramOptionByteData:000000000000006c .L0 
C:\Users\LOCALH~1\AppData\Local\Temp\cco469pz.s:1089   .text.FLASH_ProgramOptionByteData:0000000000000070 .L0 
C:\Users\LOCALH~1\AppData\Local\Temp\cco469pz.s:1092   .text.FLASH_ProgramOptionByteData:0000000000000076 .L0 
C:\Users\LOCALH~1\AppData\Local\Temp\cco469pz.s:1093   .text.FLASH_ProgramOptionByteData:0000000000000076 .L0 
C:\Users\LOCALH~1\AppData\Local\Temp\cco469pz.s:1098   .text.FLASH_ProgramOptionByteData:0000000000000080 .L0 
C:\Users\LOCALH~1\AppData\Local\Temp\cco469pz.s:1103   .text.FLASH_ProgramOptionByteData:000000000000008a .L0 
C:\Users\LOCALH~1\AppData\Local\Temp\cco469pz.s:1107   .text.FLASH_ProgramOptionByteData:0000000000000092 .L0 
C:\Users\LOCALH~1\AppData\Local\Temp\cco469pz.s:1109   .text.FLASH_ProgramOptionByteData:0000000000000094 .L0 
C:\Users\LOCALH~1\AppData\Local\Temp\cco469pz.s:1111   .text.FLASH_ProgramOptionByteData:0000000000000098 .L0 
C:\Users\LOCALH~1\AppData\Local\Temp\cco469pz.s:1113   .text.FLASH_ProgramOptionByteData:000000000000009a .L0 
C:\Users\LOCALH~1\AppData\Local\Temp\cco469pz.s:1115   .text.FLASH_ProgramOptionByteData:000000000000009e .L0 
C:\Users\LOCALH~1\AppData\Local\Temp\cco469pz.s:1116   .text.FLASH_ProgramOptionByteData:000000000000009e .L0 
C:\Users\LOCALH~1\AppData\Local\Temp\cco469pz.s:1118   .text.FLASH_ProgramOptionByteData:00000000000000a2 .L0 
C:\Users\LOCALH~1\AppData\Local\Temp\cco469pz.s:1121   .text.FLASH_ProgramOptionByteData:00000000000000a8 .L0 
C:\Users\LOCALH~1\AppData\Local\Temp\cco469pz.s:1122   .text.FLASH_ProgramOptionByteData:00000000000000a8 .L0 
C:\Users\LOCALH~1\AppData\Local\Temp\cco469pz.s:1125   .text.FLASH_ProgramOptionByteData:00000000000000ac .L0 
C:\Users\LOCALH~1\AppData\Local\Temp\cco469pz.s:1128   .text.FLASH_ProgramOptionByteData:00000000000000b2 .L0 
C:\Users\LOCALH~1\AppData\Local\Temp\cco469pz.s:1129   .text.FLASH_ProgramOptionByteData:00000000000000b2 .L0 
C:\Users\LOCALH~1\AppData\Local\Temp\cco469pz.s:1132   .text.FLASH_ProgramOptionByteData:00000000000000b8 .L0 
C:\Users\LOCALH~1\AppData\Local\Temp\cco469pz.s:1136   .text.FLASH_ProgramOptionByteData:00000000000000bc .L0 
C:\Users\LOCALH~1\AppData\Local\Temp\cco469pz.s:1137   .text.FLASH_ProgramOptionByteData:00000000000000bc .L0 
C:\Users\LOCALH~1\AppData\Local\Temp\cco469pz.s:1138   .text.FLASH_ProgramOptionByteData:00000000000000be .L0 
C:\Users\LOCALH~1\AppData\Local\Temp\cco469pz.s:1139   .text.FLASH_ProgramOptionByteData:00000000000000be .L0 
C:\Users\LOCALH~1\AppData\Local\Temp\cco469pz.s:1141   .text.FLASH_ProgramOptionByteData:00000000000000c6 .L0 
C:\Users\LOCALH~1\AppData\Local\Temp\cco469pz.s:1142   .text.FLASH_ProgramOptionByteData:00000000000000c6 .L0 
C:\Users\LOCALH~1\AppData\Local\Temp\cco469pz.s:1143   .text.FLASH_ProgramOptionByteData:00000000000000c6 .L0 
C:\Users\LOCALH~1\AppData\Local\Temp\cco469pz.s:1144   .text.FLASH_ProgramOptionByteData:00000000000000c6 .L0 
C:\Users\LOCALH~1\AppData\Local\Temp\cco469pz.s:1147   .text.FLASH_ProgramOptionByteData:00000000000000c6 .L0 
C:\Users\LOCALH~1\AppData\Local\Temp\cco469pz.s:1149   .text.FLASH_ProgramOptionByteData:00000000000000c6 .L0 
C:\Users\LOCALH~1\AppData\Local\Temp\cco469pz.s:1150   .text.FLASH_ProgramOptionByteData:00000000000000c6 .L0 
C:\Users\LOCALH~1\AppData\Local\Temp\cco469pz.s:1152   .text.FLASH_ProgramOptionByteData:00000000000000c8 .L0 
C:\Users\LOCALH~1\AppData\Local\Temp\cco469pz.s:1154   .text.FLASH_ProgramOptionByteData:00000000000000ca .L0 
C:\Users\LOCALH~1\AppData\Local\Temp\cco469pz.s:1157   .text.FLASH_ProgramOptionByteData:00000000000000ce .L0 
C:\Users\LOCALH~1\AppData\Local\Temp\cco469pz.s:1163   .text.FLASH_ProgramOptionByteData:00000000000000de .L0 
C:\Users\LOCALH~1\AppData\Local\Temp\cco469pz.s:1171   .text.FLASH_ProgramOptionByteData:00000000000000ea .L0 
C:\Users\LOCALH~1\AppData\Local\Temp\cco469pz.s:1172   .text.FLASH_ProgramOptionByteData:00000000000000ea .L0 
C:\Users\LOCALH~1\AppData\Local\Temp\cco469pz.s:1174   .text.FLASH_ProgramOptionByteData:00000000000000ec .L0 
C:\Users\LOCALH~1\AppData\Local\Temp\cco469pz.s:1176   .text.FLASH_ProgramOptionByteData:00000000000000ee .L0 
C:\Users\LOCALH~1\AppData\Local\Temp\cco469pz.s:1180   .text.FLASH_ProgramOptionByteData:00000000000000f6 .L0 
C:\Users\LOCALH~1\AppData\Local\Temp\cco469pz.s:1186   .text.FLASH_ProgramOptionByteData:0000000000000102 .L0 
C:\Users\LOCALH~1\AppData\Local\Temp\cco469pz.s:1187   .text.FLASH_ProgramOptionByteData:0000000000000102 .L0 
C:\Users\LOCALH~1\AppData\Local\Temp\cco469pz.s:1188   .text.FLASH_ProgramOptionByteData:0000000000000102 .L0 
C:\Users\LOCALH~1\AppData\Local\Temp\cco469pz.s:1190   .text.FLASH_ProgramOptionByteData:0000000000000104 .L0 
C:\Users\LOCALH~1\AppData\Local\Temp\cco469pz.s:1192   .text.FLASH_ProgramOptionByteData:0000000000000106 .L0 
C:\Users\LOCALH~1\AppData\Local\Temp\cco469pz.s:1194   .text.FLASH_ProgramOptionByteData:0000000000000108 .L0 
C:\Users\LOCALH~1\AppData\Local\Temp\cco469pz.s:1199   .text.FLASH_ProgramOptionByteData:0000000000000114 .L0 
C:\Users\LOCALH~1\AppData\Local\Temp\cco469pz.s:1206   .text.FLASH_EnableWriteProtection:0000000000000000 FLASH_EnableWriteProtection
C:\Users\LOCALH~1\AppData\Local\Temp\cco469pz.s:1209   .text.FLASH_EnableWriteProtection:0000000000000000 .L0 
C:\Users\LOCALH~1\AppData\Local\Temp\cco469pz.s:1211   .text.FLASH_EnableWriteProtection:0000000000000000 $x
C:\Users\LOCALH~1\AppData\Local\Temp\cco469pz.s:1211   .text.FLASH_EnableWriteProtection:0000000000000000 .L0 
C:\Users\LOCALH~1\AppData\Local\Temp\cco469pz.s:1212   .text.FLASH_EnableWriteProtection:0000000000000008 .L0 
C:\Users\LOCALH~1\AppData\Local\Temp\cco469pz.s:1213   .text.FLASH_EnableWriteProtection:0000000000000008 .L0 
C:\Users\LOCALH~1\AppData\Local\Temp\cco469pz.s:1214   .text.FLASH_EnableWriteProtection:0000000000000008 .L0 
C:\Users\LOCALH~1\AppData\Local\Temp\cco469pz.s:1217   .text.FLASH_EnableWriteProtection:0000000000000008 .L0 
C:\Users\LOCALH~1\AppData\Local\Temp\cco469pz.s:1218   .text.FLASH_EnableWriteProtection:0000000000000008 .L0 
C:\Users\LOCALH~1\AppData\Local\Temp\cco469pz.s:1219   .text.FLASH_EnableWriteProtection:0000000000000008 .L0 
C:\Users\LOCALH~1\AppData\Local\Temp\cco469pz.s:1220   .text.FLASH_EnableWriteProtection:0000000000000008 .L0 
C:\Users\LOCALH~1\AppData\Local\Temp\cco469pz.s:1221   .text.FLASH_EnableWriteProtection:0000000000000008 .L0 
C:\Users\LOCALH~1\AppData\Local\Temp\cco469pz.s:1222   .text.FLASH_EnableWriteProtection:0000000000000008 .L0 
C:\Users\LOCALH~1\AppData\Local\Temp\cco469pz.s:1223   .text.FLASH_EnableWriteProtection:0000000000000008 .L0 
C:\Users\LOCALH~1\AppData\Local\Temp\cco469pz.s:1224   .text.FLASH_EnableWriteProtection:000000000000000a .L0 
C:\Users\LOCALH~1\AppData\Local\Temp\cco469pz.s:1226   .text.FLASH_EnableWriteProtection:000000000000000a .L0 
C:\Users\LOCALH~1\AppData\Local\Temp\cco469pz.s:1229   .text.FLASH_EnableWriteProtection:000000000000000c .L0 
C:\Users\LOCALH~1\AppData\Local\Temp\cco469pz.s:1230   .text.FLASH_EnableWriteProtection:000000000000000c .L0 
C:\Users\LOCALH~1\AppData\Local\Temp\cco469pz.s:1231   .text.FLASH_EnableWriteProtection:000000000000000c .L0 
C:\Users\LOCALH~1\AppData\Local\Temp\cco469pz.s:1232   .text.FLASH_EnableWriteProtection:000000000000000c .L0 
C:\Users\LOCALH~1\AppData\Local\Temp\cco469pz.s:1233   .text.FLASH_EnableWriteProtection:000000000000000c .L0 
C:\Users\LOCALH~1\AppData\Local\Temp\cco469pz.s:1234   .text.FLASH_EnableWriteProtection:000000000000000c .L0 
C:\Users\LOCALH~1\AppData\Local\Temp\cco469pz.s:1239   .text.FLASH_EnableWriteProtection:0000000000000016 .L0 
C:\Users\LOCALH~1\AppData\Local\Temp\cco469pz.s:1240   .text.FLASH_EnableWriteProtection:0000000000000016 .L0 
C:\Users\LOCALH~1\AppData\Local\Temp\cco469pz.s:1243   .text.FLASH_EnableWriteProtection:000000000000001c .L0 
C:\Users\LOCALH~1\AppData\Local\Temp\cco469pz.s:1244   .text.FLASH_EnableWriteProtection:000000000000001c .L0 
C:\Users\LOCALH~1\AppData\Local\Temp\cco469pz.s:1249   .text.FLASH_EnableWriteProtection:000000000000002a .L0 
C:\Users\LOCALH~1\AppData\Local\Temp\cco469pz.s:1250   .text.FLASH_EnableWriteProtection:000000000000002a .L0 
C:\Users\LOCALH~1\AppData\Local\Temp\cco469pz.s:1254   .text.FLASH_EnableWriteProtection:0000000000000034 .L0 
C:\Users\LOCALH~1\AppData\Local\Temp\cco469pz.s:1255   .text.FLASH_EnableWriteProtection:0000000000000034 .L0 
C:\Users\LOCALH~1\AppData\Local\Temp\cco469pz.s:1257   .text.FLASH_EnableWriteProtection:0000000000000038 .L0 
C:\Users\LOCALH~1\AppData\Local\Temp\cco469pz.s:1259   .text.FLASH_EnableWriteProtection:000000000000003a .L0 
C:\Users\LOCALH~1\AppData\Local\Temp\cco469pz.s:1262   .text.FLASH_EnableWriteProtection:000000000000003e .L0 
C:\Users\LOCALH~1\AppData\Local\Temp\cco469pz.s:1265   .text.FLASH_EnableWriteProtection:0000000000000044 .L0 
C:\Users\LOCALH~1\AppData\Local\Temp\cco469pz.s:1266   .text.FLASH_EnableWriteProtection:0000000000000044 .L0 
C:\Users\LOCALH~1\AppData\Local\Temp\cco469pz.s:1269   .text.FLASH_EnableWriteProtection:000000000000004a .L0 
C:\Users\LOCALH~1\AppData\Local\Temp\cco469pz.s:1272   .text.FLASH_EnableWriteProtection:0000000000000050 .L0 
C:\Users\LOCALH~1\AppData\Local\Temp\cco469pz.s:1273   .text.FLASH_EnableWriteProtection:0000000000000050 .L0 
C:\Users\LOCALH~1\AppData\Local\Temp\cco469pz.s:1275   .text.FLASH_EnableWriteProtection:0000000000000052 .L0 
C:\Users\LOCALH~1\AppData\Local\Temp\cco469pz.s:1278   .text.FLASH_EnableWriteProtection:0000000000000058 .L0 
C:\Users\LOCALH~1\AppData\Local\Temp\cco469pz.s:1279   .text.FLASH_EnableWriteProtection:0000000000000058 .L0 
C:\Users\LOCALH~1\AppData\Local\Temp\cco469pz.s:1282   .text.FLASH_EnableWriteProtection:000000000000005c .L0 
C:\Users\LOCALH~1\AppData\Local\Temp\cco469pz.s:1283   .text.FLASH_EnableWriteProtection:000000000000005c .L0 
C:\Users\LOCALH~1\AppData\Local\Temp\cco469pz.s:1285   .text.FLASH_EnableWriteProtection:000000000000005e .L0 
C:\Users\LOCALH~1\AppData\Local\Temp\cco469pz.s:1287   .text.FLASH_EnableWriteProtection:0000000000000060 .L0 
C:\Users\LOCALH~1\AppData\Local\Temp\cco469pz.s:1289   .text.FLASH_EnableWriteProtection:0000000000000062 .L0 
C:\Users\LOCALH~1\AppData\Local\Temp\cco469pz.s:1292   .text.FLASH_EnableWriteProtection:0000000000000068 .L0 
C:\Users\LOCALH~1\AppData\Local\Temp\cco469pz.s:1294   .text.FLASH_EnableWriteProtection:000000000000006c .L0 
C:\Users\LOCALH~1\AppData\Local\Temp\cco469pz.s:1295   .text.FLASH_EnableWriteProtection:000000000000006c .L0 
C:\Users\LOCALH~1\AppData\Local\Temp\cco469pz.s:1297   .text.FLASH_EnableWriteProtection:0000000000000070 .L0 
C:\Users\LOCALH~1\AppData\Local\Temp\cco469pz.s:1300   .text.FLASH_EnableWriteProtection:0000000000000076 .L0 
C:\Users\LOCALH~1\AppData\Local\Temp\cco469pz.s:1301   .text.FLASH_EnableWriteProtection:0000000000000076 .L0 
C:\Users\LOCALH~1\AppData\Local\Temp\cco469pz.s:1303   .text.FLASH_EnableWriteProtection:000000000000007a .L0 
C:\Users\LOCALH~1\AppData\Local\Temp\cco469pz.s:1305   .text.FLASH_EnableWriteProtection:000000000000007c .L0 
C:\Users\LOCALH~1\AppData\Local\Temp\cco469pz.s:1306   .text.FLASH_EnableWriteProtection:000000000000007c .L0 
C:\Users\LOCALH~1\AppData\Local\Temp\cco469pz.s:1308   .text.FLASH_EnableWriteProtection:0000000000000080 .L0 
C:\Users\LOCALH~1\AppData\Local\Temp\cco469pz.s:1310   .text.FLASH_EnableWriteProtection:0000000000000084 .L0 
C:\Users\LOCALH~1\AppData\Local\Temp\cco469pz.s:1312   .text.FLASH_EnableWriteProtection:0000000000000086 .L0 
C:\Users\LOCALH~1\AppData\Local\Temp\cco469pz.s:1313   .text.FLASH_EnableWriteProtection:0000000000000086 .L0 
C:\Users\LOCALH~1\AppData\Local\Temp\cco469pz.s:1315   .text.FLASH_EnableWriteProtection:000000000000008a .L0 
C:\Users\LOCALH~1\AppData\Local\Temp\cco469pz.s:1317   .text.FLASH_EnableWriteProtection:000000000000008c .L0 
C:\Users\LOCALH~1\AppData\Local\Temp\cco469pz.s:1319   .text.FLASH_EnableWriteProtection:000000000000008e .L0 
C:\Users\LOCALH~1\AppData\Local\Temp\cco469pz.s:1321   .text.FLASH_EnableWriteProtection:0000000000000090 .L0 
C:\Users\LOCALH~1\AppData\Local\Temp\cco469pz.s:1323   .text.FLASH_EnableWriteProtection:0000000000000094 .L0 
C:\Users\LOCALH~1\AppData\Local\Temp\cco469pz.s:1325   .text.FLASH_EnableWriteProtection:0000000000000096 .L0 
C:\Users\LOCALH~1\AppData\Local\Temp\cco469pz.s:1326   .text.FLASH_EnableWriteProtection:0000000000000096 .L0 
C:\Users\LOCALH~1\AppData\Local\Temp\cco469pz.s:1327   .text.FLASH_EnableWriteProtection:0000000000000096 .L0 
C:\Users\LOCALH~1\AppData\Local\Temp\cco469pz.s:1330   .text.FLASH_EnableWriteProtection:000000000000009c .L0 
C:\Users\LOCALH~1\AppData\Local\Temp\cco469pz.s:1331   .text.FLASH_EnableWriteProtection:000000000000009c .L0 
C:\Users\LOCALH~1\AppData\Local\Temp\cco469pz.s:1333   .text.FLASH_EnableWriteProtection:00000000000000a0 .L0 
C:\Users\LOCALH~1\AppData\Local\Temp\cco469pz.s:1335   .text.FLASH_EnableWriteProtection:00000000000000a2 .L0 
C:\Users\LOCALH~1\AppData\Local\Temp\cco469pz.s:1338   .text.FLASH_EnableWriteProtection:00000000000000a6 .L0 
C:\Users\LOCALH~1\AppData\Local\Temp\cco469pz.s:1341   .text.FLASH_EnableWriteProtection:00000000000000ac .L0 
C:\Users\LOCALH~1\AppData\Local\Temp\cco469pz.s:1342   .text.FLASH_EnableWriteProtection:00000000000000ac .L0 
C:\Users\LOCALH~1\AppData\Local\Temp\cco469pz.s:1345   .text.FLASH_EnableWriteProtection:00000000000000b2 .L0 
C:\Users\LOCALH~1\AppData\Local\Temp\cco469pz.s:1349   .text.FLASH_EnableWriteProtection:00000000000000b6 .L0 
C:\Users\LOCALH~1\AppData\Local\Temp\cco469pz.s:1350   .text.FLASH_EnableWriteProtection:00000000000000b6 .L0 
C:\Users\LOCALH~1\AppData\Local\Temp\cco469pz.s:1351   .text.FLASH_EnableWriteProtection:00000000000000b8 .L0 
C:\Users\LOCALH~1\AppData\Local\Temp\cco469pz.s:1352   .text.FLASH_EnableWriteProtection:00000000000000b8 .L0 
C:\Users\LOCALH~1\AppData\Local\Temp\cco469pz.s:1354   .text.FLASH_EnableWriteProtection:00000000000000c0 .L0 
C:\Users\LOCALH~1\AppData\Local\Temp\cco469pz.s:1355   .text.FLASH_EnableWriteProtection:00000000000000c0 .L0 
C:\Users\LOCALH~1\AppData\Local\Temp\cco469pz.s:1356   .text.FLASH_EnableWriteProtection:00000000000000c0 .L0 
C:\Users\LOCALH~1\AppData\Local\Temp\cco469pz.s:1358   .text.FLASH_EnableWriteProtection:00000000000000c0 .L0 
C:\Users\LOCALH~1\AppData\Local\Temp\cco469pz.s:1360   .text.FLASH_EnableWriteProtection:00000000000000c0 .L0 
C:\Users\LOCALH~1\AppData\Local\Temp\cco469pz.s:1361   .text.FLASH_EnableWriteProtection:00000000000000c0 .L0 
C:\Users\LOCALH~1\AppData\Local\Temp\cco469pz.s:1363   .text.FLASH_EnableWriteProtection:00000000000000c2 .L0 
C:\Users\LOCALH~1\AppData\Local\Temp\cco469pz.s:1365   .text.FLASH_EnableWriteProtection:00000000000000c4 .L0 
C:\Users\LOCALH~1\AppData\Local\Temp\cco469pz.s:1368   .text.FLASH_EnableWriteProtection:00000000000000c8 .L0 
C:\Users\LOCALH~1\AppData\Local\Temp\cco469pz.s:1374   .text.FLASH_EnableWriteProtection:00000000000000d8 .L0 
C:\Users\LOCALH~1\AppData\Local\Temp\cco469pz.s:1381   .text.FLASH_EnableWriteProtection:00000000000000e4 .L0 
C:\Users\LOCALH~1\AppData\Local\Temp\cco469pz.s:1382   .text.FLASH_EnableWriteProtection:00000000000000e4 .L0 
C:\Users\LOCALH~1\AppData\Local\Temp\cco469pz.s:1384   .text.FLASH_EnableWriteProtection:00000000000000e6 .L0 
C:\Users\LOCALH~1\AppData\Local\Temp\cco469pz.s:1386   .text.FLASH_EnableWriteProtection:00000000000000e8 .L0 
C:\Users\LOCALH~1\AppData\Local\Temp\cco469pz.s:1390   .text.FLASH_EnableWriteProtection:00000000000000f0 .L0 
C:\Users\LOCALH~1\AppData\Local\Temp\cco469pz.s:1396   .text.FLASH_EnableWriteProtection:00000000000000fc .L0 
C:\Users\LOCALH~1\AppData\Local\Temp\cco469pz.s:1397   .text.FLASH_EnableWriteProtection:00000000000000fc .L0 
C:\Users\LOCALH~1\AppData\Local\Temp\cco469pz.s:1398   .text.FLASH_EnableWriteProtection:00000000000000fc .L0 
C:\Users\LOCALH~1\AppData\Local\Temp\cco469pz.s:1400   .text.FLASH_EnableWriteProtection:00000000000000fe .L0 
C:\Users\LOCALH~1\AppData\Local\Temp\cco469pz.s:1402   .text.FLASH_EnableWriteProtection:0000000000000100 .L0 
C:\Users\LOCALH~1\AppData\Local\Temp\cco469pz.s:1404   .text.FLASH_EnableWriteProtection:0000000000000102 .L0 
C:\Users\LOCALH~1\AppData\Local\Temp\cco469pz.s:1409   .text.FLASH_EnableWriteProtection:000000000000010e .L0 
C:\Users\LOCALH~1\AppData\Local\Temp\cco469pz.s:1416   .text.FLASH_ReadOutProtection:0000000000000000 FLASH_ReadOutProtection
C:\Users\LOCALH~1\AppData\Local\Temp\cco469pz.s:1419   .text.FLASH_ReadOutProtection:0000000000000000 .L0 
C:\Users\LOCALH~1\AppData\Local\Temp\cco469pz.s:1421   .text.FLASH_ReadOutProtection:0000000000000000 $x
C:\Users\LOCALH~1\AppData\Local\Temp\cco469pz.s:1421   .text.FLASH_ReadOutProtection:0000000000000000 .L0 
C:\Users\LOCALH~1\AppData\Local\Temp\cco469pz.s:1422   .text.FLASH_ReadOutProtection:0000000000000008 .L0 
C:\Users\LOCALH~1\AppData\Local\Temp\cco469pz.s:1423   .text.FLASH_ReadOutProtection:0000000000000008 .L0 
C:\Users\LOCALH~1\AppData\Local\Temp\cco469pz.s:1424   .text.FLASH_ReadOutProtection:0000000000000008 .L0 
C:\Users\LOCALH~1\AppData\Local\Temp\cco469pz.s:1427   .text.FLASH_ReadOutProtection:0000000000000008 .L0 
C:\Users\LOCALH~1\AppData\Local\Temp\cco469pz.s:1428   .text.FLASH_ReadOutProtection:0000000000000008 .L0 
C:\Users\LOCALH~1\AppData\Local\Temp\cco469pz.s:1429   .text.FLASH_ReadOutProtection:0000000000000008 .L0 
C:\Users\LOCALH~1\AppData\Local\Temp\cco469pz.s:1430   .text.FLASH_ReadOutProtection:0000000000000008 .L0 
C:\Users\LOCALH~1\AppData\Local\Temp\cco469pz.s:1431   .text.FLASH_ReadOutProtection:0000000000000008 .L0 
C:\Users\LOCALH~1\AppData\Local\Temp\cco469pz.s:1432   .text.FLASH_ReadOutProtection:0000000000000008 .L0 
C:\Users\LOCALH~1\AppData\Local\Temp\cco469pz.s:1433   .text.FLASH_ReadOutProtection:000000000000000a .L0 
C:\Users\LOCALH~1\AppData\Local\Temp\cco469pz.s:1435   .text.FLASH_ReadOutProtection:000000000000000a .L0 
C:\Users\LOCALH~1\AppData\Local\Temp\cco469pz.s:1437   .text.FLASH_ReadOutProtection:000000000000000c .L0 
C:\Users\LOCALH~1\AppData\Local\Temp\cco469pz.s:1442   .text.FLASH_ReadOutProtection:0000000000000018 .L0 
C:\Users\LOCALH~1\AppData\Local\Temp\cco469pz.s:1443   .text.FLASH_ReadOutProtection:0000000000000018 .L0 
C:\Users\LOCALH~1\AppData\Local\Temp\cco469pz.s:1446   .text.FLASH_ReadOutProtection:000000000000001e .L0 
C:\Users\LOCALH~1\AppData\Local\Temp\cco469pz.s:1447   .text.FLASH_ReadOutProtection:000000000000001e .L0 
C:\Users\LOCALH~1\AppData\Local\Temp\cco469pz.s:1452   .text.FLASH_ReadOutProtection:000000000000002c .L0 
C:\Users\LOCALH~1\AppData\Local\Temp\cco469pz.s:1453   .text.FLASH_ReadOutProtection:000000000000002c .L0 
C:\Users\LOCALH~1\AppData\Local\Temp\cco469pz.s:1457   .text.FLASH_ReadOutProtection:0000000000000036 .L0 
C:\Users\LOCALH~1\AppData\Local\Temp\cco469pz.s:1458   .text.FLASH_ReadOutProtection:0000000000000036 .L0 
C:\Users\LOCALH~1\AppData\Local\Temp\cco469pz.s:1460   .text.FLASH_ReadOutProtection:000000000000003a .L0 
C:\Users\LOCALH~1\AppData\Local\Temp\cco469pz.s:1462   .text.FLASH_ReadOutProtection:000000000000003c .L0 
C:\Users\LOCALH~1\AppData\Local\Temp\cco469pz.s:1465   .text.FLASH_ReadOutProtection:0000000000000040 .L0 
C:\Users\LOCALH~1\AppData\Local\Temp\cco469pz.s:1468   .text.FLASH_ReadOutProtection:0000000000000046 .L0 
C:\Users\LOCALH~1\AppData\Local\Temp\cco469pz.s:1469   .text.FLASH_ReadOutProtection:0000000000000046 .L0 
C:\Users\LOCALH~1\AppData\Local\Temp\cco469pz.s:1472   .text.FLASH_ReadOutProtection:000000000000004c .L0 
C:\Users\LOCALH~1\AppData\Local\Temp\cco469pz.s:1475   .text.FLASH_ReadOutProtection:0000000000000052 .L0 
C:\Users\LOCALH~1\AppData\Local\Temp\cco469pz.s:1476   .text.FLASH_ReadOutProtection:0000000000000052 .L0 
C:\Users\LOCALH~1\AppData\Local\Temp\cco469pz.s:1478   .text.FLASH_ReadOutProtection:0000000000000054 .L0 
C:\Users\LOCALH~1\AppData\Local\Temp\cco469pz.s:1482   .text.FLASH_ReadOutProtection:000000000000005a .L0 
C:\Users\LOCALH~1\AppData\Local\Temp\cco469pz.s:1483   .text.FLASH_ReadOutProtection:000000000000005a .L0 
C:\Users\LOCALH~1\AppData\Local\Temp\cco469pz.s:1484   .text.FLASH_ReadOutProtection:000000000000005a .L0 
C:\Users\LOCALH~1\AppData\Local\Temp\cco469pz.s:1486   .text.FLASH_ReadOutProtection:000000000000005c .L0 
C:\Users\LOCALH~1\AppData\Local\Temp\cco469pz.s:1488   .text.FLASH_ReadOutProtection:000000000000005e .L0 
C:\Users\LOCALH~1\AppData\Local\Temp\cco469pz.s:1490   .text.FLASH_ReadOutProtection:0000000000000060 .L0 
C:\Users\LOCALH~1\AppData\Local\Temp\cco469pz.s:1491   .text.FLASH_ReadOutProtection:0000000000000060 .L0 
C:\Users\LOCALH~1\AppData\Local\Temp\cco469pz.s:1493   .text.FLASH_ReadOutProtection:0000000000000062 .L0 
C:\Users\LOCALH~1\AppData\Local\Temp\cco469pz.s:1496   .text.FLASH_ReadOutProtection:0000000000000068 .L0 
C:\Users\LOCALH~1\AppData\Local\Temp\cco469pz.s:1497   .text.FLASH_ReadOutProtection:0000000000000068 .L0 
C:\Users\LOCALH~1\AppData\Local\Temp\cco469pz.s:1499   .text.FLASH_ReadOutProtection:000000000000006c .L0 
C:\Users\LOCALH~1\AppData\Local\Temp\cco469pz.s:1501   .text.FLASH_ReadOutProtection:000000000000006e .L0 
C:\Users\LOCALH~1\AppData\Local\Temp\cco469pz.s:1505   .text.FLASH_ReadOutProtection:0000000000000074 .L0 
C:\Users\LOCALH~1\AppData\Local\Temp\cco469pz.s:1508   .text.FLASH_ReadOutProtection:000000000000007a .L0 
C:\Users\LOCALH~1\AppData\Local\Temp\cco469pz.s:1509   .text.FLASH_ReadOutProtection:000000000000007a .L0 
C:\Users\LOCALH~1\AppData\Local\Temp\cco469pz.s:1511   .text.FLASH_ReadOutProtection:000000000000007c .L0 
C:\Users\LOCALH~1\AppData\Local\Temp\cco469pz.s:1513   .text.FLASH_ReadOutProtection:000000000000007e .L0 
C:\Users\LOCALH~1\AppData\Local\Temp\cco469pz.s:1515   .text.FLASH_ReadOutProtection:0000000000000082 .L0 
C:\Users\LOCALH~1\AppData\Local\Temp\cco469pz.s:1518   .text.FLASH_ReadOutProtection:0000000000000088 .L0 
C:\Users\LOCALH~1\AppData\Local\Temp\cco469pz.s:1519   .text.FLASH_ReadOutProtection:0000000000000088 .L0 
C:\Users\LOCALH~1\AppData\Local\Temp\cco469pz.s:1521   .text.FLASH_ReadOutProtection:000000000000008c .L0 
C:\Users\LOCALH~1\AppData\Local\Temp\cco469pz.s:1524   .text.FLASH_ReadOutProtection:0000000000000090 .L0 
C:\Users\LOCALH~1\AppData\Local\Temp\cco469pz.s:1527   .text.FLASH_ReadOutProtection:0000000000000096 .L0 
C:\Users\LOCALH~1\AppData\Local\Temp\cco469pz.s:1528   .text.FLASH_ReadOutProtection:0000000000000096 .L0 
C:\Users\LOCALH~1\AppData\Local\Temp\cco469pz.s:1531   .text.FLASH_ReadOutProtection:000000000000009c .L0 
C:\Users\LOCALH~1\AppData\Local\Temp\cco469pz.s:1535   .text.FLASH_ReadOutProtection:00000000000000a0 .L0 
C:\Users\LOCALH~1\AppData\Local\Temp\cco469pz.s:1536   .text.FLASH_ReadOutProtection:00000000000000a0 .L0 
C:\Users\LOCALH~1\AppData\Local\Temp\cco469pz.s:1537   .text.FLASH_ReadOutProtection:00000000000000a2 .L0 
C:\Users\LOCALH~1\AppData\Local\Temp\cco469pz.s:1538   .text.FLASH_ReadOutProtection:00000000000000a2 .L0 
C:\Users\LOCALH~1\AppData\Local\Temp\cco469pz.s:1540   .text.FLASH_ReadOutProtection:00000000000000aa .L0 
C:\Users\LOCALH~1\AppData\Local\Temp\cco469pz.s:1541   .text.FLASH_ReadOutProtection:00000000000000aa .L0 
C:\Users\LOCALH~1\AppData\Local\Temp\cco469pz.s:1542   .text.FLASH_ReadOutProtection:00000000000000aa .L0 
C:\Users\LOCALH~1\AppData\Local\Temp\cco469pz.s:1544   .text.FLASH_ReadOutProtection:00000000000000aa .L0 
C:\Users\LOCALH~1\AppData\Local\Temp\cco469pz.s:1546   .text.FLASH_ReadOutProtection:00000000000000aa .L0 
C:\Users\LOCALH~1\AppData\Local\Temp\cco469pz.s:1547   .text.FLASH_ReadOutProtection:00000000000000aa .L0 
C:\Users\LOCALH~1\AppData\Local\Temp\cco469pz.s:1549   .text.FLASH_ReadOutProtection:00000000000000ac .L0 
C:\Users\LOCALH~1\AppData\Local\Temp\cco469pz.s:1551   .text.FLASH_ReadOutProtection:00000000000000ae .L0 
C:\Users\LOCALH~1\AppData\Local\Temp\cco469pz.s:1554   .text.FLASH_ReadOutProtection:00000000000000b2 .L0 
C:\Users\LOCALH~1\AppData\Local\Temp\cco469pz.s:1560   .text.FLASH_ReadOutProtection:00000000000000c2 .L0 
C:\Users\LOCALH~1\AppData\Local\Temp\cco469pz.s:1567   .text.FLASH_ReadOutProtection:00000000000000ce .L0 
C:\Users\LOCALH~1\AppData\Local\Temp\cco469pz.s:1568   .text.FLASH_ReadOutProtection:00000000000000ce .L0 
C:\Users\LOCALH~1\AppData\Local\Temp\cco469pz.s:1570   .text.FLASH_ReadOutProtection:00000000000000d0 .L0 
C:\Users\LOCALH~1\AppData\Local\Temp\cco469pz.s:1572   .text.FLASH_ReadOutProtection:00000000000000d2 .L0 
C:\Users\LOCALH~1\AppData\Local\Temp\cco469pz.s:1576   .text.FLASH_ReadOutProtection:00000000000000da .L0 
C:\Users\LOCALH~1\AppData\Local\Temp\cco469pz.s:1582   .text.FLASH_ReadOutProtection:00000000000000e6 .L0 
C:\Users\LOCALH~1\AppData\Local\Temp\cco469pz.s:1583   .text.FLASH_ReadOutProtection:00000000000000e6 .L0 
C:\Users\LOCALH~1\AppData\Local\Temp\cco469pz.s:1584   .text.FLASH_ReadOutProtection:00000000000000e6 .L0 
C:\Users\LOCALH~1\AppData\Local\Temp\cco469pz.s:1586   .text.FLASH_ReadOutProtection:00000000000000e8 .L0 
C:\Users\LOCALH~1\AppData\Local\Temp\cco469pz.s:1588   .text.FLASH_ReadOutProtection:00000000000000ea .L0 
C:\Users\LOCALH~1\AppData\Local\Temp\cco469pz.s:1590   .text.FLASH_ReadOutProtection:00000000000000ec .L0 
C:\Users\LOCALH~1\AppData\Local\Temp\cco469pz.s:1595   .text.FLASH_ReadOutProtection:00000000000000f8 .L0 
C:\Users\LOCALH~1\AppData\Local\Temp\cco469pz.s:1602   .text.FLASH_UserOptionByteConfig:0000000000000000 FLASH_UserOptionByteConfig
C:\Users\LOCALH~1\AppData\Local\Temp\cco469pz.s:1605   .text.FLASH_UserOptionByteConfig:0000000000000000 .L0 
C:\Users\LOCALH~1\AppData\Local\Temp\cco469pz.s:1607   .text.FLASH_UserOptionByteConfig:0000000000000000 $x
C:\Users\LOCALH~1\AppData\Local\Temp\cco469pz.s:1607   .text.FLASH_UserOptionByteConfig:0000000000000000 .L0 
C:\Users\LOCALH~1\AppData\Local\Temp\cco469pz.s:1608   .text.FLASH_UserOptionByteConfig:0000000000000008 .L0 
C:\Users\LOCALH~1\AppData\Local\Temp\cco469pz.s:1609   .text.FLASH_UserOptionByteConfig:0000000000000008 .L0 
C:\Users\LOCALH~1\AppData\Local\Temp\cco469pz.s:1610   .text.FLASH_UserOptionByteConfig:0000000000000008 .L0 
C:\Users\LOCALH~1\AppData\Local\Temp\cco469pz.s:1611   .text.FLASH_UserOptionByteConfig:0000000000000008 .L0 
C:\Users\LOCALH~1\AppData\Local\Temp\cco469pz.s:1612   .text.FLASH_UserOptionByteConfig:0000000000000008 .L0 
C:\Users\LOCALH~1\AppData\Local\Temp\cco469pz.s:1615   .text.FLASH_UserOptionByteConfig:0000000000000008 .L0 
C:\Users\LOCALH~1\AppData\Local\Temp\cco469pz.s:1616   .text.FLASH_UserOptionByteConfig:0000000000000008 .L0 
C:\Users\LOCALH~1\AppData\Local\Temp\cco469pz.s:1617   .text.FLASH_UserOptionByteConfig:0000000000000008 .L0 
C:\Users\LOCALH~1\AppData\Local\Temp\cco469pz.s:1618   .text.FLASH_UserOptionByteConfig:0000000000000008 .L0 
C:\Users\LOCALH~1\AppData\Local\Temp\cco469pz.s:1619   .text.FLASH_UserOptionByteConfig:0000000000000008 .L0 
C:\Users\LOCALH~1\AppData\Local\Temp\cco469pz.s:1620   .text.FLASH_UserOptionByteConfig:0000000000000008 .L0 
C:\Users\LOCALH~1\AppData\Local\Temp\cco469pz.s:1625   .text.FLASH_UserOptionByteConfig:0000000000000016 .L0 
C:\Users\LOCALH~1\AppData\Local\Temp\cco469pz.s:1626   .text.FLASH_UserOptionByteConfig:0000000000000016 .L0 
C:\Users\LOCALH~1\AppData\Local\Temp\cco469pz.s:1630   .text.FLASH_UserOptionByteConfig:0000000000000020 .L0 
C:\Users\LOCALH~1\AppData\Local\Temp\cco469pz.s:1631   .text.FLASH_UserOptionByteConfig:0000000000000020 .L0 
C:\Users\LOCALH~1\AppData\Local\Temp\cco469pz.s:1632   .text.FLASH_UserOptionByteConfig:0000000000000022 .L0 
C:\Users\LOCALH~1\AppData\Local\Temp\cco469pz.s:1634   .text.FLASH_UserOptionByteConfig:0000000000000022 .L0 
C:\Users\LOCALH~1\AppData\Local\Temp\cco469pz.s:1636   .text.FLASH_UserOptionByteConfig:0000000000000024 .L0 
C:\Users\LOCALH~1\AppData\Local\Temp\cco469pz.s:1639   .text.FLASH_UserOptionByteConfig:0000000000000026 .L0 
C:\Users\LOCALH~1\AppData\Local\Temp\cco469pz.s:1642   .text.FLASH_UserOptionByteConfig:000000000000002a .L0 
C:\Users\LOCALH~1\AppData\Local\Temp\cco469pz.s:1645   .text.FLASH_UserOptionByteConfig:0000000000000032 .L0 
C:\Users\LOCALH~1\AppData\Local\Temp\cco469pz.s:1646   .text.FLASH_UserOptionByteConfig:0000000000000032 .L0 
C:\Users\LOCALH~1\AppData\Local\Temp\cco469pz.s:1649   .text.FLASH_UserOptionByteConfig:0000000000000038 .L0 
C:\Users\LOCALH~1\AppData\Local\Temp\cco469pz.s:1650   .text.FLASH_UserOptionByteConfig:0000000000000038 .L0 
C:\Users\LOCALH~1\AppData\Local\Temp\cco469pz.s:1652   .text.FLASH_UserOptionByteConfig:000000000000003c .L0 
C:\Users\LOCALH~1\AppData\Local\Temp\cco469pz.s:1654   .text.FLASH_UserOptionByteConfig:000000000000003e .L0 
C:\Users\LOCALH~1\AppData\Local\Temp\cco469pz.s:1657   .text.FLASH_UserOptionByteConfig:0000000000000042 .L0 
C:\Users\LOCALH~1\AppData\Local\Temp\cco469pz.s:1660   .text.FLASH_UserOptionByteConfig:0000000000000048 .L0 
C:\Users\LOCALH~1\AppData\Local\Temp\cco469pz.s:1661   .text.FLASH_UserOptionByteConfig:0000000000000048 .L0 
C:\Users\LOCALH~1\AppData\Local\Temp\cco469pz.s:1664   .text.FLASH_UserOptionByteConfig:000000000000004e .L0 
C:\Users\LOCALH~1\AppData\Local\Temp\cco469pz.s:1667   .text.FLASH_UserOptionByteConfig:0000000000000054 .L0 
C:\Users\LOCALH~1\AppData\Local\Temp\cco469pz.s:1668   .text.FLASH_UserOptionByteConfig:0000000000000054 .L0 
C:\Users\LOCALH~1\AppData\Local\Temp\cco469pz.s:1670   .text.FLASH_UserOptionByteConfig:0000000000000056 .L0 
C:\Users\LOCALH~1\AppData\Local\Temp\cco469pz.s:1673   .text.FLASH_UserOptionByteConfig:000000000000005c .L0 
C:\Users\LOCALH~1\AppData\Local\Temp\cco469pz.s:1674   .text.FLASH_UserOptionByteConfig:000000000000005c .L0 
C:\Users\LOCALH~1\AppData\Local\Temp\cco469pz.s:1677   .text.FLASH_UserOptionByteConfig:0000000000000060 .L0 
C:\Users\LOCALH~1\AppData\Local\Temp\cco469pz.s:1678   .text.FLASH_UserOptionByteConfig:0000000000000060 .L0 
C:\Users\LOCALH~1\AppData\Local\Temp\cco469pz.s:1680   .text.FLASH_UserOptionByteConfig:0000000000000062 .L0 
C:\Users\LOCALH~1\AppData\Local\Temp\cco469pz.s:1682   .text.FLASH_UserOptionByteConfig:0000000000000064 .L0 
C:\Users\LOCALH~1\AppData\Local\Temp\cco469pz.s:1684   .text.FLASH_UserOptionByteConfig:0000000000000066 .L0 
C:\Users\LOCALH~1\AppData\Local\Temp\cco469pz.s:1685   .text.FLASH_UserOptionByteConfig:0000000000000066 .L0 
C:\Users\LOCALH~1\AppData\Local\Temp\cco469pz.s:1688   .text.FLASH_UserOptionByteConfig:000000000000006c .L0 
C:\Users\LOCALH~1\AppData\Local\Temp\cco469pz.s:1691   .text.FLASH_UserOptionByteConfig:0000000000000072 .L0 
C:\Users\LOCALH~1\AppData\Local\Temp\cco469pz.s:1694   .text.FLASH_UserOptionByteConfig:0000000000000078 .L0 
C:\Users\LOCALH~1\AppData\Local\Temp\cco469pz.s:1695   .text.FLASH_UserOptionByteConfig:0000000000000078 .L0 
C:\Users\LOCALH~1\AppData\Local\Temp\cco469pz.s:1697   .text.FLASH_UserOptionByteConfig:000000000000007a .L0 
C:\Users\LOCALH~1\AppData\Local\Temp\cco469pz.s:1700   .text.FLASH_UserOptionByteConfig:0000000000000080 .L0 
C:\Users\LOCALH~1\AppData\Local\Temp\cco469pz.s:1701   .text.FLASH_UserOptionByteConfig:0000000000000080 .L0 
C:\Users\LOCALH~1\AppData\Local\Temp\cco469pz.s:1704   .text.FLASH_UserOptionByteConfig:0000000000000086 .L0 
C:\Users\LOCALH~1\AppData\Local\Temp\cco469pz.s:1705   .text.FLASH_UserOptionByteConfig:0000000000000086 .L0 
C:\Users\LOCALH~1\AppData\Local\Temp\cco469pz.s:1707   .text.FLASH_UserOptionByteConfig:000000000000008a .L0 
C:\Users\LOCALH~1\AppData\Local\Temp\cco469pz.s:1709   .text.FLASH_UserOptionByteConfig:000000000000008c .L0 
C:\Users\LOCALH~1\AppData\Local\Temp\cco469pz.s:1711   .text.FLASH_UserOptionByteConfig:0000000000000090 .L0 
C:\Users\LOCALH~1\AppData\Local\Temp\cco469pz.s:1714   .text.FLASH_UserOptionByteConfig:0000000000000094 .L0 
C:\Users\LOCALH~1\AppData\Local\Temp\cco469pz.s:1717   .text.FLASH_UserOptionByteConfig:000000000000009a .L0 
C:\Users\LOCALH~1\AppData\Local\Temp\cco469pz.s:1718   .text.FLASH_UserOptionByteConfig:000000000000009a .L0 
C:\Users\LOCALH~1\AppData\Local\Temp\cco469pz.s:1721   .text.FLASH_UserOptionByteConfig:00000000000000a0 .L0 
C:\Users\LOCALH~1\AppData\Local\Temp\cco469pz.s:1725   .text.FLASH_UserOptionByteConfig:00000000000000a4 .L0 
C:\Users\LOCALH~1\AppData\Local\Temp\cco469pz.s:1726   .text.FLASH_UserOptionByteConfig:00000000000000a4 .L0 
C:\Users\LOCALH~1\AppData\Local\Temp\cco469pz.s:1727   .text.FLASH_UserOptionByteConfig:00000000000000a6 .L0 
C:\Users\LOCALH~1\AppData\Local\Temp\cco469pz.s:1728   .text.FLASH_UserOptionByteConfig:00000000000000a6 .L0 
C:\Users\LOCALH~1\AppData\Local\Temp\cco469pz.s:1730   .text.FLASH_UserOptionByteConfig:00000000000000ae .L0 
C:\Users\LOCALH~1\AppData\Local\Temp\cco469pz.s:1731   .text.FLASH_UserOptionByteConfig:00000000000000ae .L0 
C:\Users\LOCALH~1\AppData\Local\Temp\cco469pz.s:1732   .text.FLASH_UserOptionByteConfig:00000000000000ae .L0 
C:\Users\LOCALH~1\AppData\Local\Temp\cco469pz.s:1733   .text.FLASH_UserOptionByteConfig:00000000000000ae .L0 
C:\Users\LOCALH~1\AppData\Local\Temp\cco469pz.s:1734   .text.FLASH_UserOptionByteConfig:00000000000000ae .L0 
C:\Users\LOCALH~1\AppData\Local\Temp\cco469pz.s:1736   .text.FLASH_UserOptionByteConfig:00000000000000ae .L0 
C:\Users\LOCALH~1\AppData\Local\Temp\cco469pz.s:1738   .text.FLASH_UserOptionByteConfig:00000000000000ae .L0 
C:\Users\LOCALH~1\AppData\Local\Temp\cco469pz.s:1739   .text.FLASH_UserOptionByteConfig:00000000000000ae .L0 
C:\Users\LOCALH~1\AppData\Local\Temp\cco469pz.s:1741   .text.FLASH_UserOptionByteConfig:00000000000000b0 .L0 
C:\Users\LOCALH~1\AppData\Local\Temp\cco469pz.s:1743   .text.FLASH_UserOptionByteConfig:00000000000000b2 .L0 
C:\Users\LOCALH~1\AppData\Local\Temp\cco469pz.s:1746   .text.FLASH_UserOptionByteConfig:00000000000000b6 .L0 
C:\Users\LOCALH~1\AppData\Local\Temp\cco469pz.s:1752   .text.FLASH_UserOptionByteConfig:00000000000000c6 .L0 
C:\Users\LOCALH~1\AppData\Local\Temp\cco469pz.s:1759   .text.FLASH_UserOptionByteConfig:00000000000000d2 .L0 
C:\Users\LOCALH~1\AppData\Local\Temp\cco469pz.s:1760   .text.FLASH_UserOptionByteConfig:00000000000000d2 .L0 
C:\Users\LOCALH~1\AppData\Local\Temp\cco469pz.s:1762   .text.FLASH_UserOptionByteConfig:00000000000000d4 .L0 
C:\Users\LOCALH~1\AppData\Local\Temp\cco469pz.s:1764   .text.FLASH_UserOptionByteConfig:00000000000000d6 .L0 
C:\Users\LOCALH~1\AppData\Local\Temp\cco469pz.s:1768   .text.FLASH_UserOptionByteConfig:00000000000000de .L0 
C:\Users\LOCALH~1\AppData\Local\Temp\cco469pz.s:1774   .text.FLASH_UserOptionByteConfig:00000000000000ea .L0 
C:\Users\LOCALH~1\AppData\Local\Temp\cco469pz.s:1775   .text.FLASH_UserOptionByteConfig:00000000000000ea .L0 
C:\Users\LOCALH~1\AppData\Local\Temp\cco469pz.s:1776   .text.FLASH_UserOptionByteConfig:00000000000000ea .L0 
C:\Users\LOCALH~1\AppData\Local\Temp\cco469pz.s:1778   .text.FLASH_UserOptionByteConfig:00000000000000ec .L0 
C:\Users\LOCALH~1\AppData\Local\Temp\cco469pz.s:1780   .text.FLASH_UserOptionByteConfig:00000000000000ee .L0 
C:\Users\LOCALH~1\AppData\Local\Temp\cco469pz.s:1782   .text.FLASH_UserOptionByteConfig:00000000000000f0 .L0 
C:\Users\LOCALH~1\AppData\Local\Temp\cco469pz.s:1787   .text.FLASH_UserOptionByteConfig:00000000000000fc .L0 
C:\Users\LOCALH~1\AppData\Local\Temp\cco469pz.s:1794   .text.FLASH_WaitForLastBank1Operation:0000000000000000 FLASH_WaitForLastBank1Operation
C:\Users\LOCALH~1\AppData\Local\Temp\cco469pz.s:1796   .text.FLASH_WaitForLastBank1Operation:0000000000000000 .L0 
C:\Users\LOCALH~1\AppData\Local\Temp\cco469pz.s:1798   .text.FLASH_WaitForLastBank1Operation:0000000000000000 $x
C:\Users\LOCALH~1\AppData\Local\Temp\cco469pz.s:1798   .text.FLASH_WaitForLastBank1Operation:0000000000000000 .L0 
C:\Users\LOCALH~1\AppData\Local\Temp\cco469pz.s:1799   .text.FLASH_WaitForLastBank1Operation:0000000000000008 .L0 
C:\Users\LOCALH~1\AppData\Local\Temp\cco469pz.s:1806   .text.FLASH_Unlock_Fast:0000000000000000 FLASH_Unlock_Fast
C:\Users\LOCALH~1\AppData\Local\Temp\cco469pz.s:1809   .text.FLASH_Unlock_Fast:0000000000000000 .L0 
C:\Users\LOCALH~1\AppData\Local\Temp\cco469pz.s:1810   .text.FLASH_Unlock_Fast:0000000000000000 .L0 
C:\Users\LOCALH~1\AppData\Local\Temp\cco469pz.s:1811   .text.FLASH_Unlock_Fast:0000000000000000 .L0 
C:\Users\LOCALH~1\AppData\Local\Temp\cco469pz.s:1812   .text.FLASH_Unlock_Fast:0000000000000000 $x
C:\Users\LOCALH~1\AppData\Local\Temp\cco469pz.s:1812   .text.FLASH_Unlock_Fast:0000000000000000 .L0 
C:\Users\LOCALH~1\AppData\Local\Temp\cco469pz.s:1816   .text.FLASH_Unlock_Fast:000000000000000c .L0 
C:\Users\LOCALH~1\AppData\Local\Temp\cco469pz.s:1818   .text.FLASH_Unlock_Fast:0000000000000010 .L0 
C:\Users\LOCALH~1\AppData\Local\Temp\cco469pz.s:1820   .text.FLASH_Unlock_Fast:0000000000000012 .L0 
C:\Users\LOCALH~1\AppData\Local\Temp\cco469pz.s:1821   .text.FLASH_Unlock_Fast:0000000000000012 .L0 
C:\Users\LOCALH~1\AppData\Local\Temp\cco469pz.s:1824   .text.FLASH_Unlock_Fast:0000000000000018 .L0 
C:\Users\LOCALH~1\AppData\Local\Temp\cco469pz.s:1825   .text.FLASH_Unlock_Fast:0000000000000018 .L0 
C:\Users\LOCALH~1\AppData\Local\Temp\cco469pz.s:1827   .text.FLASH_Unlock_Fast:000000000000001a .L0 
C:\Users\LOCALH~1\AppData\Local\Temp\cco469pz.s:1828   .text.FLASH_Unlock_Fast:000000000000001a .L0 
C:\Users\LOCALH~1\AppData\Local\Temp\cco469pz.s:1830   .text.FLASH_Unlock_Fast:000000000000001c .L0 
C:\Users\LOCALH~1\AppData\Local\Temp\cco469pz.s:1831   .text.FLASH_Unlock_Fast:000000000000001e .L0 
C:\Users\LOCALH~1\AppData\Local\Temp\cco469pz.s:1838   .text.FLASH_Lock_Fast:0000000000000000 FLASH_Lock_Fast
C:\Users\LOCALH~1\AppData\Local\Temp\cco469pz.s:1841   .text.FLASH_Lock_Fast:0000000000000000 .L0 
C:\Users\LOCALH~1\AppData\Local\Temp\cco469pz.s:1842   .text.FLASH_Lock_Fast:0000000000000000 .L0 
C:\Users\LOCALH~1\AppData\Local\Temp\cco469pz.s:1843   .text.FLASH_Lock_Fast:0000000000000000 .L0 
C:\Users\LOCALH~1\AppData\Local\Temp\cco469pz.s:1844   .text.FLASH_Lock_Fast:0000000000000000 $x
C:\Users\LOCALH~1\AppData\Local\Temp\cco469pz.s:1844   .text.FLASH_Lock_Fast:0000000000000000 .L0 
C:\Users\LOCALH~1\AppData\Local\Temp\cco469pz.s:1847   .text.FLASH_Lock_Fast:0000000000000006 .L0 
C:\Users\LOCALH~1\AppData\Local\Temp\cco469pz.s:1851   .text.FLASH_Lock_Fast:000000000000000c .L0 
C:\Users\LOCALH~1\AppData\Local\Temp\cco469pz.s:1852   .text.FLASH_Lock_Fast:000000000000000e .L0 
C:\Users\LOCALH~1\AppData\Local\Temp\cco469pz.s:1859   .text.FLASH_ErasePage_Fast:0000000000000000 FLASH_ErasePage_Fast
C:\Users\LOCALH~1\AppData\Local\Temp\cco469pz.s:1862   .text.FLASH_ErasePage_Fast:0000000000000000 .L0 
C:\Users\LOCALH~1\AppData\Local\Temp\cco469pz.s:1864   .text.FLASH_ErasePage_Fast:0000000000000000 .L0 
C:\Users\LOCALH~1\AppData\Local\Temp\cco469pz.s:1865   .text.FLASH_ErasePage_Fast:0000000000000000 .L0 
C:\Users\LOCALH~1\AppData\Local\Temp\cco469pz.s:1866   .text.FLASH_ErasePage_Fast:0000000000000000 $x
C:\Users\LOCALH~1\AppData\Local\Temp\cco469pz.s:1866   .text.FLASH_ErasePage_Fast:0000000000000000 .L0 
C:\Users\LOCALH~1\AppData\Local\Temp\cco469pz.s:1869   .text.FLASH_ErasePage_Fast:0000000000000006 .L0 
C:\Users\LOCALH~1\AppData\Local\Temp\cco469pz.s:1871   .text.FLASH_ErasePage_Fast:000000000000000a .L0 
C:\Users\LOCALH~1\AppData\Local\Temp\cco469pz.s:1874   .text.FLASH_ErasePage_Fast:000000000000000e .L0 
C:\Users\LOCALH~1\AppData\Local\Temp\cco469pz.s:1875   .text.FLASH_ErasePage_Fast:000000000000000e .L0 
C:\Users\LOCALH~1\AppData\Local\Temp\cco469pz.s:1878   .text.FLASH_ErasePage_Fast:0000000000000012 .L0 
C:\Users\LOCALH~1\AppData\Local\Temp\cco469pz.s:1879   .text.FLASH_ErasePage_Fast:0000000000000012 .L0 
C:\Users\LOCALH~1\AppData\Local\Temp\cco469pz.s:1881   .text.FLASH_ErasePage_Fast:0000000000000014 .L0 
C:\Users\LOCALH~1\AppData\Local\Temp\cco469pz.s:1882   .text.FLASH_ErasePage_Fast:0000000000000014 .L0 
C:\Users\LOCALH~1\AppData\Local\Temp\cco469pz.s:1884   .text.FLASH_ErasePage_Fast:0000000000000016 .L0 
C:\Users\LOCALH~1\AppData\Local\Temp\cco469pz.s:1888   .text.FLASH_ErasePage_Fast:000000000000001c .L0 
C:\Users\LOCALH~1\AppData\Local\Temp\cco469pz.s:1889   .text.FLASH_ErasePage_Fast:000000000000001c .L0 
C:\Users\LOCALH~1\AppData\Local\Temp\cco469pz.s:1890   .text.FLASH_ErasePage_Fast:000000000000001c .L0 
C:\Users\LOCALH~1\AppData\Local\Temp\cco469pz.s:1892   .text.FLASH_ErasePage_Fast:000000000000001e .L0 
C:\Users\LOCALH~1\AppData\Local\Temp\cco469pz.s:1894   .text.FLASH_ErasePage_Fast:0000000000000020 .L0 
C:\Users\LOCALH~1\AppData\Local\Temp\cco469pz.s:1896   .text.FLASH_ErasePage_Fast:0000000000000022 .L0 
C:\Users\LOCALH~1\AppData\Local\Temp\cco469pz.s:1897   .text.FLASH_ErasePage_Fast:0000000000000022 .L0 
C:\Users\LOCALH~1\AppData\Local\Temp\cco469pz.s:1899   .text.FLASH_ErasePage_Fast:0000000000000024 .L0 
C:\Users\LOCALH~1\AppData\Local\Temp\cco469pz.s:1904   .text.FLASH_ErasePage_Fast:000000000000002c .L0 
C:\Users\LOCALH~1\AppData\Local\Temp\cco469pz.s:1905   .text.FLASH_ErasePage_Fast:000000000000002e .L0 
C:\Users\LOCALH~1\AppData\Local\Temp\cco469pz.s:1912   .text.FLASH_EraseBlock_32K_Fast:0000000000000000 FLASH_EraseBlock_32K_Fast
C:\Users\LOCALH~1\AppData\Local\Temp\cco469pz.s:1915   .text.FLASH_EraseBlock_32K_Fast:0000000000000000 .L0 
C:\Users\LOCALH~1\AppData\Local\Temp\cco469pz.s:1917   .text.FLASH_EraseBlock_32K_Fast:0000000000000000 .L0 
C:\Users\LOCALH~1\AppData\Local\Temp\cco469pz.s:1918   .text.FLASH_EraseBlock_32K_Fast:0000000000000000 .L0 
C:\Users\LOCALH~1\AppData\Local\Temp\cco469pz.s:1919   .text.FLASH_EraseBlock_32K_Fast:0000000000000000 $x
C:\Users\LOCALH~1\AppData\Local\Temp\cco469pz.s:1919   .text.FLASH_EraseBlock_32K_Fast:0000000000000000 .L0 
C:\Users\LOCALH~1\AppData\Local\Temp\cco469pz.s:1923   .text.FLASH_EraseBlock_32K_Fast:0000000000000004 .L0 
C:\Users\LOCALH~1\AppData\Local\Temp\cco469pz.s:1924   .text.FLASH_EraseBlock_32K_Fast:0000000000000004 .L0 
C:\Users\LOCALH~1\AppData\Local\Temp\cco469pz.s:1927   .text.FLASH_EraseBlock_32K_Fast:000000000000000a .L0 
C:\Users\LOCALH~1\AppData\Local\Temp\cco469pz.s:1931   .text.FLASH_EraseBlock_32K_Fast:0000000000000012 .L0 
C:\Users\LOCALH~1\AppData\Local\Temp\cco469pz.s:1932   .text.FLASH_EraseBlock_32K_Fast:0000000000000012 .L0 
C:\Users\LOCALH~1\AppData\Local\Temp\cco469pz.s:1934   .text.FLASH_EraseBlock_32K_Fast:0000000000000014 .L0 
C:\Users\LOCALH~1\AppData\Local\Temp\cco469pz.s:1935   .text.FLASH_EraseBlock_32K_Fast:0000000000000014 .L0 
C:\Users\LOCALH~1\AppData\Local\Temp\cco469pz.s:1937   .text.FLASH_EraseBlock_32K_Fast:0000000000000016 .L0 
C:\Users\LOCALH~1\AppData\Local\Temp\cco469pz.s:1941   .text.FLASH_EraseBlock_32K_Fast:000000000000001c .L0 
C:\Users\LOCALH~1\AppData\Local\Temp\cco469pz.s:1942   .text.FLASH_EraseBlock_32K_Fast:000000000000001c .L0 
C:\Users\LOCALH~1\AppData\Local\Temp\cco469pz.s:1943   .text.FLASH_EraseBlock_32K_Fast:000000000000001c .L0 
C:\Users\LOCALH~1\AppData\Local\Temp\cco469pz.s:1945   .text.FLASH_EraseBlock_32K_Fast:000000000000001e .L0 
C:\Users\LOCALH~1\AppData\Local\Temp\cco469pz.s:1947   .text.FLASH_EraseBlock_32K_Fast:0000000000000020 .L0 
C:\Users\LOCALH~1\AppData\Local\Temp\cco469pz.s:1949   .text.FLASH_EraseBlock_32K_Fast:0000000000000022 .L0 
C:\Users\LOCALH~1\AppData\Local\Temp\cco469pz.s:1950   .text.FLASH_EraseBlock_32K_Fast:0000000000000022 .L0 
C:\Users\LOCALH~1\AppData\Local\Temp\cco469pz.s:1952   .text.FLASH_EraseBlock_32K_Fast:0000000000000024 .L0 
C:\Users\LOCALH~1\AppData\Local\Temp\cco469pz.s:1957   .text.FLASH_EraseBlock_32K_Fast:000000000000002e .L0 
C:\Users\LOCALH~1\AppData\Local\Temp\cco469pz.s:1958   .text.FLASH_EraseBlock_32K_Fast:0000000000000030 .L0 
C:\Users\LOCALH~1\AppData\Local\Temp\cco469pz.s:1965   .text.FLASH_EraseBlock_64K_Fast:0000000000000000 FLASH_EraseBlock_64K_Fast
C:\Users\LOCALH~1\AppData\Local\Temp\cco469pz.s:1968   .text.FLASH_EraseBlock_64K_Fast:0000000000000000 .L0 
C:\Users\LOCALH~1\AppData\Local\Temp\cco469pz.s:1970   .text.FLASH_EraseBlock_64K_Fast:0000000000000000 .L0 
C:\Users\LOCALH~1\AppData\Local\Temp\cco469pz.s:1971   .text.FLASH_EraseBlock_64K_Fast:0000000000000000 .L0 
C:\Users\LOCALH~1\AppData\Local\Temp\cco469pz.s:1972   .text.FLASH_EraseBlock_64K_Fast:0000000000000000 $x
C:\Users\LOCALH~1\AppData\Local\Temp\cco469pz.s:1972   .text.FLASH_EraseBlock_64K_Fast:0000000000000000 .L0 
C:\Users\LOCALH~1\AppData\Local\Temp\cco469pz.s:1976   .text.FLASH_EraseBlock_64K_Fast:0000000000000004 .L0 
C:\Users\LOCALH~1\AppData\Local\Temp\cco469pz.s:1977   .text.FLASH_EraseBlock_64K_Fast:0000000000000004 .L0 
C:\Users\LOCALH~1\AppData\Local\Temp\cco469pz.s:1980   .text.FLASH_EraseBlock_64K_Fast:000000000000000a .L0 
C:\Users\LOCALH~1\AppData\Local\Temp\cco469pz.s:1984   .text.FLASH_EraseBlock_64K_Fast:0000000000000012 .L0 
C:\Users\LOCALH~1\AppData\Local\Temp\cco469pz.s:1985   .text.FLASH_EraseBlock_64K_Fast:0000000000000012 .L0 
C:\Users\LOCALH~1\AppData\Local\Temp\cco469pz.s:1987   .text.FLASH_EraseBlock_64K_Fast:0000000000000014 .L0 
C:\Users\LOCALH~1\AppData\Local\Temp\cco469pz.s:1988   .text.FLASH_EraseBlock_64K_Fast:0000000000000014 .L0 
C:\Users\LOCALH~1\AppData\Local\Temp\cco469pz.s:1990   .text.FLASH_EraseBlock_64K_Fast:0000000000000016 .L0 
C:\Users\LOCALH~1\AppData\Local\Temp\cco469pz.s:1994   .text.FLASH_EraseBlock_64K_Fast:000000000000001c .L0 
C:\Users\LOCALH~1\AppData\Local\Temp\cco469pz.s:1995   .text.FLASH_EraseBlock_64K_Fast:000000000000001c .L0 
C:\Users\LOCALH~1\AppData\Local\Temp\cco469pz.s:1996   .text.FLASH_EraseBlock_64K_Fast:000000000000001c .L0 
C:\Users\LOCALH~1\AppData\Local\Temp\cco469pz.s:1998   .text.FLASH_EraseBlock_64K_Fast:000000000000001e .L0 
C:\Users\LOCALH~1\AppData\Local\Temp\cco469pz.s:2000   .text.FLASH_EraseBlock_64K_Fast:0000000000000020 .L0 
C:\Users\LOCALH~1\AppData\Local\Temp\cco469pz.s:2002   .text.FLASH_EraseBlock_64K_Fast:0000000000000022 .L0 
C:\Users\LOCALH~1\AppData\Local\Temp\cco469pz.s:2003   .text.FLASH_EraseBlock_64K_Fast:0000000000000022 .L0 
C:\Users\LOCALH~1\AppData\Local\Temp\cco469pz.s:2005   .text.FLASH_EraseBlock_64K_Fast:0000000000000024 .L0 
C:\Users\LOCALH~1\AppData\Local\Temp\cco469pz.s:2010   .text.FLASH_EraseBlock_64K_Fast:000000000000002e .L0 
C:\Users\LOCALH~1\AppData\Local\Temp\cco469pz.s:2011   .text.FLASH_EraseBlock_64K_Fast:0000000000000030 .L0 
C:\Users\LOCALH~1\AppData\Local\Temp\cco469pz.s:2018   .text.FLASH_ProgramPage_Fast:0000000000000000 FLASH_ProgramPage_Fast
C:\Users\LOCALH~1\AppData\Local\Temp\cco469pz.s:2021   .text.FLASH_ProgramPage_Fast:0000000000000000 .L0 
C:\Users\LOCALH~1\AppData\Local\Temp\cco469pz.s:2023   .text.FLASH_ProgramPage_Fast:0000000000000000 .L0 
C:\Users\LOCALH~1\AppData\Local\Temp\cco469pz.s:2024   .text.FLASH_ProgramPage_Fast:0000000000000000 .L0 
C:\Users\LOCALH~1\AppData\Local\Temp\cco469pz.s:2025   .text.FLASH_ProgramPage_Fast:0000000000000000 .L0 
C:\Users\LOCALH~1\AppData\Local\Temp\cco469pz.s:2026   .text.FLASH_ProgramPage_Fast:0000000000000000 $x
C:\Users\LOCALH~1\AppData\Local\Temp\cco469pz.s:2026   .text.FLASH_ProgramPage_Fast:0000000000000000 .L0 
C:\Users\LOCALH~1\AppData\Local\Temp\cco469pz.s:2029   .text.FLASH_ProgramPage_Fast:0000000000000006 .L0 
C:\Users\LOCALH~1\AppData\Local\Temp\cco469pz.s:2031   .text.FLASH_ProgramPage_Fast:0000000000000008 .L0 
C:\Users\LOCALH~1\AppData\Local\Temp\cco469pz.s:2034   .text.FLASH_ProgramPage_Fast:000000000000000c .L0 
C:\Users\LOCALH~1\AppData\Local\Temp\cco469pz.s:2035   .text.FLASH_ProgramPage_Fast:000000000000000c .L0 
C:\Users\LOCALH~1\AppData\Local\Temp\cco469pz.s:2039   .text.FLASH_ProgramPage_Fast:0000000000000010 .L0 
C:\Users\LOCALH~1\AppData\Local\Temp\cco469pz.s:2040   .text.FLASH_ProgramPage_Fast:0000000000000010 .L0 
C:\Users\LOCALH~1\AppData\Local\Temp\cco469pz.s:2041   .text.FLASH_ProgramPage_Fast:0000000000000010 .L0 
C:\Users\LOCALH~1\AppData\Local\Temp\cco469pz.s:2043   .text.FLASH_ProgramPage_Fast:0000000000000012 .L0 
C:\Users\LOCALH~1\AppData\Local\Temp\cco469pz.s:2045   .text.FLASH_ProgramPage_Fast:0000000000000014 .L0 
C:\Users\LOCALH~1\AppData\Local\Temp\cco469pz.s:2047   .text.FLASH_ProgramPage_Fast:0000000000000016 .L0 
C:\Users\LOCALH~1\AppData\Local\Temp\cco469pz.s:2050   .text.FLASH_ProgramPage_Fast:000000000000001a .L0 
C:\Users\LOCALH~1\AppData\Local\Temp\cco469pz.s:2051   .text.FLASH_ProgramPage_Fast:000000000000001a .L0 
C:\Users\LOCALH~1\AppData\Local\Temp\cco469pz.s:2053   .text.FLASH_ProgramPage_Fast:000000000000001c .L0 
C:\Users\LOCALH~1\AppData\Local\Temp\cco469pz.s:2055   .text.FLASH_ProgramPage_Fast:000000000000001e .L0 
C:\Users\LOCALH~1\AppData\Local\Temp\cco469pz.s:2057   .text.FLASH_ProgramPage_Fast:0000000000000020 .L0 
C:\Users\LOCALH~1\AppData\Local\Temp\cco469pz.s:2059   .text.FLASH_ProgramPage_Fast:0000000000000024 .L0 
C:\Users\LOCALH~1\AppData\Local\Temp\cco469pz.s:2063   .text.FLASH_ProgramPage_Fast:0000000000000028 .L0 
C:\Users\LOCALH~1\AppData\Local\Temp\cco469pz.s:2064   .text.FLASH_ProgramPage_Fast:0000000000000028 .L0 
C:\Users\LOCALH~1\AppData\Local\Temp\cco469pz.s:2068   .text.FLASH_ProgramPage_Fast:0000000000000030 .L0 
C:\Users\LOCALH~1\AppData\Local\Temp\cco469pz.s:2073   .text.FLASH_ProgramPage_Fast:0000000000000038 .L0 
C:\Users\LOCALH~1\AppData\Local\Temp\cco469pz.s:2074   .text.FLASH_ProgramPage_Fast:0000000000000038 .L0 
C:\Users\LOCALH~1\AppData\Local\Temp\cco469pz.s:2075   .text.FLASH_ProgramPage_Fast:0000000000000038 .L0 
C:\Users\LOCALH~1\AppData\Local\Temp\cco469pz.s:2077   .text.FLASH_ProgramPage_Fast:0000000000000038 .L0 
C:\Users\LOCALH~1\AppData\Local\Temp\cco469pz.s:2078   .text.FLASH_ProgramPage_Fast:0000000000000038 .L0 
C:\Users\LOCALH~1\AppData\Local\Temp\cco469pz.s:2079   .text.FLASH_ProgramPage_Fast:0000000000000038 .L0 
C:\Users\LOCALH~1\AppData\Local\Temp\cco469pz.s:2081   .text.FLASH_ProgramPage_Fast:000000000000003a .L0 
C:\Users\LOCALH~1\AppData\Local\Temp\cco469pz.s:2083   .text.FLASH_ProgramPage_Fast:000000000000003c .L0 
C:\Users\LOCALH~1\AppData\Local\Temp\cco469pz.s:2085   .text.FLASH_ProgramPage_Fast:000000000000003e .L0 
C:\Users\LOCALH~1\AppData\Local\Temp\cco469pz.s:2089   .text.FLASH_ProgramPage_Fast:0000000000000044 .L0 
C:\Users\LOCALH~1\AppData\Local\Temp\cco469pz.s:2090   .text.FLASH_ProgramPage_Fast:0000000000000044 .L0 
C:\Users\LOCALH~1\AppData\Local\Temp\cco469pz.s:2093   .text.FLASH_ProgramPage_Fast:0000000000000046 .L0 
C:\Users\LOCALH~1\AppData\Local\Temp\cco469pz.s:2097   .text.FLASH_ProgramPage_Fast:000000000000004e .L0 
C:\Users\LOCALH~1\AppData\Local\Temp\cco469pz.s:2098   .text.FLASH_ProgramPage_Fast:000000000000004e .L0 
C:\Users\LOCALH~1\AppData\Local\Temp\cco469pz.s:2101   .text.FLASH_ProgramPage_Fast:0000000000000052 .L0 
C:\Users\LOCALH~1\AppData\Local\Temp\cco469pz.s:2102   .text.FLASH_ProgramPage_Fast:0000000000000052 .L0 
C:\Users\LOCALH~1\AppData\Local\Temp\cco469pz.s:2104   .text.FLASH_ProgramPage_Fast:0000000000000054 .L0 
C:\Users\LOCALH~1\AppData\Local\Temp\cco469pz.s:2106   .text.FLASH_ProgramPage_Fast:0000000000000056 .L0 
C:\Users\LOCALH~1\AppData\Local\Temp\cco469pz.s:2108   .text.FLASH_ProgramPage_Fast:0000000000000058 .L0 
C:\Users\LOCALH~1\AppData\Local\Temp\cco469pz.s:2109   .text.FLASH_ProgramPage_Fast:0000000000000058 .L0 
C:\Users\LOCALH~1\AppData\Local\Temp\cco469pz.s:2111   .text.FLASH_ProgramPage_Fast:000000000000005a .L0 
C:\Users\LOCALH~1\AppData\Local\Temp\cco469pz.s:2116   .text.FLASH_ProgramPage_Fast:0000000000000062 .L0 
C:\Users\LOCALH~1\AppData\Local\Temp\cco469pz.s:2117   .text.FLASH_ProgramPage_Fast:0000000000000064 .L0 
C:\Users\LOCALH~1\AppData\Local\Temp\cco469pz.s:2124   .text.FLASH_Access_Clock_Cfg:0000000000000000 FLASH_Access_Clock_Cfg
C:\Users\LOCALH~1\AppData\Local\Temp\cco469pz.s:2127   .text.FLASH_Access_Clock_Cfg:0000000000000000 .L0 
C:\Users\LOCALH~1\AppData\Local\Temp\cco469pz.s:2129   .text.FLASH_Access_Clock_Cfg:0000000000000000 .L0 
C:\Users\LOCALH~1\AppData\Local\Temp\cco469pz.s:2130   .text.FLASH_Access_Clock_Cfg:0000000000000000 .L0 
C:\Users\LOCALH~1\AppData\Local\Temp\cco469pz.s:2131   .text.FLASH_Access_Clock_Cfg:0000000000000000 $x
C:\Users\LOCALH~1\AppData\Local\Temp\cco469pz.s:2131   .text.FLASH_Access_Clock_Cfg:0000000000000000 .L0 
C:\Users\LOCALH~1\AppData\Local\Temp\cco469pz.s:2134   .text.FLASH_Access_Clock_Cfg:0000000000000006 .L0 
C:\Users\LOCALH~1\AppData\Local\Temp\cco469pz.s:2139   .text.FLASH_Access_Clock_Cfg:0000000000000010 .L0 
C:\Users\LOCALH~1\AppData\Local\Temp\cco469pz.s:2140   .text.FLASH_Access_Clock_Cfg:0000000000000010 .L0 
C:\Users\LOCALH~1\AppData\Local\Temp\cco469pz.s:2142   .text.FLASH_Access_Clock_Cfg:0000000000000012 .L0 
C:\Users\LOCALH~1\AppData\Local\Temp\cco469pz.s:2145   .text.FLASH_Access_Clock_Cfg:0000000000000016 .L0 
C:\Users\LOCALH~1\AppData\Local\Temp\cco469pz.s:2146   .text.FLASH_Access_Clock_Cfg:0000000000000018 .L0 
C:\Users\LOCALH~1\AppData\Local\Temp\cco469pz.s:2153   .text.FLASH_Enhance_Mode:0000000000000000 FLASH_Enhance_Mode
C:\Users\LOCALH~1\AppData\Local\Temp\cco469pz.s:2156   .text.FLASH_Enhance_Mode:0000000000000000 .L0 
C:\Users\LOCALH~1\AppData\Local\Temp\cco469pz.s:2158   .text.FLASH_Enhance_Mode:0000000000000000 .L0 
C:\Users\LOCALH~1\AppData\Local\Temp\cco469pz.s:2159   .text.FLASH_Enhance_Mode:0000000000000000 .L0 
C:\Users\LOCALH~1\AppData\Local\Temp\cco469pz.s:2160   .text.FLASH_Enhance_Mode:0000000000000000 $x
C:\Users\LOCALH~1\AppData\Local\Temp\cco469pz.s:2160   .text.FLASH_Enhance_Mode:0000000000000000 .L0 
C:\Users\LOCALH~1\AppData\Local\Temp\cco469pz.s:2162   .text.FLASH_Enhance_Mode:0000000000000002 .L0 
C:\Users\LOCALH~1\AppData\Local\Temp\cco469pz.s:2163   .text.FLASH_Enhance_Mode:0000000000000002 .L0 
C:\Users\LOCALH~1\AppData\Local\Temp\cco469pz.s:2166   .text.FLASH_Enhance_Mode:0000000000000008 .L0 
C:\Users\LOCALH~1\AppData\Local\Temp\cco469pz.s:2172   .text.FLASH_Enhance_Mode:0000000000000012 .L0 
C:\Users\LOCALH~1\AppData\Local\Temp\cco469pz.s:2173   .text.FLASH_Enhance_Mode:0000000000000012 .L0 
C:\Users\LOCALH~1\AppData\Local\Temp\cco469pz.s:2176   .text.FLASH_Enhance_Mode:0000000000000018 .L0 
C:\Users\LOCALH~1\AppData\Local\Temp\cco469pz.s:2181   .text.FLASH_Enhance_Mode:0000000000000022 .L0 
C:\Users\LOCALH~1\AppData\Local\Temp\cco469pz.s:2182   .text.FLASH_Enhance_Mode:0000000000000022 .L0 
C:\Users\LOCALH~1\AppData\Local\Temp\cco469pz.s:2184   .text.FLASH_Enhance_Mode:0000000000000024 .L0 
C:\Users\LOCALH~1\AppData\Local\Temp\cco469pz.s:2188   .text.FLASH_Enhance_Mode:000000000000002c .L0 
C:\Users\LOCALH~1\AppData\Local\Temp\cco469pz.s:2189   .text.FLASH_Enhance_Mode:000000000000002e .L0 
C:\Users\LOCALH~1\AppData\Local\Temp\cco469pz.s:2196   .text.FLASH_ROM_ERASE:0000000000000000 FLASH_ROM_ERASE
C:\Users\LOCALH~1\AppData\Local\Temp\cco469pz.s:2199   .text.FLASH_ROM_ERASE:0000000000000000 .L0 
C:\Users\LOCALH~1\AppData\Local\Temp\cco469pz.s:2201   .text.FLASH_ROM_ERASE:0000000000000000 .L0 
C:\Users\LOCALH~1\AppData\Local\Temp\cco469pz.s:2202   .text.FLASH_ROM_ERASE:0000000000000000 .L0 
C:\Users\LOCALH~1\AppData\Local\Temp\cco469pz.s:2203   .text.FLASH_ROM_ERASE:0000000000000000 .L0 
C:\Users\LOCALH~1\AppData\Local\Temp\cco469pz.s:2204   .text.FLASH_ROM_ERASE:0000000000000000 .L0 
C:\Users\LOCALH~1\AppData\Local\Temp\cco469pz.s:2205   .text.FLASH_ROM_ERASE:0000000000000000 $x
C:\Users\LOCALH~1\AppData\Local\Temp\cco469pz.s:2205   .text.FLASH_ROM_ERASE:0000000000000000 .L0 
C:\Users\LOCALH~1\AppData\Local\Temp\cco469pz.s:2208   .text.FLASH_ROM_ERASE:0000000000000006 .L0 
C:\Users\LOCALH~1\AppData\Local\Temp\cco469pz.s:2211   .text.FLASH_ROM_ERASE:000000000000000e .L0 
C:\Users\LOCALH~1\AppData\Local\Temp\cco469pz.s:2212   .text.FLASH_ROM_ERASE:0000000000000016 .L0 
C:\Users\LOCALH~1\AppData\Local\Temp\cco469pz.s:2213   .text.FLASH_ROM_ERASE:0000000000000016 .L0 
C:\Users\LOCALH~1\AppData\Local\Temp\cco469pz.s:2214   .text.FLASH_ROM_ERASE:0000000000000016 .L0 
C:\Users\LOCALH~1\AppData\Local\Temp\cco469pz.s:2215   .text.FLASH_ROM_ERASE:0000000000000016 .L0 
C:\Users\LOCALH~1\AppData\Local\Temp\cco469pz.s:2216   .text.FLASH_ROM_ERASE:0000000000000016 .L0 
C:\Users\LOCALH~1\AppData\Local\Temp\cco469pz.s:2217   .text.FLASH_ROM_ERASE:0000000000000016 .L0 
C:\Users\LOCALH~1\AppData\Local\Temp\cco469pz.s:2218   .text.FLASH_ROM_ERASE:0000000000000016 .L0 
C:\Users\LOCALH~1\AppData\Local\Temp\cco469pz.s:2219   .text.FLASH_ROM_ERASE:0000000000000016 .L0 
C:\Users\LOCALH~1\AppData\Local\Temp\cco469pz.s:2220   .text.FLASH_ROM_ERASE:0000000000000016 .L0 
C:\Users\LOCALH~1\AppData\Local\Temp\cco469pz.s:2222   .text.FLASH_ROM_ERASE:0000000000000016 .L0 
C:\Users\LOCALH~1\AppData\Local\Temp\cco469pz.s:2224   .text.FLASH_ROM_ERASE:000000000000001a .L0 
C:\Users\LOCALH~1\AppData\Local\Temp\cco469pz.s:2227   .text.FLASH_ROM_ERASE:0000000000000020 .L0 
C:\Users\LOCALH~1\AppData\Local\Temp\cco469pz.s:2228   .text.FLASH_ROM_ERASE:0000000000000020 .L0 
C:\Users\LOCALH~1\AppData\Local\Temp\cco469pz.s:2230   .text.FLASH_ROM_ERASE:0000000000000024 .L0 
C:\Users\LOCALH~1\AppData\Local\Temp\cco469pz.s:2232   .text.FLASH_ROM_ERASE:0000000000000028 .L0 
C:\Users\LOCALH~1\AppData\Local\Temp\cco469pz.s:2235   .text.FLASH_ROM_ERASE:0000000000000030 .L0 
C:\Users\LOCALH~1\AppData\Local\Temp\cco469pz.s:2237   .text.FLASH_ROM_ERASE:0000000000000034 .L0 
C:\Users\LOCALH~1\AppData\Local\Temp\cco469pz.s:2239   .text.FLASH_ROM_ERASE:0000000000000038 .L0 
C:\Users\LOCALH~1\AppData\Local\Temp\cco469pz.s:2241   .text.FLASH_ROM_ERASE:000000000000003c .L0 
C:\Users\LOCALH~1\AppData\Local\Temp\cco469pz.s:2242   .text.FLASH_ROM_ERASE:000000000000003c .L0 
C:\Users\LOCALH~1\AppData\Local\Temp\cco469pz.s:2246   .text.FLASH_ROM_ERASE:0000000000000048 .L0 
C:\Users\LOCALH~1\AppData\Local\Temp\cco469pz.s:2248   .text.FLASH_ROM_ERASE:000000000000004c .L0 
C:\Users\LOCALH~1\AppData\Local\Temp\cco469pz.s:2250   .text.FLASH_ROM_ERASE:000000000000004e .L0 
C:\Users\LOCALH~1\AppData\Local\Temp\cco469pz.s:2251   .text.FLASH_ROM_ERASE:000000000000004e .L0 
C:\Users\LOCALH~1\AppData\Local\Temp\cco469pz.s:2254   .text.FLASH_ROM_ERASE:0000000000000054 .L0 
C:\Users\LOCALH~1\AppData\Local\Temp\cco469pz.s:2255   .text.FLASH_ROM_ERASE:0000000000000054 .L0 
C:\Users\LOCALH~1\AppData\Local\Temp\cco469pz.s:2257   .text.FLASH_ROM_ERASE:0000000000000056 .L0 
C:\Users\LOCALH~1\AppData\Local\Temp\cco469pz.s:2258   .text.FLASH_ROM_ERASE:0000000000000056 .L0 
C:\Users\LOCALH~1\AppData\Local\Temp\cco469pz.s:2261   .text.FLASH_ROM_ERASE:0000000000000058 .L0 
C:\Users\LOCALH~1\AppData\Local\Temp\cco469pz.s:2262   .text.FLASH_ROM_ERASE:0000000000000058 .L0 
C:\Users\LOCALH~1\AppData\Local\Temp\cco469pz.s:2263   .text.FLASH_ROM_ERASE:0000000000000058 .L0 
C:\Users\LOCALH~1\AppData\Local\Temp\cco469pz.s:2266   .text.FLASH_ROM_ERASE:000000000000005e .L0 
C:\Users\LOCALH~1\AppData\Local\Temp\cco469pz.s:2267   .text.FLASH_ROM_ERASE:000000000000005e .L0 
C:\Users\LOCALH~1\AppData\Local\Temp\cco469pz.s:2270   .text.FLASH_ROM_ERASE:0000000000000064 .L0 
C:\Users\LOCALH~1\AppData\Local\Temp\cco469pz.s:2273   .text.FLASH_ROM_ERASE:0000000000000068 .L0 
C:\Users\LOCALH~1\AppData\Local\Temp\cco469pz.s:2274   .text.FLASH_ROM_ERASE:0000000000000068 .L0 
C:\Users\LOCALH~1\AppData\Local\Temp\cco469pz.s:2277   .text.FLASH_ROM_ERASE:000000000000006a .L0 
C:\Users\LOCALH~1\AppData\Local\Temp\cco469pz.s:2280   .text.FLASH_ROM_ERASE:000000000000006e .L0 
C:\Users\LOCALH~1\AppData\Local\Temp\cco469pz.s:2281   .text.FLASH_ROM_ERASE:000000000000006e .L0 
C:\Users\LOCALH~1\AppData\Local\Temp\cco469pz.s:2284   .text.FLASH_ROM_ERASE:0000000000000072 .L0 
C:\Users\LOCALH~1\AppData\Local\Temp\cco469pz.s:2285   .text.FLASH_ROM_ERASE:0000000000000072 .L0 
C:\Users\LOCALH~1\AppData\Local\Temp\cco469pz.s:2288   .text.FLASH_ROM_ERASE:0000000000000076 .L0 
C:\Users\LOCALH~1\AppData\Local\Temp\cco469pz.s:2290   .text.FLASH_ROM_ERASE:0000000000000078 .L0 
C:\Users\LOCALH~1\AppData\Local\Temp\cco469pz.s:2294   .text.FLASH_ROM_ERASE:000000000000007c .L0 
C:\Users\LOCALH~1\AppData\Local\Temp\cco469pz.s:2295   .text.FLASH_ROM_ERASE:000000000000007c .L0 
C:\Users\LOCALH~1\AppData\Local\Temp\cco469pz.s:2296   .text.FLASH_ROM_ERASE:000000000000007c .L0 
C:\Users\LOCALH~1\AppData\Local\Temp\cco469pz.s:2297   .text.FLASH_ROM_ERASE:000000000000007c .L0 
C:\Users\LOCALH~1\AppData\Local\Temp\cco469pz.s:2299   .text.FLASH_ROM_ERASE:0000000000000080 .L0 
C:\Users\LOCALH~1\AppData\Local\Temp\cco469pz.s:2303   .text.FLASH_ROM_ERASE:000000000000008a .L0 
C:\Users\LOCALH~1\AppData\Local\Temp\cco469pz.s:2305   .text.FLASH_ROM_ERASE:000000000000008c .L0 
C:\Users\LOCALH~1\AppData\Local\Temp\cco469pz.s:2306   .text.FLASH_ROM_ERASE:000000000000008c .L0 
C:\Users\LOCALH~1\AppData\Local\Temp\cco469pz.s:2311   .text.FLASH_ROM_ERASE:0000000000000092 .L0 
C:\Users\LOCALH~1\AppData\Local\Temp\cco469pz.s:2312   .text.FLASH_ROM_ERASE:0000000000000092 .L0 
C:\Users\LOCALH~1\AppData\Local\Temp\cco469pz.s:2313   .text.FLASH_ROM_ERASE:0000000000000092 .L0 
C:\Users\LOCALH~1\AppData\Local\Temp\cco469pz.s:2315   .text.FLASH_ROM_ERASE:0000000000000096 .L0 
C:\Users\LOCALH~1\AppData\Local\Temp\cco469pz.s:2329   .text.FLASH_ROM_ERASE:00000000000000ac .L0 
C:\Users\LOCALH~1\AppData\Local\Temp\cco469pz.s:2330   .text.FLASH_ROM_ERASE:00000000000000ac .L0 
C:\Users\LOCALH~1\AppData\Local\Temp\cco469pz.s:2333   .text.FLASH_ROM_ERASE:00000000000000b2 .L0 
C:\Users\LOCALH~1\AppData\Local\Temp\cco469pz.s:2334   .text.FLASH_ROM_ERASE:00000000000000b2 .L0 
C:\Users\LOCALH~1\AppData\Local\Temp\cco469pz.s:2337   .text.FLASH_ROM_ERASE:00000000000000b8 .L0 
C:\Users\LOCALH~1\AppData\Local\Temp\cco469pz.s:2340   .text.FLASH_ROM_ERASE:00000000000000bc .L0 
C:\Users\LOCALH~1\AppData\Local\Temp\cco469pz.s:2341   .text.FLASH_ROM_ERASE:00000000000000bc .L0 
C:\Users\LOCALH~1\AppData\Local\Temp\cco469pz.s:2344   .text.FLASH_ROM_ERASE:00000000000000be .L0 
C:\Users\LOCALH~1\AppData\Local\Temp\cco469pz.s:2347   .text.FLASH_ROM_ERASE:00000000000000c2 .L0 
C:\Users\LOCALH~1\AppData\Local\Temp\cco469pz.s:2348   .text.FLASH_ROM_ERASE:00000000000000c2 .L0 
C:\Users\LOCALH~1\AppData\Local\Temp\cco469pz.s:2351   .text.FLASH_ROM_ERASE:00000000000000c6 .L0 
C:\Users\LOCALH~1\AppData\Local\Temp\cco469pz.s:2353   .text.FLASH_ROM_ERASE:00000000000000c6 .L0 
C:\Users\LOCALH~1\AppData\Local\Temp\cco469pz.s:2354   .text.FLASH_ROM_ERASE:00000000000000c6 .L0 
C:\Users\LOCALH~1\AppData\Local\Temp\cco469pz.s:2355   .text.FLASH_ROM_ERASE:00000000000000c6 .L0 
C:\Users\LOCALH~1\AppData\Local\Temp\cco469pz.s:2359   .text.FLASH_ROM_ERASE:00000000000000cc .L0 
C:\Users\LOCALH~1\AppData\Local\Temp\cco469pz.s:2360   .text.FLASH_ROM_ERASE:00000000000000cc .L0 
C:\Users\LOCALH~1\AppData\Local\Temp\cco469pz.s:2361   .text.FLASH_ROM_ERASE:00000000000000cc .L0 
C:\Users\LOCALH~1\AppData\Local\Temp\cco469pz.s:2364   .text.FLASH_ROM_ERASE:00000000000000d4 .L0 
C:\Users\LOCALH~1\AppData\Local\Temp\cco469pz.s:2366   .text.FLASH_ROM_ERASE:00000000000000d8 .L0 
C:\Users\LOCALH~1\AppData\Local\Temp\cco469pz.s:2367   .text.FLASH_ROM_ERASE:00000000000000d8 .L0 
C:\Users\LOCALH~1\AppData\Local\Temp\cco469pz.s:2371   .text.FLASH_ROM_ERASE:00000000000000dc .L0 
C:\Users\LOCALH~1\AppData\Local\Temp\cco469pz.s:2372   .text.FLASH_ROM_ERASE:00000000000000dc .L0 
C:\Users\LOCALH~1\AppData\Local\Temp\cco469pz.s:2374   .text.FLASH_ROM_ERASE:00000000000000e0 .L0 
C:\Users\LOCALH~1\AppData\Local\Temp\cco469pz.s:2383   .text.FLASH_ROM_ERASE:00000000000000f2 .L0 
C:\Users\LOCALH~1\AppData\Local\Temp\cco469pz.s:2384   .text.FLASH_ROM_ERASE:00000000000000f2 .L0 
C:\Users\LOCALH~1\AppData\Local\Temp\cco469pz.s:2389   .text.FLASH_ROM_ERASE:00000000000000f8 .L0 
C:\Users\LOCALH~1\AppData\Local\Temp\cco469pz.s:2390   .text.FLASH_ROM_ERASE:00000000000000f8 .L0 
C:\Users\LOCALH~1\AppData\Local\Temp\cco469pz.s:2391   .text.FLASH_ROM_ERASE:00000000000000f8 .L0 
C:\Users\LOCALH~1\AppData\Local\Temp\cco469pz.s:2392   .text.FLASH_ROM_ERASE:00000000000000f8 .L0 
C:\Users\LOCALH~1\AppData\Local\Temp\cco469pz.s:2394   .text.FLASH_ROM_ERASE:00000000000000fc .L0 
C:\Users\LOCALH~1\AppData\Local\Temp\cco469pz.s:2398   .text.FLASH_ROM_ERASE:0000000000000106 .L0 
C:\Users\LOCALH~1\AppData\Local\Temp\cco469pz.s:2400   .text.FLASH_ROM_ERASE:0000000000000108 .L0 
C:\Users\LOCALH~1\AppData\Local\Temp\cco469pz.s:2401   .text.FLASH_ROM_ERASE:0000000000000108 .L0 
C:\Users\LOCALH~1\AppData\Local\Temp\cco469pz.s:2406   .text.FLASH_ROM_ERASE:000000000000010e .L0 
C:\Users\LOCALH~1\AppData\Local\Temp\cco469pz.s:2407   .text.FLASH_ROM_ERASE:000000000000010e .L0 
C:\Users\LOCALH~1\AppData\Local\Temp\cco469pz.s:2408   .text.FLASH_ROM_ERASE:000000000000010e .L0 
C:\Users\LOCALH~1\AppData\Local\Temp\cco469pz.s:2410   .text.FLASH_ROM_ERASE:0000000000000112 .L0 
C:\Users\LOCALH~1\AppData\Local\Temp\cco469pz.s:2421   .text.FLASH_ROM_ERASE:0000000000000124 .L0 
C:\Users\LOCALH~1\AppData\Local\Temp\cco469pz.s:2422   .text.FLASH_ROM_ERASE:0000000000000124 .L0 
C:\Users\LOCALH~1\AppData\Local\Temp\cco469pz.s:2424   .text.FLASH_ROM_ERASE:0000000000000126 .L0 
C:\Users\LOCALH~1\AppData\Local\Temp\cco469pz.s:2433   .text.FLASH_ROM_ERASE:000000000000013a .L0 
C:\Users\LOCALH~1\AppData\Local\Temp\cco469pz.s:2434   .text.FLASH_ROM_ERASE:000000000000013a .L0 
C:\Users\LOCALH~1\AppData\Local\Temp\cco469pz.s:2438   .text.FLASH_ROM_ERASE:0000000000000142 .L0 
C:\Users\LOCALH~1\AppData\Local\Temp\cco469pz.s:2439   .text.FLASH_ROM_ERASE:0000000000000142 .L0 
C:\Users\LOCALH~1\AppData\Local\Temp\cco469pz.s:2440   .text.FLASH_ROM_ERASE:0000000000000142 .L0 
C:\Users\LOCALH~1\AppData\Local\Temp\cco469pz.s:2445   .text.FLASH_ROM_ERASE:0000000000000148 .L0 
C:\Users\LOCALH~1\AppData\Local\Temp\cco469pz.s:2449   .text.FLASH_ROM_ERASE:0000000000000150 .L0 
C:\Users\LOCALH~1\AppData\Local\Temp\cco469pz.s:2450   .text.FLASH_ROM_ERASE:0000000000000150 .L0 
C:\Users\LOCALH~1\AppData\Local\Temp\cco469pz.s:2453   .text.FLASH_ROM_ERASE:0000000000000156 .L0 
C:\Users\LOCALH~1\AppData\Local\Temp\cco469pz.s:2457   .text.FLASH_ROM_ERASE:000000000000015c .L0 
C:\Users\LOCALH~1\AppData\Local\Temp\cco469pz.s:2458   .text.FLASH_ROM_ERASE:000000000000015c .L0 
C:\Users\LOCALH~1\AppData\Local\Temp\cco469pz.s:2460   .text.FLASH_ROM_ERASE:000000000000015e .L0 
C:\Users\LOCALH~1\AppData\Local\Temp\cco469pz.s:2463   .text.FLASH_ROM_ERASE:0000000000000164 .L0 
C:\Users\LOCALH~1\AppData\Local\Temp\cco469pz.s:2464   .text.FLASH_ROM_ERASE:0000000000000164 .L0 
C:\Users\LOCALH~1\AppData\Local\Temp\cco469pz.s:2468   .text.FLASH_ROM_ERASE:0000000000000166 .L0 
C:\Users\LOCALH~1\AppData\Local\Temp\cco469pz.s:2470   .text.FLASH_ROM_ERASE:0000000000000170 .L0 
C:\Users\LOCALH~1\AppData\Local\Temp\cco469pz.s:2471   .text.FLASH_ROM_ERASE:0000000000000170 .L0 
C:\Users\LOCALH~1\AppData\Local\Temp\cco469pz.s:2472   .text.FLASH_ROM_ERASE:0000000000000170 .L0 
C:\Users\LOCALH~1\AppData\Local\Temp\cco469pz.s:2473   .text.FLASH_ROM_ERASE:0000000000000170 .L0 
C:\Users\LOCALH~1\AppData\Local\Temp\cco469pz.s:2474   .text.FLASH_ROM_ERASE:0000000000000170 .L0 
C:\Users\LOCALH~1\AppData\Local\Temp\cco469pz.s:2475   .text.FLASH_ROM_ERASE:0000000000000170 .L0 
C:\Users\LOCALH~1\AppData\Local\Temp\cco469pz.s:2476   .text.FLASH_ROM_ERASE:0000000000000170 .L0 
C:\Users\LOCALH~1\AppData\Local\Temp\cco469pz.s:2477   .text.FLASH_ROM_ERASE:0000000000000170 .L0 
C:\Users\LOCALH~1\AppData\Local\Temp\cco469pz.s:2478   .text.FLASH_ROM_ERASE:0000000000000170 .L0 
C:\Users\LOCALH~1\AppData\Local\Temp\cco469pz.s:2479   .text.FLASH_ROM_ERASE:0000000000000170 .L0 
C:\Users\LOCALH~1\AppData\Local\Temp\cco469pz.s:2482   .text.FLASH_ROM_ERASE:0000000000000170 .L0 
C:\Users\LOCALH~1\AppData\Local\Temp\cco469pz.s:2484   .text.FLASH_ROM_ERASE:0000000000000170 .L0 
C:\Users\LOCALH~1\AppData\Local\Temp\cco469pz.s:2485   .text.FLASH_ROM_ERASE:0000000000000170 .L0 
C:\Users\LOCALH~1\AppData\Local\Temp\cco469pz.s:2486   .text.FLASH_ROM_ERASE:0000000000000170 .L0 
C:\Users\LOCALH~1\AppData\Local\Temp\cco469pz.s:2491   .text.FLASH_ROM_ERASE:000000000000017c .L0 
C:\Users\LOCALH~1\AppData\Local\Temp\cco469pz.s:2492   .text.FLASH_ROM_ERASE:000000000000017c .L0 
C:\Users\LOCALH~1\AppData\Local\Temp\cco469pz.s:2494   .text.FLASH_ROM_ERASE:0000000000000180 .L0 
C:\Users\LOCALH~1\AppData\Local\Temp\cco469pz.s:2495   .text.FLASH_ROM_ERASE:0000000000000180 .L0 
C:\Users\LOCALH~1\AppData\Local\Temp\cco469pz.s:2500   .text.FLASH_ROM_ERASE:0000000000000186 .L0 
C:\Users\LOCALH~1\AppData\Local\Temp\cco469pz.s:2501   .text.FLASH_ROM_ERASE:0000000000000186 .L0 
C:\Users\LOCALH~1\AppData\Local\Temp\cco469pz.s:2503   .text.FLASH_ROM_ERASE:0000000000000188 .L0 
C:\Users\LOCALH~1\AppData\Local\Temp\cco469pz.s:2510   .text.FLASH_ROM_ERASE:0000000000000194 .L0 
C:\Users\LOCALH~1\AppData\Local\Temp\cco469pz.s:2514   .text.FLASH_ROM_ERASE:0000000000000198 .L0 
C:\Users\LOCALH~1\AppData\Local\Temp\cco469pz.s:2515   .text.FLASH_ROM_ERASE:0000000000000198 .L0 
C:\Users\LOCALH~1\AppData\Local\Temp\cco469pz.s:2516   .text.FLASH_ROM_ERASE:0000000000000198 .L0 
C:\Users\LOCALH~1\AppData\Local\Temp\cco469pz.s:2517   .text.FLASH_ROM_ERASE:0000000000000198 .L0 
C:\Users\LOCALH~1\AppData\Local\Temp\cco469pz.s:2518   .text.FLASH_ROM_ERASE:0000000000000198 .L0 
C:\Users\LOCALH~1\AppData\Local\Temp\cco469pz.s:2519   .text.FLASH_ROM_ERASE:0000000000000198 .L0 
C:\Users\LOCALH~1\AppData\Local\Temp\cco469pz.s:2520   .text.FLASH_ROM_ERASE:0000000000000198 .L0 
C:\Users\LOCALH~1\AppData\Local\Temp\cco469pz.s:2521   .text.FLASH_ROM_ERASE:0000000000000198 .L0 
C:\Users\LOCALH~1\AppData\Local\Temp\cco469pz.s:2522   .text.FLASH_ROM_ERASE:0000000000000198 .L0 
C:\Users\LOCALH~1\AppData\Local\Temp\cco469pz.s:2524   .text.FLASH_ROM_ERASE:0000000000000198 .L0 
C:\Users\LOCALH~1\AppData\Local\Temp\cco469pz.s:2526   .text.FLASH_ROM_ERASE:000000000000019c .L0 
C:\Users\LOCALH~1\AppData\Local\Temp\cco469pz.s:2529   .text.FLASH_ROM_ERASE:00000000000001a0 .L0 
C:\Users\LOCALH~1\AppData\Local\Temp\cco469pz.s:2536   .text.FLASH_ROM_WRITE:0000000000000000 FLASH_ROM_WRITE
C:\Users\LOCALH~1\AppData\Local\Temp\cco469pz.s:2539   .text.FLASH_ROM_WRITE:0000000000000000 .L0 
C:\Users\LOCALH~1\AppData\Local\Temp\cco469pz.s:2541   .text.FLASH_ROM_WRITE:0000000000000000 .L0 
C:\Users\LOCALH~1\AppData\Local\Temp\cco469pz.s:2542   .text.FLASH_ROM_WRITE:0000000000000000 .L0 
C:\Users\LOCALH~1\AppData\Local\Temp\cco469pz.s:2543   .text.FLASH_ROM_WRITE:0000000000000000 .L0 
C:\Users\LOCALH~1\AppData\Local\Temp\cco469pz.s:2544   .text.FLASH_ROM_WRITE:0000000000000000 .L0 
C:\Users\LOCALH~1\AppData\Local\Temp\cco469pz.s:2545   .text.FLASH_ROM_WRITE:0000000000000000 .L0 
C:\Users\LOCALH~1\AppData\Local\Temp\cco469pz.s:2546   .text.FLASH_ROM_WRITE:0000000000000000 $x
C:\Users\LOCALH~1\AppData\Local\Temp\cco469pz.s:2546   .text.FLASH_ROM_WRITE:0000000000000000 .L0 
C:\Users\LOCALH~1\AppData\Local\Temp\cco469pz.s:2549   .text.FLASH_ROM_WRITE:0000000000000006 .L0 
C:\Users\LOCALH~1\AppData\Local\Temp\cco469pz.s:2551   .text.FLASH_ROM_WRITE:000000000000000a .L0 
C:\Users\LOCALH~1\AppData\Local\Temp\cco469pz.s:2553   .text.FLASH_ROM_WRITE:000000000000000c .L0 
C:\Users\LOCALH~1\AppData\Local\Temp\cco469pz.s:2555   .text.FLASH_ROM_WRITE:0000000000000010 .L0 
C:\Users\LOCALH~1\AppData\Local\Temp\cco469pz.s:2556   .text.FLASH_ROM_WRITE:0000000000000010 .L0 
C:\Users\LOCALH~1\AppData\Local\Temp\cco469pz.s:2558   .text.FLASH_ROM_WRITE:0000000000000014 .L0 
C:\Users\LOCALH~1\AppData\Local\Temp\cco469pz.s:2560   .text.FLASH_ROM_WRITE:0000000000000018 .L0 
C:\Users\LOCALH~1\AppData\Local\Temp\cco469pz.s:2563   .text.FLASH_ROM_WRITE:000000000000001c .L0 
C:\Users\LOCALH~1\AppData\Local\Temp\cco469pz.s:2565   .text.FLASH_ROM_WRITE:0000000000000020 .L0 
C:\Users\LOCALH~1\AppData\Local\Temp\cco469pz.s:2566   .text.FLASH_ROM_WRITE:0000000000000020 .L0 
C:\Users\LOCALH~1\AppData\Local\Temp\cco469pz.s:2569   .text.FLASH_ROM_WRITE:0000000000000028 .L0 
C:\Users\LOCALH~1\AppData\Local\Temp\cco469pz.s:2571   .text.FLASH_ROM_WRITE:000000000000002c .L0 
C:\Users\LOCALH~1\AppData\Local\Temp\cco469pz.s:2573   .text.FLASH_ROM_WRITE:000000000000002e .L0 
C:\Users\LOCALH~1\AppData\Local\Temp\cco469pz.s:2575   .text.FLASH_ROM_WRITE:0000000000000030 .L0 
C:\Users\LOCALH~1\AppData\Local\Temp\cco469pz.s:2576   .text.FLASH_ROM_WRITE:0000000000000030 .L0 
C:\Users\LOCALH~1\AppData\Local\Temp\cco469pz.s:2580   .text.FLASH_ROM_WRITE:000000000000003c .L0 
C:\Users\LOCALH~1\AppData\Local\Temp\cco469pz.s:2582   .text.FLASH_ROM_WRITE:0000000000000040 .L0 
C:\Users\LOCALH~1\AppData\Local\Temp\cco469pz.s:2584   .text.FLASH_ROM_WRITE:0000000000000042 .L0 
C:\Users\LOCALH~1\AppData\Local\Temp\cco469pz.s:2587   .text.FLASH_ROM_WRITE:0000000000000048 .L0 
C:\Users\LOCALH~1\AppData\Local\Temp\cco469pz.s:2589   .text.FLASH_ROM_WRITE:000000000000004a .L0 
C:\Users\LOCALH~1\AppData\Local\Temp\cco469pz.s:2591   .text.FLASH_ROM_WRITE:000000000000004c .L0 
C:\Users\LOCALH~1\AppData\Local\Temp\cco469pz.s:2593   .text.FLASH_ROM_WRITE:000000000000004e .L0 
C:\Users\LOCALH~1\AppData\Local\Temp\cco469pz.s:2597   .text.FLASH_ROM_WRITE:0000000000000052 .L0 
C:\Users\LOCALH~1\AppData\Local\Temp\cco469pz.s:2600   .text.FLASH_ROM_WRITE:0000000000000054 .L0 
C:\Users\LOCALH~1\AppData\Local\Temp\cco469pz.s:2601   .text.FLASH_ROM_WRITE:0000000000000054 .L0 
C:\Users\LOCALH~1\AppData\Local\Temp\cco469pz.s:2602   .text.FLASH_ROM_WRITE:0000000000000054 .L0 
C:\Users\LOCALH~1\AppData\Local\Temp\cco469pz.s:2603   .text.FLASH_ROM_WRITE:0000000000000054 .L0 
C:\Users\LOCALH~1\AppData\Local\Temp\cco469pz.s:2604   .text.FLASH_ROM_WRITE:0000000000000054 .L0 
C:\Users\LOCALH~1\AppData\Local\Temp\cco469pz.s:2607   .text.FLASH_ROM_WRITE:0000000000000058 .L0 
C:\Users\LOCALH~1\AppData\Local\Temp\cco469pz.s:2609   .text.FLASH_ROM_WRITE:000000000000005a .L0 
C:\Users\LOCALH~1\AppData\Local\Temp\cco469pz.s:2611   .text.FLASH_ROM_WRITE:000000000000005e .L0 
C:\Users\LOCALH~1\AppData\Local\Temp\cco469pz.s:2613   .text.FLASH_ROM_WRITE:0000000000000062 .L0 
C:\Users\LOCALH~1\AppData\Local\Temp\cco469pz.s:2617   .text.FLASH_ROM_WRITE:0000000000000064 .L0 
C:\Users\LOCALH~1\AppData\Local\Temp\cco469pz.s:2621   .text.FLASH_ROM_WRITE:000000000000006a .L0 
C:\Users\LOCALH~1\AppData\Local\Temp\cco469pz.s:2622   .text.FLASH_ROM_WRITE:000000000000006a .L0 
C:\Users\LOCALH~1\AppData\Local\Temp\cco469pz.s:2623   .text.FLASH_ROM_WRITE:000000000000006a .L0 
C:\Users\LOCALH~1\AppData\Local\Temp\cco469pz.s:2627   .text.FLASH_ROM_WRITE:0000000000000070 .L0 
C:\Users\LOCALH~1\AppData\Local\Temp\cco469pz.s:2628   .text.FLASH_ROM_WRITE:0000000000000070 .L0 
C:\Users\LOCALH~1\AppData\Local\Temp\cco469pz.s:2629   .text.FLASH_ROM_WRITE:0000000000000070 .L0 
C:\Users\LOCALH~1\AppData\Local\Temp\cco469pz.s:2631   .text.FLASH_ROM_WRITE:0000000000000072 .L0 
C:\Users\LOCALH~1\AppData\Local\Temp\cco469pz.s:2633   .text.FLASH_ROM_WRITE:0000000000000074 .L0 
C:\Users\LOCALH~1\AppData\Local\Temp\cco469pz.s:2636   .text.FLASH_ROM_WRITE:0000000000000076 .L0 
C:\Users\LOCALH~1\AppData\Local\Temp\cco469pz.s:2637   .text.FLASH_ROM_WRITE:0000000000000076 .L0 
C:\Users\LOCALH~1\AppData\Local\Temp\cco469pz.s:2639   .text.FLASH_ROM_WRITE:0000000000000078 .L0 
C:\Users\LOCALH~1\AppData\Local\Temp\cco469pz.s:2641   .text.FLASH_ROM_WRITE:000000000000007a .L0 
C:\Users\LOCALH~1\AppData\Local\Temp\cco469pz.s:2645   .text.FLASH_ROM_WRITE:000000000000007c .L0 
C:\Users\LOCALH~1\AppData\Local\Temp\cco469pz.s:2646   .text.FLASH_ROM_WRITE:000000000000007c .L0 
C:\Users\LOCALH~1\AppData\Local\Temp\cco469pz.s:2650   .text.FLASH_ROM_WRITE:0000000000000084 .L0 
C:\Users\LOCALH~1\AppData\Local\Temp\cco469pz.s:2655   .text.FLASH_ROM_WRITE:000000000000008c .L0 
C:\Users\LOCALH~1\AppData\Local\Temp\cco469pz.s:2656   .text.FLASH_ROM_WRITE:000000000000008c .L0 
C:\Users\LOCALH~1\AppData\Local\Temp\cco469pz.s:2657   .text.FLASH_ROM_WRITE:000000000000008c .L0 
C:\Users\LOCALH~1\AppData\Local\Temp\cco469pz.s:2659   .text.FLASH_ROM_WRITE:000000000000008c .L0 
C:\Users\LOCALH~1\AppData\Local\Temp\cco469pz.s:2660   .text.FLASH_ROM_WRITE:000000000000008c .L0 
C:\Users\LOCALH~1\AppData\Local\Temp\cco469pz.s:2661   .text.FLASH_ROM_WRITE:000000000000008c .L0 
C:\Users\LOCALH~1\AppData\Local\Temp\cco469pz.s:2663   .text.FLASH_ROM_WRITE:0000000000000090 .L0 
C:\Users\LOCALH~1\AppData\Local\Temp\cco469pz.s:2665   .text.FLASH_ROM_WRITE:0000000000000094 .L0 
C:\Users\LOCALH~1\AppData\Local\Temp\cco469pz.s:2667   .text.FLASH_ROM_WRITE:0000000000000098 .L0 
C:\Users\LOCALH~1\AppData\Local\Temp\cco469pz.s:2671   .text.FLASH_ROM_WRITE:000000000000009e .L0 
C:\Users\LOCALH~1\AppData\Local\Temp\cco469pz.s:2674   .text.FLASH_ROM_WRITE:00000000000000a0 .L0 
C:\Users\LOCALH~1\AppData\Local\Temp\cco469pz.s:2676   .text.FLASH_ROM_WRITE:00000000000000a4 .L0 
C:\Users\LOCALH~1\AppData\Local\Temp\cco469pz.s:2677   .text.FLASH_ROM_WRITE:00000000000000a4 .L0 
C:\Users\LOCALH~1\AppData\Local\Temp\cco469pz.s:2681   .text.FLASH_ROM_WRITE:00000000000000aa .L0 
C:\Users\LOCALH~1\AppData\Local\Temp\cco469pz.s:2682   .text.FLASH_ROM_WRITE:00000000000000aa .L0 
C:\Users\LOCALH~1\AppData\Local\Temp\cco469pz.s:2683   .text.FLASH_ROM_WRITE:00000000000000aa .L0 
C:\Users\LOCALH~1\AppData\Local\Temp\cco469pz.s:2685   .text.FLASH_ROM_WRITE:00000000000000ac .L0 
C:\Users\LOCALH~1\AppData\Local\Temp\cco469pz.s:2687   .text.FLASH_ROM_WRITE:00000000000000ae .L0 
C:\Users\LOCALH~1\AppData\Local\Temp\cco469pz.s:2689   .text.FLASH_ROM_WRITE:00000000000000b0 .L0 
C:\Users\LOCALH~1\AppData\Local\Temp\cco469pz.s:2690   .text.FLASH_ROM_WRITE:00000000000000b0 .L0 
C:\Users\LOCALH~1\AppData\Local\Temp\cco469pz.s:2692   .text.FLASH_ROM_WRITE:00000000000000b2 .L0 
C:\Users\LOCALH~1\AppData\Local\Temp\cco469pz.s:2695   .text.FLASH_ROM_WRITE:00000000000000b4 .L0 
C:\Users\LOCALH~1\AppData\Local\Temp\cco469pz.s:2699   .text.FLASH_ROM_WRITE:00000000000000b8 .L0 
C:\Users\LOCALH~1\AppData\Local\Temp\cco469pz.s:2701   .text.FLASH_ROM_WRITE:00000000000000ba .L0 
C:\Users\LOCALH~1\AppData\Local\Temp\cco469pz.s:2702   .text.FLASH_ROM_WRITE:00000000000000ba .L0 
C:\Users\LOCALH~1\AppData\Local\Temp\cco469pz.s:2704   .text.FLASH_ROM_WRITE:00000000000000bc .L0 
C:\Users\LOCALH~1\AppData\Local\Temp\cco469pz.s:2706   .text.FLASH_ROM_WRITE:00000000000000be .L0 
C:\Users\LOCALH~1\AppData\Local\Temp\cco469pz.s:2708   .text.FLASH_ROM_WRITE:00000000000000c0 .L0 
C:\Users\LOCALH~1\AppData\Local\Temp\cco469pz.s:2711   .text.FLASH_ROM_WRITE:00000000000000c4 .L0 
C:\Users\LOCALH~1\AppData\Local\Temp\cco469pz.s:2712   .text.FLASH_ROM_WRITE:00000000000000c4 .L0 
C:\Users\LOCALH~1\AppData\Local\Temp\cco469pz.s:2714   .text.FLASH_ROM_WRITE:00000000000000c6 .L0 
C:\Users\LOCALH~1\AppData\Local\Temp\cco469pz.s:2717   .text.FLASH_ROM_WRITE:00000000000000cc .L0 
C:\Users\LOCALH~1\AppData\Local\Temp\cco469pz.s:2718   .text.FLASH_ROM_WRITE:00000000000000cc .L0 
C:\Users\LOCALH~1\AppData\Local\Temp\cco469pz.s:2722   .text.FLASH_ROM_WRITE:00000000000000ce .L0 
C:\Users\LOCALH~1\AppData\Local\Temp\cco469pz.s:2726   .text.FLASH_ROM_WRITE:00000000000000d2 .L0 
C:\Users\LOCALH~1\AppData\Local\Temp\cco469pz.s:2727   .text.FLASH_ROM_WRITE:00000000000000d4 .L0 
C:\Users\LOCALH~1\AppData\Local\Temp\cco469pz.s:6836   .debug_line_str:0000000000000078 .L0 
C:\Users\LOCALH~1\AppData\Local\Temp\cco469pz.s:6836   .debug_line_str:00000000000000cd .L0 
C:\Users\LOCALH~1\AppData\Local\Temp\cco469pz.s:6836   .debug_line_str:00000000000000df .L0 
C:\Users\LOCALH~1\AppData\Local\Temp\cco469pz.s:6836   .debug_line_str:000000000000013b .L0 
C:\Users\LOCALH~1\AppData\Local\Temp\cco469pz.s:6836   .debug_line_str:0000000000000193 .L0 
C:\Users\LOCALH~1\AppData\Local\Temp\cco469pz.s:6836   .debug_line_str:00000000000001e9 .L0 
C:\Users\LOCALH~1\AppData\Local\Temp\cco469pz.s:6836   .debug_line_str:0000000000000249 .L0 
C:\Users\LOCALH~1\AppData\Local\Temp\cco469pz.s:6836   .debug_line_str:000000000000025a .L0 
C:\Users\LOCALH~1\AppData\Local\Temp\cco469pz.s:6836   .debug_line_str:000000000000026b .L0 
C:\Users\LOCALH~1\AppData\Local\Temp\cco469pz.s:6836   .debug_line_str:000000000000027c .L0 
C:\Users\LOCALH~1\AppData\Local\Temp\cco469pz.s:6836   .debug_line_str:0000000000000286 .L0 
C:\Users\LOCALH~1\AppData\Local\Temp\cco469pz.s:6836   .debug_line_str:0000000000000293 .L0 
C:\Users\LOCALH~1\AppData\Local\Temp\cco469pz.s:6836   .debug_line_str:000000000000029e .L0 
C:\Users\LOCALH~1\AppData\Local\Temp\cco469pz.s:152    .text.ROM_ERASE:0000000000000098 .L0 
C:\Users\LOCALH~1\AppData\Local\Temp\cco469pz.s:176    .text.FLASH_Unlock:000000000000001a .L0 
C:\Users\LOCALH~1\AppData\Local\Temp\cco469pz.s:188    .text.FLASH_UnlockBank1:0000000000000008 .L0 
C:\Users\LOCALH~1\AppData\Local\Temp\cco469pz.s:208    .text.FLASH_Lock:000000000000000e .L0 
C:\Users\LOCALH~1\AppData\Local\Temp\cco469pz.s:220    .text.FLASH_LockBank1:0000000000000008 .L0 
C:\Users\LOCALH~1\AppData\Local\Temp\cco469pz.s:238    .text.FLASH_GetUserOptionByte:000000000000000a .L0 
C:\Users\LOCALH~1\AppData\Local\Temp\cco469pz.s:255    .text.FLASH_GetWriteProtectionOptionByte:0000000000000008 .L0 
C:\Users\LOCALH~1\AppData\Local\Temp\cco469pz.s:280    .text.FLASH_GetReadOutProtectionStatus:000000000000000c .L0 
C:\Users\LOCALH~1\AppData\Local\Temp\cco469pz.s:317    .text.FLASH_ITConfig:000000000000001e .L0 
C:\Users\LOCALH~1\AppData\Local\Temp\cco469pz.s:357    .text.FLASH_GetFlagStatus:000000000000001e .L0 
C:\Users\LOCALH~1\AppData\Local\Temp\cco469pz.s:375    .text.FLASH_ClearFlag:0000000000000008 .L0 
C:\Users\LOCALH~1\AppData\Local\Temp\cco469pz.s:407    .text.FLASH_GetStatus:0000000000000016 .L0 
C:\Users\LOCALH~1\AppData\Local\Temp\cco469pz.s:443    .text.FLASH_GetBank1Status:0000000000000016 .L0 
C:\Users\LOCALH~1\AppData\Local\Temp\cco469pz.s:506    .text.FLASH_WaitForLastOperation:0000000000000034 .L0 
C:\Users\LOCALH~1\AppData\Local\Temp\cco469pz.s:574    .text.FLASH_ErasePage:000000000000004c .L0 
C:\Users\LOCALH~1\AppData\Local\Temp\cco469pz.s:633    .text.FLASH_EraseAllPages:0000000000000048 .L0 
C:\Users\LOCALH~1\AppData\Local\Temp\cco469pz.s:645    .text.FLASH_EraseAllBank1Pages:0000000000000008 .L0 
C:\Users\LOCALH~1\AppData\Local\Temp\cco469pz.s:823    .text.FLASH_EraseOptionBytes:00000000000000e6 .L0 
C:\Users\LOCALH~1\AppData\Local\Temp\cco469pz.s:930    .text.FLASH_ProgramWord:0000000000000068 .L0 
C:\Users\LOCALH~1\AppData\Local\Temp\cco469pz.s:997    .text.FLASH_ProgramHalfWord:0000000000000044 .L0 
C:\Users\LOCALH~1\AppData\Local\Temp\cco469pz.s:1202   .text.FLASH_ProgramOptionByteData:0000000000000114 .L0 
C:\Users\LOCALH~1\AppData\Local\Temp\cco469pz.s:1412   .text.FLASH_EnableWriteProtection:000000000000010e .L0 
C:\Users\LOCALH~1\AppData\Local\Temp\cco469pz.s:1598   .text.FLASH_ReadOutProtection:00000000000000f8 .L0 
C:\Users\LOCALH~1\AppData\Local\Temp\cco469pz.s:1790   .text.FLASH_UserOptionByteConfig:00000000000000fc .L0 
C:\Users\LOCALH~1\AppData\Local\Temp\cco469pz.s:1802   .text.FLASH_WaitForLastBank1Operation:0000000000000008 .L0 
C:\Users\LOCALH~1\AppData\Local\Temp\cco469pz.s:1834   .text.FLASH_Unlock_Fast:000000000000001e .L0 
C:\Users\LOCALH~1\AppData\Local\Temp\cco469pz.s:1855   .text.FLASH_Lock_Fast:000000000000000e .L0 
C:\Users\LOCALH~1\AppData\Local\Temp\cco469pz.s:1908   .text.FLASH_ErasePage_Fast:000000000000002e .L0 
C:\Users\LOCALH~1\AppData\Local\Temp\cco469pz.s:1961   .text.FLASH_EraseBlock_32K_Fast:0000000000000030 .L0 
C:\Users\LOCALH~1\AppData\Local\Temp\cco469pz.s:2014   .text.FLASH_EraseBlock_64K_Fast:0000000000000030 .L0 
C:\Users\LOCALH~1\AppData\Local\Temp\cco469pz.s:2120   .text.FLASH_ProgramPage_Fast:0000000000000064 .L0 
C:\Users\LOCALH~1\AppData\Local\Temp\cco469pz.s:2149   .text.FLASH_Access_Clock_Cfg:0000000000000018 .L0 
C:\Users\LOCALH~1\AppData\Local\Temp\cco469pz.s:2192   .text.FLASH_Enhance_Mode:000000000000002e .L0 
C:\Users\LOCALH~1\AppData\Local\Temp\cco469pz.s:2532   .text.FLASH_ROM_ERASE:00000000000001a0 .L0 
C:\Users\LOCALH~1\AppData\Local\Temp\cco469pz.s:2730   .text.FLASH_ROM_WRITE:00000000000000d4 .L0 
                     .debug_frame:0000000000000000 .L0 
C:\Users\LOCALH~1\AppData\Local\Temp\cco469pz.s:37     .text.ROM_ERASE:0000000000000014 .L2
C:\Users\LOCALH~1\AppData\Local\Temp\cco469pz.s:48     .text.ROM_ERASE:0000000000000024 .L14
C:\Users\LOCALH~1\AppData\Local\Temp\cco469pz.s:92     .text.ROM_ERASE:0000000000000054 .L4
C:\Users\LOCALH~1\AppData\Local\Temp\cco469pz.s:63     .text.ROM_ERASE:0000000000000034 .L6
C:\Users\LOCALH~1\AppData\Local\Temp\cco469pz.s:104    .text.ROM_ERASE:0000000000000068 .L7
C:\Users\LOCALH~1\AppData\Local\Temp\cco469pz.s:24     .text.ROM_ERASE:0000000000000006 .L8
C:\Users\LOCALH~1\AppData\Local\Temp\cco469pz.s:51     .text.ROM_ERASE:0000000000000026 .L3
C:\Users\LOCALH~1\AppData\Local\Temp\cco469pz.s:32     .text.ROM_ERASE:0000000000000010 .L13
C:\Users\LOCALH~1\AppData\Local\Temp\cco469pz.s:123    .text.ROM_ERASE:000000000000007a .L10
C:\Users\LOCALH~1\AppData\Local\Temp\cco469pz.s:144    .text.ROM_ERASE:0000000000000094 .L11
C:\Users\LOCALH~1\AppData\Local\Temp\cco469pz.s:300    .text.FLASH_ITConfig:000000000000000e .L25
C:\Users\LOCALH~1\AppData\Local\Temp\cco469pz.s:340    .text.FLASH_GetFlagStatus:0000000000000010 .L28
C:\Users\LOCALH~1\AppData\Local\Temp\cco469pz.s:401    .text.FLASH_GetStatus:0000000000000014 .L31
C:\Users\LOCALH~1\AppData\Local\Temp\cco469pz.s:435    .text.FLASH_GetBank1Status:0000000000000014 .L34
C:\Users\LOCALH~1\AppData\Local\Temp\cco469pz.s:491    .text.FLASH_WaitForLastOperation:000000000000002a .L39
C:\Users\LOCALH~1\AppData\Local\Temp\cco469pz.s:481    .text.FLASH_WaitForLastOperation:000000000000001e .L40
C:\Users\LOCALH~1\AppData\Local\Temp\cco469pz.s:496    .text.FLASH_WaitForLastOperation:000000000000002c .L37
C:\Users\LOCALH~1\AppData\Local\Temp\cco469pz.s:468    .text.FLASH_WaitForLastOperation:0000000000000014 .L38
C:\Users\LOCALH~1\AppData\Local\Temp\cco469pz.s:473    .text.FLASH_WaitForLastOperation:000000000000001a .L43
C:\Users\LOCALH~1\AppData\Local\Temp\cco469pz.s:564    .text.FLASH_ErasePage:0000000000000044 .L44
C:\Users\LOCALH~1\AppData\Local\Temp\cco469pz.s:624    .text.FLASH_EraseAllPages:0000000000000040 .L47
C:\Users\LOCALH~1\AppData\Local\Temp\cco469pz.s:676    .text.FLASH_EraseOptionBytes:000000000000001a .L53
C:\Users\LOCALH~1\AppData\Local\Temp\cco469pz.s:785    .text.FLASH_EraseOptionBytes:00000000000000c0 .L52
C:\Users\LOCALH~1\AppData\Local\Temp\cco469pz.s:744    .text.FLASH_EraseOptionBytes:0000000000000086 .L55
C:\Users\LOCALH~1\AppData\Local\Temp\cco469pz.s:755    .text.FLASH_EraseOptionBytes:0000000000000092 .L57
C:\Users\LOCALH~1\AppData\Local\Temp\cco469pz.s:796    .text.FLASH_EraseOptionBytes:00000000000000ca .L61
C:\Users\LOCALH~1\AppData\Local\Temp\cco469pz.s:806    .text.FLASH_EraseOptionBytes:00000000000000d4 .L60
C:\Users\LOCALH~1\AppData\Local\Temp\cco469pz.s:773    .text.FLASH_EraseOptionBytes:00000000000000b0 .L59
C:\Users\LOCALH~1\AppData\Local\Temp\cco469pz.s:916    .text.FLASH_ProgramWord:000000000000005e .L68
C:\Users\LOCALH~1\AppData\Local\Temp\cco469pz.s:908    .text.FLASH_ProgramWord:0000000000000058 .L70
C:\Users\LOCALH~1\AppData\Local\Temp\cco469pz.s:986    .text.FLASH_ProgramHalfWord:000000000000003c .L72
C:\Users\LOCALH~1\AppData\Local\Temp\cco469pz.s:1135   .text.FLASH_ProgramOptionByteData:00000000000000bc .L75
C:\Users\LOCALH~1\AppData\Local\Temp\cco469pz.s:1146   .text.FLASH_ProgramOptionByteData:00000000000000c6 .L78
C:\Users\LOCALH~1\AppData\Local\Temp\cco469pz.s:1072   .text.FLASH_ProgramOptionByteData:000000000000005e .L79
C:\Users\LOCALH~1\AppData\Local\Temp\cco469pz.s:1169   .text.FLASH_ProgramOptionByteData:00000000000000ea .L82
C:\Users\LOCALH~1\AppData\Local\Temp\cco469pz.s:1052   .text.FLASH_ProgramOptionByteData:0000000000000040 .L77
C:\Users\LOCALH~1\AppData\Local\Temp\cco469pz.s:1185   .text.FLASH_ProgramOptionByteData:0000000000000102 .L81
C:\Users\LOCALH~1\AppData\Local\Temp\cco469pz.s:1123   .text.FLASH_ProgramOptionByteData:00000000000000ac .L80
C:\Users\LOCALH~1\AppData\Local\Temp\cco469pz.s:1348   .text.FLASH_EnableWriteProtection:00000000000000b6 .L86
C:\Users\LOCALH~1\AppData\Local\Temp\cco469pz.s:1357   .text.FLASH_EnableWriteProtection:00000000000000c0 .L89
C:\Users\LOCALH~1\AppData\Local\Temp\cco469pz.s:1280   .text.FLASH_EnableWriteProtection:000000000000005c .L90
C:\Users\LOCALH~1\AppData\Local\Temp\cco469pz.s:1379   .text.FLASH_EnableWriteProtection:00000000000000e4 .L93
C:\Users\LOCALH~1\AppData\Local\Temp\cco469pz.s:1260   .text.FLASH_EnableWriteProtection:000000000000003e .L88
C:\Users\LOCALH~1\AppData\Local\Temp\cco469pz.s:1395   .text.FLASH_EnableWriteProtection:00000000000000fc .L92
C:\Users\LOCALH~1\AppData\Local\Temp\cco469pz.s:1336   .text.FLASH_EnableWriteProtection:00000000000000a6 .L91
C:\Users\LOCALH~1\AppData\Local\Temp\cco469pz.s:1534   .text.FLASH_ReadOutProtection:00000000000000a0 .L97
C:\Users\LOCALH~1\AppData\Local\Temp\cco469pz.s:1543   .text.FLASH_ReadOutProtection:00000000000000aa .L100
C:\Users\LOCALH~1\AppData\Local\Temp\cco469pz.s:1481   .text.FLASH_ReadOutProtection:000000000000005a .L101
C:\Users\LOCALH~1\AppData\Local\Temp\cco469pz.s:1503   .text.FLASH_ReadOutProtection:0000000000000074 .L102
C:\Users\LOCALH~1\AppData\Local\Temp\cco469pz.s:1565   .text.FLASH_ReadOutProtection:00000000000000ce .L105
C:\Users\LOCALH~1\AppData\Local\Temp\cco469pz.s:1463   .text.FLASH_ReadOutProtection:0000000000000040 .L99
C:\Users\LOCALH~1\AppData\Local\Temp\cco469pz.s:1581   .text.FLASH_ReadOutProtection:00000000000000e6 .L104
C:\Users\LOCALH~1\AppData\Local\Temp\cco469pz.s:1522   .text.FLASH_ReadOutProtection:0000000000000090 .L103
C:\Users\LOCALH~1\AppData\Local\Temp\cco469pz.s:1724   .text.FLASH_UserOptionByteConfig:00000000000000a4 .L110
C:\Users\LOCALH~1\AppData\Local\Temp\cco469pz.s:1735   .text.FLASH_UserOptionByteConfig:00000000000000ae .L113
C:\Users\LOCALH~1\AppData\Local\Temp\cco469pz.s:1675   .text.FLASH_UserOptionByteConfig:0000000000000060 .L114
C:\Users\LOCALH~1\AppData\Local\Temp\cco469pz.s:1757   .text.FLASH_UserOptionByteConfig:00000000000000d2 .L117
C:\Users\LOCALH~1\AppData\Local\Temp\cco469pz.s:1655   .text.FLASH_UserOptionByteConfig:0000000000000042 .L112
C:\Users\LOCALH~1\AppData\Local\Temp\cco469pz.s:1773   .text.FLASH_UserOptionByteConfig:00000000000000ea .L116
C:\Users\LOCALH~1\AppData\Local\Temp\cco469pz.s:1712   .text.FLASH_UserOptionByteConfig:0000000000000094 .L115
C:\Users\LOCALH~1\AppData\Local\Temp\cco469pz.s:1887   .text.FLASH_ErasePage_Fast:000000000000001c .L126
C:\Users\LOCALH~1\AppData\Local\Temp\cco469pz.s:1940   .text.FLASH_EraseBlock_32K_Fast:000000000000001c .L129
C:\Users\LOCALH~1\AppData\Local\Temp\cco469pz.s:1993   .text.FLASH_EraseBlock_64K_Fast:000000000000001c .L132
C:\Users\LOCALH~1\AppData\Local\Temp\cco469pz.s:2038   .text.FLASH_ProgramPage_Fast:0000000000000010 .L135
C:\Users\LOCALH~1\AppData\Local\Temp\cco469pz.s:2048   .text.FLASH_ProgramPage_Fast:000000000000001a .L136
C:\Users\LOCALH~1\AppData\Local\Temp\cco469pz.s:2076   .text.FLASH_ProgramPage_Fast:0000000000000038 .L137
C:\Users\LOCALH~1\AppData\Local\Temp\cco469pz.s:2061   .text.FLASH_ProgramPage_Fast:0000000000000028 .L138
C:\Users\LOCALH~1\AppData\Local\Temp\cco469pz.s:2099   .text.FLASH_ProgramPage_Fast:0000000000000052 .L139
C:\Users\LOCALH~1\AppData\Local\Temp\cco469pz.s:2170   .text.FLASH_Enhance_Mode:0000000000000012 .L147
C:\Users\LOCALH~1\AppData\Local\Temp\cco469pz.s:2513   .text.FLASH_ROM_ERASE:0000000000000198 .L167
C:\Users\LOCALH~1\AppData\Local\Temp\cco469pz.s:2466   .text.FLASH_ROM_ERASE:0000000000000166 .L149
C:\Users\LOCALH~1\AppData\Local\Temp\cco469pz.s:2327   .text.FLASH_ROM_ERASE:00000000000000ac .L151
C:\Users\LOCALH~1\AppData\Local\Temp\cco469pz.s:2481   .text.FLASH_ROM_ERASE:0000000000000170 .L152
C:\Users\LOCALH~1\AppData\Local\Temp\cco469pz.s:2352   .text.FLASH_ROM_ERASE:00000000000000c6 .L155
C:\Users\LOCALH~1\AppData\Local\Temp\cco469pz.s:2310   .text.FLASH_ROM_ERASE:0000000000000092 .L160
C:\Users\LOCALH~1\AppData\Local\Temp\cco469pz.s:2431   .text.FLASH_ROM_ERASE:000000000000013a .L154
C:\Users\LOCALH~1\AppData\Local\Temp\cco469pz.s:2381   .text.FLASH_ROM_ERASE:00000000000000f2 .L161
C:\Users\LOCALH~1\AppData\Local\Temp\cco469pz.s:2369   .text.FLASH_ROM_ERASE:00000000000000dc .L162
C:\Users\LOCALH~1\AppData\Local\Temp\cco469pz.s:2419   .text.FLASH_ROM_ERASE:0000000000000124 .L163
C:\Users\LOCALH~1\AppData\Local\Temp\cco469pz.s:2405   .text.FLASH_ROM_ERASE:000000000000010e .L164
C:\Users\LOCALH~1\AppData\Local\Temp\cco469pz.s:2498   .text.FLASH_ROM_ERASE:0000000000000186 .L159
C:\Users\LOCALH~1\AppData\Local\Temp\cco469pz.s:2447   .text.FLASH_ROM_ERASE:0000000000000150 .L156
C:\Users\LOCALH~1\AppData\Local\Temp\cco469pz.s:2508   .text.FLASH_ROM_ERASE:0000000000000194 .L171
C:\Users\LOCALH~1\AppData\Local\Temp\cco469pz.s:2387   .text.FLASH_ROM_ERASE:00000000000000f8 .L158
C:\Users\LOCALH~1\AppData\Local\Temp\cco469pz.s:2443   .text.FLASH_ROM_ERASE:0000000000000148 .L188
C:\Users\LOCALH~1\AppData\Local\Temp\cco469pz.s:2292   .text.FLASH_ROM_ERASE:000000000000007c .L157
C:\Users\LOCALH~1\AppData\Local\Temp\cco469pz.s:2720   .text.FLASH_ROM_WRITE:00000000000000ce .L197
C:\Users\LOCALH~1\AppData\Local\Temp\cco469pz.s:2724   .text.FLASH_ROM_WRITE:00000000000000d2 .L189
C:\Users\LOCALH~1\AppData\Local\Temp\cco469pz.s:2626   .text.FLASH_ROM_WRITE:0000000000000070 .L191
C:\Users\LOCALH~1\AppData\Local\Temp\cco469pz.s:2634   .text.FLASH_ROM_WRITE:0000000000000076 .L192
C:\Users\LOCALH~1\AppData\Local\Temp\cco469pz.s:2658   .text.FLASH_ROM_WRITE:000000000000008c .L193
C:\Users\LOCALH~1\AppData\Local\Temp\cco469pz.s:2643   .text.FLASH_ROM_WRITE:000000000000007c .L194
C:\Users\LOCALH~1\AppData\Local\Temp\cco469pz.s:2680   .text.FLASH_ROM_WRITE:00000000000000aa .L195
C:\Users\LOCALH~1\AppData\Local\Temp\cco469pz.s:2615   .text.FLASH_ROM_WRITE:0000000000000064 .L196
C:\Users\LOCALH~1\AppData\Local\Temp\cco469pz.s:4163   .debug_abbrev:0000000000000000 .Ldebug_abbrev0
C:\Users\LOCALH~1\AppData\Local\Temp\cco469pz.s:6791   .debug_str:0000000000000540 .LASF116
C:\Users\LOCALH~1\AppData\Local\Temp\cco469pz.s:6834   .debug_line_str:0000000000000055 .LASF0
C:\Users\LOCALH~1\AppData\Local\Temp\cco469pz.s:6832   .debug_line_str:0000000000000000 .LASF1
C:\Users\LOCALH~1\AppData\Local\Temp\cco469pz.s:6486   .debug_rnglists:000000000000000c .LLRL50
C:\Users\LOCALH~1\AppData\Local\Temp\cco469pz.s:6595   .debug_line:0000000000000000 .Ldebug_line0
C:\Users\LOCALH~1\AppData\Local\Temp\cco469pz.s:6721   .debug_str:000000000000034c .LASF2
C:\Users\LOCALH~1\AppData\Local\Temp\cco469pz.s:6709   .debug_str:00000000000002e9 .LASF3
C:\Users\LOCALH~1\AppData\Local\Temp\cco469pz.s:6689   .debug_str:0000000000000278 .LASF6
C:\Users\LOCALH~1\AppData\Local\Temp\cco469pz.s:6701   .debug_str:00000000000002b4 .LASF4
C:\Users\LOCALH~1\AppData\Local\Temp\cco469pz.s:6643   .debug_str:0000000000000133 .LASF5
C:\Users\LOCALH~1\AppData\Local\Temp\cco469pz.s:6637   .debug_str:0000000000000103 .LASF7
C:\Users\LOCALH~1\AppData\Local\Temp\cco469pz.s:6737   .debug_str:00000000000003a1 .LASF8
C:\Users\LOCALH~1\AppData\Local\Temp\cco469pz.s:6679   .debug_str:0000000000000231 .LASF9
C:\Users\LOCALH~1\AppData\Local\Temp\cco469pz.s:6629   .debug_str:00000000000000df .LASF10
C:\Users\LOCALH~1\AppData\Local\Temp\cco469pz.s:6779   .debug_str:00000000000004ff .LASF11
C:\Users\LOCALH~1\AppData\Local\Temp\cco469pz.s:6673   .debug_str:00000000000001f0 .LASF12
C:\Users\LOCALH~1\AppData\Local\Temp\cco469pz.s:6713   .debug_str:000000000000030c .LASF13
C:\Users\LOCALH~1\AppData\Local\Temp\cco469pz.s:6653   .debug_str:0000000000000177 .LASF14
C:\Users\LOCALH~1\AppData\Local\Temp\cco469pz.s:6751   .debug_str:0000000000000435 .LASF15
C:\Users\LOCALH~1\AppData\Local\Temp\cco469pz.s:6715   .debug_str:0000000000000323 .LASF16
C:\Users\LOCALH~1\AppData\Local\Temp\cco469pz.s:6667   .debug_str:00000000000001ca .LASF17
C:\Users\LOCALH~1\AppData\Local\Temp\cco469pz.s:6827   .debug_str:000000000000070c .LASF18
C:\Users\LOCALH~1\AppData\Local\Temp\cco469pz.s:6785   .debug_str:0000000000000525 .LASF19
C:\Users\LOCALH~1\AppData\Local\Temp\cco469pz.s:6795   .debug_str:0000000000000653 .LASF20
C:\Users\LOCALH~1\AppData\Local\Temp\cco469pz.s:6635   .debug_str:00000000000000f8 .LASF21
C:\Users\LOCALH~1\AppData\Local\Temp\cco469pz.s:6613   .debug_str:0000000000000080 .LASF22
C:\Users\LOCALH~1\AppData\Local\Temp\cco469pz.s:6645   .debug_str:000000000000013d .LASF23
C:\Users\LOCALH~1\AppData\Local\Temp\cco469pz.s:6617   .debug_str:0000000000000091 .LASF24
C:\Users\LOCALH~1\AppData\Local\Temp\cco469pz.s:6625   .debug_str:00000000000000cb .LASF25
C:\Users\LOCALH~1\AppData\Local\Temp\cco469pz.s:6821   .debug_str:00000000000006f6 .LASF26
C:\Users\LOCALH~1\AppData\Local\Temp\cco469pz.s:6733   .debug_str:0000000000000395 .LASF27
C:\Users\LOCALH~1\AppData\Local\Temp\cco469pz.s:6815   .debug_str:00000000000006c8 .LASF28
C:\Users\LOCALH~1\AppData\Local\Temp\cco469pz.s:6783   .debug_str:000000000000051c .LASF29
C:\Users\LOCALH~1\AppData\Local\Temp\cco469pz.s:6605   .debug_str:0000000000000036 .LASF30
C:\Users\LOCALH~1\AppData\Local\Temp\cco469pz.s:6773   .debug_str:00000000000004e5 .LASF31
C:\Users\LOCALH~1\AppData\Local\Temp\cco469pz.s:6797   .debug_str:0000000000000659 .LASF32
C:\Users\LOCALH~1\AppData\Local\Temp\cco469pz.s:6761   .debug_str:000000000000048b .LASF33
C:\Users\LOCALH~1\AppData\Local\Temp\cco469pz.s:6763   .debug_str:0000000000000491 .LASF34
C:\Users\LOCALH~1\AppData\Local\Temp\cco469pz.s:6697   .debug_str:00000000000002a4 .LASF35
C:\Users\LOCALH~1\AppData\Local\Temp\cco469pz.s:6801   .debug_str:0000000000000663 .LASF36
C:\Users\LOCALH~1\AppData\Local\Temp\cco469pz.s:6657   .debug_str:000000000000018c .LASF37
C:\Users\LOCALH~1\AppData\Local\Temp\cco469pz.s:6659   .debug_str:0000000000000192 .LASF38
C:\Users\LOCALH~1\AppData\Local\Temp\cco469pz.s:6615   .debug_str:0000000000000086 .LASF39
C:\Users\LOCALH~1\AppData\Local\Temp\cco469pz.s:6671   .debug_str:00000000000001e4 .LASF40
C:\Users\LOCALH~1\AppData\Local\Temp\cco469pz.s:6749   .debug_str:0000000000000430 .LASF41
C:\Users\LOCALH~1\AppData\Local\Temp\cco469pz.s:6725   .debug_str:0000000000000368 .LASF42
C:\Users\LOCALH~1\AppData\Local\Temp\cco469pz.s:6705   .debug_str:00000000000002cf .LASF43
C:\Users\LOCALH~1\AppData\Local\Temp\cco469pz.s:6611   .debug_str:0000000000000070 .LASF44
C:\Users\LOCALH~1\AppData\Local\Temp\cco469pz.s:6723   .debug_str:0000000000000359 .LASF45
C:\Users\LOCALH~1\AppData\Local\Temp\cco469pz.s:6731   .debug_str:0000000000000387 .LASF46
C:\Users\LOCALH~1\AppData\Local\Temp\cco469pz.s:6641   .debug_str:000000000000011e .LASF47
C:\Users\LOCALH~1\AppData\Local\Temp\cco469pz.s:6793   .debug_str:0000000000000641 .LASF48
C:\Users\LOCALH~1\AppData\Local\Temp\cco469pz.s:6717   .debug_str:000000000000032c .LASF49
C:\Users\LOCALH~1\AppData\Local\Temp\cco469pz.s:6655   .debug_str:000000000000017f .LASF50
C:\Users\LOCALH~1\AppData\Local\Temp\cco469pz.s:6639   .debug_str:000000000000010e .LASF55
C:\Users\LOCALH~1\AppData\Local\Temp\cco469pz.s:2537   .text.FLASH_ROM_WRITE:0000000000000000 .LFB63
C:\Users\LOCALH~1\AppData\Local\Temp\cco469pz.s:2728   .text.FLASH_ROM_WRITE:00000000000000d4 .LFE63
C:\Users\LOCALH~1\AppData\Local\Temp\cco469pz.s:6817   .debug_str:00000000000006d1 .LASF51
C:\Users\LOCALH~1\AppData\Local\Temp\cco469pz.s:5023   .debug_loclists:000000000000000c .LLST46
C:\Users\LOCALH~1\AppData\Local\Temp\cco469pz.s:6829   .debug_str:0000000000000713 .LASF52
C:\Users\LOCALH~1\AppData\Local\Temp\cco469pz.s:5092   .debug_loclists:000000000000008c .LLST47
C:\Users\LOCALH~1\AppData\Local\Temp\cco469pz.s:6759   .debug_str:0000000000000484 .LASF53
C:\Users\LOCALH~1\AppData\Local\Temp\cco469pz.s:5164   .debug_loclists:0000000000000109 .LLST48
C:\Users\LOCALH~1\AppData\Local\Temp\cco469pz.s:5184   .debug_loclists:000000000000012e .LLST49
C:\Users\LOCALH~1\AppData\Local\Temp\cco469pz.s:6787   .debug_str:0000000000000535 .LASF68
C:\Users\LOCALH~1\AppData\Local\Temp\cco469pz.s:6735   .debug_str:000000000000039a .LASF54
C:\Users\LOCALH~1\AppData\Local\Temp\cco469pz.s:6623   .debug_str:00000000000000bb .LASF56
C:\Users\LOCALH~1\AppData\Local\Temp\cco469pz.s:2197   .text.FLASH_ROM_ERASE:0000000000000000 .LFB62
C:\Users\LOCALH~1\AppData\Local\Temp\cco469pz.s:2530   .text.FLASH_ROM_ERASE:00000000000001a0 .LFE62
C:\Users\LOCALH~1\AppData\Local\Temp\cco469pz.s:5203   .debug_loclists:0000000000000152 .LLST40
C:\Users\LOCALH~1\AppData\Local\Temp\cco469pz.s:5270   .debug_loclists:00000000000001d9 .LLST41
C:\Users\LOCALH~1\AppData\Local\Temp\cco469pz.s:6789   .debug_str:000000000000053a .LASF57
C:\Users\LOCALH~1\AppData\Local\Temp\cco469pz.s:5338   .debug_loclists:000000000000025d .LLST42
C:\Users\LOCALH~1\AppData\Local\Temp\cco469pz.s:6631   .debug_str:00000000000000ea .LASF58
C:\Users\LOCALH~1\AppData\Local\Temp\cco469pz.s:5392   .debug_loclists:00000000000002ce .LLST43
C:\Users\LOCALH~1\AppData\Local\Temp\cco469pz.s:6803   .debug_str:0000000000000669 .LASF59
C:\Users\LOCALH~1\AppData\Local\Temp\cco469pz.s:5448   .debug_loclists:0000000000000341 .LLST44
C:\Users\LOCALH~1\AppData\Local\Temp\cco469pz.s:6805   .debug_str:0000000000000671 .LASF60
C:\Users\LOCALH~1\AppData\Local\Temp\cco469pz.s:5505   .debug_loclists:00000000000003b5 .LLST45
C:\Users\LOCALH~1\AppData\Local\Temp\cco469pz.s:2319   .text.FLASH_ROM_ERASE:00000000000000a4 .LVL111
C:\Users\LOCALH~1\AppData\Local\Temp\cco469pz.s:2378   .text.FLASH_ROM_ERASE:00000000000000f0 .LVL121
C:\Users\LOCALH~1\AppData\Local\Temp\cco469pz.s:2414   .text.FLASH_ROM_ERASE:0000000000000120 .LVL125
C:\Users\LOCALH~1\AppData\Local\Temp\cco469pz.s:2428   .text.FLASH_ROM_ERASE:0000000000000138 .LVL128
C:\Users\LOCALH~1\AppData\Local\Temp\cco469pz.s:2446   .text.FLASH_ROM_ERASE:0000000000000150 .LVL132
C:\Users\LOCALH~1\AppData\Local\Temp\cco469pz.s:2489   .text.FLASH_ROM_ERASE:000000000000017c .LVL135
C:\Users\LOCALH~1\AppData\Local\Temp\cco469pz.s:6729   .debug_str:000000000000037d .LASF117
C:\Users\LOCALH~1\AppData\Local\Temp\cco469pz.s:14     .text.ROM_ERASE:0000000000000000 .LFB61
C:\Users\LOCALH~1\AppData\Local\Temp\cco469pz.s:150    .text.ROM_ERASE:0000000000000098 .LFE61
C:\Users\LOCALH~1\AppData\Local\Temp\cco469pz.s:5561   .debug_loclists:0000000000000428 .LLST0
C:\Users\LOCALH~1\AppData\Local\Temp\cco469pz.s:5583   .debug_loclists:0000000000000455 .LLST1
C:\Users\LOCALH~1\AppData\Local\Temp\cco469pz.s:6685   .debug_str:000000000000025f .LASF61
C:\Users\LOCALH~1\AppData\Local\Temp\cco469pz.s:6683   .debug_str:000000000000024c .LASF63
C:\Users\LOCALH~1\AppData\Local\Temp\cco469pz.s:2154   .text.FLASH_Enhance_Mode:0000000000000000 .LFB60
C:\Users\LOCALH~1\AppData\Local\Temp\cco469pz.s:2190   .text.FLASH_Enhance_Mode:000000000000002e .LFE60
C:\Users\LOCALH~1\AppData\Local\Temp\cco469pz.s:6663   .debug_str:00000000000001b1 .LASF62
C:\Users\LOCALH~1\AppData\Local\Temp\cco469pz.s:6813   .debug_str:00000000000006b1 .LASF64
C:\Users\LOCALH~1\AppData\Local\Temp\cco469pz.s:2125   .text.FLASH_Access_Clock_Cfg:0000000000000000 .LFB59
C:\Users\LOCALH~1\AppData\Local\Temp\cco469pz.s:2147   .text.FLASH_Access_Clock_Cfg:0000000000000018 .LFE59
C:\Users\LOCALH~1\AppData\Local\Temp\cco469pz.s:6693   .debug_str:000000000000028e .LASF65
C:\Users\LOCALH~1\AppData\Local\Temp\cco469pz.s:6711   .debug_str:00000000000002f5 .LASF66
C:\Users\LOCALH~1\AppData\Local\Temp\cco469pz.s:2019   .text.FLASH_ProgramPage_Fast:0000000000000000 .LFB58
C:\Users\LOCALH~1\AppData\Local\Temp\cco469pz.s:2118   .text.FLASH_ProgramPage_Fast:0000000000000064 .LFE58
C:\Users\LOCALH~1\AppData\Local\Temp\cco469pz.s:6703   .debug_str:00000000000002c2 .LASF67
C:\Users\LOCALH~1\AppData\Local\Temp\cco469pz.s:5605   .debug_loclists:0000000000000482 .LLST37
C:\Users\LOCALH~1\AppData\Local\Temp\cco469pz.s:5654   .debug_loclists:00000000000004d6 .LLST38
C:\Users\LOCALH~1\AppData\Local\Temp\cco469pz.s:5708   .debug_loclists:000000000000052f .LLST39
C:\Users\LOCALH~1\AppData\Local\Temp\cco469pz.s:6753   .debug_str:000000000000043e .LASF69
C:\Users\LOCALH~1\AppData\Local\Temp\cco469pz.s:1966   .text.FLASH_EraseBlock_64K_Fast:0000000000000000 .LFB57
C:\Users\LOCALH~1\AppData\Local\Temp\cco469pz.s:2012   .text.FLASH_EraseBlock_64K_Fast:0000000000000030 .LFE57
C:\Users\LOCALH~1\AppData\Local\Temp\cco469pz.s:6627   .debug_str:00000000000000d1 .LASF70
C:\Users\LOCALH~1\AppData\Local\Temp\cco469pz.s:5717   .debug_loclists:000000000000053d .LLST36
C:\Users\LOCALH~1\AppData\Local\Temp\cco469pz.s:6621   .debug_str:00000000000000a1 .LASF71
C:\Users\LOCALH~1\AppData\Local\Temp\cco469pz.s:1913   .text.FLASH_EraseBlock_32K_Fast:0000000000000000 .LFB56
C:\Users\LOCALH~1\AppData\Local\Temp\cco469pz.s:1959   .text.FLASH_EraseBlock_32K_Fast:0000000000000030 .LFE56
C:\Users\LOCALH~1\AppData\Local\Temp\cco469pz.s:5729   .debug_loclists:0000000000000554 .LLST35
C:\Users\LOCALH~1\AppData\Local\Temp\cco469pz.s:6607   .debug_str:0000000000000044 .LASF72
C:\Users\LOCALH~1\AppData\Local\Temp\cco469pz.s:1860   .text.FLASH_ErasePage_Fast:0000000000000000 .LFB55
C:\Users\LOCALH~1\AppData\Local\Temp\cco469pz.s:1906   .text.FLASH_ErasePage_Fast:000000000000002e .LFE55
C:\Users\LOCALH~1\AppData\Local\Temp\cco469pz.s:5741   .debug_loclists:000000000000056b .LLST34
C:\Users\LOCALH~1\AppData\Local\Temp\cco469pz.s:6767   .debug_str:00000000000004b3 .LASF73
C:\Users\LOCALH~1\AppData\Local\Temp\cco469pz.s:1839   .text.FLASH_Lock_Fast:0000000000000000 .LFB54
C:\Users\LOCALH~1\AppData\Local\Temp\cco469pz.s:1853   .text.FLASH_Lock_Fast:000000000000000e .LFE54
C:\Users\LOCALH~1\AppData\Local\Temp\cco469pz.s:6681   .debug_str:000000000000023a .LASF74
C:\Users\LOCALH~1\AppData\Local\Temp\cco469pz.s:1807   .text.FLASH_Unlock_Fast:0000000000000000 .LFB53
C:\Users\LOCALH~1\AppData\Local\Temp\cco469pz.s:1832   .text.FLASH_Unlock_Fast:000000000000001e .LFE53
C:\Users\LOCALH~1\AppData\Local\Temp\cco469pz.s:6741   .debug_str:00000000000003bc .LASF108
C:\Users\LOCALH~1\AppData\Local\Temp\cco469pz.s:6739   .debug_str:00000000000003b4 .LASF76
C:\Users\LOCALH~1\AppData\Local\Temp\cco469pz.s:6819   .debug_str:00000000000006db .LASF75
C:\Users\LOCALH~1\AppData\Local\Temp\cco469pz.s:448    .text.FLASH_WaitForLastOperation:0000000000000000 .LFB51
C:\Users\LOCALH~1\AppData\Local\Temp\cco469pz.s:504    .text.FLASH_WaitForLastOperation:0000000000000034 .LFE51
C:\Users\LOCALH~1\AppData\Local\Temp\cco469pz.s:5753   .debug_loclists:0000000000000582 .LLST6
C:\Users\LOCALH~1\AppData\Local\Temp\cco469pz.s:5765   .debug_loclists:0000000000000599 .LLST7
C:\Users\LOCALH~1\AppData\Local\Temp\cco469pz.s:466    .text.FLASH_WaitForLastOperation:0000000000000014 .LVL25
C:\Users\LOCALH~1\AppData\Local\Temp\cco469pz.s:485    .text.FLASH_WaitForLastOperation:0000000000000026 .LVL28
C:\Users\LOCALH~1\AppData\Local\Temp\cco469pz.s:6599   .debug_str:000000000000000f .LASF118
C:\Users\LOCALH~1\AppData\Local\Temp\cco469pz.s:6691   .debug_str:0000000000000282 .LASF77
C:\Users\LOCALH~1\AppData\Local\Temp\cco469pz.s:6755   .debug_str:0000000000000458 .LASF78
C:\Users\LOCALH~1\AppData\Local\Temp\cco469pz.s:380    .text.FLASH_GetStatus:0000000000000000 .LFB49
C:\Users\LOCALH~1\AppData\Local\Temp\cco469pz.s:405    .text.FLASH_GetStatus:0000000000000016 .LFE49
C:\Users\LOCALH~1\AppData\Local\Temp\cco469pz.s:6807   .debug_str:0000000000000679 .LASF79
C:\Users\LOCALH~1\AppData\Local\Temp\cco469pz.s:362    .text.FLASH_ClearFlag:0000000000000000 .LFB48
C:\Users\LOCALH~1\AppData\Local\Temp\cco469pz.s:373    .text.FLASH_ClearFlag:0000000000000008 .LFE48
C:\Users\LOCALH~1\AppData\Local\Temp\cco469pz.s:6781   .debug_str:0000000000000511 .LASF80
C:\Users\LOCALH~1\AppData\Local\Temp\cco469pz.s:6649   .debug_str:000000000000014f .LASF81
C:\Users\LOCALH~1\AppData\Local\Temp\cco469pz.s:322    .text.FLASH_GetFlagStatus:0000000000000000 .LFB47
C:\Users\LOCALH~1\AppData\Local\Temp\cco469pz.s:355    .text.FLASH_GetFlagStatus:000000000000001e .LFE47
C:\Users\LOCALH~1\AppData\Local\Temp\cco469pz.s:5794   .debug_loclists:00000000000005d3 .LLST4
C:\Users\LOCALH~1\AppData\Local\Temp\cco469pz.s:6699   .debug_str:00000000000002aa .LASF82
C:\Users\LOCALH~1\AppData\Local\Temp\cco469pz.s:5822   .debug_loclists:0000000000000606 .LLST5
C:\Users\LOCALH~1\AppData\Local\Temp\cco469pz.s:6597   .debug_str:0000000000000000 .LASF83
C:\Users\LOCALH~1\AppData\Local\Temp\cco469pz.s:285    .text.FLASH_ITConfig:0000000000000000 .LFB46
C:\Users\LOCALH~1\AppData\Local\Temp\cco469pz.s:315    .text.FLASH_ITConfig:000000000000001e .LFE46
C:\Users\LOCALH~1\AppData\Local\Temp\cco469pz.s:6619   .debug_str:0000000000000098 .LASF84
C:\Users\LOCALH~1\AppData\Local\Temp\cco469pz.s:5835   .debug_loclists:000000000000061e .LLST3
C:\Users\LOCALH~1\AppData\Local\Temp\cco469pz.s:6743   .debug_str:00000000000003dc .LASF85
C:\Users\LOCALH~1\AppData\Local\Temp\cco469pz.s:260    .text.FLASH_GetReadOutProtectionStatus:0000000000000000 .LFB45
C:\Users\LOCALH~1\AppData\Local\Temp\cco469pz.s:278    .text.FLASH_GetReadOutProtectionStatus:000000000000000c .LFE45
C:\Users\LOCALH~1\AppData\Local\Temp\cco469pz.s:6775   .debug_str:00000000000004ea .LASF86
C:\Users\LOCALH~1\AppData\Local\Temp\cco469pz.s:5858   .debug_loclists:0000000000000646 .LLST2
C:\Users\LOCALH~1\AppData\Local\Temp\cco469pz.s:6747   .debug_str:000000000000040d .LASF87
C:\Users\LOCALH~1\AppData\Local\Temp\cco469pz.s:243    .text.FLASH_GetWriteProtectionOptionByte:0000000000000000 .LFB44
C:\Users\LOCALH~1\AppData\Local\Temp\cco469pz.s:253    .text.FLASH_GetWriteProtectionOptionByte:0000000000000008 .LFE44
C:\Users\LOCALH~1\AppData\Local\Temp\cco469pz.s:6769   .debug_str:00000000000004c3 .LASF88
C:\Users\LOCALH~1\AppData\Local\Temp\cco469pz.s:225    .text.FLASH_GetUserOptionByte:0000000000000000 .LFB43
C:\Users\LOCALH~1\AppData\Local\Temp\cco469pz.s:236    .text.FLASH_GetUserOptionByte:000000000000000a .LFE43
C:\Users\LOCALH~1\AppData\Local\Temp\cco469pz.s:6675   .debug_str:00000000000001fe .LASF89
C:\Users\LOCALH~1\AppData\Local\Temp\cco469pz.s:1603   .text.FLASH_UserOptionByteConfig:0000000000000000 .LFB42
C:\Users\LOCALH~1\AppData\Local\Temp\cco469pz.s:1788   .text.FLASH_UserOptionByteConfig:00000000000000fc .LFE42
C:\Users\LOCALH~1\AppData\Local\Temp\cco469pz.s:6601   .debug_str:0000000000000024 .LASF90
C:\Users\LOCALH~1\AppData\Local\Temp\cco469pz.s:5880   .debug_loclists:0000000000000667 .LLST30
C:\Users\LOCALH~1\AppData\Local\Temp\cco469pz.s:6823   .debug_str:00000000000006fb .LASF91
C:\Users\LOCALH~1\AppData\Local\Temp\cco469pz.s:5895   .debug_loclists:0000000000000681 .LLST31
C:\Users\LOCALH~1\AppData\Local\Temp\cco469pz.s:6825   .debug_str:0000000000000703 .LASF92
C:\Users\LOCALH~1\AppData\Local\Temp\cco469pz.s:5910   .debug_loclists:000000000000069b .LLST32
C:\Users\LOCALH~1\AppData\Local\Temp\cco469pz.s:5925   .debug_loclists:00000000000006b5 .LLST33
C:\Users\LOCALH~1\AppData\Local\Temp\cco469pz.s:6799   .debug_str:000000000000065e .LASF93
C:\Users\LOCALH~1\AppData\Local\Temp\cco469pz.s:1643   .text.FLASH_UserOptionByteConfig:0000000000000032 .LVL85
C:\Users\LOCALH~1\AppData\Local\Temp\cco469pz.s:6677   .debug_str:0000000000000219 .LASF94
C:\Users\LOCALH~1\AppData\Local\Temp\cco469pz.s:1417   .text.FLASH_ReadOutProtection:0000000000000000 .LFB41
C:\Users\LOCALH~1\AppData\Local\Temp\cco469pz.s:1596   .text.FLASH_ReadOutProtection:00000000000000f8 .LFE41
C:\Users\LOCALH~1\AppData\Local\Temp\cco469pz.s:5938   .debug_loclists:00000000000006cd .LLST28
C:\Users\LOCALH~1\AppData\Local\Temp\cco469pz.s:5950   .debug_loclists:00000000000006e4 .LLST29
C:\Users\LOCALH~1\AppData\Local\Temp\cco469pz.s:1440   .text.FLASH_ReadOutProtection:0000000000000018 .LVL81
C:\Users\LOCALH~1\AppData\Local\Temp\cco469pz.s:6757   .debug_str:0000000000000468 .LASF95
C:\Users\LOCALH~1\AppData\Local\Temp\cco469pz.s:1207   .text.FLASH_EnableWriteProtection:0000000000000000 .LFB40
C:\Users\LOCALH~1\AppData\Local\Temp\cco469pz.s:1410   .text.FLASH_EnableWriteProtection:000000000000010e .LFE40
C:\Users\LOCALH~1\AppData\Local\Temp\cco469pz.s:6687   .debug_str:000000000000026a .LASF96
C:\Users\LOCALH~1\AppData\Local\Temp\cco469pz.s:5963   .debug_loclists:00000000000006fc .LLST22
C:\Users\LOCALH~1\AppData\Local\Temp\cco469pz.s:6727   .debug_str:0000000000000373 .LASF97
C:\Users\LOCALH~1\AppData\Local\Temp\cco469pz.s:5986   .debug_loclists:0000000000000724 .LLST23
C:\Users\LOCALH~1\AppData\Local\Temp\cco469pz.s:6771   .debug_str:00000000000004db .LASF98
C:\Users\LOCALH~1\AppData\Local\Temp\cco469pz.s:6017   .debug_loclists:0000000000000754 .LLST24
C:\Users\LOCALH~1\AppData\Local\Temp\cco469pz.s:6603   .debug_str:000000000000002c .LASF99
C:\Users\LOCALH~1\AppData\Local\Temp\cco469pz.s:6052   .debug_loclists:0000000000000788 .LLST25
C:\Users\LOCALH~1\AppData\Local\Temp\cco469pz.s:6719   .debug_str:0000000000000342 .LASF100
C:\Users\LOCALH~1\AppData\Local\Temp\cco469pz.s:6087   .debug_loclists:00000000000007bc .LLST26
C:\Users\LOCALH~1\AppData\Local\Temp\cco469pz.s:6116   .debug_loclists:00000000000007ea .LLST27
C:\Users\LOCALH~1\AppData\Local\Temp\cco469pz.s:1237   .text.FLASH_EnableWriteProtection:0000000000000016 .LVL77
C:\Users\LOCALH~1\AppData\Local\Temp\cco469pz.s:6765   .debug_str:0000000000000497 .LASF101
C:\Users\LOCALH~1\AppData\Local\Temp\cco469pz.s:1002   .text.FLASH_ProgramOptionByteData:0000000000000000 .LFB39
C:\Users\LOCALH~1\AppData\Local\Temp\cco469pz.s:1200   .text.FLASH_ProgramOptionByteData:0000000000000114 .LFE39
C:\Users\LOCALH~1\AppData\Local\Temp\cco469pz.s:6633   .debug_str:00000000000000f0 .LASF102
C:\Users\LOCALH~1\AppData\Local\Temp\cco469pz.s:6129   .debug_loclists:0000000000000802 .LLST19
C:\Users\LOCALH~1\AppData\Local\Temp\cco469pz.s:6695   .debug_str:000000000000029f .LASF103
C:\Users\LOCALH~1\AppData\Local\Temp\cco469pz.s:6169   .debug_loclists:0000000000000851 .LLST20
C:\Users\LOCALH~1\AppData\Local\Temp\cco469pz.s:6184   .debug_loclists:000000000000086b .LLST21
C:\Users\LOCALH~1\AppData\Local\Temp\cco469pz.s:1029   .text.FLASH_ProgramOptionByteData:0000000000000018 .LVL68
C:\Users\LOCALH~1\AppData\Local\Temp\cco469pz.s:6811   .debug_str:000000000000069b .LASF104
C:\Users\LOCALH~1\AppData\Local\Temp\cco469pz.s:935    .text.FLASH_ProgramHalfWord:0000000000000000 .LFB38
C:\Users\LOCALH~1\AppData\Local\Temp\cco469pz.s:995    .text.FLASH_ProgramHalfWord:0000000000000044 .LFE38
C:\Users\LOCALH~1\AppData\Local\Temp\cco469pz.s:6197   .debug_loclists:0000000000000883 .LLST16
C:\Users\LOCALH~1\AppData\Local\Temp\cco469pz.s:6209   .debug_loclists:000000000000089a .LLST17
C:\Users\LOCALH~1\AppData\Local\Temp\cco469pz.s:6224   .debug_loclists:00000000000008b4 .LLST18
C:\Users\LOCALH~1\AppData\Local\Temp\cco469pz.s:957    .text.FLASH_ProgramHalfWord:0000000000000016 .LVL62
C:\Users\LOCALH~1\AppData\Local\Temp\cco469pz.s:978    .text.FLASH_ProgramHalfWord:0000000000000036 .LVL64
C:\Users\LOCALH~1\AppData\Local\Temp\cco469pz.s:6809   .debug_str:0000000000000689 .LASF105
C:\Users\LOCALH~1\AppData\Local\Temp\cco469pz.s:828    .text.FLASH_ProgramWord:0000000000000000 .LFB37
C:\Users\LOCALH~1\AppData\Local\Temp\cco469pz.s:928    .text.FLASH_ProgramWord:0000000000000068 .LFE37
C:\Users\LOCALH~1\AppData\Local\Temp\cco469pz.s:6242   .debug_loclists:00000000000008d7 .LLST13
C:\Users\LOCALH~1\AppData\Local\Temp\cco469pz.s:6269   .debug_loclists:0000000000000909 .LLST14
C:\Users\LOCALH~1\AppData\Local\Temp\cco469pz.s:6289   .debug_loclists:000000000000092e .LLST15
C:\Users\LOCALH~1\AppData\Local\Temp\cco469pz.s:859    .text.FLASH_ProgramWord:000000000000001c .LVL52
C:\Users\LOCALH~1\AppData\Local\Temp\cco469pz.s:882    .text.FLASH_ProgramWord:0000000000000040 .LVL54
C:\Users\LOCALH~1\AppData\Local\Temp\cco469pz.s:906    .text.FLASH_ProgramWord:0000000000000058 .LVL58
C:\Users\LOCALH~1\AppData\Local\Temp\cco469pz.s:6609   .debug_str:0000000000000059 .LASF106
C:\Users\LOCALH~1\AppData\Local\Temp\cco469pz.s:650    .text.FLASH_EraseOptionBytes:0000000000000000 .LFB36
C:\Users\LOCALH~1\AppData\Local\Temp\cco469pz.s:821    .text.FLASH_EraseOptionBytes:00000000000000e6 .LFE36
C:\Users\LOCALH~1\AppData\Local\Temp\cco469pz.s:6777   .debug_str:00000000000004f8 .LASF107
C:\Users\LOCALH~1\AppData\Local\Temp\cco469pz.s:6312   .debug_loclists:000000000000095c .LLST11
C:\Users\LOCALH~1\AppData\Local\Temp\cco469pz.s:6326   .debug_loclists:0000000000000975 .LLST12
C:\Users\LOCALH~1\AppData\Local\Temp\cco469pz.s:670    .text.FLASH_EraseOptionBytes:0000000000000012 .LVL42
C:\Users\LOCALH~1\AppData\Local\Temp\cco469pz.s:682    .text.FLASH_EraseOptionBytes:0000000000000026 .LVL44
C:\Users\LOCALH~1\AppData\Local\Temp\cco469pz.s:716    .text.FLASH_EraseOptionBytes:0000000000000060 .LVL46
C:\Users\LOCALH~1\AppData\Local\Temp\cco469pz.s:742    .text.FLASH_EraseOptionBytes:0000000000000086 .LVL48
C:\Users\LOCALH~1\AppData\Local\Temp\cco469pz.s:6661   .debug_str:0000000000000198 .LASF109
C:\Users\LOCALH~1\AppData\Local\Temp\cco469pz.s:6651   .debug_str:0000000000000163 .LASF110
C:\Users\LOCALH~1\AppData\Local\Temp\cco469pz.s:579    .text.FLASH_EraseAllPages:0000000000000000 .LFB34
C:\Users\LOCALH~1\AppData\Local\Temp\cco469pz.s:631    .text.FLASH_EraseAllPages:0000000000000048 .LFE34
C:\Users\LOCALH~1\AppData\Local\Temp\cco469pz.s:6349   .debug_loclists:00000000000009a3 .LLST10
C:\Users\LOCALH~1\AppData\Local\Temp\cco469pz.s:592    .text.FLASH_EraseAllPages:0000000000000014 .LVL38
C:\Users\LOCALH~1\AppData\Local\Temp\cco469pz.s:616    .text.FLASH_EraseAllPages:000000000000003a .LVL40
C:\Users\LOCALH~1\AppData\Local\Temp\cco469pz.s:6665   .debug_str:00000000000001ba .LASF111
C:\Users\LOCALH~1\AppData\Local\Temp\cco469pz.s:511    .text.FLASH_ErasePage:0000000000000000 .LFB33
C:\Users\LOCALH~1\AppData\Local\Temp\cco469pz.s:572    .text.FLASH_ErasePage:000000000000004c .LFE33
C:\Users\LOCALH~1\AppData\Local\Temp\cco469pz.s:6367   .debug_loclists:00000000000009c6 .LLST8
C:\Users\LOCALH~1\AppData\Local\Temp\cco469pz.s:6379   .debug_loclists:00000000000009dd .LLST9
C:\Users\LOCALH~1\AppData\Local\Temp\cco469pz.s:529    .text.FLASH_ErasePage:0000000000000016 .LVL34
C:\Users\LOCALH~1\AppData\Local\Temp\cco469pz.s:556    .text.FLASH_ErasePage:000000000000003e .LVL36
C:\Users\LOCALH~1\AppData\Local\Temp\cco469pz.s:6745   .debug_str:00000000000003fd .LASF113
C:\Users\LOCALH~1\AppData\Local\Temp\cco469pz.s:6707   .debug_str:00000000000002de .LASF112
C:\Users\LOCALH~1\AppData\Local\Temp\cco469pz.s:193    .text.FLASH_Lock:0000000000000000 .LFB31
C:\Users\LOCALH~1\AppData\Local\Temp\cco469pz.s:206    .text.FLASH_Lock:000000000000000e .LFE31
C:\Users\LOCALH~1\AppData\Local\Temp\cco469pz.s:6669   .debug_str:00000000000001d2 .LASF114
C:\Users\LOCALH~1\AppData\Local\Temp\cco469pz.s:6647   .debug_str:0000000000000142 .LASF115
C:\Users\LOCALH~1\AppData\Local\Temp\cco469pz.s:157    .text.FLASH_Unlock:0000000000000000 .LFB29
C:\Users\LOCALH~1\AppData\Local\Temp\cco469pz.s:174    .text.FLASH_Unlock:000000000000001a .LFE29
C:\Users\LOCALH~1\AppData\Local\Temp\cco469pz.s:412    .text.FLASH_GetBank1Status:0000000000000000 .LFB50
C:\Users\LOCALH~1\AppData\Local\Temp\cco469pz.s:441    .text.FLASH_GetBank1Status:0000000000000016 .LFE50
C:\Users\LOCALH~1\AppData\Local\Temp\cco469pz.s:425    .text.FLASH_GetBank1Status:000000000000000a .LBB4
C:\Users\LOCALH~1\AppData\Local\Temp\cco469pz.s:437    .text.FLASH_GetBank1Status:0000000000000014 .LBE4
C:\Users\LOCALH~1\AppData\Local\Temp\cco469pz.s:2540   .text.FLASH_ROM_WRITE:0000000000000000 .LVL140
C:\Users\LOCALH~1\AppData\Local\Temp\cco469pz.s:2561   .text.FLASH_ROM_WRITE:000000000000001c .LVL141
C:\Users\LOCALH~1\AppData\Local\Temp\cco469pz.s:2605   .text.FLASH_ROM_WRITE:0000000000000058 .LVL144
C:\Users\LOCALH~1\AppData\Local\Temp\cco469pz.s:2614   .text.FLASH_ROM_WRITE:0000000000000064 .LVL145
C:\Users\LOCALH~1\AppData\Local\Temp\cco469pz.s:2619   .text.FLASH_ROM_WRITE:000000000000006a .LVL146
C:\Users\LOCALH~1\AppData\Local\Temp\cco469pz.s:2642   .text.FLASH_ROM_WRITE:000000000000007c .LVL147
C:\Users\LOCALH~1\AppData\Local\Temp\cco469pz.s:2651   .text.FLASH_ROM_WRITE:0000000000000088 .LVL149
C:\Users\LOCALH~1\AppData\Local\Temp\cco469pz.s:2654   .text.FLASH_ROM_WRITE:000000000000008c .LVL150
C:\Users\LOCALH~1\AppData\Local\Temp\cco469pz.s:2668   .text.FLASH_ROM_WRITE:000000000000009a .LVL151
C:\Users\LOCALH~1\AppData\Local\Temp\cco469pz.s:2672   .text.FLASH_ROM_WRITE:00000000000000a0 .LVL152
C:\Users\LOCALH~1\AppData\Local\Temp\cco469pz.s:2719   .text.FLASH_ROM_WRITE:00000000000000ce .LVL155
C:\Users\LOCALH~1\AppData\Local\Temp\cco469pz.s:2723   .text.FLASH_ROM_WRITE:00000000000000d2 .LVL156
C:\Users\LOCALH~1\AppData\Local\Temp\cco469pz.s:2595   .text.FLASH_ROM_WRITE:0000000000000052 .LVL142
C:\Users\LOCALH~1\AppData\Local\Temp\cco469pz.s:2647   .text.FLASH_ROM_WRITE:0000000000000080 .LVL148
C:\Users\LOCALH~1\AppData\Local\Temp\cco469pz.s:2598   .text.FLASH_ROM_WRITE:0000000000000054 .LVL143
C:\Users\LOCALH~1\AppData\Local\Temp\cco469pz.s:2693   .text.FLASH_ROM_WRITE:00000000000000b4 .LVL153
C:\Users\LOCALH~1\AppData\Local\Temp\cco469pz.s:2698   .text.FLASH_ROM_WRITE:00000000000000b8 .LVL154
C:\Users\LOCALH~1\AppData\Local\Temp\cco469pz.s:2200   .text.FLASH_ROM_ERASE:0000000000000000 .LVL102
C:\Users\LOCALH~1\AppData\Local\Temp\cco469pz.s:2291   .text.FLASH_ROM_ERASE:000000000000007c .LVL109
C:\Users\LOCALH~1\AppData\Local\Temp\cco469pz.s:2324   .text.FLASH_ROM_ERASE:00000000000000aa .LVL113
C:\Users\LOCALH~1\AppData\Local\Temp\cco469pz.s:2326   .text.FLASH_ROM_ERASE:00000000000000ac .LVL114
C:\Users\LOCALH~1\AppData\Local\Temp\cco469pz.s:2349   .text.FLASH_ROM_ERASE:00000000000000c6 .LVL118
C:\Users\LOCALH~1\AppData\Local\Temp\cco469pz.s:2386   .text.FLASH_ROM_ERASE:00000000000000f8 .LVL123
C:\Users\LOCALH~1\AppData\Local\Temp\cco469pz.s:2418   .text.FLASH_ROM_ERASE:0000000000000124 .LVL127
C:\Users\LOCALH~1\AppData\Local\Temp\cco469pz.s:2430   .text.FLASH_ROM_ERASE:000000000000013a .LVL129
C:\Users\LOCALH~1\AppData\Local\Temp\cco469pz.s:2442   .text.FLASH_ROM_ERASE:0000000000000148 .LVL131
C:\Users\LOCALH~1\AppData\Local\Temp\cco469pz.s:2480   .text.FLASH_ROM_ERASE:0000000000000170 .LVL134
C:\Users\LOCALH~1\AppData\Local\Temp\cco469pz.s:2497   .text.FLASH_ROM_ERASE:0000000000000186 .LVL136
C:\Users\LOCALH~1\AppData\Local\Temp\cco469pz.s:2507   .text.FLASH_ROM_ERASE:0000000000000194 .LVL137
C:\Users\LOCALH~1\AppData\Local\Temp\cco469pz.s:2512   .text.FLASH_ROM_ERASE:0000000000000198 .LVL138
C:\Users\LOCALH~1\AppData\Local\Temp\cco469pz.s:2527   .text.FLASH_ROM_ERASE:000000000000019e .LVL139
C:\Users\LOCALH~1\AppData\Local\Temp\cco469pz.s:2275   .text.FLASH_ROM_ERASE:000000000000006a .LVL105
C:\Users\LOCALH~1\AppData\Local\Temp\cco469pz.s:2322   .text.FLASH_ROM_ERASE:00000000000000a8 .LVL112
C:\Users\LOCALH~1\AppData\Local\Temp\cco469pz.s:2342   .text.FLASH_ROM_ERASE:00000000000000be .LVL116
C:\Users\LOCALH~1\AppData\Local\Temp\cco469pz.s:2358   .text.FLASH_ROM_ERASE:00000000000000cc .LVL119
C:\Users\LOCALH~1\AppData\Local\Temp\cco469pz.s:2380   .text.FLASH_ROM_ERASE:00000000000000f2 .LVL122
C:\Users\LOCALH~1\AppData\Local\Temp\cco469pz.s:2416   .text.FLASH_ROM_ERASE:0000000000000122 .LVL126
C:\Users\LOCALH~1\AppData\Local\Temp\cco469pz.s:2260   .text.FLASH_ROM_ERASE:0000000000000058 .LVL103
C:\Users\LOCALH~1\AppData\Local\Temp\cco469pz.s:2465   .text.FLASH_ROM_ERASE:0000000000000166 .LVL133
C:\Users\LOCALH~1\AppData\Local\Temp\cco469pz.s:2278   .text.FLASH_ROM_ERASE:000000000000006e .LVL106
C:\Users\LOCALH~1\AppData\Local\Temp\cco469pz.s:2286   .text.FLASH_ROM_ERASE:0000000000000076 .LVL108
C:\Users\LOCALH~1\AppData\Local\Temp\cco469pz.s:2308   .text.FLASH_ROM_ERASE:0000000000000092 .LVL110
C:\Users\LOCALH~1\AppData\Local\Temp\cco469pz.s:2345   .text.FLASH_ROM_ERASE:00000000000000c2 .LVL117
C:\Users\LOCALH~1\AppData\Local\Temp\cco469pz.s:2403   .text.FLASH_ROM_ERASE:000000000000010e .LVL124
C:\Users\LOCALH~1\AppData\Local\Temp\cco469pz.s:2271   .text.FLASH_ROM_ERASE:0000000000000068 .LVL104
C:\Users\LOCALH~1\AppData\Local\Temp\cco469pz.s:2338   .text.FLASH_ROM_ERASE:00000000000000bc .LVL115
C:\Users\LOCALH~1\AppData\Local\Temp\cco469pz.s:2368   .text.FLASH_ROM_ERASE:00000000000000dc .LVL120
C:\Users\LOCALH~1\AppData\Local\Temp\cco469pz.s:2436   .text.FLASH_ROM_ERASE:0000000000000142 .LVL130
C:\Users\LOCALH~1\AppData\Local\Temp\cco469pz.s:2282   .text.FLASH_ROM_ERASE:0000000000000072 .LVL107
C:\Users\LOCALH~1\AppData\Local\Temp\cco469pz.s:18     .text.ROM_ERASE:0000000000000000 .LVL0
C:\Users\LOCALH~1\AppData\Local\Temp\cco469pz.s:25     .text.ROM_ERASE:0000000000000006 .LVL1
C:\Users\LOCALH~1\AppData\Local\Temp\cco469pz.s:87     .text.ROM_ERASE:0000000000000050 .LVL3
C:\Users\LOCALH~1\AppData\Local\Temp\cco469pz.s:91     .text.ROM_ERASE:0000000000000054 .LVL4
C:\Users\LOCALH~1\AppData\Local\Temp\cco469pz.s:118    .text.ROM_ERASE:0000000000000076 .LVL5
C:\Users\LOCALH~1\AppData\Local\Temp\cco469pz.s:122    .text.ROM_ERASE:000000000000007a .LVL6
C:\Users\LOCALH~1\AppData\Local\Temp\cco469pz.s:139    .text.ROM_ERASE:0000000000000090 .LVL7
C:\Users\LOCALH~1\AppData\Local\Temp\cco469pz.s:2022   .text.FLASH_ProgramPage_Fast:0000000000000000 .LVL92
C:\Users\LOCALH~1\AppData\Local\Temp\cco469pz.s:2032   .text.FLASH_ProgramPage_Fast:000000000000000c .LVL93
C:\Users\LOCALH~1\AppData\Local\Temp\cco469pz.s:2060   .text.FLASH_ProgramPage_Fast:0000000000000028 .LVL94
C:\Users\LOCALH~1\AppData\Local\Temp\cco469pz.s:2069   .text.FLASH_ProgramPage_Fast:0000000000000034 .LVL96
C:\Users\LOCALH~1\AppData\Local\Temp\cco469pz.s:2072   .text.FLASH_ProgramPage_Fast:0000000000000038 .LVL97
C:\Users\LOCALH~1\AppData\Local\Temp\cco469pz.s:2086   .text.FLASH_ProgramPage_Fast:0000000000000040 .LVL98
C:\Users\LOCALH~1\AppData\Local\Temp\cco469pz.s:2091   .text.FLASH_ProgramPage_Fast:0000000000000046 .LVL99
C:\Users\LOCALH~1\AppData\Local\Temp\cco469pz.s:2065   .text.FLASH_ProgramPage_Fast:000000000000002c .LVL95
C:\Users\LOCALH~1\AppData\Local\Temp\cco469pz.s:1969   .text.FLASH_EraseBlock_64K_Fast:0000000000000000 .LVL90
C:\Users\LOCALH~1\AppData\Local\Temp\cco469pz.s:1974   .text.FLASH_EraseBlock_64K_Fast:0000000000000004 .LVL91
C:\Users\LOCALH~1\AppData\Local\Temp\cco469pz.s:1916   .text.FLASH_EraseBlock_32K_Fast:0000000000000000 .LVL88
C:\Users\LOCALH~1\AppData\Local\Temp\cco469pz.s:1921   .text.FLASH_EraseBlock_32K_Fast:0000000000000004 .LVL89
C:\Users\LOCALH~1\AppData\Local\Temp\cco469pz.s:1863   .text.FLASH_ErasePage_Fast:0000000000000000 .LVL86
C:\Users\LOCALH~1\AppData\Local\Temp\cco469pz.s:1872   .text.FLASH_ErasePage_Fast:000000000000000e .LVL87
C:\Users\LOCALH~1\AppData\Local\Temp\cco469pz.s:451    .text.FLASH_WaitForLastOperation:0000000000000000 .LVL23
C:\Users\LOCALH~1\AppData\Local\Temp\cco469pz.s:458    .text.FLASH_WaitForLastOperation:0000000000000008 .LVL24
C:\Users\LOCALH~1\AppData\Local\Temp\cco469pz.s:476    .text.FLASH_WaitForLastOperation:000000000000001c .LVL26
C:\Users\LOCALH~1\AppData\Local\Temp\cco469pz.s:480    .text.FLASH_WaitForLastOperation:000000000000001e .LVL27
C:\Users\LOCALH~1\AppData\Local\Temp\cco469pz.s:495    .text.FLASH_WaitForLastOperation:000000000000002c .LVL30
C:\Users\LOCALH~1\AppData\Local\Temp\cco469pz.s:325    .text.FLASH_GetFlagStatus:0000000000000000 .LVL15
C:\Users\LOCALH~1\AppData\Local\Temp\cco469pz.s:335    .text.FLASH_GetFlagStatus:000000000000000c .LVL16
C:\Users\LOCALH~1\AppData\Local\Temp\cco469pz.s:339    .text.FLASH_GetFlagStatus:0000000000000010 .LVL17
C:\Users\LOCALH~1\AppData\Local\Temp\cco469pz.s:347    .text.FLASH_GetFlagStatus:0000000000000018 .LVL18
C:\Users\LOCALH~1\AppData\Local\Temp\cco469pz.s:350    .text.FLASH_GetFlagStatus:000000000000001c .LVL19
C:\Users\LOCALH~1\AppData\Local\Temp\cco469pz.s:288    .text.FLASH_ITConfig:0000000000000000 .LVL12
C:\Users\LOCALH~1\AppData\Local\Temp\cco469pz.s:307    .text.FLASH_ITConfig:0000000000000018 .LVL13
C:\Users\LOCALH~1\AppData\Local\Temp\cco469pz.s:310    .text.FLASH_ITConfig:000000000000001a .LVL14
C:\Users\LOCALH~1\AppData\Local\Temp\cco469pz.s:264    .text.FLASH_GetReadOutProtectionStatus:0000000000000000 .LVL9
C:\Users\LOCALH~1\AppData\Local\Temp\cco469pz.s:269    .text.FLASH_GetReadOutProtectionStatus:0000000000000006 .LVL10
C:\Users\LOCALH~1\AppData\Local\Temp\cco469pz.s:273    .text.FLASH_GetReadOutProtectionStatus:0000000000000008 .LVL11
C:\Users\LOCALH~1\AppData\Local\Temp\cco469pz.s:1606   .text.FLASH_UserOptionByteConfig:0000000000000000 .LVL82
C:\Users\LOCALH~1\AppData\Local\Temp\cco469pz.s:1637   .text.FLASH_UserOptionByteConfig:0000000000000026 .LVL84
C:\Users\LOCALH~1\AppData\Local\Temp\cco469pz.s:1614   .text.FLASH_UserOptionByteConfig:0000000000000008 .LVL83
C:\Users\LOCALH~1\AppData\Local\Temp\cco469pz.s:1420   .text.FLASH_ReadOutProtection:0000000000000000 .LVL78
C:\Users\LOCALH~1\AppData\Local\Temp\cco469pz.s:1438   .text.FLASH_ReadOutProtection:0000000000000010 .LVL80
C:\Users\LOCALH~1\AppData\Local\Temp\cco469pz.s:1426   .text.FLASH_ReadOutProtection:0000000000000008 .LVL79
C:\Users\LOCALH~1\AppData\Local\Temp\cco469pz.s:1210   .text.FLASH_EnableWriteProtection:0000000000000000 .LVL73
C:\Users\LOCALH~1\AppData\Local\Temp\cco469pz.s:1227   .text.FLASH_EnableWriteProtection:000000000000000c .LVL75
C:\Users\LOCALH~1\AppData\Local\Temp\cco469pz.s:1235   .text.FLASH_EnableWriteProtection:000000000000000e .LVL76
C:\Users\LOCALH~1\AppData\Local\Temp\cco469pz.s:1216   .text.FLASH_EnableWriteProtection:0000000000000008 .LVL74
C:\Users\LOCALH~1\AppData\Local\Temp\cco469pz.s:1005   .text.FLASH_ProgramOptionByteData:0000000000000000 .LVL65
C:\Users\LOCALH~1\AppData\Local\Temp\cco469pz.s:1024   .text.FLASH_ProgramOptionByteData:000000000000000e .LVL67
C:\Users\LOCALH~1\AppData\Local\Temp\cco469pz.s:1096   .text.FLASH_ProgramOptionByteData:0000000000000080 .LVL69
C:\Users\LOCALH~1\AppData\Local\Temp\cco469pz.s:1099   .text.FLASH_ProgramOptionByteData:0000000000000082 .LVL70
C:\Users\LOCALH~1\AppData\Local\Temp\cco469pz.s:1145   .text.FLASH_ProgramOptionByteData:00000000000000c6 .LVL71
C:\Users\LOCALH~1\AppData\Local\Temp\cco469pz.s:1168   .text.FLASH_ProgramOptionByteData:00000000000000ea .LVL72
C:\Users\LOCALH~1\AppData\Local\Temp\cco469pz.s:1012   .text.FLASH_ProgramOptionByteData:0000000000000008 .LVL66
C:\Users\LOCALH~1\AppData\Local\Temp\cco469pz.s:938    .text.FLASH_ProgramHalfWord:0000000000000000 .LVL59
C:\Users\LOCALH~1\AppData\Local\Temp\cco469pz.s:952    .text.FLASH_ProgramHalfWord:000000000000000c .LVL61
C:\Users\LOCALH~1\AppData\Local\Temp\cco469pz.s:946    .text.FLASH_ProgramHalfWord:0000000000000008 .LVL60
C:\Users\LOCALH~1\AppData\Local\Temp\cco469pz.s:968    .text.FLASH_ProgramHalfWord:0000000000000024 .LVL63
C:\Users\LOCALH~1\AppData\Local\Temp\cco469pz.s:831    .text.FLASH_ProgramWord:0000000000000000 .LVL49
C:\Users\LOCALH~1\AppData\Local\Temp\cco469pz.s:849    .text.FLASH_ProgramWord:000000000000000e .LVL51
C:\Users\LOCALH~1\AppData\Local\Temp\cco469pz.s:889    .text.FLASH_ProgramWord:0000000000000046 .LVL55
C:\Users\LOCALH~1\AppData\Local\Temp\cco469pz.s:897    .text.FLASH_ProgramWord:000000000000004c .LVL56
C:\Users\LOCALH~1\AppData\Local\Temp\cco469pz.s:840    .text.FLASH_ProgramWord:0000000000000008 .LVL50
C:\Users\LOCALH~1\AppData\Local\Temp\cco469pz.s:869    .text.FLASH_ProgramWord:0000000000000028 .LVL53
C:\Users\LOCALH~1\AppData\Local\Temp\cco469pz.s:900    .text.FLASH_ProgramWord:000000000000004e .LVL57
C:\Users\LOCALH~1\AppData\Local\Temp\cco469pz.s:660    .text.FLASH_EraseOptionBytes:0000000000000008 .LVL41
C:\Users\LOCALH~1\AppData\Local\Temp\cco469pz.s:677    .text.FLASH_EraseOptionBytes:000000000000001a .LVL43
C:\Users\LOCALH~1\AppData\Local\Temp\cco469pz.s:703    .text.FLASH_EraseOptionBytes:000000000000004a .LVL45
C:\Users\LOCALH~1\AppData\Local\Temp\cco469pz.s:725    .text.FLASH_EraseOptionBytes:0000000000000068 .LVL47
C:\Users\LOCALH~1\AppData\Local\Temp\cco469pz.s:587    .text.FLASH_EraseAllPages:0000000000000008 .LVL37
C:\Users\LOCALH~1\AppData\Local\Temp\cco469pz.s:603    .text.FLASH_EraseAllPages:0000000000000024 .LVL39
C:\Users\LOCALH~1\AppData\Local\Temp\cco469pz.s:514    .text.FLASH_ErasePage:0000000000000000 .LVL31
C:\Users\LOCALH~1\AppData\Local\Temp\cco469pz.s:527    .text.FLASH_ErasePage:000000000000000e .LVL33
C:\Users\LOCALH~1\AppData\Local\Temp\cco469pz.s:521    .text.FLASH_ErasePage:0000000000000008 .LVL32
C:\Users\LOCALH~1\AppData\Local\Temp\cco469pz.s:540    .text.FLASH_ErasePage:0000000000000026 .LVL35
C:\Users\LOCALH~1\AppData\Local\Temp\cco469pz.s:2738   .debug_info:0000000000000000 .Ldebug_info0
C:\Users\LOCALH~1\AppData\Local\Temp\cco469pz.s:181    .text.FLASH_UnlockBank1:0000000000000000 .LFB66
C:\Users\LOCALH~1\AppData\Local\Temp\cco469pz.s:186    .text.FLASH_UnlockBank1:0000000000000008 .LFE66
C:\Users\LOCALH~1\AppData\Local\Temp\cco469pz.s:213    .text.FLASH_LockBank1:0000000000000000 .LFB68
C:\Users\LOCALH~1\AppData\Local\Temp\cco469pz.s:218    .text.FLASH_LockBank1:0000000000000008 .LFE68
C:\Users\LOCALH~1\AppData\Local\Temp\cco469pz.s:638    .text.FLASH_EraseAllBank1Pages:0000000000000000 .LFB70
C:\Users\LOCALH~1\AppData\Local\Temp\cco469pz.s:643    .text.FLASH_EraseAllBank1Pages:0000000000000008 .LFE70
C:\Users\LOCALH~1\AppData\Local\Temp\cco469pz.s:1795   .text.FLASH_WaitForLastBank1Operation:0000000000000000 .LFB72
C:\Users\LOCALH~1\AppData\Local\Temp\cco469pz.s:1800   .text.FLASH_WaitForLastBank1Operation:0000000000000008 .LFE72

UNDEFINED SYMBOLS
__riscv_save_2
__riscv_restore_2
__riscv_save_1
__riscv_restore_1
__riscv_save_3
__riscv_restore_3
__riscv_save_4
__riscv_restore_4
__riscv_save_7
__riscv_restore_7
