   1              		.file	"ch32v30x_opa.c"
   2              		.option nopic
   3              		.attribute arch, "rv32i2p0_m2p0_a2p0_f2p0_c2p0_xw"
   4              		.attribute unaligned_access, 0
   5              		.attribute stack_align, 16
   6              		.text
   7              	.Ltext0:
   8              		.cfi_sections	.debug_frame
   9              		.file 0 "C:\\Users\\localhost\\Documents\\turbomoskal-repo\\qqexpert\\firmware\\MasterController\\
  10              		.section	.text.OPA_DeInit,"ax",@progbits
  11              		.align	1
  12              		.globl	OPA_DeInit
  14              	OPA_DeInit:
  15              	.LFB29:
  16              		.file 1 "../Peripheral/src/ch32v30x_opa.c"
   1:../Peripheral/src/ch32v30x_opa.c **** /********************************** (C) COPYRIGHT  *******************************
   2:../Peripheral/src/ch32v30x_opa.c **** * File Name          : ch32v30x_opa.c
   3:../Peripheral/src/ch32v30x_opa.c **** * Author             : WCH
   4:../Peripheral/src/ch32v30x_opa.c **** * Version            : V1.0.0
   5:../Peripheral/src/ch32v30x_opa.c **** * Date               : 2021/06/06
   6:../Peripheral/src/ch32v30x_opa.c **** * Description        : This file provides all the OPA firmware functions.
   7:../Peripheral/src/ch32v30x_opa.c **** *********************************************************************************
   8:../Peripheral/src/ch32v30x_opa.c **** * Copyright (c) 2021 Nanjing Qinheng Microelectronics Co., Ltd.
   9:../Peripheral/src/ch32v30x_opa.c **** * Attention: This software (modified or not) and binary are used for 
  10:../Peripheral/src/ch32v30x_opa.c **** * microcontroller manufactured by Nanjing Qinheng Microelectronics.
  11:../Peripheral/src/ch32v30x_opa.c **** *******************************************************************************/
  12:../Peripheral/src/ch32v30x_opa.c **** #include "ch32v30x_opa.h"
  13:../Peripheral/src/ch32v30x_opa.c **** 
  14:../Peripheral/src/ch32v30x_opa.c **** #define OPA_MASK         ((uint32_t)0x000F)
  15:../Peripheral/src/ch32v30x_opa.c **** #define OPA_Total_NUM    4
  16:../Peripheral/src/ch32v30x_opa.c **** 
  17:../Peripheral/src/ch32v30x_opa.c **** /*********************************************************************
  18:../Peripheral/src/ch32v30x_opa.c ****  * @fn      OPA_DeInit
  19:../Peripheral/src/ch32v30x_opa.c ****  *
  20:../Peripheral/src/ch32v30x_opa.c ****  * @brief   Deinitializes the OPA peripheral registers to their default
  21:../Peripheral/src/ch32v30x_opa.c ****  *        reset values.
  22:../Peripheral/src/ch32v30x_opa.c ****  *
  23:../Peripheral/src/ch32v30x_opa.c ****  * @return  none
  24:../Peripheral/src/ch32v30x_opa.c ****  */
  25:../Peripheral/src/ch32v30x_opa.c **** void OPA_DeInit(void)
  26:../Peripheral/src/ch32v30x_opa.c **** {
  17              		.loc 1 26 1
  18              		.cfi_startproc
  27:../Peripheral/src/ch32v30x_opa.c ****     OPA->CR = 0;
  19              		.loc 1 27 5
  20              		.loc 1 27 13 is_stmt 0
  21 0000 B7470240 		li	a5,1073889280
  22 0004 23A20780 		sw	zero,-2044(a5)
  28:../Peripheral/src/ch32v30x_opa.c **** }
  23              		.loc 1 28 1
  24 0008 8280     		ret
  25              		.cfi_endproc
  26              	.LFE29:
  28              		.section	.text.OPA_Init,"ax",@progbits
  29              		.align	1
  30              		.globl	OPA_Init
  32              	OPA_Init:
  33              	.LFB30:
  29:../Peripheral/src/ch32v30x_opa.c **** 
  30:../Peripheral/src/ch32v30x_opa.c **** /*********************************************************************
  31:../Peripheral/src/ch32v30x_opa.c ****  * @fn      OPA_Init
  32:../Peripheral/src/ch32v30x_opa.c ****  *
  33:../Peripheral/src/ch32v30x_opa.c ****  * @brief   Initializes the OPA peripheral according to the specified
  34:../Peripheral/src/ch32v30x_opa.c ****  *        parameters in the OPA_InitStruct.
  35:../Peripheral/src/ch32v30x_opa.c ****  *
  36:../Peripheral/src/ch32v30x_opa.c ****  * @param   OPA_InitStruct - pointer to a OPA_InitTypeDef structure
  37:../Peripheral/src/ch32v30x_opa.c ****  *
  38:../Peripheral/src/ch32v30x_opa.c ****  * @return  none
  39:../Peripheral/src/ch32v30x_opa.c ****  */
  40:../Peripheral/src/ch32v30x_opa.c **** void OPA_Init(OPA_InitTypeDef *OPA_InitStruct)
  41:../Peripheral/src/ch32v30x_opa.c **** {
  34              		.loc 1 41 1 is_stmt 1
  35              		.cfi_startproc
  36              	.LVL0:
  42:../Peripheral/src/ch32v30x_opa.c ****     uint32_t tmp = 0;
  37              		.loc 1 42 5
  43:../Peripheral/src/ch32v30x_opa.c ****     tmp = OPA->CR;
  38              		.loc 1 43 5
  44:../Peripheral/src/ch32v30x_opa.c ****     tmp &= ~(OPA_MASK << (OPA_InitStruct->OPA_NUM * OPA_Total_NUM));
  39              		.loc 1 44 51 is_stmt 0
  40 0000 1041     		lw	a2,0(a0)
  43:../Peripheral/src/ch32v30x_opa.c ****     tmp = OPA->CR;
  41              		.loc 1 43 9
  42 0002 B7460240 		li	a3,1073889280
  43 0006 93864680 		addi	a3,a3,-2044
  44 000a 9C42     		lw	a5,0(a3)
  45              	.LVL1:
  46              		.loc 1 44 5 is_stmt 1
  47              		.loc 1 44 51 is_stmt 0
  48 000c 0A06     		slli	a2,a2,2
  49              		.loc 1 44 23
  50 000e 3D47     		li	a4,15
  51 0010 3317C700 		sll	a4,a4,a2
  52              		.loc 1 44 12
  53 0014 1347F7FF 		not	a4,a4
  45:../Peripheral/src/ch32v30x_opa.c ****     tmp |= (((OPA_InitStruct->PSEL << OPA_PSEL_OFFSET) | (OPA_InitStruct->NSEL << OPA_NSEL_OFFSET) 
  54              		.loc 1 45 80
  55 0018 0C45     		lw	a1,8(a0)
  44:../Peripheral/src/ch32v30x_opa.c ****     tmp &= ~(OPA_MASK << (OPA_InitStruct->OPA_NUM * OPA_Total_NUM));
  56              		.loc 1 44 9
  57 001a 7D8F     		and	a4,a4,a5
  58              	.LVL2:
  59              		.loc 1 45 5 is_stmt 1
  60              		.loc 1 45 36 is_stmt 0
  61 001c 5C41     		lw	a5,4(a0)
  62              		.loc 1 45 80
  63 001e 8A05     		slli	a1,a1,2
  64              		.loc 1 45 36
  65 0020 8E07     		slli	a5,a5,3
  66              		.loc 1 45 56
  67 0022 CD8F     		or	a5,a5,a1
  68              		.loc 1 45 124
  69 0024 4C45     		lw	a1,12(a0)
  70 0026 8605     		slli	a1,a1,1
  71              		.loc 1 45 100
  72 0028 CD8F     		or	a5,a5,a1
  73              		.loc 1 45 145
  74 002a B397C700 		sll	a5,a5,a2
  75              		.loc 1 45 9
  76 002e D98F     		or	a5,a5,a4
  77              	.LVL3:
  46:../Peripheral/src/ch32v30x_opa.c ****     OPA->CR = tmp;
  78              		.loc 1 46 5 is_stmt 1
  79              		.loc 1 46 13 is_stmt 0
  80 0030 9CC2     		sw	a5,0(a3)
  47:../Peripheral/src/ch32v30x_opa.c **** }
  81              		.loc 1 47 1
  82 0032 8280     		ret
  83              		.cfi_endproc
  84              	.LFE30:
  86              		.section	.text.OPA_StructInit,"ax",@progbits
  87              		.align	1
  88              		.globl	OPA_StructInit
  90              	OPA_StructInit:
  91              	.LFB31:
  48:../Peripheral/src/ch32v30x_opa.c **** 
  49:../Peripheral/src/ch32v30x_opa.c **** /*********************************************************************
  50:../Peripheral/src/ch32v30x_opa.c ****  * @fn      OPA_StructInit
  51:../Peripheral/src/ch32v30x_opa.c ****  *
  52:../Peripheral/src/ch32v30x_opa.c ****  * @brief   Fills each OPA_StructInit member with its reset value.
  53:../Peripheral/src/ch32v30x_opa.c ****  *
  54:../Peripheral/src/ch32v30x_opa.c ****  * @param   OPA_StructInit - pointer to a OPA_InitTypeDef structure
  55:../Peripheral/src/ch32v30x_opa.c ****  *
  56:../Peripheral/src/ch32v30x_opa.c ****  * @return  none
  57:../Peripheral/src/ch32v30x_opa.c ****  */
  58:../Peripheral/src/ch32v30x_opa.c **** void OPA_StructInit(OPA_InitTypeDef *OPA_InitStruct)
  59:../Peripheral/src/ch32v30x_opa.c **** {
  92              		.loc 1 59 1 is_stmt 1
  93              		.cfi_startproc
  94              	.LVL4:
  60:../Peripheral/src/ch32v30x_opa.c ****     OPA_InitStruct->Mode = OUT_IO_OUT1;
  95              		.loc 1 60 5
  96              		.loc 1 60 26 is_stmt 0
  97 0000 8547     		li	a5,1
  98 0002 5CC5     		sw	a5,12(a0)
  61:../Peripheral/src/ch32v30x_opa.c ****     OPA_InitStruct->PSEL = CHP0;
  99              		.loc 1 61 5 is_stmt 1
 100              		.loc 1 61 26 is_stmt 0
 101 0004 23220500 		sw	zero,4(a0)
  62:../Peripheral/src/ch32v30x_opa.c ****     OPA_InitStruct->NSEL = CHN0;
 102              		.loc 1 62 5 is_stmt 1
 103              		.loc 1 62 26 is_stmt 0
 104 0008 23240500 		sw	zero,8(a0)
  63:../Peripheral/src/ch32v30x_opa.c ****     OPA_InitStruct->OPA_NUM = OPA1;
 105              		.loc 1 63 5 is_stmt 1
 106              		.loc 1 63 29 is_stmt 0
 107 000c 23200500 		sw	zero,0(a0)
  64:../Peripheral/src/ch32v30x_opa.c **** }
 108              		.loc 1 64 1
 109 0010 8280     		ret
 110              		.cfi_endproc
 111              	.LFE31:
 113              		.section	.text.OPA_Cmd,"ax",@progbits
 114              		.align	1
 115              		.globl	OPA_Cmd
 117              	OPA_Cmd:
 118              	.LFB32:
  65:../Peripheral/src/ch32v30x_opa.c **** 
  66:../Peripheral/src/ch32v30x_opa.c **** /*********************************************************************
  67:../Peripheral/src/ch32v30x_opa.c ****  * @fn      OPA_Cmd
  68:../Peripheral/src/ch32v30x_opa.c ****  *
  69:../Peripheral/src/ch32v30x_opa.c ****  * @brief   Enables or disables the specified OPA peripheral.
  70:../Peripheral/src/ch32v30x_opa.c ****  *
  71:../Peripheral/src/ch32v30x_opa.c ****  * @param   OPA_NUM - Select OPA
  72:../Peripheral/src/ch32v30x_opa.c ****  *            NewState - ENABLE or DISABLE.
  73:../Peripheral/src/ch32v30x_opa.c ****  *
  74:../Peripheral/src/ch32v30x_opa.c ****  * @return  none
  75:../Peripheral/src/ch32v30x_opa.c ****  */
  76:../Peripheral/src/ch32v30x_opa.c **** void OPA_Cmd(OPA_Num_TypeDef OPA_NUM, FunctionalState NewState)
  77:../Peripheral/src/ch32v30x_opa.c **** {
 119              		.loc 1 77 1 is_stmt 1
 120              		.cfi_startproc
 121              	.LVL5:
  78:../Peripheral/src/ch32v30x_opa.c ****     if(NewState == ENABLE)
 122              		.loc 1 78 5
  79:../Peripheral/src/ch32v30x_opa.c ****     {
  80:../Peripheral/src/ch32v30x_opa.c ****         OPA->CR |= (1 << (OPA_NUM * OPA_Total_NUM));
 123              		.loc 1 80 35 is_stmt 0
 124 0000 0A05     		slli	a0,a0,2
 125              	.LVL6:
 126              		.loc 1 80 23
 127 0002 0547     		li	a4,1
 128 0004 B7470240 		li	a5,1073889280
 129 0008 3315A700 		sll	a0,a4,a0
 130 000c 93874780 		addi	a5,a5,-2044
  78:../Peripheral/src/ch32v30x_opa.c ****     if(NewState == ENABLE)
 131              		.loc 1 78 7
 132 0010 6396E500 		bne	a1,a4,.L5
 133              		.loc 1 80 9 is_stmt 1
 134              		.loc 1 80 12 is_stmt 0
 135 0014 9843     		lw	a4,0(a5)
 136              		.loc 1 80 17
 137 0016 598D     		or	a0,a0,a4
 138              	.L7:
  81:../Peripheral/src/ch32v30x_opa.c ****     }
  82:../Peripheral/src/ch32v30x_opa.c ****     else
  83:../Peripheral/src/ch32v30x_opa.c ****     {
  84:../Peripheral/src/ch32v30x_opa.c ****         OPA->CR &= ~(1 << (OPA_NUM * OPA_Total_NUM));
 139              		.loc 1 84 17
 140 0018 88C3     		sw	a0,0(a5)
  85:../Peripheral/src/ch32v30x_opa.c ****     }
  86:../Peripheral/src/ch32v30x_opa.c **** }
 141              		.loc 1 86 1
 142 001a 8280     		ret
 143              	.L5:
  84:../Peripheral/src/ch32v30x_opa.c ****     }
 144              		.loc 1 84 9 is_stmt 1
  84:../Peripheral/src/ch32v30x_opa.c ****     }
 145              		.loc 1 84 12 is_stmt 0
 146 001c 9843     		lw	a4,0(a5)
  84:../Peripheral/src/ch32v30x_opa.c ****     }
 147              		.loc 1 84 20
 148 001e 1345F5FF 		not	a0,a0
  84:../Peripheral/src/ch32v30x_opa.c ****     }
 149              		.loc 1 84 17
 150 0022 798D     		and	a0,a0,a4
 151 0024 D5BF     		j	.L7
 152              		.cfi_endproc
 153              	.LFE32:
 155              		.text
 156              	.Letext0:
 157              		.file 2 "d:\\software\\mounriver_studio\\toolchain\\risc-v embedded gcc12\\riscv-none-elf\\include
 158              		.file 3 "d:\\software\\mounriver_studio\\toolchain\\risc-v embedded gcc12\\riscv-none-elf\\include
 159              		.file 4 "C:\\Users\\localhost\\Documents\\turbomoskal-repo\\qqexpert\\firmware\\MasterController\\
 160              		.file 5 "C:\\Users\\localhost\\Documents\\turbomoskal-repo\\qqexpert\\firmware\\MasterController\\
 161              		.file 6 "C:\\Users\\localhost\\Documents\\turbomoskal-repo\\qqexpert\\firmware\\MasterController\\
DEFINED SYMBOLS
                            *ABS*:0000000000000000 ch32v30x_opa.c
C:\Users\LOCALH~1\AppData\Local\Temp\ccr3z4vg.s:14     .text.OPA_DeInit:0000000000000000 OPA_DeInit
C:\Users\LOCALH~1\AppData\Local\Temp\ccr3z4vg.s:18     .text.OPA_DeInit:0000000000000000 .L0 
C:\Users\LOCALH~1\AppData\Local\Temp\ccr3z4vg.s:19     .text.OPA_DeInit:0000000000000000 .L0 
C:\Users\LOCALH~1\AppData\Local\Temp\ccr3z4vg.s:20     .text.OPA_DeInit:0000000000000000 .L0 
C:\Users\LOCALH~1\AppData\Local\Temp\ccr3z4vg.s:21     .text.OPA_DeInit:0000000000000000 $x
C:\Users\LOCALH~1\AppData\Local\Temp\ccr3z4vg.s:21     .text.OPA_DeInit:0000000000000000 .L0 
C:\Users\LOCALH~1\AppData\Local\Temp\ccr3z4vg.s:24     .text.OPA_DeInit:0000000000000008 .L0 
C:\Users\LOCALH~1\AppData\Local\Temp\ccr3z4vg.s:25     .text.OPA_DeInit:000000000000000a .L0 
C:\Users\LOCALH~1\AppData\Local\Temp\ccr3z4vg.s:32     .text.OPA_Init:0000000000000000 OPA_Init
C:\Users\LOCALH~1\AppData\Local\Temp\ccr3z4vg.s:35     .text.OPA_Init:0000000000000000 .L0 
C:\Users\LOCALH~1\AppData\Local\Temp\ccr3z4vg.s:37     .text.OPA_Init:0000000000000000 .L0 
C:\Users\LOCALH~1\AppData\Local\Temp\ccr3z4vg.s:38     .text.OPA_Init:0000000000000000 .L0 
C:\Users\LOCALH~1\AppData\Local\Temp\ccr3z4vg.s:39     .text.OPA_Init:0000000000000000 .L0 
C:\Users\LOCALH~1\AppData\Local\Temp\ccr3z4vg.s:40     .text.OPA_Init:0000000000000000 $x
C:\Users\LOCALH~1\AppData\Local\Temp\ccr3z4vg.s:40     .text.OPA_Init:0000000000000000 .L0 
C:\Users\LOCALH~1\AppData\Local\Temp\ccr3z4vg.s:42     .text.OPA_Init:0000000000000002 .L0 
C:\Users\LOCALH~1\AppData\Local\Temp\ccr3z4vg.s:47     .text.OPA_Init:000000000000000c .L0 
C:\Users\LOCALH~1\AppData\Local\Temp\ccr3z4vg.s:48     .text.OPA_Init:000000000000000c .L0 
C:\Users\LOCALH~1\AppData\Local\Temp\ccr3z4vg.s:50     .text.OPA_Init:000000000000000e .L0 
C:\Users\LOCALH~1\AppData\Local\Temp\ccr3z4vg.s:53     .text.OPA_Init:0000000000000014 .L0 
C:\Users\LOCALH~1\AppData\Local\Temp\ccr3z4vg.s:55     .text.OPA_Init:0000000000000018 .L0 
C:\Users\LOCALH~1\AppData\Local\Temp\ccr3z4vg.s:57     .text.OPA_Init:000000000000001a .L0 
C:\Users\LOCALH~1\AppData\Local\Temp\ccr3z4vg.s:60     .text.OPA_Init:000000000000001c .L0 
C:\Users\LOCALH~1\AppData\Local\Temp\ccr3z4vg.s:61     .text.OPA_Init:000000000000001c .L0 
C:\Users\LOCALH~1\AppData\Local\Temp\ccr3z4vg.s:63     .text.OPA_Init:000000000000001e .L0 
C:\Users\LOCALH~1\AppData\Local\Temp\ccr3z4vg.s:65     .text.OPA_Init:0000000000000020 .L0 
C:\Users\LOCALH~1\AppData\Local\Temp\ccr3z4vg.s:67     .text.OPA_Init:0000000000000022 .L0 
C:\Users\LOCALH~1\AppData\Local\Temp\ccr3z4vg.s:69     .text.OPA_Init:0000000000000024 .L0 
C:\Users\LOCALH~1\AppData\Local\Temp\ccr3z4vg.s:72     .text.OPA_Init:0000000000000028 .L0 
C:\Users\LOCALH~1\AppData\Local\Temp\ccr3z4vg.s:74     .text.OPA_Init:000000000000002a .L0 
C:\Users\LOCALH~1\AppData\Local\Temp\ccr3z4vg.s:76     .text.OPA_Init:000000000000002e .L0 
C:\Users\LOCALH~1\AppData\Local\Temp\ccr3z4vg.s:79     .text.OPA_Init:0000000000000030 .L0 
C:\Users\LOCALH~1\AppData\Local\Temp\ccr3z4vg.s:80     .text.OPA_Init:0000000000000030 .L0 
C:\Users\LOCALH~1\AppData\Local\Temp\ccr3z4vg.s:82     .text.OPA_Init:0000000000000032 .L0 
C:\Users\LOCALH~1\AppData\Local\Temp\ccr3z4vg.s:83     .text.OPA_Init:0000000000000034 .L0 
C:\Users\LOCALH~1\AppData\Local\Temp\ccr3z4vg.s:90     .text.OPA_StructInit:0000000000000000 OPA_StructInit
C:\Users\LOCALH~1\AppData\Local\Temp\ccr3z4vg.s:93     .text.OPA_StructInit:0000000000000000 .L0 
C:\Users\LOCALH~1\AppData\Local\Temp\ccr3z4vg.s:95     .text.OPA_StructInit:0000000000000000 .L0 
C:\Users\LOCALH~1\AppData\Local\Temp\ccr3z4vg.s:96     .text.OPA_StructInit:0000000000000000 .L0 
C:\Users\LOCALH~1\AppData\Local\Temp\ccr3z4vg.s:97     .text.OPA_StructInit:0000000000000000 $x
C:\Users\LOCALH~1\AppData\Local\Temp\ccr3z4vg.s:97     .text.OPA_StructInit:0000000000000000 .L0 
C:\Users\LOCALH~1\AppData\Local\Temp\ccr3z4vg.s:100    .text.OPA_StructInit:0000000000000004 .L0 
C:\Users\LOCALH~1\AppData\Local\Temp\ccr3z4vg.s:101    .text.OPA_StructInit:0000000000000004 .L0 
C:\Users\LOCALH~1\AppData\Local\Temp\ccr3z4vg.s:103    .text.OPA_StructInit:0000000000000008 .L0 
C:\Users\LOCALH~1\AppData\Local\Temp\ccr3z4vg.s:104    .text.OPA_StructInit:0000000000000008 .L0 
C:\Users\LOCALH~1\AppData\Local\Temp\ccr3z4vg.s:106    .text.OPA_StructInit:000000000000000c .L0 
C:\Users\LOCALH~1\AppData\Local\Temp\ccr3z4vg.s:107    .text.OPA_StructInit:000000000000000c .L0 
C:\Users\LOCALH~1\AppData\Local\Temp\ccr3z4vg.s:109    .text.OPA_StructInit:0000000000000010 .L0 
C:\Users\LOCALH~1\AppData\Local\Temp\ccr3z4vg.s:110    .text.OPA_StructInit:0000000000000012 .L0 
C:\Users\LOCALH~1\AppData\Local\Temp\ccr3z4vg.s:117    .text.OPA_Cmd:0000000000000000 OPA_Cmd
C:\Users\LOCALH~1\AppData\Local\Temp\ccr3z4vg.s:120    .text.OPA_Cmd:0000000000000000 .L0 
C:\Users\LOCALH~1\AppData\Local\Temp\ccr3z4vg.s:122    .text.OPA_Cmd:0000000000000000 .L0 
C:\Users\LOCALH~1\AppData\Local\Temp\ccr3z4vg.s:123    .text.OPA_Cmd:0000000000000000 .L0 
C:\Users\LOCALH~1\AppData\Local\Temp\ccr3z4vg.s:124    .text.OPA_Cmd:0000000000000000 $x
C:\Users\LOCALH~1\AppData\Local\Temp\ccr3z4vg.s:124    .text.OPA_Cmd:0000000000000000 .L0 
C:\Users\LOCALH~1\AppData\Local\Temp\ccr3z4vg.s:127    .text.OPA_Cmd:0000000000000002 .L0 
C:\Users\LOCALH~1\AppData\Local\Temp\ccr3z4vg.s:132    .text.OPA_Cmd:0000000000000010 .L0 
C:\Users\LOCALH~1\AppData\Local\Temp\ccr3z4vg.s:134    .text.OPA_Cmd:0000000000000014 .L0 
C:\Users\LOCALH~1\AppData\Local\Temp\ccr3z4vg.s:135    .text.OPA_Cmd:0000000000000014 .L0 
C:\Users\LOCALH~1\AppData\Local\Temp\ccr3z4vg.s:137    .text.OPA_Cmd:0000000000000016 .L0 
C:\Users\LOCALH~1\AppData\Local\Temp\ccr3z4vg.s:140    .text.OPA_Cmd:0000000000000018 .L0 
C:\Users\LOCALH~1\AppData\Local\Temp\ccr3z4vg.s:142    .text.OPA_Cmd:000000000000001a .L0 
C:\Users\LOCALH~1\AppData\Local\Temp\ccr3z4vg.s:145    .text.OPA_Cmd:000000000000001c .L0 
C:\Users\LOCALH~1\AppData\Local\Temp\ccr3z4vg.s:146    .text.OPA_Cmd:000000000000001c .L0 
C:\Users\LOCALH~1\AppData\Local\Temp\ccr3z4vg.s:148    .text.OPA_Cmd:000000000000001e .L0 
C:\Users\LOCALH~1\AppData\Local\Temp\ccr3z4vg.s:150    .text.OPA_Cmd:0000000000000022 .L0 
C:\Users\LOCALH~1\AppData\Local\Temp\ccr3z4vg.s:152    .text.OPA_Cmd:0000000000000026 .L0 
C:\Users\LOCALH~1\AppData\Local\Temp\ccr3z4vg.s:942    .debug_line_str:0000000000000076 .L0 
C:\Users\LOCALH~1\AppData\Local\Temp\ccr3z4vg.s:942    .debug_line_str:00000000000000cb .L0 
C:\Users\LOCALH~1\AppData\Local\Temp\ccr3z4vg.s:942    .debug_line_str:00000000000000dd .L0 
C:\Users\LOCALH~1\AppData\Local\Temp\ccr3z4vg.s:942    .debug_line_str:0000000000000139 .L0 
C:\Users\LOCALH~1\AppData\Local\Temp\ccr3z4vg.s:942    .debug_line_str:0000000000000191 .L0 
C:\Users\LOCALH~1\AppData\Local\Temp\ccr3z4vg.s:942    .debug_line_str:00000000000001e7 .L0 
C:\Users\LOCALH~1\AppData\Local\Temp\ccr3z4vg.s:942    .debug_line_str:0000000000000247 .L0 
C:\Users\LOCALH~1\AppData\Local\Temp\ccr3z4vg.s:942    .debug_line_str:0000000000000256 .L0 
C:\Users\LOCALH~1\AppData\Local\Temp\ccr3z4vg.s:942    .debug_line_str:0000000000000265 .L0 
C:\Users\LOCALH~1\AppData\Local\Temp\ccr3z4vg.s:942    .debug_line_str:0000000000000276 .L0 
C:\Users\LOCALH~1\AppData\Local\Temp\ccr3z4vg.s:942    .debug_line_str:0000000000000280 .L0 
C:\Users\LOCALH~1\AppData\Local\Temp\ccr3z4vg.s:942    .debug_line_str:000000000000028d .L0 
C:\Users\LOCALH~1\AppData\Local\Temp\ccr3z4vg.s:942    .debug_line_str:0000000000000298 .L0 
C:\Users\LOCALH~1\AppData\Local\Temp\ccr3z4vg.s:28     .text.OPA_DeInit:000000000000000a .L0 
C:\Users\LOCALH~1\AppData\Local\Temp\ccr3z4vg.s:86     .text.OPA_Init:0000000000000034 .L0 
C:\Users\LOCALH~1\AppData\Local\Temp\ccr3z4vg.s:113    .text.OPA_StructInit:0000000000000012 .L0 
C:\Users\LOCALH~1\AppData\Local\Temp\ccr3z4vg.s:155    .text.OPA_Cmd:0000000000000026 .L0 
                     .debug_frame:0000000000000000 .L0 
C:\Users\LOCALH~1\AppData\Local\Temp\ccr3z4vg.s:143    .text.OPA_Cmd:000000000000001c .L5
C:\Users\LOCALH~1\AppData\Local\Temp\ccr3z4vg.s:138    .text.OPA_Cmd:0000000000000018 .L7
C:\Users\LOCALH~1\AppData\Local\Temp\ccr3z4vg.s:469    .debug_abbrev:0000000000000000 .Ldebug_abbrev0
C:\Users\LOCALH~1\AppData\Local\Temp\ccr3z4vg.s:925    .debug_str:0000000000000171 .LASF43
C:\Users\LOCALH~1\AppData\Local\Temp\ccr3z4vg.s:940    .debug_line_str:0000000000000055 .LASF0
C:\Users\LOCALH~1\AppData\Local\Temp\ccr3z4vg.s:938    .debug_line_str:0000000000000000 .LASF1
C:\Users\LOCALH~1\AppData\Local\Temp\ccr3z4vg.s:833    .debug_rnglists:000000000000000c .LLRL2
C:\Users\LOCALH~1\AppData\Local\Temp\ccr3z4vg.s:849    .debug_line:0000000000000000 .Ldebug_line0
C:\Users\LOCALH~1\AppData\Local\Temp\ccr3z4vg.s:897    .debug_str:00000000000000f2 .LASF2
C:\Users\LOCALH~1\AppData\Local\Temp\ccr3z4vg.s:931    .debug_str:000000000000028e .LASF3
C:\Users\LOCALH~1\AppData\Local\Temp\ccr3z4vg.s:879    .debug_str:000000000000007e .LASF4
C:\Users\LOCALH~1\AppData\Local\Temp\ccr3z4vg.s:917    .debug_str:0000000000000145 .LASF5
C:\Users\LOCALH~1\AppData\Local\Temp\ccr3z4vg.s:885    .debug_str:00000000000000ad .LASF6
C:\Users\LOCALH~1\AppData\Local\Temp\ccr3z4vg.s:859    .debug_str:0000000000000026 .LASF7
C:\Users\LOCALH~1\AppData\Local\Temp\ccr3z4vg.s:893    .debug_str:00000000000000e2 .LASF11
C:\Users\LOCALH~1\AppData\Local\Temp\ccr3z4vg.s:883    .debug_str:000000000000009b .LASF8
C:\Users\LOCALH~1\AppData\Local\Temp\ccr3z4vg.s:909    .debug_str:0000000000000118 .LASF9
C:\Users\LOCALH~1\AppData\Local\Temp\ccr3z4vg.s:935    .debug_str:00000000000002ab .LASF10
C:\Users\LOCALH~1\AppData\Local\Temp\ccr3z4vg.s:887    .debug_str:00000000000000c0 .LASF12
C:\Users\LOCALH~1\AppData\Local\Temp\ccr3z4vg.s:889    .debug_str:00000000000000c9 .LASF13
C:\Users\LOCALH~1\AppData\Local\Temp\ccr3z4vg.s:873    .debug_str:000000000000005f .LASF14
C:\Users\LOCALH~1\AppData\Local\Temp\ccr3z4vg.s:863    .debug_str:0000000000000034 .LASF15
C:\Users\LOCALH~1\AppData\Local\Temp\ccr3z4vg.s:865    .debug_str:0000000000000044 .LASF16
C:\Users\LOCALH~1\AppData\Local\Temp\ccr3z4vg.s:929    .debug_str:0000000000000282 .LASF17
C:\Users\LOCALH~1\AppData\Local\Temp\ccr3z4vg.s:899    .debug_str:00000000000000ff .LASF18
C:\Users\LOCALH~1\AppData\Local\Temp\ccr3z4vg.s:901    .debug_str:0000000000000104 .LASF19
C:\Users\LOCALH~1\AppData\Local\Temp\ccr3z4vg.s:903    .debug_str:0000000000000109 .LASF20
C:\Users\LOCALH~1\AppData\Local\Temp\ccr3z4vg.s:905    .debug_str:000000000000010e .LASF21
C:\Users\LOCALH~1\AppData\Local\Temp\ccr3z4vg.s:907    .debug_str:0000000000000113 .LASF22
C:\Users\LOCALH~1\AppData\Local\Temp\ccr3z4vg.s:927    .debug_str:0000000000000272 .LASF23
C:\Users\LOCALH~1\AppData\Local\Temp\ccr3z4vg.s:869    .debug_str:0000000000000055 .LASF24
C:\Users\LOCALH~1\AppData\Local\Temp\ccr3z4vg.s:871    .debug_str:000000000000005a .LASF25
C:\Users\LOCALH~1\AppData\Local\Temp\ccr3z4vg.s:933    .debug_str:000000000000029a .LASF26
C:\Users\LOCALH~1\AppData\Local\Temp\ccr3z4vg.s:861    .debug_str:000000000000002f .LASF27
C:\Users\LOCALH~1\AppData\Local\Temp\ccr3z4vg.s:851    .debug_str:0000000000000000 .LASF28
C:\Users\LOCALH~1\AppData\Local\Temp\ccr3z4vg.s:857    .debug_str:0000000000000015 .LASF29
C:\Users\LOCALH~1\AppData\Local\Temp\ccr3z4vg.s:875    .debug_str:0000000000000066 .LASF30
C:\Users\LOCALH~1\AppData\Local\Temp\ccr3z4vg.s:877    .debug_str:0000000000000072 .LASF31
C:\Users\LOCALH~1\AppData\Local\Temp\ccr3z4vg.s:891    .debug_str:00000000000000d1 .LASF32
C:\Users\LOCALH~1\AppData\Local\Temp\ccr3z4vg.s:853    .debug_str:0000000000000005 .LASF33
C:\Users\LOCALH~1\AppData\Local\Temp\ccr3z4vg.s:867    .debug_str:0000000000000050 .LASF34
C:\Users\LOCALH~1\AppData\Local\Temp\ccr3z4vg.s:915    .debug_str:0000000000000140 .LASF35
C:\Users\LOCALH~1\AppData\Local\Temp\ccr3z4vg.s:895    .debug_str:00000000000000ed .LASF36
C:\Users\LOCALH~1\AppData\Local\Temp\ccr3z4vg.s:923    .debug_str:0000000000000161 .LASF37
C:\Users\LOCALH~1\AppData\Local\Temp\ccr3z4vg.s:855    .debug_str:000000000000000d .LASF39
C:\Users\LOCALH~1\AppData\Local\Temp\ccr3z4vg.s:118    .text.OPA_Cmd:0000000000000000 .LFB32
C:\Users\LOCALH~1\AppData\Local\Temp\ccr3z4vg.s:153    .text.OPA_Cmd:0000000000000026 .LFE32
C:\Users\LOCALH~1\AppData\Local\Temp\ccr3z4vg.s:768    .debug_loclists:000000000000000c .LLST1
C:\Users\LOCALH~1\AppData\Local\Temp\ccr3z4vg.s:921    .debug_str:0000000000000158 .LASF38
C:\Users\LOCALH~1\AppData\Local\Temp\ccr3z4vg.s:911    .debug_str:0000000000000126 .LASF40
C:\Users\LOCALH~1\AppData\Local\Temp\ccr3z4vg.s:91     .text.OPA_StructInit:0000000000000000 .LFB31
C:\Users\LOCALH~1\AppData\Local\Temp\ccr3z4vg.s:111    .text.OPA_StructInit:0000000000000012 .LFE31
C:\Users\LOCALH~1\AppData\Local\Temp\ccr3z4vg.s:881    .debug_str:000000000000008c .LASF41
C:\Users\LOCALH~1\AppData\Local\Temp\ccr3z4vg.s:919    .debug_str:000000000000014f .LASF42
C:\Users\LOCALH~1\AppData\Local\Temp\ccr3z4vg.s:33     .text.OPA_Init:0000000000000000 .LFB30
C:\Users\LOCALH~1\AppData\Local\Temp\ccr3z4vg.s:84     .text.OPA_Init:0000000000000034 .LFE30
C:\Users\LOCALH~1\AppData\Local\Temp\ccr3z4vg.s:783    .debug_loclists:0000000000000026 .LLST0
C:\Users\LOCALH~1\AppData\Local\Temp\ccr3z4vg.s:913    .debug_str:0000000000000135 .LASF44
C:\Users\LOCALH~1\AppData\Local\Temp\ccr3z4vg.s:15     .text.OPA_DeInit:0000000000000000 .LFB29
C:\Users\LOCALH~1\AppData\Local\Temp\ccr3z4vg.s:26     .text.OPA_DeInit:000000000000000a .LFE29
C:\Users\LOCALH~1\AppData\Local\Temp\ccr3z4vg.s:121    .text.OPA_Cmd:0000000000000000 .LVL5
C:\Users\LOCALH~1\AppData\Local\Temp\ccr3z4vg.s:125    .text.OPA_Cmd:0000000000000002 .LVL6
C:\Users\LOCALH~1\AppData\Local\Temp\ccr3z4vg.s:36     .text.OPA_Init:0000000000000000 .LVL0
C:\Users\LOCALH~1\AppData\Local\Temp\ccr3z4vg.s:45     .text.OPA_Init:000000000000000c .LVL1
C:\Users\LOCALH~1\AppData\Local\Temp\ccr3z4vg.s:58     .text.OPA_Init:000000000000001c .LVL2
C:\Users\LOCALH~1\AppData\Local\Temp\ccr3z4vg.s:77     .text.OPA_Init:0000000000000030 .LVL3
C:\Users\LOCALH~1\AppData\Local\Temp\ccr3z4vg.s:163    .debug_info:0000000000000000 .Ldebug_info0

NO UNDEFINED SYMBOLS
