   1              		.file	"ch32v30x_bkp.c"
   2              		.option nopic
   3              		.attribute arch, "rv32i2p0_m2p0_a2p0_f2p0_c2p0_xw"
   4              		.attribute unaligned_access, 0
   5              		.attribute stack_align, 16
   6              		.text
   7              	.Ltext0:
   8              		.cfi_sections	.debug_frame
   9              		.file 0 "C:\\Users\\localhost\\Documents\\turbomoskal-repo\\qqexpert\\firmware\\MasterController\\
  10              		.section	.text.BKP_DeInit,"ax",@progbits
  11              		.align	1
  12              		.globl	BKP_DeInit
  14              	BKP_DeInit:
  15              	.LFB29:
  16              		.file 1 "../Peripheral/src/ch32v30x_bkp.c"
   1:../Peripheral/src/ch32v30x_bkp.c **** /********************************** (C) COPYRIGHT  *******************************
   2:../Peripheral/src/ch32v30x_bkp.c **** * File Name          : ch32v30x_bkp.c
   3:../Peripheral/src/ch32v30x_bkp.c **** * Author             : WCH
   4:../Peripheral/src/ch32v30x_bkp.c **** * Version            : V1.0.0
   5:../Peripheral/src/ch32v30x_bkp.c **** * Date               : 2024/03/06
   6:../Peripheral/src/ch32v30x_bkp.c **** * Description        : This file provides all the BKP firmware functions.
   7:../Peripheral/src/ch32v30x_bkp.c **** *********************************************************************************
   8:../Peripheral/src/ch32v30x_bkp.c **** * Copyright (c) 2021 Nanjing Qinheng Microelectronics Co., Ltd.
   9:../Peripheral/src/ch32v30x_bkp.c **** * Attention: This software (modified or not) and binary are used for 
  10:../Peripheral/src/ch32v30x_bkp.c **** * microcontroller manufactured by Nanjing Qinheng Microelectronics.
  11:../Peripheral/src/ch32v30x_bkp.c **** *******************************************************************************/
  12:../Peripheral/src/ch32v30x_bkp.c **** #include "ch32v30x_bkp.h"
  13:../Peripheral/src/ch32v30x_bkp.c **** #include "ch32v30x_rcc.h"
  14:../Peripheral/src/ch32v30x_bkp.c **** 
  15:../Peripheral/src/ch32v30x_bkp.c **** /* BKP registers bit mask */
  16:../Peripheral/src/ch32v30x_bkp.c **** 
  17:../Peripheral/src/ch32v30x_bkp.c **** /* OCTLR register bit mask */
  18:../Peripheral/src/ch32v30x_bkp.c **** #define OCTLR_CAL_MASK    ((uint16_t)0xFF80)
  19:../Peripheral/src/ch32v30x_bkp.c **** #define OCTLR_MASK        ((uint16_t)0xFC7F)
  20:../Peripheral/src/ch32v30x_bkp.c **** 
  21:../Peripheral/src/ch32v30x_bkp.c **** /*********************************************************************
  22:../Peripheral/src/ch32v30x_bkp.c ****  * @fn      BKP_DeInit
  23:../Peripheral/src/ch32v30x_bkp.c ****  *
  24:../Peripheral/src/ch32v30x_bkp.c ****  * @brief   Deinitializes the BKP peripheral registers to their default reset values.
  25:../Peripheral/src/ch32v30x_bkp.c ****  *
  26:../Peripheral/src/ch32v30x_bkp.c ****  * @return  none
  27:../Peripheral/src/ch32v30x_bkp.c ****  */
  28:../Peripheral/src/ch32v30x_bkp.c **** void BKP_DeInit(void)
  29:../Peripheral/src/ch32v30x_bkp.c **** {
  17              		.loc 1 29 1
  18              		.cfi_startproc
  19 0000 17030000 		call	t0,__riscv_save_0
  19      E7020300 
  20              		.cfi_offset 1, -4
  21              		.cfi_def_cfa_offset 16
  30:../Peripheral/src/ch32v30x_bkp.c ****     RCC_BackupResetCmd(ENABLE);
  22              		.loc 1 30 5
  23 0008 0545     		li	a0,1
  24 000a 97000000 		call	RCC_BackupResetCmd
  24      E7800000 
  25              	.LVL0:
  31:../Peripheral/src/ch32v30x_bkp.c ****     RCC_BackupResetCmd(DISABLE);
  26              		.loc 1 31 5
  27 0012 0145     		li	a0,0
  28 0014 97000000 		call	RCC_BackupResetCmd
  28      E7800000 
  29              	.LVL1:
  32:../Peripheral/src/ch32v30x_bkp.c **** }
  30              		.loc 1 32 1 is_stmt 0
  31 001c 17030000 		tail	__riscv_restore_0
  31      67000300 
  32              		.cfi_restore 1
  33              		.cfi_def_cfa_offset 0
  34              		.cfi_endproc
  35              	.LFE29:
  37              		.section	.text.BKP_TamperPinLevelConfig,"ax",@progbits
  38              		.align	1
  39              		.globl	BKP_TamperPinLevelConfig
  41              	BKP_TamperPinLevelConfig:
  42              	.LFB30:
  33:../Peripheral/src/ch32v30x_bkp.c **** 
  34:../Peripheral/src/ch32v30x_bkp.c **** /*********************************************************************
  35:../Peripheral/src/ch32v30x_bkp.c ****  * @fn      BKP_TamperPinLevelConfig
  36:../Peripheral/src/ch32v30x_bkp.c ****  *
  37:../Peripheral/src/ch32v30x_bkp.c ****  * @brief   Configures the Tamper Pin active level.
  38:../Peripheral/src/ch32v30x_bkp.c ****  *
  39:../Peripheral/src/ch32v30x_bkp.c ****  * @param   BKP_TamperPinLevel: specifies the Tamper Pin active level.
  40:../Peripheral/src/ch32v30x_bkp.c ****  *            BKP_TamperPinLevel_High - Tamper pin active on high level.
  41:../Peripheral/src/ch32v30x_bkp.c ****  *            BKP_TamperPinLevel_Low - Tamper pin active on low level.
  42:../Peripheral/src/ch32v30x_bkp.c ****  *
  43:../Peripheral/src/ch32v30x_bkp.c ****  * @return  none
  44:../Peripheral/src/ch32v30x_bkp.c ****  */
  45:../Peripheral/src/ch32v30x_bkp.c **** void BKP_TamperPinLevelConfig(uint16_t BKP_TamperPinLevel)
  46:../Peripheral/src/ch32v30x_bkp.c **** {
  43              		.loc 1 46 1 is_stmt 1
  44              		.cfi_startproc
  45              	.LVL2:
  47:../Peripheral/src/ch32v30x_bkp.c ****     if(BKP_TamperPinLevel)
  46              		.loc 1 47 5
  47 0000 37770040 		li	a4,1073770496
  48:../Peripheral/src/ch32v30x_bkp.c ****     {
  49:../Peripheral/src/ch32v30x_bkp.c ****         BKP->TPCTLR |= (1 << 1);
  48              		.loc 1 49 12 is_stmt 0
  49 0004 835707C3 		lhu	a5,-976(a4)
  50 0008 130707C0 		addi	a4,a4,-1024
  47:../Peripheral/src/ch32v30x_bkp.c ****     if(BKP_TamperPinLevel)
  51              		.loc 1 47 7
  52 000c 09C5     		beq	a0,zero,.L4
  53              		.loc 1 49 9 is_stmt 1
  54              		.loc 1 49 21 is_stmt 0
  55 000e 93E72700 		ori	a5,a5,2
  56              	.L6:
  50:../Peripheral/src/ch32v30x_bkp.c ****     }
  51:../Peripheral/src/ch32v30x_bkp.c ****     else
  52:../Peripheral/src/ch32v30x_bkp.c ****     {
  53:../Peripheral/src/ch32v30x_bkp.c ****         BKP->TPCTLR &= ~(1 << 1);
  57              		.loc 1 53 21
  58 0012 1EBB     		sh	a5,48(a4)
  54:../Peripheral/src/ch32v30x_bkp.c ****     }
  55:../Peripheral/src/ch32v30x_bkp.c **** }
  59              		.loc 1 55 1
  60 0014 8280     		ret
  61              	.L4:
  53:../Peripheral/src/ch32v30x_bkp.c ****     }
  62              		.loc 1 53 9 is_stmt 1
  53:../Peripheral/src/ch32v30x_bkp.c ****     }
  63              		.loc 1 53 12 is_stmt 0
  64 0016 C207     		slli	a5,a5,16
  65 0018 C183     		srli	a5,a5,16
  53:../Peripheral/src/ch32v30x_bkp.c ****     }
  66              		.loc 1 53 21
  67 001a F59B     		andi	a5,a5,-3
  68 001c C207     		slli	a5,a5,16
  69 001e C183     		srli	a5,a5,16
  70 0020 CDBF     		j	.L6
  71              		.cfi_endproc
  72              	.LFE30:
  74              		.section	.text.BKP_TamperPinCmd,"ax",@progbits
  75              		.align	1
  76              		.globl	BKP_TamperPinCmd
  78              	BKP_TamperPinCmd:
  79              	.LFB31:
  56:../Peripheral/src/ch32v30x_bkp.c **** 
  57:../Peripheral/src/ch32v30x_bkp.c **** /*********************************************************************
  58:../Peripheral/src/ch32v30x_bkp.c ****  * @fn      BKP_TamperPinCmd
  59:../Peripheral/src/ch32v30x_bkp.c ****  *
  60:../Peripheral/src/ch32v30x_bkp.c ****  * @brief   Enables or disables the Tamper Pin activation.
  61:../Peripheral/src/ch32v30x_bkp.c ****  *
  62:../Peripheral/src/ch32v30x_bkp.c ****  * @param   NewState - ENABLE or DISABLE.
  63:../Peripheral/src/ch32v30x_bkp.c ****  *
  64:../Peripheral/src/ch32v30x_bkp.c ****  * @return  none
  65:../Peripheral/src/ch32v30x_bkp.c ****  */
  66:../Peripheral/src/ch32v30x_bkp.c **** void BKP_TamperPinCmd(FunctionalState NewState)
  67:../Peripheral/src/ch32v30x_bkp.c **** {
  80              		.loc 1 67 1 is_stmt 1
  81              		.cfi_startproc
  82              	.LVL3:
  68:../Peripheral/src/ch32v30x_bkp.c ****     if(NewState)
  83              		.loc 1 68 5
  84 0000 37770040 		li	a4,1073770496
  69:../Peripheral/src/ch32v30x_bkp.c ****     {
  70:../Peripheral/src/ch32v30x_bkp.c ****         BKP->TPCTLR |= (1 << 0);
  85              		.loc 1 70 12 is_stmt 0
  86 0004 835707C3 		lhu	a5,-976(a4)
  87 0008 130707C0 		addi	a4,a4,-1024
  68:../Peripheral/src/ch32v30x_bkp.c ****     if(NewState)
  88              		.loc 1 68 7
  89 000c 09C5     		beq	a0,zero,.L8
  90              		.loc 1 70 9 is_stmt 1
  91              		.loc 1 70 21 is_stmt 0
  92 000e 93E71700 		ori	a5,a5,1
  93              	.L10:
  71:../Peripheral/src/ch32v30x_bkp.c ****     }
  72:../Peripheral/src/ch32v30x_bkp.c ****     else
  73:../Peripheral/src/ch32v30x_bkp.c ****     {
  74:../Peripheral/src/ch32v30x_bkp.c ****         BKP->TPCTLR &= ~(1 << 0);
  94              		.loc 1 74 21
  95 0012 1EBB     		sh	a5,48(a4)
  75:../Peripheral/src/ch32v30x_bkp.c ****     }
  76:../Peripheral/src/ch32v30x_bkp.c **** }
  96              		.loc 1 76 1
  97 0014 8280     		ret
  98              	.L8:
  74:../Peripheral/src/ch32v30x_bkp.c ****     }
  99              		.loc 1 74 9 is_stmt 1
  74:../Peripheral/src/ch32v30x_bkp.c ****     }
 100              		.loc 1 74 12 is_stmt 0
 101 0016 C207     		slli	a5,a5,16
 102 0018 C183     		srli	a5,a5,16
  74:../Peripheral/src/ch32v30x_bkp.c ****     }
 103              		.loc 1 74 21
 104 001a F99B     		andi	a5,a5,-2
 105 001c C207     		slli	a5,a5,16
 106 001e C183     		srli	a5,a5,16
 107 0020 CDBF     		j	.L10
 108              		.cfi_endproc
 109              	.LFE31:
 111              		.section	.text.BKP_ITConfig,"ax",@progbits
 112              		.align	1
 113              		.globl	BKP_ITConfig
 115              	BKP_ITConfig:
 116              	.LFB32:
  77:../Peripheral/src/ch32v30x_bkp.c **** 
  78:../Peripheral/src/ch32v30x_bkp.c **** /*********************************************************************
  79:../Peripheral/src/ch32v30x_bkp.c ****  * @fn      BKP_ITConfig
  80:../Peripheral/src/ch32v30x_bkp.c ****  *
  81:../Peripheral/src/ch32v30x_bkp.c ****  * @brief   Enables or disables the Tamper Pin Interrupt.
  82:../Peripheral/src/ch32v30x_bkp.c ****  *
  83:../Peripheral/src/ch32v30x_bkp.c ****  * @param   NewState - ENABLE or DISABLE.
  84:../Peripheral/src/ch32v30x_bkp.c ****  *
  85:../Peripheral/src/ch32v30x_bkp.c ****  * @return  none
  86:../Peripheral/src/ch32v30x_bkp.c ****  */
  87:../Peripheral/src/ch32v30x_bkp.c **** void BKP_ITConfig(FunctionalState NewState)
  88:../Peripheral/src/ch32v30x_bkp.c **** {
 117              		.loc 1 88 1 is_stmt 1
 118              		.cfi_startproc
 119              	.LVL4:
  89:../Peripheral/src/ch32v30x_bkp.c ****     if(NewState)
 120              		.loc 1 89 5
 121 0000 37770040 		li	a4,1073770496
  90:../Peripheral/src/ch32v30x_bkp.c ****     {
  91:../Peripheral/src/ch32v30x_bkp.c ****         BKP->TPCSR |= (1 << 2);
 122              		.loc 1 91 12 is_stmt 0
 123 0004 835747C3 		lhu	a5,-972(a4)
 124 0008 130707C0 		addi	a4,a4,-1024
  89:../Peripheral/src/ch32v30x_bkp.c ****     if(NewState)
 125              		.loc 1 89 7
 126 000c 09C5     		beq	a0,zero,.L12
 127              		.loc 1 91 9 is_stmt 1
 128              		.loc 1 91 20 is_stmt 0
 129 000e 93E74700 		ori	a5,a5,4
 130              	.L14:
  92:../Peripheral/src/ch32v30x_bkp.c ****     }
  93:../Peripheral/src/ch32v30x_bkp.c ****     else
  94:../Peripheral/src/ch32v30x_bkp.c ****     {
  95:../Peripheral/src/ch32v30x_bkp.c ****         BKP->TPCSR &= ~(1 << 2);
 131              		.loc 1 95 20
 132 0012 5EBB     		sh	a5,52(a4)
  96:../Peripheral/src/ch32v30x_bkp.c ****     }
  97:../Peripheral/src/ch32v30x_bkp.c **** }
 133              		.loc 1 97 1
 134 0014 8280     		ret
 135              	.L12:
  95:../Peripheral/src/ch32v30x_bkp.c ****     }
 136              		.loc 1 95 9 is_stmt 1
  95:../Peripheral/src/ch32v30x_bkp.c ****     }
 137              		.loc 1 95 12 is_stmt 0
 138 0016 C207     		slli	a5,a5,16
 139 0018 C183     		srli	a5,a5,16
  95:../Peripheral/src/ch32v30x_bkp.c ****     }
 140              		.loc 1 95 20
 141 001a ED9B     		andi	a5,a5,-5
 142 001c C207     		slli	a5,a5,16
 143 001e C183     		srli	a5,a5,16
 144 0020 CDBF     		j	.L14
 145              		.cfi_endproc
 146              	.LFE32:
 148              		.section	.text.BKP_RTCOutputConfig,"ax",@progbits
 149              		.align	1
 150              		.globl	BKP_RTCOutputConfig
 152              	BKP_RTCOutputConfig:
 153              	.LFB33:
  98:../Peripheral/src/ch32v30x_bkp.c **** 
  99:../Peripheral/src/ch32v30x_bkp.c **** /*********************************************************************
 100:../Peripheral/src/ch32v30x_bkp.c ****  * @fn      BKP_RTCOutputConfig
 101:../Peripheral/src/ch32v30x_bkp.c ****  *
 102:../Peripheral/src/ch32v30x_bkp.c ****  * @brief   Select the RTC output source to output on the Tamper pin.
 103:../Peripheral/src/ch32v30x_bkp.c ****  *
 104:../Peripheral/src/ch32v30x_bkp.c ****  * @param   BKP_RTCOutputSource - specifies the RTC output source.
 105:../Peripheral/src/ch32v30x_bkp.c ****  *            BKP_RTCOutputSource_None - no RTC output on the Tamper pin.
 106:../Peripheral/src/ch32v30x_bkp.c ****  *            BKP_RTCOutputSource_CalibClock - output the RTC clock with
 107:../Peripheral/src/ch32v30x_bkp.c ****  *        frequency divided by 64 on the Tamper pin.
 108:../Peripheral/src/ch32v30x_bkp.c ****  *            BKP_RTCOutputSource_Alarm - output the RTC Alarm pulse signal
 109:../Peripheral/src/ch32v30x_bkp.c ****  *        on the Tamper pin.
 110:../Peripheral/src/ch32v30x_bkp.c ****  *            BKP_RTCOutputSource_Second - output the RTC Second pulse
 111:../Peripheral/src/ch32v30x_bkp.c ****  *        signal on the Tamper pin.
 112:../Peripheral/src/ch32v30x_bkp.c ****  *
 113:../Peripheral/src/ch32v30x_bkp.c ****  * @return  none
 114:../Peripheral/src/ch32v30x_bkp.c ****  */
 115:../Peripheral/src/ch32v30x_bkp.c **** void BKP_RTCOutputConfig(uint16_t BKP_RTCOutputSource)
 116:../Peripheral/src/ch32v30x_bkp.c **** {
 154              		.loc 1 116 1 is_stmt 1
 155              		.cfi_startproc
 156              	.LVL5:
 117:../Peripheral/src/ch32v30x_bkp.c ****     uint16_t tmpreg = 0;
 157              		.loc 1 117 5
 118:../Peripheral/src/ch32v30x_bkp.c **** 
 119:../Peripheral/src/ch32v30x_bkp.c ****     tmpreg = BKP->OCTLR;
 158              		.loc 1 119 5
 159              		.loc 1 119 12 is_stmt 0
 160 0000 37770040 		li	a4,1073770496
 161 0004 8357C7C2 		lhu	a5,-980(a4)
 162 0008 C207     		slli	a5,a5,16
 163 000a C183     		srli	a5,a5,16
 164              	.LVL6:
 120:../Peripheral/src/ch32v30x_bkp.c ****     tmpreg &= OCTLR_MASK;
 165              		.loc 1 120 5 is_stmt 1
 166              		.loc 1 120 12 is_stmt 0
 167 000c 93F7F7C7 		andi	a5,a5,-897
 168              	.LVL7:
 121:../Peripheral/src/ch32v30x_bkp.c ****     tmpreg |= BKP_RTCOutputSource;
 169              		.loc 1 121 5 is_stmt 1
 170              		.loc 1 121 12 is_stmt 0
 171 0010 C98F     		or	a5,a5,a0
 172              	.LVL8:
 122:../Peripheral/src/ch32v30x_bkp.c ****     BKP->OCTLR = tmpreg;
 173              		.loc 1 122 5 is_stmt 1
 174              		.loc 1 122 16 is_stmt 0
 175 0012 2316F7C2 		sh	a5,-980(a4)
 123:../Peripheral/src/ch32v30x_bkp.c **** }
 176              		.loc 1 123 1
 177 0016 8280     		ret
 178              		.cfi_endproc
 179              	.LFE33:
 181              		.section	.text.BKP_SetRTCCalibrationValue,"ax",@progbits
 182              		.align	1
 183              		.globl	BKP_SetRTCCalibrationValue
 185              	BKP_SetRTCCalibrationValue:
 186              	.LFB34:
 124:../Peripheral/src/ch32v30x_bkp.c **** 
 125:../Peripheral/src/ch32v30x_bkp.c **** /*********************************************************************
 126:../Peripheral/src/ch32v30x_bkp.c ****  * @fn      BKP_SetRTCCalibrationValue
 127:../Peripheral/src/ch32v30x_bkp.c ****  *
 128:../Peripheral/src/ch32v30x_bkp.c ****  * @brief   Sets RTC Clock Calibration value.
 129:../Peripheral/src/ch32v30x_bkp.c ****  *
 130:../Peripheral/src/ch32v30x_bkp.c ****  * @param   CalibrationValue - specifies the RTC Clock Calibration value.
 131:../Peripheral/src/ch32v30x_bkp.c ****  *            This parameter must be a number between 0 and 0x7F.
 132:../Peripheral/src/ch32v30x_bkp.c ****  *
 133:../Peripheral/src/ch32v30x_bkp.c ****  * @return  none
 134:../Peripheral/src/ch32v30x_bkp.c ****  */
 135:../Peripheral/src/ch32v30x_bkp.c **** void BKP_SetRTCCalibrationValue(uint8_t CalibrationValue)
 136:../Peripheral/src/ch32v30x_bkp.c **** {
 187              		.loc 1 136 1 is_stmt 1
 188              		.cfi_startproc
 189              	.LVL9:
 137:../Peripheral/src/ch32v30x_bkp.c ****     uint16_t tmpreg = 0;
 190              		.loc 1 137 5
 138:../Peripheral/src/ch32v30x_bkp.c **** 
 139:../Peripheral/src/ch32v30x_bkp.c ****     tmpreg = BKP->OCTLR;
 191              		.loc 1 139 5
 192              		.loc 1 139 12 is_stmt 0
 193 0000 37770040 		li	a4,1073770496
 194 0004 8357C7C2 		lhu	a5,-980(a4)
 195 0008 C207     		slli	a5,a5,16
 196 000a C183     		srli	a5,a5,16
 197              	.LVL10:
 140:../Peripheral/src/ch32v30x_bkp.c ****     tmpreg &= OCTLR_CAL_MASK;
 198              		.loc 1 140 5 is_stmt 1
 199              		.loc 1 140 12 is_stmt 0
 200 000c 93F707F8 		andi	a5,a5,-128
 201              	.LVL11:
 141:../Peripheral/src/ch32v30x_bkp.c ****     tmpreg |= CalibrationValue;
 202              		.loc 1 141 5 is_stmt 1
 203              		.loc 1 141 12 is_stmt 0
 204 0010 5D8D     		or	a0,a0,a5
 205              	.LVL12:
 142:../Peripheral/src/ch32v30x_bkp.c ****     BKP->OCTLR = tmpreg;
 206              		.loc 1 142 5 is_stmt 1
 207              		.loc 1 142 16 is_stmt 0
 208 0012 2316A7C2 		sh	a0,-980(a4)
 143:../Peripheral/src/ch32v30x_bkp.c **** }
 209              		.loc 1 143 1
 210 0016 8280     		ret
 211              		.cfi_endproc
 212              	.LFE34:
 214              		.section	.text.BKP_WriteBackupRegister,"ax",@progbits
 215              		.align	1
 216              		.globl	BKP_WriteBackupRegister
 218              	BKP_WriteBackupRegister:
 219              	.LFB35:
 144:../Peripheral/src/ch32v30x_bkp.c **** 
 145:../Peripheral/src/ch32v30x_bkp.c **** /*********************************************************************
 146:../Peripheral/src/ch32v30x_bkp.c ****  * @fn      BKP_WriteBackupRegister
 147:../Peripheral/src/ch32v30x_bkp.c ****  *
 148:../Peripheral/src/ch32v30x_bkp.c ****  * @brief   Writes user data to the specified Data Backup Register.
 149:../Peripheral/src/ch32v30x_bkp.c ****  *
 150:../Peripheral/src/ch32v30x_bkp.c ****  * @param   BKP_DR - specifies the Data Backup Register.
 151:../Peripheral/src/ch32v30x_bkp.c ****  *          Data - data to write.
 152:../Peripheral/src/ch32v30x_bkp.c ****  *
 153:../Peripheral/src/ch32v30x_bkp.c ****  * @return  none
 154:../Peripheral/src/ch32v30x_bkp.c ****  */
 155:../Peripheral/src/ch32v30x_bkp.c **** void BKP_WriteBackupRegister(uint16_t BKP_DR, uint16_t Data)
 156:../Peripheral/src/ch32v30x_bkp.c **** {
 220              		.loc 1 156 1 is_stmt 1
 221              		.cfi_startproc
 222              	.LVL13:
 157:../Peripheral/src/ch32v30x_bkp.c ****     __IO uint32_t tmp = 0;
 223              		.loc 1 157 5
 156:../Peripheral/src/ch32v30x_bkp.c ****     __IO uint32_t tmp = 0;
 224              		.loc 1 156 1 is_stmt 0
 225 0000 4111     		addi	sp,sp,-16
 226              		.cfi_def_cfa_offset 16
 158:../Peripheral/src/ch32v30x_bkp.c **** 
 159:../Peripheral/src/ch32v30x_bkp.c ****     tmp = (uint32_t)BKP_BASE;
 227              		.loc 1 159 9
 228 0002 B7770040 		li	a5,1073770496
 157:../Peripheral/src/ch32v30x_bkp.c **** 
 229              		.loc 1 157 19
 230 0006 02C6     		sw	zero,12(sp)
 231              		.loc 1 159 5 is_stmt 1
 232              		.loc 1 159 9 is_stmt 0
 233 0008 938707C0 		addi	a5,a5,-1024
 234 000c 3EC6     		sw	a5,12(sp)
 160:../Peripheral/src/ch32v30x_bkp.c ****     tmp += BKP_DR;
 235              		.loc 1 160 5 is_stmt 1
 236              		.loc 1 160 9 is_stmt 0
 237 000e B247     		lw	a5,12(sp)
 238 0010 3E95     		add	a0,a0,a5
 239              	.LVL14:
 240 0012 2AC6     		sw	a0,12(sp)
 161:../Peripheral/src/ch32v30x_bkp.c ****     *(__IO uint32_t *)tmp = Data;
 241              		.loc 1 161 5 is_stmt 1
 242              		.loc 1 161 6 is_stmt 0
 243 0014 B247     		lw	a5,12(sp)
 244              		.loc 1 161 27
 245 0016 8CC3     		sw	a1,0(a5)
 162:../Peripheral/src/ch32v30x_bkp.c **** }
 246              		.loc 1 162 1
 247 0018 4101     		addi	sp,sp,16
 248              		.cfi_def_cfa_offset 0
 249 001a 8280     		jr	ra
 250              		.cfi_endproc
 251              	.LFE35:
 253              		.section	.text.BKP_ReadBackupRegister,"ax",@progbits
 254              		.align	1
 255              		.globl	BKP_ReadBackupRegister
 257              	BKP_ReadBackupRegister:
 258              	.LFB36:
 163:../Peripheral/src/ch32v30x_bkp.c **** 
 164:../Peripheral/src/ch32v30x_bkp.c **** /*********************************************************************
 165:../Peripheral/src/ch32v30x_bkp.c ****  * @fn      BKP_ReadBackupRegister
 166:../Peripheral/src/ch32v30x_bkp.c ****  *
 167:../Peripheral/src/ch32v30x_bkp.c ****  * @brief   Reads data from the specified Data Backup Register.
 168:../Peripheral/src/ch32v30x_bkp.c ****  *
 169:../Peripheral/src/ch32v30x_bkp.c ****  * @param   BKP_DR - specifies the Data Backup Register.
 170:../Peripheral/src/ch32v30x_bkp.c ****  *            This parameter can be BKP_DRx where x=[1, 42].
 171:../Peripheral/src/ch32v30x_bkp.c ****  *
 172:../Peripheral/src/ch32v30x_bkp.c ****  * @return  none
 173:../Peripheral/src/ch32v30x_bkp.c ****  */
 174:../Peripheral/src/ch32v30x_bkp.c **** uint16_t BKP_ReadBackupRegister(uint16_t BKP_DR)
 175:../Peripheral/src/ch32v30x_bkp.c **** {
 259              		.loc 1 175 1 is_stmt 1
 260              		.cfi_startproc
 261              	.LVL15:
 176:../Peripheral/src/ch32v30x_bkp.c ****     __IO uint32_t tmp = 0;
 262              		.loc 1 176 5
 175:../Peripheral/src/ch32v30x_bkp.c ****     __IO uint32_t tmp = 0;
 263              		.loc 1 175 1 is_stmt 0
 264 0000 4111     		addi	sp,sp,-16
 265              		.cfi_def_cfa_offset 16
 177:../Peripheral/src/ch32v30x_bkp.c **** 
 178:../Peripheral/src/ch32v30x_bkp.c ****     tmp = (uint32_t)BKP_BASE;
 266              		.loc 1 178 9
 267 0002 B7770040 		li	a5,1073770496
 176:../Peripheral/src/ch32v30x_bkp.c **** 
 268              		.loc 1 176 19
 269 0006 02C6     		sw	zero,12(sp)
 270              		.loc 1 178 5 is_stmt 1
 271              		.loc 1 178 9 is_stmt 0
 272 0008 938707C0 		addi	a5,a5,-1024
 273 000c 3EC6     		sw	a5,12(sp)
 179:../Peripheral/src/ch32v30x_bkp.c ****     tmp += BKP_DR;
 274              		.loc 1 179 5 is_stmt 1
 275              		.loc 1 179 9 is_stmt 0
 276 000e B247     		lw	a5,12(sp)
 277 0010 3E95     		add	a0,a0,a5
 278              	.LVL16:
 279 0012 2AC6     		sw	a0,12(sp)
 180:../Peripheral/src/ch32v30x_bkp.c **** 
 181:../Peripheral/src/ch32v30x_bkp.c ****     return (*(__IO uint16_t *)tmp);
 280              		.loc 1 181 5 is_stmt 1
 281              		.loc 1 181 14 is_stmt 0
 282 0014 B247     		lw	a5,12(sp)
 283              		.loc 1 181 13
 284 0016 8A23     		lhu	a0,0(a5)
 182:../Peripheral/src/ch32v30x_bkp.c **** }
 285              		.loc 1 182 1
 286 0018 4101     		addi	sp,sp,16
 287              		.cfi_def_cfa_offset 0
 288 001a 8280     		jr	ra
 289              		.cfi_endproc
 290              	.LFE36:
 292              		.section	.text.BKP_GetFlagStatus,"ax",@progbits
 293              		.align	1
 294              		.globl	BKP_GetFlagStatus
 296              	BKP_GetFlagStatus:
 297              	.LFB37:
 183:../Peripheral/src/ch32v30x_bkp.c **** 
 184:../Peripheral/src/ch32v30x_bkp.c **** /*********************************************************************
 185:../Peripheral/src/ch32v30x_bkp.c ****  * @fn      BKP_GetFlagStatus
 186:../Peripheral/src/ch32v30x_bkp.c ****  *
 187:../Peripheral/src/ch32v30x_bkp.c ****  * @brief   Checks whether the Tamper Pin Event flag is set or not.
 188:../Peripheral/src/ch32v30x_bkp.c ****  *
 189:../Peripheral/src/ch32v30x_bkp.c ****  * @return  FlagStatus - SET or RESET.
 190:../Peripheral/src/ch32v30x_bkp.c ****  */
 191:../Peripheral/src/ch32v30x_bkp.c **** FlagStatus BKP_GetFlagStatus(void)
 192:../Peripheral/src/ch32v30x_bkp.c **** {
 298              		.loc 1 192 1 is_stmt 1
 299              		.cfi_startproc
 193:../Peripheral/src/ch32v30x_bkp.c ****     if(BKP->TPCSR & (1 << 8))
 300              		.loc 1 193 5
 301              		.loc 1 193 11 is_stmt 0
 302 0000 B7770040 		li	a5,1073770496
 303 0004 03D547C3 		lhu	a0,-972(a5)
 304              		.loc 1 193 7
 305 0008 2181     		srli	a0,a0,8
 194:../Peripheral/src/ch32v30x_bkp.c ****     {
 195:../Peripheral/src/ch32v30x_bkp.c ****         return SET;
 196:../Peripheral/src/ch32v30x_bkp.c ****     }
 197:../Peripheral/src/ch32v30x_bkp.c ****     else
 198:../Peripheral/src/ch32v30x_bkp.c ****     {
 199:../Peripheral/src/ch32v30x_bkp.c ****         return RESET;
 200:../Peripheral/src/ch32v30x_bkp.c ****     }
 201:../Peripheral/src/ch32v30x_bkp.c **** }
 306              		.loc 1 201 1
 307 000a 0589     		andi	a0,a0,1
 308 000c 8280     		ret
 309              		.cfi_endproc
 310              	.LFE37:
 312              		.section	.text.BKP_ClearFlag,"ax",@progbits
 313              		.align	1
 314              		.globl	BKP_ClearFlag
 316              	BKP_ClearFlag:
 317              	.LFB38:
 202:../Peripheral/src/ch32v30x_bkp.c **** 
 203:../Peripheral/src/ch32v30x_bkp.c **** /*********************************************************************
 204:../Peripheral/src/ch32v30x_bkp.c ****  * @fn      BKP_ClearFlag
 205:../Peripheral/src/ch32v30x_bkp.c ****  *
 206:../Peripheral/src/ch32v30x_bkp.c ****  * @brief   Clears Tamper Pin Event pending flag.
 207:../Peripheral/src/ch32v30x_bkp.c ****  *
 208:../Peripheral/src/ch32v30x_bkp.c ****  * @return  none
 209:../Peripheral/src/ch32v30x_bkp.c ****  */
 210:../Peripheral/src/ch32v30x_bkp.c **** void BKP_ClearFlag(void)
 211:../Peripheral/src/ch32v30x_bkp.c **** {
 318              		.loc 1 211 1 is_stmt 1
 319              		.cfi_startproc
 212:../Peripheral/src/ch32v30x_bkp.c ****     BKP->TPCSR |= BKP_CTE;
 320              		.loc 1 212 5
 321              		.loc 1 212 8 is_stmt 0
 322 0000 B7770040 		li	a5,1073770496
 323 0004 03D747C3 		lhu	a4,-972(a5)
 324              		.loc 1 212 16
 325 0008 13671700 		ori	a4,a4,1
 326 000c 239AE7C2 		sh	a4,-972(a5)
 213:../Peripheral/src/ch32v30x_bkp.c **** }
 327              		.loc 1 213 1
 328 0010 8280     		ret
 329              		.cfi_endproc
 330              	.LFE38:
 332              		.section	.text.BKP_GetITStatus,"ax",@progbits
 333              		.align	1
 334              		.globl	BKP_GetITStatus
 336              	BKP_GetITStatus:
 337              	.LFB39:
 214:../Peripheral/src/ch32v30x_bkp.c **** 
 215:../Peripheral/src/ch32v30x_bkp.c **** /*********************************************************************
 216:../Peripheral/src/ch32v30x_bkp.c ****  * @fn      BKP_GetITStatus
 217:../Peripheral/src/ch32v30x_bkp.c ****  *
 218:../Peripheral/src/ch32v30x_bkp.c ****  * @brief   Checks whether the Tamper Pin Interrupt has occurred or not.
 219:../Peripheral/src/ch32v30x_bkp.c ****  *
 220:../Peripheral/src/ch32v30x_bkp.c ****  * @return  ITStatus - SET or RESET.
 221:../Peripheral/src/ch32v30x_bkp.c ****  */
 222:../Peripheral/src/ch32v30x_bkp.c **** ITStatus BKP_GetITStatus(void)
 223:../Peripheral/src/ch32v30x_bkp.c **** {
 338              		.loc 1 223 1 is_stmt 1
 339              		.cfi_startproc
 224:../Peripheral/src/ch32v30x_bkp.c ****     if(BKP->TPCSR & (1 << 9))
 340              		.loc 1 224 5
 341              		.loc 1 224 11 is_stmt 0
 342 0000 B7770040 		li	a5,1073770496
 343 0004 03D547C3 		lhu	a0,-972(a5)
 344              		.loc 1 224 7
 345 0008 2581     		srli	a0,a0,9
 225:../Peripheral/src/ch32v30x_bkp.c ****     {
 226:../Peripheral/src/ch32v30x_bkp.c ****         return SET;
 227:../Peripheral/src/ch32v30x_bkp.c ****     }
 228:../Peripheral/src/ch32v30x_bkp.c ****     else
 229:../Peripheral/src/ch32v30x_bkp.c ****     {
 230:../Peripheral/src/ch32v30x_bkp.c ****         return RESET;
 231:../Peripheral/src/ch32v30x_bkp.c ****     }
 232:../Peripheral/src/ch32v30x_bkp.c **** }
 346              		.loc 1 232 1
 347 000a 0589     		andi	a0,a0,1
 348 000c 8280     		ret
 349              		.cfi_endproc
 350              	.LFE39:
 352              		.section	.text.BKP_ClearITPendingBit,"ax",@progbits
 353              		.align	1
 354              		.globl	BKP_ClearITPendingBit
 356              	BKP_ClearITPendingBit:
 357              	.LFB40:
 233:../Peripheral/src/ch32v30x_bkp.c **** 
 234:../Peripheral/src/ch32v30x_bkp.c **** /*********************************************************************
 235:../Peripheral/src/ch32v30x_bkp.c ****  * @fn      BKP_ClearITPendingBit
 236:../Peripheral/src/ch32v30x_bkp.c ****  *
 237:../Peripheral/src/ch32v30x_bkp.c ****  * @brief   Clears Tamper Pin Interrupt pending bit.
 238:../Peripheral/src/ch32v30x_bkp.c ****  *
 239:../Peripheral/src/ch32v30x_bkp.c ****  * @return  none
 240:../Peripheral/src/ch32v30x_bkp.c ****  */
 241:../Peripheral/src/ch32v30x_bkp.c **** void BKP_ClearITPendingBit(void)
 242:../Peripheral/src/ch32v30x_bkp.c **** {
 358              		.loc 1 242 1 is_stmt 1
 359              		.cfi_startproc
 243:../Peripheral/src/ch32v30x_bkp.c ****     BKP->TPCSR |= BKP_CTI;
 360              		.loc 1 243 5
 361              		.loc 1 243 8 is_stmt 0
 362 0000 B7770040 		li	a5,1073770496
 363 0004 03D747C3 		lhu	a4,-972(a5)
 364              		.loc 1 243 16
 365 0008 13672700 		ori	a4,a4,2
 366 000c 239AE7C2 		sh	a4,-972(a5)
 244:../Peripheral/src/ch32v30x_bkp.c **** }
 367              		.loc 1 244 1
 368 0010 8280     		ret
 369              		.cfi_endproc
 370              	.LFE40:
 372              		.text
 373              	.Letext0:
 374              		.file 2 "d:\\software\\mounriver_studio\\toolchain\\risc-v embedded gcc12\\riscv-none-elf\\include
 375              		.file 3 "d:\\software\\mounriver_studio\\toolchain\\risc-v embedded gcc12\\riscv-none-elf\\include
 376              		.file 4 "C:\\Users\\localhost\\Documents\\turbomoskal-repo\\qqexpert\\firmware\\MasterController\\
 377              		.file 5 "C:\\Users\\localhost\\Documents\\turbomoskal-repo\\qqexpert\\firmware\\MasterController\\
 378              		.file 6 "C:\\Users\\localhost\\Documents\\turbomoskal-repo\\qqexpert\\firmware\\MasterController\\
DEFINED SYMBOLS
                            *ABS*:0000000000000000 ch32v30x_bkp.c
C:\Users\LOCALH~1\AppData\Local\Temp\cct1jpUJ.s:14     .text.BKP_DeInit:0000000000000000 BKP_DeInit
C:\Users\LOCALH~1\AppData\Local\Temp\cct1jpUJ.s:18     .text.BKP_DeInit:0000000000000000 .L0 
C:\Users\LOCALH~1\AppData\Local\Temp\cct1jpUJ.s:19     .text.BKP_DeInit:0000000000000000 $x
C:\Users\LOCALH~1\AppData\Local\Temp\cct1jpUJ.s:19     .text.BKP_DeInit:0000000000000000 .L0 
C:\Users\LOCALH~1\AppData\Local\Temp\cct1jpUJ.s:20     .text.BKP_DeInit:0000000000000008 .L0 
C:\Users\LOCALH~1\AppData\Local\Temp\cct1jpUJ.s:21     .text.BKP_DeInit:0000000000000008 .L0 
C:\Users\LOCALH~1\AppData\Local\Temp\cct1jpUJ.s:23     .text.BKP_DeInit:0000000000000008 .L0 
C:\Users\LOCALH~1\AppData\Local\Temp\cct1jpUJ.s:27     .text.BKP_DeInit:0000000000000012 .L0 
C:\Users\LOCALH~1\AppData\Local\Temp\cct1jpUJ.s:31     .text.BKP_DeInit:000000000000001c .L0 
C:\Users\LOCALH~1\AppData\Local\Temp\cct1jpUJ.s:32     .text.BKP_DeInit:0000000000000024 .L0 
C:\Users\LOCALH~1\AppData\Local\Temp\cct1jpUJ.s:33     .text.BKP_DeInit:0000000000000024 .L0 
C:\Users\LOCALH~1\AppData\Local\Temp\cct1jpUJ.s:34     .text.BKP_DeInit:0000000000000024 .L0 
C:\Users\LOCALH~1\AppData\Local\Temp\cct1jpUJ.s:41     .text.BKP_TamperPinLevelConfig:0000000000000000 BKP_TamperPinLevelConfig
C:\Users\LOCALH~1\AppData\Local\Temp\cct1jpUJ.s:44     .text.BKP_TamperPinLevelConfig:0000000000000000 .L0 
C:\Users\LOCALH~1\AppData\Local\Temp\cct1jpUJ.s:46     .text.BKP_TamperPinLevelConfig:0000000000000000 .L0 
C:\Users\LOCALH~1\AppData\Local\Temp\cct1jpUJ.s:47     .text.BKP_TamperPinLevelConfig:0000000000000000 $x
C:\Users\LOCALH~1\AppData\Local\Temp\cct1jpUJ.s:47     .text.BKP_TamperPinLevelConfig:0000000000000000 .L0 
C:\Users\LOCALH~1\AppData\Local\Temp\cct1jpUJ.s:49     .text.BKP_TamperPinLevelConfig:0000000000000004 .L0 
C:\Users\LOCALH~1\AppData\Local\Temp\cct1jpUJ.s:52     .text.BKP_TamperPinLevelConfig:000000000000000c .L0 
C:\Users\LOCALH~1\AppData\Local\Temp\cct1jpUJ.s:54     .text.BKP_TamperPinLevelConfig:000000000000000e .L0 
C:\Users\LOCALH~1\AppData\Local\Temp\cct1jpUJ.s:55     .text.BKP_TamperPinLevelConfig:000000000000000e .L0 
C:\Users\LOCALH~1\AppData\Local\Temp\cct1jpUJ.s:58     .text.BKP_TamperPinLevelConfig:0000000000000012 .L0 
C:\Users\LOCALH~1\AppData\Local\Temp\cct1jpUJ.s:60     .text.BKP_TamperPinLevelConfig:0000000000000014 .L0 
C:\Users\LOCALH~1\AppData\Local\Temp\cct1jpUJ.s:63     .text.BKP_TamperPinLevelConfig:0000000000000016 .L0 
C:\Users\LOCALH~1\AppData\Local\Temp\cct1jpUJ.s:64     .text.BKP_TamperPinLevelConfig:0000000000000016 .L0 
C:\Users\LOCALH~1\AppData\Local\Temp\cct1jpUJ.s:67     .text.BKP_TamperPinLevelConfig:000000000000001a .L0 
C:\Users\LOCALH~1\AppData\Local\Temp\cct1jpUJ.s:71     .text.BKP_TamperPinLevelConfig:0000000000000022 .L0 
C:\Users\LOCALH~1\AppData\Local\Temp\cct1jpUJ.s:78     .text.BKP_TamperPinCmd:0000000000000000 BKP_TamperPinCmd
C:\Users\LOCALH~1\AppData\Local\Temp\cct1jpUJ.s:81     .text.BKP_TamperPinCmd:0000000000000000 .L0 
C:\Users\LOCALH~1\AppData\Local\Temp\cct1jpUJ.s:83     .text.BKP_TamperPinCmd:0000000000000000 .L0 
C:\Users\LOCALH~1\AppData\Local\Temp\cct1jpUJ.s:84     .text.BKP_TamperPinCmd:0000000000000000 $x
C:\Users\LOCALH~1\AppData\Local\Temp\cct1jpUJ.s:84     .text.BKP_TamperPinCmd:0000000000000000 .L0 
C:\Users\LOCALH~1\AppData\Local\Temp\cct1jpUJ.s:86     .text.BKP_TamperPinCmd:0000000000000004 .L0 
C:\Users\LOCALH~1\AppData\Local\Temp\cct1jpUJ.s:89     .text.BKP_TamperPinCmd:000000000000000c .L0 
C:\Users\LOCALH~1\AppData\Local\Temp\cct1jpUJ.s:91     .text.BKP_TamperPinCmd:000000000000000e .L0 
C:\Users\LOCALH~1\AppData\Local\Temp\cct1jpUJ.s:92     .text.BKP_TamperPinCmd:000000000000000e .L0 
C:\Users\LOCALH~1\AppData\Local\Temp\cct1jpUJ.s:95     .text.BKP_TamperPinCmd:0000000000000012 .L0 
C:\Users\LOCALH~1\AppData\Local\Temp\cct1jpUJ.s:97     .text.BKP_TamperPinCmd:0000000000000014 .L0 
C:\Users\LOCALH~1\AppData\Local\Temp\cct1jpUJ.s:100    .text.BKP_TamperPinCmd:0000000000000016 .L0 
C:\Users\LOCALH~1\AppData\Local\Temp\cct1jpUJ.s:101    .text.BKP_TamperPinCmd:0000000000000016 .L0 
C:\Users\LOCALH~1\AppData\Local\Temp\cct1jpUJ.s:104    .text.BKP_TamperPinCmd:000000000000001a .L0 
C:\Users\LOCALH~1\AppData\Local\Temp\cct1jpUJ.s:108    .text.BKP_TamperPinCmd:0000000000000022 .L0 
C:\Users\LOCALH~1\AppData\Local\Temp\cct1jpUJ.s:115    .text.BKP_ITConfig:0000000000000000 BKP_ITConfig
C:\Users\LOCALH~1\AppData\Local\Temp\cct1jpUJ.s:118    .text.BKP_ITConfig:0000000000000000 .L0 
C:\Users\LOCALH~1\AppData\Local\Temp\cct1jpUJ.s:120    .text.BKP_ITConfig:0000000000000000 .L0 
C:\Users\LOCALH~1\AppData\Local\Temp\cct1jpUJ.s:121    .text.BKP_ITConfig:0000000000000000 $x
C:\Users\LOCALH~1\AppData\Local\Temp\cct1jpUJ.s:121    .text.BKP_ITConfig:0000000000000000 .L0 
C:\Users\LOCALH~1\AppData\Local\Temp\cct1jpUJ.s:123    .text.BKP_ITConfig:0000000000000004 .L0 
C:\Users\LOCALH~1\AppData\Local\Temp\cct1jpUJ.s:126    .text.BKP_ITConfig:000000000000000c .L0 
C:\Users\LOCALH~1\AppData\Local\Temp\cct1jpUJ.s:128    .text.BKP_ITConfig:000000000000000e .L0 
C:\Users\LOCALH~1\AppData\Local\Temp\cct1jpUJ.s:129    .text.BKP_ITConfig:000000000000000e .L0 
C:\Users\LOCALH~1\AppData\Local\Temp\cct1jpUJ.s:132    .text.BKP_ITConfig:0000000000000012 .L0 
C:\Users\LOCALH~1\AppData\Local\Temp\cct1jpUJ.s:134    .text.BKP_ITConfig:0000000000000014 .L0 
C:\Users\LOCALH~1\AppData\Local\Temp\cct1jpUJ.s:137    .text.BKP_ITConfig:0000000000000016 .L0 
C:\Users\LOCALH~1\AppData\Local\Temp\cct1jpUJ.s:138    .text.BKP_ITConfig:0000000000000016 .L0 
C:\Users\LOCALH~1\AppData\Local\Temp\cct1jpUJ.s:141    .text.BKP_ITConfig:000000000000001a .L0 
C:\Users\LOCALH~1\AppData\Local\Temp\cct1jpUJ.s:145    .text.BKP_ITConfig:0000000000000022 .L0 
C:\Users\LOCALH~1\AppData\Local\Temp\cct1jpUJ.s:152    .text.BKP_RTCOutputConfig:0000000000000000 BKP_RTCOutputConfig
C:\Users\LOCALH~1\AppData\Local\Temp\cct1jpUJ.s:155    .text.BKP_RTCOutputConfig:0000000000000000 .L0 
C:\Users\LOCALH~1\AppData\Local\Temp\cct1jpUJ.s:157    .text.BKP_RTCOutputConfig:0000000000000000 .L0 
C:\Users\LOCALH~1\AppData\Local\Temp\cct1jpUJ.s:158    .text.BKP_RTCOutputConfig:0000000000000000 .L0 
C:\Users\LOCALH~1\AppData\Local\Temp\cct1jpUJ.s:159    .text.BKP_RTCOutputConfig:0000000000000000 .L0 
C:\Users\LOCALH~1\AppData\Local\Temp\cct1jpUJ.s:160    .text.BKP_RTCOutputConfig:0000000000000000 $x
C:\Users\LOCALH~1\AppData\Local\Temp\cct1jpUJ.s:160    .text.BKP_RTCOutputConfig:0000000000000000 .L0 
C:\Users\LOCALH~1\AppData\Local\Temp\cct1jpUJ.s:166    .text.BKP_RTCOutputConfig:000000000000000c .L0 
C:\Users\LOCALH~1\AppData\Local\Temp\cct1jpUJ.s:167    .text.BKP_RTCOutputConfig:000000000000000c .L0 
C:\Users\LOCALH~1\AppData\Local\Temp\cct1jpUJ.s:170    .text.BKP_RTCOutputConfig:0000000000000010 .L0 
C:\Users\LOCALH~1\AppData\Local\Temp\cct1jpUJ.s:171    .text.BKP_RTCOutputConfig:0000000000000010 .L0 
C:\Users\LOCALH~1\AppData\Local\Temp\cct1jpUJ.s:174    .text.BKP_RTCOutputConfig:0000000000000012 .L0 
C:\Users\LOCALH~1\AppData\Local\Temp\cct1jpUJ.s:175    .text.BKP_RTCOutputConfig:0000000000000012 .L0 
C:\Users\LOCALH~1\AppData\Local\Temp\cct1jpUJ.s:177    .text.BKP_RTCOutputConfig:0000000000000016 .L0 
C:\Users\LOCALH~1\AppData\Local\Temp\cct1jpUJ.s:178    .text.BKP_RTCOutputConfig:0000000000000018 .L0 
C:\Users\LOCALH~1\AppData\Local\Temp\cct1jpUJ.s:185    .text.BKP_SetRTCCalibrationValue:0000000000000000 BKP_SetRTCCalibrationValue
C:\Users\LOCALH~1\AppData\Local\Temp\cct1jpUJ.s:188    .text.BKP_SetRTCCalibrationValue:0000000000000000 .L0 
C:\Users\LOCALH~1\AppData\Local\Temp\cct1jpUJ.s:190    .text.BKP_SetRTCCalibrationValue:0000000000000000 .L0 
C:\Users\LOCALH~1\AppData\Local\Temp\cct1jpUJ.s:191    .text.BKP_SetRTCCalibrationValue:0000000000000000 .L0 
C:\Users\LOCALH~1\AppData\Local\Temp\cct1jpUJ.s:192    .text.BKP_SetRTCCalibrationValue:0000000000000000 .L0 
C:\Users\LOCALH~1\AppData\Local\Temp\cct1jpUJ.s:193    .text.BKP_SetRTCCalibrationValue:0000000000000000 $x
C:\Users\LOCALH~1\AppData\Local\Temp\cct1jpUJ.s:193    .text.BKP_SetRTCCalibrationValue:0000000000000000 .L0 
C:\Users\LOCALH~1\AppData\Local\Temp\cct1jpUJ.s:199    .text.BKP_SetRTCCalibrationValue:000000000000000c .L0 
C:\Users\LOCALH~1\AppData\Local\Temp\cct1jpUJ.s:200    .text.BKP_SetRTCCalibrationValue:000000000000000c .L0 
C:\Users\LOCALH~1\AppData\Local\Temp\cct1jpUJ.s:203    .text.BKP_SetRTCCalibrationValue:0000000000000010 .L0 
C:\Users\LOCALH~1\AppData\Local\Temp\cct1jpUJ.s:204    .text.BKP_SetRTCCalibrationValue:0000000000000010 .L0 
C:\Users\LOCALH~1\AppData\Local\Temp\cct1jpUJ.s:207    .text.BKP_SetRTCCalibrationValue:0000000000000012 .L0 
C:\Users\LOCALH~1\AppData\Local\Temp\cct1jpUJ.s:208    .text.BKP_SetRTCCalibrationValue:0000000000000012 .L0 
C:\Users\LOCALH~1\AppData\Local\Temp\cct1jpUJ.s:210    .text.BKP_SetRTCCalibrationValue:0000000000000016 .L0 
C:\Users\LOCALH~1\AppData\Local\Temp\cct1jpUJ.s:211    .text.BKP_SetRTCCalibrationValue:0000000000000018 .L0 
C:\Users\LOCALH~1\AppData\Local\Temp\cct1jpUJ.s:218    .text.BKP_WriteBackupRegister:0000000000000000 BKP_WriteBackupRegister
C:\Users\LOCALH~1\AppData\Local\Temp\cct1jpUJ.s:221    .text.BKP_WriteBackupRegister:0000000000000000 .L0 
C:\Users\LOCALH~1\AppData\Local\Temp\cct1jpUJ.s:223    .text.BKP_WriteBackupRegister:0000000000000000 .L0 
C:\Users\LOCALH~1\AppData\Local\Temp\cct1jpUJ.s:224    .text.BKP_WriteBackupRegister:0000000000000000 .L0 
C:\Users\LOCALH~1\AppData\Local\Temp\cct1jpUJ.s:225    .text.BKP_WriteBackupRegister:0000000000000000 $x
C:\Users\LOCALH~1\AppData\Local\Temp\cct1jpUJ.s:225    .text.BKP_WriteBackupRegister:0000000000000000 .L0 
C:\Users\LOCALH~1\AppData\Local\Temp\cct1jpUJ.s:226    .text.BKP_WriteBackupRegister:0000000000000002 .L0 
C:\Users\LOCALH~1\AppData\Local\Temp\cct1jpUJ.s:228    .text.BKP_WriteBackupRegister:0000000000000002 .L0 
C:\Users\LOCALH~1\AppData\Local\Temp\cct1jpUJ.s:230    .text.BKP_WriteBackupRegister:0000000000000006 .L0 
C:\Users\LOCALH~1\AppData\Local\Temp\cct1jpUJ.s:232    .text.BKP_WriteBackupRegister:0000000000000008 .L0 
C:\Users\LOCALH~1\AppData\Local\Temp\cct1jpUJ.s:233    .text.BKP_WriteBackupRegister:0000000000000008 .L0 
C:\Users\LOCALH~1\AppData\Local\Temp\cct1jpUJ.s:236    .text.BKP_WriteBackupRegister:000000000000000e .L0 
C:\Users\LOCALH~1\AppData\Local\Temp\cct1jpUJ.s:237    .text.BKP_WriteBackupRegister:000000000000000e .L0 
C:\Users\LOCALH~1\AppData\Local\Temp\cct1jpUJ.s:242    .text.BKP_WriteBackupRegister:0000000000000014 .L0 
C:\Users\LOCALH~1\AppData\Local\Temp\cct1jpUJ.s:243    .text.BKP_WriteBackupRegister:0000000000000014 .L0 
C:\Users\LOCALH~1\AppData\Local\Temp\cct1jpUJ.s:245    .text.BKP_WriteBackupRegister:0000000000000016 .L0 
C:\Users\LOCALH~1\AppData\Local\Temp\cct1jpUJ.s:247    .text.BKP_WriteBackupRegister:0000000000000018 .L0 
C:\Users\LOCALH~1\AppData\Local\Temp\cct1jpUJ.s:248    .text.BKP_WriteBackupRegister:000000000000001a .L0 
C:\Users\LOCALH~1\AppData\Local\Temp\cct1jpUJ.s:250    .text.BKP_WriteBackupRegister:000000000000001c .L0 
C:\Users\LOCALH~1\AppData\Local\Temp\cct1jpUJ.s:257    .text.BKP_ReadBackupRegister:0000000000000000 BKP_ReadBackupRegister
C:\Users\LOCALH~1\AppData\Local\Temp\cct1jpUJ.s:260    .text.BKP_ReadBackupRegister:0000000000000000 .L0 
C:\Users\LOCALH~1\AppData\Local\Temp\cct1jpUJ.s:262    .text.BKP_ReadBackupRegister:0000000000000000 .L0 
C:\Users\LOCALH~1\AppData\Local\Temp\cct1jpUJ.s:263    .text.BKP_ReadBackupRegister:0000000000000000 .L0 
C:\Users\LOCALH~1\AppData\Local\Temp\cct1jpUJ.s:264    .text.BKP_ReadBackupRegister:0000000000000000 $x
C:\Users\LOCALH~1\AppData\Local\Temp\cct1jpUJ.s:264    .text.BKP_ReadBackupRegister:0000000000000000 .L0 
C:\Users\LOCALH~1\AppData\Local\Temp\cct1jpUJ.s:265    .text.BKP_ReadBackupRegister:0000000000000002 .L0 
C:\Users\LOCALH~1\AppData\Local\Temp\cct1jpUJ.s:267    .text.BKP_ReadBackupRegister:0000000000000002 .L0 
C:\Users\LOCALH~1\AppData\Local\Temp\cct1jpUJ.s:269    .text.BKP_ReadBackupRegister:0000000000000006 .L0 
C:\Users\LOCALH~1\AppData\Local\Temp\cct1jpUJ.s:271    .text.BKP_ReadBackupRegister:0000000000000008 .L0 
C:\Users\LOCALH~1\AppData\Local\Temp\cct1jpUJ.s:272    .text.BKP_ReadBackupRegister:0000000000000008 .L0 
C:\Users\LOCALH~1\AppData\Local\Temp\cct1jpUJ.s:275    .text.BKP_ReadBackupRegister:000000000000000e .L0 
C:\Users\LOCALH~1\AppData\Local\Temp\cct1jpUJ.s:276    .text.BKP_ReadBackupRegister:000000000000000e .L0 
C:\Users\LOCALH~1\AppData\Local\Temp\cct1jpUJ.s:281    .text.BKP_ReadBackupRegister:0000000000000014 .L0 
C:\Users\LOCALH~1\AppData\Local\Temp\cct1jpUJ.s:282    .text.BKP_ReadBackupRegister:0000000000000014 .L0 
C:\Users\LOCALH~1\AppData\Local\Temp\cct1jpUJ.s:284    .text.BKP_ReadBackupRegister:0000000000000016 .L0 
C:\Users\LOCALH~1\AppData\Local\Temp\cct1jpUJ.s:286    .text.BKP_ReadBackupRegister:0000000000000018 .L0 
C:\Users\LOCALH~1\AppData\Local\Temp\cct1jpUJ.s:287    .text.BKP_ReadBackupRegister:000000000000001a .L0 
C:\Users\LOCALH~1\AppData\Local\Temp\cct1jpUJ.s:289    .text.BKP_ReadBackupRegister:000000000000001c .L0 
C:\Users\LOCALH~1\AppData\Local\Temp\cct1jpUJ.s:296    .text.BKP_GetFlagStatus:0000000000000000 BKP_GetFlagStatus
C:\Users\LOCALH~1\AppData\Local\Temp\cct1jpUJ.s:299    .text.BKP_GetFlagStatus:0000000000000000 .L0 
C:\Users\LOCALH~1\AppData\Local\Temp\cct1jpUJ.s:300    .text.BKP_GetFlagStatus:0000000000000000 .L0 
C:\Users\LOCALH~1\AppData\Local\Temp\cct1jpUJ.s:301    .text.BKP_GetFlagStatus:0000000000000000 .L0 
C:\Users\LOCALH~1\AppData\Local\Temp\cct1jpUJ.s:302    .text.BKP_GetFlagStatus:0000000000000000 $x
C:\Users\LOCALH~1\AppData\Local\Temp\cct1jpUJ.s:302    .text.BKP_GetFlagStatus:0000000000000000 .L0 
C:\Users\LOCALH~1\AppData\Local\Temp\cct1jpUJ.s:305    .text.BKP_GetFlagStatus:0000000000000008 .L0 
C:\Users\LOCALH~1\AppData\Local\Temp\cct1jpUJ.s:307    .text.BKP_GetFlagStatus:000000000000000a .L0 
C:\Users\LOCALH~1\AppData\Local\Temp\cct1jpUJ.s:309    .text.BKP_GetFlagStatus:000000000000000e .L0 
C:\Users\LOCALH~1\AppData\Local\Temp\cct1jpUJ.s:316    .text.BKP_ClearFlag:0000000000000000 BKP_ClearFlag
C:\Users\LOCALH~1\AppData\Local\Temp\cct1jpUJ.s:319    .text.BKP_ClearFlag:0000000000000000 .L0 
C:\Users\LOCALH~1\AppData\Local\Temp\cct1jpUJ.s:320    .text.BKP_ClearFlag:0000000000000000 .L0 
C:\Users\LOCALH~1\AppData\Local\Temp\cct1jpUJ.s:321    .text.BKP_ClearFlag:0000000000000000 .L0 
C:\Users\LOCALH~1\AppData\Local\Temp\cct1jpUJ.s:322    .text.BKP_ClearFlag:0000000000000000 $x
C:\Users\LOCALH~1\AppData\Local\Temp\cct1jpUJ.s:322    .text.BKP_ClearFlag:0000000000000000 .L0 
C:\Users\LOCALH~1\AppData\Local\Temp\cct1jpUJ.s:325    .text.BKP_ClearFlag:0000000000000008 .L0 
C:\Users\LOCALH~1\AppData\Local\Temp\cct1jpUJ.s:328    .text.BKP_ClearFlag:0000000000000010 .L0 
C:\Users\LOCALH~1\AppData\Local\Temp\cct1jpUJ.s:329    .text.BKP_ClearFlag:0000000000000012 .L0 
C:\Users\LOCALH~1\AppData\Local\Temp\cct1jpUJ.s:336    .text.BKP_GetITStatus:0000000000000000 BKP_GetITStatus
C:\Users\LOCALH~1\AppData\Local\Temp\cct1jpUJ.s:339    .text.BKP_GetITStatus:0000000000000000 .L0 
C:\Users\LOCALH~1\AppData\Local\Temp\cct1jpUJ.s:340    .text.BKP_GetITStatus:0000000000000000 .L0 
C:\Users\LOCALH~1\AppData\Local\Temp\cct1jpUJ.s:341    .text.BKP_GetITStatus:0000000000000000 .L0 
C:\Users\LOCALH~1\AppData\Local\Temp\cct1jpUJ.s:342    .text.BKP_GetITStatus:0000000000000000 $x
C:\Users\LOCALH~1\AppData\Local\Temp\cct1jpUJ.s:342    .text.BKP_GetITStatus:0000000000000000 .L0 
C:\Users\LOCALH~1\AppData\Local\Temp\cct1jpUJ.s:345    .text.BKP_GetITStatus:0000000000000008 .L0 
C:\Users\LOCALH~1\AppData\Local\Temp\cct1jpUJ.s:347    .text.BKP_GetITStatus:000000000000000a .L0 
C:\Users\LOCALH~1\AppData\Local\Temp\cct1jpUJ.s:349    .text.BKP_GetITStatus:000000000000000e .L0 
C:\Users\LOCALH~1\AppData\Local\Temp\cct1jpUJ.s:356    .text.BKP_ClearITPendingBit:0000000000000000 BKP_ClearITPendingBit
C:\Users\LOCALH~1\AppData\Local\Temp\cct1jpUJ.s:359    .text.BKP_ClearITPendingBit:0000000000000000 .L0 
C:\Users\LOCALH~1\AppData\Local\Temp\cct1jpUJ.s:360    .text.BKP_ClearITPendingBit:0000000000000000 .L0 
C:\Users\LOCALH~1\AppData\Local\Temp\cct1jpUJ.s:361    .text.BKP_ClearITPendingBit:0000000000000000 .L0 
C:\Users\LOCALH~1\AppData\Local\Temp\cct1jpUJ.s:362    .text.BKP_ClearITPendingBit:0000000000000000 $x
C:\Users\LOCALH~1\AppData\Local\Temp\cct1jpUJ.s:362    .text.BKP_ClearITPendingBit:0000000000000000 .L0 
C:\Users\LOCALH~1\AppData\Local\Temp\cct1jpUJ.s:365    .text.BKP_ClearITPendingBit:0000000000000008 .L0 
C:\Users\LOCALH~1\AppData\Local\Temp\cct1jpUJ.s:368    .text.BKP_ClearITPendingBit:0000000000000010 .L0 
C:\Users\LOCALH~1\AppData\Local\Temp\cct1jpUJ.s:369    .text.BKP_ClearITPendingBit:0000000000000012 .L0 
C:\Users\LOCALH~1\AppData\Local\Temp\cct1jpUJ.s:2208   .debug_line_str:0000000000000076 .L0 
C:\Users\LOCALH~1\AppData\Local\Temp\cct1jpUJ.s:2208   .debug_line_str:00000000000000cb .L0 
C:\Users\LOCALH~1\AppData\Local\Temp\cct1jpUJ.s:2208   .debug_line_str:00000000000000dd .L0 
C:\Users\LOCALH~1\AppData\Local\Temp\cct1jpUJ.s:2208   .debug_line_str:0000000000000139 .L0 
C:\Users\LOCALH~1\AppData\Local\Temp\cct1jpUJ.s:2208   .debug_line_str:0000000000000191 .L0 
C:\Users\LOCALH~1\AppData\Local\Temp\cct1jpUJ.s:2208   .debug_line_str:00000000000001e7 .L0 
C:\Users\LOCALH~1\AppData\Local\Temp\cct1jpUJ.s:2208   .debug_line_str:0000000000000247 .L0 
C:\Users\LOCALH~1\AppData\Local\Temp\cct1jpUJ.s:2208   .debug_line_str:0000000000000256 .L0 
C:\Users\LOCALH~1\AppData\Local\Temp\cct1jpUJ.s:2208   .debug_line_str:0000000000000265 .L0 
C:\Users\LOCALH~1\AppData\Local\Temp\cct1jpUJ.s:2208   .debug_line_str:0000000000000276 .L0 
C:\Users\LOCALH~1\AppData\Local\Temp\cct1jpUJ.s:2208   .debug_line_str:0000000000000280 .L0 
C:\Users\LOCALH~1\AppData\Local\Temp\cct1jpUJ.s:2208   .debug_line_str:000000000000028d .L0 
C:\Users\LOCALH~1\AppData\Local\Temp\cct1jpUJ.s:2208   .debug_line_str:0000000000000298 .L0 
C:\Users\LOCALH~1\AppData\Local\Temp\cct1jpUJ.s:37     .text.BKP_DeInit:0000000000000024 .L0 
C:\Users\LOCALH~1\AppData\Local\Temp\cct1jpUJ.s:74     .text.BKP_TamperPinLevelConfig:0000000000000022 .L0 
C:\Users\LOCALH~1\AppData\Local\Temp\cct1jpUJ.s:111    .text.BKP_TamperPinCmd:0000000000000022 .L0 
C:\Users\LOCALH~1\AppData\Local\Temp\cct1jpUJ.s:148    .text.BKP_ITConfig:0000000000000022 .L0 
C:\Users\LOCALH~1\AppData\Local\Temp\cct1jpUJ.s:181    .text.BKP_RTCOutputConfig:0000000000000018 .L0 
C:\Users\LOCALH~1\AppData\Local\Temp\cct1jpUJ.s:214    .text.BKP_SetRTCCalibrationValue:0000000000000018 .L0 
C:\Users\LOCALH~1\AppData\Local\Temp\cct1jpUJ.s:253    .text.BKP_WriteBackupRegister:000000000000001c .L0 
C:\Users\LOCALH~1\AppData\Local\Temp\cct1jpUJ.s:292    .text.BKP_ReadBackupRegister:000000000000001c .L0 
C:\Users\LOCALH~1\AppData\Local\Temp\cct1jpUJ.s:312    .text.BKP_GetFlagStatus:000000000000000e .L0 
C:\Users\LOCALH~1\AppData\Local\Temp\cct1jpUJ.s:332    .text.BKP_ClearFlag:0000000000000012 .L0 
C:\Users\LOCALH~1\AppData\Local\Temp\cct1jpUJ.s:352    .text.BKP_GetITStatus:000000000000000e .L0 
C:\Users\LOCALH~1\AppData\Local\Temp\cct1jpUJ.s:372    .text.BKP_ClearITPendingBit:0000000000000012 .L0 
                     .debug_frame:0000000000000000 .L0 
C:\Users\LOCALH~1\AppData\Local\Temp\cct1jpUJ.s:61     .text.BKP_TamperPinLevelConfig:0000000000000016 .L4
C:\Users\LOCALH~1\AppData\Local\Temp\cct1jpUJ.s:56     .text.BKP_TamperPinLevelConfig:0000000000000012 .L6
C:\Users\LOCALH~1\AppData\Local\Temp\cct1jpUJ.s:98     .text.BKP_TamperPinCmd:0000000000000016 .L8
C:\Users\LOCALH~1\AppData\Local\Temp\cct1jpUJ.s:93     .text.BKP_TamperPinCmd:0000000000000012 .L10
C:\Users\LOCALH~1\AppData\Local\Temp\cct1jpUJ.s:135    .text.BKP_ITConfig:0000000000000016 .L12
C:\Users\LOCALH~1\AppData\Local\Temp\cct1jpUJ.s:130    .text.BKP_ITConfig:0000000000000012 .L14
C:\Users\LOCALH~1\AppData\Local\Temp\cct1jpUJ.s:1303   .debug_abbrev:0000000000000000 .Ldebug_abbrev0
C:\Users\LOCALH~1\AppData\Local\Temp\cct1jpUJ.s:1953   .debug_str:000000000000008d .LASF134
C:\Users\LOCALH~1\AppData\Local\Temp\cct1jpUJ.s:2206   .debug_line_str:0000000000000055 .LASF0
C:\Users\LOCALH~1\AppData\Local\Temp\cct1jpUJ.s:2204   .debug_line_str:0000000000000000 .LASF1
C:\Users\LOCALH~1\AppData\Local\Temp\cct1jpUJ.s:1889   .debug_rnglists:000000000000000c .LLRL5
C:\Users\LOCALH~1\AppData\Local\Temp\cct1jpUJ.s:1929   .debug_line:0000000000000000 .Ldebug_line0
C:\Users\LOCALH~1\AppData\Local\Temp\cct1jpUJ.s:2023   .debug_str:000000000000031f .LASF2
C:\Users\LOCALH~1\AppData\Local\Temp\cct1jpUJ.s:1957   .debug_str:000000000000019c .LASF3
C:\Users\LOCALH~1\AppData\Local\Temp\cct1jpUJ.s:1943   .debug_str:000000000000003a .LASF6
C:\Users\LOCALH~1\AppData\Local\Temp\cct1jpUJ.s:2109   .debug_str:0000000000000505 .LASF4
C:\Users\LOCALH~1\AppData\Local\Temp\cct1jpUJ.s:2129   .debug_str:000000000000055b .LASF5
C:\Users\LOCALH~1\AppData\Local\Temp\cct1jpUJ.s:1993   .debug_str:000000000000026f .LASF7
C:\Users\LOCALH~1\AppData\Local\Temp\cct1jpUJ.s:2027   .debug_str:000000000000033e .LASF8
C:\Users\LOCALH~1\AppData\Local\Temp\cct1jpUJ.s:1983   .debug_str:000000000000022f .LASF9
C:\Users\LOCALH~1\AppData\Local\Temp\cct1jpUJ.s:1995   .debug_str:000000000000027a .LASF10
C:\Users\LOCALH~1\AppData\Local\Temp\cct1jpUJ.s:2025   .debug_str:000000000000032c .LASF11
C:\Users\LOCALH~1\AppData\Local\Temp\cct1jpUJ.s:1955   .debug_str:000000000000018e .LASF12
C:\Users\LOCALH~1\AppData\Local\Temp\cct1jpUJ.s:1951   .debug_str:0000000000000076 .LASF13
C:\Users\LOCALH~1\AppData\Local\Temp\cct1jpUJ.s:2173   .debug_str:000000000000062d .LASF14
C:\Users\LOCALH~1\AppData\Local\Temp\cct1jpUJ.s:1987   .debug_str:000000000000023f .LASF15
C:\Users\LOCALH~1\AppData\Local\Temp\cct1jpUJ.s:2141   .debug_str:00000000000005a6 .LASF16
C:\Users\LOCALH~1\AppData\Local\Temp\cct1jpUJ.s:1949   .debug_str:000000000000006e .LASF17
C:\Users\LOCALH~1\AppData\Local\Temp\cct1jpUJ.s:1985   .debug_str:0000000000000238 .LASF18
C:\Users\LOCALH~1\AppData\Local\Temp\cct1jpUJ.s:2073   .debug_str:0000000000000429 .LASF19
C:\Users\LOCALH~1\AppData\Local\Temp\cct1jpUJ.s:2021   .debug_str:0000000000000319 .LASF20
C:\Users\LOCALH~1\AppData\Local\Temp\cct1jpUJ.s:1935   .debug_str:0000000000000017 .LASF21
C:\Users\LOCALH~1\AppData\Local\Temp\cct1jpUJ.s:2011   .debug_str:00000000000002e4 .LASF22
C:\Users\LOCALH~1\AppData\Local\Temp\cct1jpUJ.s:2087   .debug_str:000000000000048b .LASF23
C:\Users\LOCALH~1\AppData\Local\Temp\cct1jpUJ.s:2051   .debug_str:00000000000003c5 .LASF24
C:\Users\LOCALH~1\AppData\Local\Temp\cct1jpUJ.s:2089   .debug_str:0000000000000495 .LASF25
C:\Users\LOCALH~1\AppData\Local\Temp\cct1jpUJ.s:2053   .debug_str:00000000000003cc .LASF26
C:\Users\LOCALH~1\AppData\Local\Temp\cct1jpUJ.s:2091   .debug_str:000000000000049f .LASF27
C:\Users\LOCALH~1\AppData\Local\Temp\cct1jpUJ.s:2055   .debug_str:00000000000003d3 .LASF28
C:\Users\LOCALH~1\AppData\Local\Temp\cct1jpUJ.s:2093   .debug_str:00000000000004a9 .LASF29
C:\Users\LOCALH~1\AppData\Local\Temp\cct1jpUJ.s:2057   .debug_str:00000000000003da .LASF30
C:\Users\LOCALH~1\AppData\Local\Temp\cct1jpUJ.s:2095   .debug_str:00000000000004b3 .LASF31
C:\Users\LOCALH~1\AppData\Local\Temp\cct1jpUJ.s:2059   .debug_str:00000000000003e1 .LASF32
C:\Users\LOCALH~1\AppData\Local\Temp\cct1jpUJ.s:2097   .debug_str:00000000000004bd .LASF33
C:\Users\LOCALH~1\AppData\Local\Temp\cct1jpUJ.s:2061   .debug_str:00000000000003e8 .LASF34
C:\Users\LOCALH~1\AppData\Local\Temp\cct1jpUJ.s:2099   .debug_str:00000000000004c7 .LASF35
C:\Users\LOCALH~1\AppData\Local\Temp\cct1jpUJ.s:2063   .debug_str:00000000000003ef .LASF36
C:\Users\LOCALH~1\AppData\Local\Temp\cct1jpUJ.s:2101   .debug_str:00000000000004d1 .LASF37
C:\Users\LOCALH~1\AppData\Local\Temp\cct1jpUJ.s:2065   .debug_str:00000000000003f6 .LASF38
C:\Users\LOCALH~1\AppData\Local\Temp\cct1jpUJ.s:2103   .debug_str:00000000000004db .LASF39
C:\Users\LOCALH~1\AppData\Local\Temp\cct1jpUJ.s:2067   .debug_str:00000000000003fd .LASF40
C:\Users\LOCALH~1\AppData\Local\Temp\cct1jpUJ.s:2105   .debug_str:00000000000004e5 .LASF41
C:\Users\LOCALH~1\AppData\Local\Temp\cct1jpUJ.s:2137   .debug_str:0000000000000597 .LASF42
C:\Users\LOCALH~1\AppData\Local\Temp\cct1jpUJ.s:1961   .debug_str:00000000000001b4 .LASF43
C:\Users\LOCALH~1\AppData\Local\Temp\cct1jpUJ.s:2133   .debug_str:0000000000000578 .LASF44
C:\Users\LOCALH~1\AppData\Local\Temp\cct1jpUJ.s:1963   .debug_str:00000000000001bf .LASF45
C:\Users\LOCALH~1\AppData\Local\Temp\cct1jpUJ.s:2139   .debug_str:000000000000059f .LASF46
C:\Users\LOCALH~1\AppData\Local\Temp\cct1jpUJ.s:1965   .debug_str:00000000000001ca .LASF47
C:\Users\LOCALH~1\AppData\Local\Temp\cct1jpUJ.s:2029   .debug_str:0000000000000351 .LASF48
C:\Users\LOCALH~1\AppData\Local\Temp\cct1jpUJ.s:1967   .debug_str:00000000000001d5 .LASF49
C:\Users\LOCALH~1\AppData\Local\Temp\cct1jpUJ.s:2111   .debug_str:0000000000000513 .LASF50
C:\Users\LOCALH~1\AppData\Local\Temp\cct1jpUJ.s:1969   .debug_str:00000000000001e0 .LASF51
C:\Users\LOCALH~1\AppData\Local\Temp\cct1jpUJ.s:2113   .debug_str:000000000000051b .LASF52
C:\Users\LOCALH~1\AppData\Local\Temp\cct1jpUJ.s:1971   .debug_str:00000000000001eb .LASF53
C:\Users\LOCALH~1\AppData\Local\Temp\cct1jpUJ.s:2115   .debug_str:0000000000000523 .LASF54
C:\Users\LOCALH~1\AppData\Local\Temp\cct1jpUJ.s:1973   .debug_str:00000000000001f6 .LASF55
C:\Users\LOCALH~1\AppData\Local\Temp\cct1jpUJ.s:2117   .debug_str:000000000000052b .LASF56
C:\Users\LOCALH~1\AppData\Local\Temp\cct1jpUJ.s:1975   .debug_str:0000000000000201 .LASF57
C:\Users\LOCALH~1\AppData\Local\Temp\cct1jpUJ.s:2119   .debug_str:0000000000000533 .LASF58
C:\Users\LOCALH~1\AppData\Local\Temp\cct1jpUJ.s:1977   .debug_str:000000000000020c .LASF59
C:\Users\LOCALH~1\AppData\Local\Temp\cct1jpUJ.s:2121   .debug_str:000000000000053b .LASF60
C:\Users\LOCALH~1\AppData\Local\Temp\cct1jpUJ.s:1979   .debug_str:0000000000000217 .LASF61
C:\Users\LOCALH~1\AppData\Local\Temp\cct1jpUJ.s:2123   .debug_str:0000000000000543 .LASF62
C:\Users\LOCALH~1\AppData\Local\Temp\cct1jpUJ.s:2001   .debug_str:00000000000002ad .LASF63
C:\Users\LOCALH~1\AppData\Local\Temp\cct1jpUJ.s:2125   .debug_str:000000000000054b .LASF64
C:\Users\LOCALH~1\AppData\Local\Temp\cct1jpUJ.s:2003   .debug_str:00000000000002b8 .LASF65
C:\Users\LOCALH~1\AppData\Local\Temp\cct1jpUJ.s:2127   .debug_str:0000000000000553 .LASF66
C:\Users\LOCALH~1\AppData\Local\Temp\cct1jpUJ.s:2005   .debug_str:00000000000002c3 .LASF67
C:\Users\LOCALH~1\AppData\Local\Temp\cct1jpUJ.s:2151   .debug_str:00000000000005d2 .LASF68
C:\Users\LOCALH~1\AppData\Local\Temp\cct1jpUJ.s:2007   .debug_str:00000000000002ce .LASF69
C:\Users\LOCALH~1\AppData\Local\Temp\cct1jpUJ.s:2153   .debug_str:00000000000005da .LASF70
C:\Users\LOCALH~1\AppData\Local\Temp\cct1jpUJ.s:2009   .debug_str:00000000000002d9 .LASF71
C:\Users\LOCALH~1\AppData\Local\Temp\cct1jpUJ.s:2155   .debug_str:00000000000005e2 .LASF72
C:\Users\LOCALH~1\AppData\Local\Temp\cct1jpUJ.s:2199   .debug_str:000000000000069a .LASF73
C:\Users\LOCALH~1\AppData\Local\Temp\cct1jpUJ.s:2157   .debug_str:00000000000005ea .LASF74
C:\Users\LOCALH~1\AppData\Local\Temp\cct1jpUJ.s:2013   .debug_str:00000000000002ed .LASF75
C:\Users\LOCALH~1\AppData\Local\Temp\cct1jpUJ.s:2159   .debug_str:00000000000005f2 .LASF76
C:\Users\LOCALH~1\AppData\Local\Temp\cct1jpUJ.s:2015   .debug_str:00000000000002f8 .LASF77
C:\Users\LOCALH~1\AppData\Local\Temp\cct1jpUJ.s:2161   .debug_str:00000000000005fa .LASF78
C:\Users\LOCALH~1\AppData\Local\Temp\cct1jpUJ.s:2017   .debug_str:0000000000000303 .LASF79
C:\Users\LOCALH~1\AppData\Local\Temp\cct1jpUJ.s:2163   .debug_str:0000000000000602 .LASF80
C:\Users\LOCALH~1\AppData\Local\Temp\cct1jpUJ.s:2019   .debug_str:000000000000030e .LASF81
C:\Users\LOCALH~1\AppData\Local\Temp\cct1jpUJ.s:2165   .debug_str:000000000000060a .LASF82
C:\Users\LOCALH~1\AppData\Local\Temp\cct1jpUJ.s:2031   .debug_str:0000000000000357 .LASF83
C:\Users\LOCALH~1\AppData\Local\Temp\cct1jpUJ.s:2167   .debug_str:0000000000000612 .LASF84
C:\Users\LOCALH~1\AppData\Local\Temp\cct1jpUJ.s:2033   .debug_str:0000000000000362 .LASF85
C:\Users\LOCALH~1\AppData\Local\Temp\cct1jpUJ.s:2169   .debug_str:000000000000061a .LASF86
C:\Users\LOCALH~1\AppData\Local\Temp\cct1jpUJ.s:2035   .debug_str:000000000000036d .LASF87
C:\Users\LOCALH~1\AppData\Local\Temp\cct1jpUJ.s:2177   .debug_str:000000000000063a .LASF88
C:\Users\LOCALH~1\AppData\Local\Temp\cct1jpUJ.s:2037   .debug_str:0000000000000378 .LASF89
C:\Users\LOCALH~1\AppData\Local\Temp\cct1jpUJ.s:2179   .debug_str:0000000000000642 .LASF90
C:\Users\LOCALH~1\AppData\Local\Temp\cct1jpUJ.s:2039   .debug_str:0000000000000383 .LASF91
C:\Users\LOCALH~1\AppData\Local\Temp\cct1jpUJ.s:2181   .debug_str:000000000000064a .LASF92
C:\Users\LOCALH~1\AppData\Local\Temp\cct1jpUJ.s:2041   .debug_str:000000000000038e .LASF93
C:\Users\LOCALH~1\AppData\Local\Temp\cct1jpUJ.s:2183   .debug_str:0000000000000652 .LASF94
C:\Users\LOCALH~1\AppData\Local\Temp\cct1jpUJ.s:2043   .debug_str:0000000000000399 .LASF95
C:\Users\LOCALH~1\AppData\Local\Temp\cct1jpUJ.s:2185   .debug_str:000000000000065a .LASF96
C:\Users\LOCALH~1\AppData\Local\Temp\cct1jpUJ.s:2045   .debug_str:00000000000003a4 .LASF97
C:\Users\LOCALH~1\AppData\Local\Temp\cct1jpUJ.s:2187   .debug_str:0000000000000662 .LASF98
C:\Users\LOCALH~1\AppData\Local\Temp\cct1jpUJ.s:2047   .debug_str:00000000000003af .LASF99
C:\Users\LOCALH~1\AppData\Local\Temp\cct1jpUJ.s:2189   .debug_str:000000000000066a .LASF100
C:\Users\LOCALH~1\AppData\Local\Temp\cct1jpUJ.s:2049   .debug_str:00000000000003ba .LASF101
C:\Users\LOCALH~1\AppData\Local\Temp\cct1jpUJ.s:2191   .debug_str:0000000000000672 .LASF102
C:\Users\LOCALH~1\AppData\Local\Temp\cct1jpUJ.s:2075   .debug_str:0000000000000439 .LASF103
C:\Users\LOCALH~1\AppData\Local\Temp\cct1jpUJ.s:2193   .debug_str:000000000000067a .LASF104
C:\Users\LOCALH~1\AppData\Local\Temp\cct1jpUJ.s:2077   .debug_str:0000000000000444 .LASF105
C:\Users\LOCALH~1\AppData\Local\Temp\cct1jpUJ.s:2195   .debug_str:0000000000000682 .LASF106
C:\Users\LOCALH~1\AppData\Local\Temp\cct1jpUJ.s:2079   .debug_str:000000000000044f .LASF107
C:\Users\LOCALH~1\AppData\Local\Temp\cct1jpUJ.s:1937   .debug_str:0000000000000022 .LASF108
C:\Users\LOCALH~1\AppData\Local\Temp\cct1jpUJ.s:2143   .debug_str:00000000000005af .LASF109
C:\Users\LOCALH~1\AppData\Local\Temp\cct1jpUJ.s:1939   .debug_str:000000000000002a .LASF110
C:\Users\LOCALH~1\AppData\Local\Temp\cct1jpUJ.s:2083   .debug_str:0000000000000475 .LASF111
C:\Users\LOCALH~1\AppData\Local\Temp\cct1jpUJ.s:1941   .debug_str:0000000000000032 .LASF112
C:\Users\LOCALH~1\AppData\Local\Temp\cct1jpUJ.s:2085   .debug_str:0000000000000480 .LASF113
C:\Users\LOCALH~1\AppData\Local\Temp\cct1jpUJ.s:1959   .debug_str:00000000000001a8 .LASF114
C:\Users\LOCALH~1\AppData\Local\Temp\cct1jpUJ.s:2147   .debug_str:00000000000005c1 .LASF115
C:\Users\LOCALH~1\AppData\Local\Temp\cct1jpUJ.s:2149   .debug_str:00000000000005cd .LASF116
C:\Users\LOCALH~1\AppData\Local\Temp\cct1jpUJ.s:1991   .debug_str:000000000000025c .LASF135
C:\Users\LOCALH~1\AppData\Local\Temp\cct1jpUJ.s:2107   .debug_str:00000000000004ef .LASF117
C:\Users\LOCALH~1\AppData\Local\Temp\cct1jpUJ.s:357    .text.BKP_ClearITPendingBit:0000000000000000 .LFB40
C:\Users\LOCALH~1\AppData\Local\Temp\cct1jpUJ.s:370    .text.BKP_ClearITPendingBit:0000000000000012 .LFE40
C:\Users\LOCALH~1\AppData\Local\Temp\cct1jpUJ.s:2197   .debug_str:000000000000068a .LASF119
C:\Users\LOCALH~1\AppData\Local\Temp\cct1jpUJ.s:337    .text.BKP_GetITStatus:0000000000000000 .LFB39
C:\Users\LOCALH~1\AppData\Local\Temp\cct1jpUJ.s:350    .text.BKP_GetITStatus:000000000000000e .LFE39
C:\Users\LOCALH~1\AppData\Local\Temp\cct1jpUJ.s:1933   .debug_str:0000000000000009 .LASF118
C:\Users\LOCALH~1\AppData\Local\Temp\cct1jpUJ.s:317    .text.BKP_ClearFlag:0000000000000000 .LFB38
C:\Users\LOCALH~1\AppData\Local\Temp\cct1jpUJ.s:330    .text.BKP_ClearFlag:0000000000000012 .LFE38
C:\Users\LOCALH~1\AppData\Local\Temp\cct1jpUJ.s:1947   .debug_str:000000000000005c .LASF120
C:\Users\LOCALH~1\AppData\Local\Temp\cct1jpUJ.s:297    .text.BKP_GetFlagStatus:0000000000000000 .LFB37
C:\Users\LOCALH~1\AppData\Local\Temp\cct1jpUJ.s:310    .text.BKP_GetFlagStatus:000000000000000e .LFE37
C:\Users\LOCALH~1\AppData\Local\Temp\cct1jpUJ.s:1999   .debug_str:0000000000000296 .LASF136
C:\Users\LOCALH~1\AppData\Local\Temp\cct1jpUJ.s:258    .text.BKP_ReadBackupRegister:0000000000000000 .LFB36
C:\Users\LOCALH~1\AppData\Local\Temp\cct1jpUJ.s:290    .text.BKP_ReadBackupRegister:000000000000001c .LFE36
C:\Users\LOCALH~1\AppData\Local\Temp\cct1jpUJ.s:2145   .debug_str:00000000000005ba .LASF121
C:\Users\LOCALH~1\AppData\Local\Temp\cct1jpUJ.s:1770   .debug_loclists:000000000000000c .LLST4
C:\Users\LOCALH~1\AppData\Local\Temp\cct1jpUJ.s:1945   .debug_str:0000000000000044 .LASF123
C:\Users\LOCALH~1\AppData\Local\Temp\cct1jpUJ.s:219    .text.BKP_WriteBackupRegister:0000000000000000 .LFB35
C:\Users\LOCALH~1\AppData\Local\Temp\cct1jpUJ.s:251    .text.BKP_WriteBackupRegister:000000000000001c .LFE35
C:\Users\LOCALH~1\AppData\Local\Temp\cct1jpUJ.s:1785   .debug_loclists:0000000000000026 .LLST3
C:\Users\LOCALH~1\AppData\Local\Temp\cct1jpUJ.s:2175   .debug_str:0000000000000635 .LASF122
C:\Users\LOCALH~1\AppData\Local\Temp\cct1jpUJ.s:2081   .debug_str:000000000000045a .LASF124
C:\Users\LOCALH~1\AppData\Local\Temp\cct1jpUJ.s:186    .text.BKP_SetRTCCalibrationValue:0000000000000000 .LFB34
C:\Users\LOCALH~1\AppData\Local\Temp\cct1jpUJ.s:212    .text.BKP_SetRTCCalibrationValue:0000000000000018 .LFE34
C:\Users\LOCALH~1\AppData\Local\Temp\cct1jpUJ.s:2071   .debug_str:0000000000000418 .LASF125
C:\Users\LOCALH~1\AppData\Local\Temp\cct1jpUJ.s:1800   .debug_loclists:0000000000000040 .LLST1
C:\Users\LOCALH~1\AppData\Local\Temp\cct1jpUJ.s:2201   .debug_str:00000000000006a5 .LASF126
C:\Users\LOCALH~1\AppData\Local\Temp\cct1jpUJ.s:1815   .debug_loclists:000000000000005a .LLST2
C:\Users\LOCALH~1\AppData\Local\Temp\cct1jpUJ.s:2069   .debug_str:0000000000000404 .LASF127
C:\Users\LOCALH~1\AppData\Local\Temp\cct1jpUJ.s:153    .text.BKP_RTCOutputConfig:0000000000000000 .LFB33
C:\Users\LOCALH~1\AppData\Local\Temp\cct1jpUJ.s:179    .text.BKP_RTCOutputConfig:0000000000000018 .LFE33
C:\Users\LOCALH~1\AppData\Local\Temp\cct1jpUJ.s:1989   .debug_str:0000000000000248 .LASF128
C:\Users\LOCALH~1\AppData\Local\Temp\cct1jpUJ.s:1833   .debug_loclists:000000000000007d .LLST0
C:\Users\LOCALH~1\AppData\Local\Temp\cct1jpUJ.s:1981   .debug_str:0000000000000222 .LASF129
C:\Users\LOCALH~1\AppData\Local\Temp\cct1jpUJ.s:116    .text.BKP_ITConfig:0000000000000000 .LFB32
C:\Users\LOCALH~1\AppData\Local\Temp\cct1jpUJ.s:146    .text.BKP_ITConfig:0000000000000022 .LFE32
C:\Users\LOCALH~1\AppData\Local\Temp\cct1jpUJ.s:1931   .debug_str:0000000000000000 .LASF130
C:\Users\LOCALH~1\AppData\Local\Temp\cct1jpUJ.s:1997   .debug_str:0000000000000285 .LASF131
C:\Users\LOCALH~1\AppData\Local\Temp\cct1jpUJ.s:79     .text.BKP_TamperPinCmd:0000000000000000 .LFB31
C:\Users\LOCALH~1\AppData\Local\Temp\cct1jpUJ.s:109    .text.BKP_TamperPinCmd:0000000000000022 .LFE31
C:\Users\LOCALH~1\AppData\Local\Temp\cct1jpUJ.s:2135   .debug_str:000000000000057e .LASF132
C:\Users\LOCALH~1\AppData\Local\Temp\cct1jpUJ.s:42     .text.BKP_TamperPinLevelConfig:0000000000000000 .LFB30
C:\Users\LOCALH~1\AppData\Local\Temp\cct1jpUJ.s:72     .text.BKP_TamperPinLevelConfig:0000000000000022 .LFE30
C:\Users\LOCALH~1\AppData\Local\Temp\cct1jpUJ.s:2131   .debug_str:0000000000000565 .LASF133
C:\Users\LOCALH~1\AppData\Local\Temp\cct1jpUJ.s:2171   .debug_str:0000000000000622 .LASF137
C:\Users\LOCALH~1\AppData\Local\Temp\cct1jpUJ.s:15     .text.BKP_DeInit:0000000000000000 .LFB29
C:\Users\LOCALH~1\AppData\Local\Temp\cct1jpUJ.s:35     .text.BKP_DeInit:0000000000000024 .LFE29
C:\Users\LOCALH~1\AppData\Local\Temp\cct1jpUJ.s:25     .text.BKP_DeInit:0000000000000012 .LVL0
C:\Users\LOCALH~1\AppData\Local\Temp\cct1jpUJ.s:29     .text.BKP_DeInit:000000000000001c .LVL1
C:\Users\LOCALH~1\AppData\Local\Temp\cct1jpUJ.s:261    .text.BKP_ReadBackupRegister:0000000000000000 .LVL15
C:\Users\LOCALH~1\AppData\Local\Temp\cct1jpUJ.s:278    .text.BKP_ReadBackupRegister:0000000000000012 .LVL16
C:\Users\LOCALH~1\AppData\Local\Temp\cct1jpUJ.s:222    .text.BKP_WriteBackupRegister:0000000000000000 .LVL13
C:\Users\LOCALH~1\AppData\Local\Temp\cct1jpUJ.s:239    .text.BKP_WriteBackupRegister:0000000000000012 .LVL14
C:\Users\LOCALH~1\AppData\Local\Temp\cct1jpUJ.s:189    .text.BKP_SetRTCCalibrationValue:0000000000000000 .LVL9
C:\Users\LOCALH~1\AppData\Local\Temp\cct1jpUJ.s:205    .text.BKP_SetRTCCalibrationValue:0000000000000012 .LVL12
C:\Users\LOCALH~1\AppData\Local\Temp\cct1jpUJ.s:197    .text.BKP_SetRTCCalibrationValue:000000000000000c .LVL10
C:\Users\LOCALH~1\AppData\Local\Temp\cct1jpUJ.s:156    .text.BKP_RTCOutputConfig:0000000000000000 .LVL5
C:\Users\LOCALH~1\AppData\Local\Temp\cct1jpUJ.s:164    .text.BKP_RTCOutputConfig:000000000000000c .LVL6
C:\Users\LOCALH~1\AppData\Local\Temp\cct1jpUJ.s:380    .debug_info:0000000000000000 .Ldebug_info0

UNDEFINED SYMBOLS
__riscv_save_0
RCC_BackupResetCmd
__riscv_restore_0
