   1              		.file	"ch32v30x_usart.c"
   2              		.option nopic
   3              		.attribute arch, "rv32i2p0_m2p0_a2p0_f2p0_c2p0_xw"
   4              		.attribute unaligned_access, 0
   5              		.attribute stack_align, 16
   6              		.text
   7              	.Ltext0:
   8              		.cfi_sections	.debug_frame
   9              		.file 0 "C:\\Users\\localhost\\Documents\\turbomoskal-repo\\qqexpert\\firmware\\MasterController\\
  10              		.section	.text.USART_DeInit,"ax",@progbits
  11              		.align	1
  12              		.globl	USART_DeInit
  14              	USART_DeInit:
  15              	.LFB29:
  16              		.file 1 "../Peripheral/src/ch32v30x_usart.c"
   1:../Peripheral/src/ch32v30x_usart.c **** /********************************** (C) COPYRIGHT *******************************
   2:../Peripheral/src/ch32v30x_usart.c **** * File Name          : ch32v30x_usart.c
   3:../Peripheral/src/ch32v30x_usart.c **** * Author             : WCH
   4:../Peripheral/src/ch32v30x_usart.c **** * Version            : V1.0.0
   5:../Peripheral/src/ch32v30x_usart.c **** * Date               : 2024/03/06
   6:../Peripheral/src/ch32v30x_usart.c **** * Description        : This file provides all the USART firmware functions.
   7:../Peripheral/src/ch32v30x_usart.c **** *********************************************************************************
   8:../Peripheral/src/ch32v30x_usart.c **** * Copyright (c) 2021 Nanjing Qinheng Microelectronics Co., Ltd.
   9:../Peripheral/src/ch32v30x_usart.c **** * Attention: This software (modified or not) and binary are used for 
  10:../Peripheral/src/ch32v30x_usart.c **** * microcontroller manufactured by Nanjing Qinheng Microelectronics.
  11:../Peripheral/src/ch32v30x_usart.c **** *******************************************************************************/
  12:../Peripheral/src/ch32v30x_usart.c **** #include "ch32v30x_usart.h"
  13:../Peripheral/src/ch32v30x_usart.c **** #include "ch32v30x_rcc.h"
  14:../Peripheral/src/ch32v30x_usart.c **** 
  15:../Peripheral/src/ch32v30x_usart.c **** /* USART_Private_Defines */
  16:../Peripheral/src/ch32v30x_usart.c **** #define CTLR1_UE_Set              ((uint16_t)0x2000) /* USART Enable Mask */
  17:../Peripheral/src/ch32v30x_usart.c **** #define CTLR1_UE_Reset            ((uint16_t)0xDFFF) /* USART Disable Mask */
  18:../Peripheral/src/ch32v30x_usart.c **** 
  19:../Peripheral/src/ch32v30x_usart.c **** #define CTLR1_WAKE_Mask           ((uint16_t)0xF7FF) /* USART WakeUp Method Mask */
  20:../Peripheral/src/ch32v30x_usart.c **** 
  21:../Peripheral/src/ch32v30x_usart.c **** #define CTLR1_RWU_Set             ((uint16_t)0x0002) /* USART mute mode Enable Mask */
  22:../Peripheral/src/ch32v30x_usart.c **** #define CTLR1_RWU_Reset           ((uint16_t)0xFFFD) /* USART mute mode Enable Mask */
  23:../Peripheral/src/ch32v30x_usart.c **** #define CTLR1_SBK_Set             ((uint16_t)0x0001) /* USART Break Character send Mask */
  24:../Peripheral/src/ch32v30x_usart.c **** #define CTLR1_CLEAR_Mask          ((uint16_t)0xE9F3) /* USART CTLR1 Mask */
  25:../Peripheral/src/ch32v30x_usart.c **** #define CTLR2_Address_Mask        ((uint16_t)0xFFF0) /* USART address Mask */
  26:../Peripheral/src/ch32v30x_usart.c **** 
  27:../Peripheral/src/ch32v30x_usart.c **** #define CTLR2_LINEN_Set           ((uint16_t)0x4000) /* USART LIN Enable Mask */
  28:../Peripheral/src/ch32v30x_usart.c **** #define CTLR2_LINEN_Reset         ((uint16_t)0xBFFF) /* USART LIN Disable Mask */
  29:../Peripheral/src/ch32v30x_usart.c **** 
  30:../Peripheral/src/ch32v30x_usart.c **** #define CTLR2_LBDL_Mask           ((uint16_t)0xFFDF) /* USART LIN Break detection Mask */
  31:../Peripheral/src/ch32v30x_usart.c **** #define CTLR2_STOP_CLEAR_Mask     ((uint16_t)0xCFFF) /* USART CTLR2 STOP Bits Mask */
  32:../Peripheral/src/ch32v30x_usart.c **** #define CTLR2_CLOCK_CLEAR_Mask    ((uint16_t)0xF0FF) /* USART CTLR2 Clock Mask */
  33:../Peripheral/src/ch32v30x_usart.c **** 
  34:../Peripheral/src/ch32v30x_usart.c **** #define CTLR3_SCEN_Set            ((uint16_t)0x0020) /* USART SC Enable Mask */
  35:../Peripheral/src/ch32v30x_usart.c **** #define CTLR3_SCEN_Reset          ((uint16_t)0xFFDF) /* USART SC Disable Mask */
  36:../Peripheral/src/ch32v30x_usart.c **** 
  37:../Peripheral/src/ch32v30x_usart.c **** #define CTLR3_NACK_Set            ((uint16_t)0x0010) /* USART SC NACK Enable Mask */
  38:../Peripheral/src/ch32v30x_usart.c **** #define CTLR3_NACK_Reset          ((uint16_t)0xFFEF) /* USART SC NACK Disable Mask */
  39:../Peripheral/src/ch32v30x_usart.c **** 
  40:../Peripheral/src/ch32v30x_usart.c **** #define CTLR3_HDSEL_Set           ((uint16_t)0x0008) /* USART Half-Duplex Enable Mask */
  41:../Peripheral/src/ch32v30x_usart.c **** #define CTLR3_HDSEL_Reset         ((uint16_t)0xFFF7) /* USART Half-Duplex Disable Mask */
  42:../Peripheral/src/ch32v30x_usart.c **** 
  43:../Peripheral/src/ch32v30x_usart.c **** #define CTLR3_IRLP_Mask           ((uint16_t)0xFFFB) /* USART IrDA LowPower mode Mask */
  44:../Peripheral/src/ch32v30x_usart.c **** #define CTLR3_CLEAR_Mask          ((uint16_t)0xFCFF) /* USART CTLR3 Mask */
  45:../Peripheral/src/ch32v30x_usart.c **** 
  46:../Peripheral/src/ch32v30x_usart.c **** #define CTLR3_IREN_Set            ((uint16_t)0x0002) /* USART IrDA Enable Mask */
  47:../Peripheral/src/ch32v30x_usart.c **** #define CTLR3_IREN_Reset          ((uint16_t)0xFFFD) /* USART IrDA Disable Mask */
  48:../Peripheral/src/ch32v30x_usart.c **** #define GPR_LSB_Mask              ((uint16_t)0x00FF) /* Guard Time Register LSB Mask */
  49:../Peripheral/src/ch32v30x_usart.c **** #define GPR_MSB_Mask              ((uint16_t)0xFF00) /* Guard Time Register MSB Mask */
  50:../Peripheral/src/ch32v30x_usart.c **** #define IT_Mask                   ((uint16_t)0x001F) /* USART Interrupt Mask */
  51:../Peripheral/src/ch32v30x_usart.c **** 
  52:../Peripheral/src/ch32v30x_usart.c **** /*********************************************************************
  53:../Peripheral/src/ch32v30x_usart.c ****  * @fn      USART_DeInit
  54:../Peripheral/src/ch32v30x_usart.c ****  *
  55:../Peripheral/src/ch32v30x_usart.c ****  * @brief   Deinitializes the USARTx peripheral registers to their default
  56:../Peripheral/src/ch32v30x_usart.c ****  *        reset values.
  57:../Peripheral/src/ch32v30x_usart.c ****  *
  58:../Peripheral/src/ch32v30x_usart.c ****  * @param   USARTx - where x can be 1, 2 or 3 to select the UART peripheral.
  59:../Peripheral/src/ch32v30x_usart.c ****  *
  60:../Peripheral/src/ch32v30x_usart.c ****  * @return  none
  61:../Peripheral/src/ch32v30x_usart.c ****  */
  62:../Peripheral/src/ch32v30x_usart.c **** void USART_DeInit(USART_TypeDef *USARTx)
  63:../Peripheral/src/ch32v30x_usart.c **** {
  17              		.loc 1 63 1
  18              		.cfi_startproc
  19              	.LVL0:
  20 0000 17030000 		call	t0,__riscv_save_0
  20      E7020300 
  21              		.cfi_offset 1, -4
  22              		.cfi_def_cfa_offset 16
  64:../Peripheral/src/ch32v30x_usart.c ****     if(USARTx == USART1)
  23              		.loc 1 64 5
  24              		.loc 1 64 7 is_stmt 0
  25 0008 B7470140 		li	a5,1073823744
  26 000c 93870780 		addi	a5,a5,-2048
  27 0010 6312F502 		bne	a0,a5,.L2
  65:../Peripheral/src/ch32v30x_usart.c ****     {
  66:../Peripheral/src/ch32v30x_usart.c ****         RCC_APB2PeriphResetCmd(RCC_APB2Periph_USART1, ENABLE);
  28              		.loc 1 66 9 is_stmt 1
  29 0014 8545     		li	a1,1
  30 0016 1165     		li	a0,16384
  31              	.LVL1:
  32 0018 97000000 		call	RCC_APB2PeriphResetCmd
  32      E7800000 
  33              	.LVL2:
  67:../Peripheral/src/ch32v30x_usart.c ****         RCC_APB2PeriphResetCmd(RCC_APB2Periph_USART1, DISABLE);
  34              		.loc 1 67 9
  35 0020 8145     		li	a1,0
  36 0022 1165     		li	a0,16384
  37 0024 97000000 		call	RCC_APB2PeriphResetCmd
  37      E7800000 
  38              	.LVL3:
  39              	.L1:
  68:../Peripheral/src/ch32v30x_usart.c ****     }
  69:../Peripheral/src/ch32v30x_usart.c ****     else if(USARTx == USART2)
  70:../Peripheral/src/ch32v30x_usart.c ****     {
  71:../Peripheral/src/ch32v30x_usart.c ****         RCC_APB1PeriphResetCmd(RCC_APB1Periph_USART2, ENABLE);
  72:../Peripheral/src/ch32v30x_usart.c ****         RCC_APB1PeriphResetCmd(RCC_APB1Periph_USART2, DISABLE);
  73:../Peripheral/src/ch32v30x_usart.c ****     }
  74:../Peripheral/src/ch32v30x_usart.c ****     else if(USARTx == USART3)
  75:../Peripheral/src/ch32v30x_usart.c ****     {
  76:../Peripheral/src/ch32v30x_usart.c ****         RCC_APB1PeriphResetCmd(RCC_APB1Periph_USART3, ENABLE);
  77:../Peripheral/src/ch32v30x_usart.c ****         RCC_APB1PeriphResetCmd(RCC_APB1Periph_USART3, DISABLE);
  78:../Peripheral/src/ch32v30x_usart.c ****     }
  79:../Peripheral/src/ch32v30x_usart.c ****     else if(USARTx == UART4)
  80:../Peripheral/src/ch32v30x_usart.c ****     {
  81:../Peripheral/src/ch32v30x_usart.c ****         RCC_APB1PeriphResetCmd(RCC_APB1Periph_UART4, ENABLE);
  82:../Peripheral/src/ch32v30x_usart.c ****         RCC_APB1PeriphResetCmd(RCC_APB1Periph_UART4, DISABLE);
  83:../Peripheral/src/ch32v30x_usart.c ****     }
  84:../Peripheral/src/ch32v30x_usart.c ****     else if(USARTx == UART5)
  85:../Peripheral/src/ch32v30x_usart.c ****     {
  86:../Peripheral/src/ch32v30x_usart.c ****         RCC_APB1PeriphResetCmd(RCC_APB1Periph_UART5, ENABLE);
  87:../Peripheral/src/ch32v30x_usart.c ****         RCC_APB1PeriphResetCmd(RCC_APB1Periph_UART5, DISABLE);
  88:../Peripheral/src/ch32v30x_usart.c ****     }
  89:../Peripheral/src/ch32v30x_usart.c ****     else if(USARTx == UART6)
  90:../Peripheral/src/ch32v30x_usart.c ****     {
  91:../Peripheral/src/ch32v30x_usart.c ****         RCC_APB1PeriphResetCmd(RCC_APB1Periph_UART6, ENABLE);
  92:../Peripheral/src/ch32v30x_usart.c ****         RCC_APB1PeriphResetCmd(RCC_APB1Periph_UART6, DISABLE);
  93:../Peripheral/src/ch32v30x_usart.c ****     }
  94:../Peripheral/src/ch32v30x_usart.c ****     else if(USARTx == UART7)
  95:../Peripheral/src/ch32v30x_usart.c ****     {
  96:../Peripheral/src/ch32v30x_usart.c ****         RCC_APB1PeriphResetCmd(RCC_APB1Periph_UART7, ENABLE);
  97:../Peripheral/src/ch32v30x_usart.c ****         RCC_APB1PeriphResetCmd(RCC_APB1Periph_UART7, DISABLE);
  98:../Peripheral/src/ch32v30x_usart.c ****     }
  99:../Peripheral/src/ch32v30x_usart.c ****     else if(USARTx == UART8)
 100:../Peripheral/src/ch32v30x_usart.c ****     {
 101:../Peripheral/src/ch32v30x_usart.c ****         RCC_APB1PeriphResetCmd(RCC_APB1Periph_UART8, ENABLE);
 102:../Peripheral/src/ch32v30x_usart.c ****         RCC_APB1PeriphResetCmd(RCC_APB1Periph_UART8, DISABLE);
 103:../Peripheral/src/ch32v30x_usart.c ****     }
 104:../Peripheral/src/ch32v30x_usart.c **** }
  40              		.loc 1 104 1 is_stmt 0
  41 002c 17030000 		tail	__riscv_restore_0
  41      67000300 
  42              		.cfi_remember_state
  43              		.cfi_restore 1
  44              		.cfi_def_cfa_offset 0
  45              	.LVL4:
  46              	.L2:
  47              		.cfi_restore_state
  69:../Peripheral/src/ch32v30x_usart.c ****     {
  48              		.loc 1 69 10 is_stmt 1
  69:../Peripheral/src/ch32v30x_usart.c ****     {
  49              		.loc 1 69 12 is_stmt 0
  50 0034 B7470040 		li	a5,1073758208
  51 0038 93870740 		addi	a5,a5,1024
  52 003c 6311F502 		bne	a0,a5,.L4
  71:../Peripheral/src/ch32v30x_usart.c ****         RCC_APB1PeriphResetCmd(RCC_APB1Periph_USART2, DISABLE);
  53              		.loc 1 71 9 is_stmt 1
  54 0040 8545     		li	a1,1
  55 0042 37050200 		li	a0,131072
  56              	.LVL5:
  57 0046 97000000 		call	RCC_APB1PeriphResetCmd
  57      E7800000 
  58              	.LVL6:
  72:../Peripheral/src/ch32v30x_usart.c ****     }
  59              		.loc 1 72 9
  60 004e 8145     		li	a1,0
  61 0050 37050200 		li	a0,131072
  62              	.L11:
 102:../Peripheral/src/ch32v30x_usart.c ****     }
  63              		.loc 1 102 9 is_stmt 0
  64 0054 97000000 		call	RCC_APB1PeriphResetCmd
  64      E7800000 
  65              	.LVL7:
  66              		.loc 1 104 1
  67 005c C1BF     		j	.L1
  68              	.LVL8:
  69              	.L4:
  74:../Peripheral/src/ch32v30x_usart.c ****     {
  70              		.loc 1 74 10 is_stmt 1
  74:../Peripheral/src/ch32v30x_usart.c ****     {
  71              		.loc 1 74 12 is_stmt 0
  72 005e B7570040 		li	a5,1073762304
  73 0062 13870780 		addi	a4,a5,-2048
  74 0066 631DE500 		bne	a0,a4,.L5
  76:../Peripheral/src/ch32v30x_usart.c ****         RCC_APB1PeriphResetCmd(RCC_APB1Periph_USART3, DISABLE);
  75              		.loc 1 76 9 is_stmt 1
  76 006a 8545     		li	a1,1
  77 006c 37050400 		li	a0,262144
  78              	.LVL9:
  79 0070 97000000 		call	RCC_APB1PeriphResetCmd
  79      E7800000 
  80              	.LVL10:
  77:../Peripheral/src/ch32v30x_usart.c ****     }
  81              		.loc 1 77 9
  82 0078 8145     		li	a1,0
  83 007a 37050400 		li	a0,262144
  84 007e D9BF     		j	.L11
  85              	.LVL11:
  86              	.L5:
  79:../Peripheral/src/ch32v30x_usart.c ****     {
  87              		.loc 1 79 10
  79:../Peripheral/src/ch32v30x_usart.c ****     {
  88              		.loc 1 79 12 is_stmt 0
  89 0080 138707C0 		addi	a4,a5,-1024
  90 0084 631DE500 		bne	a0,a4,.L6
  81:../Peripheral/src/ch32v30x_usart.c ****         RCC_APB1PeriphResetCmd(RCC_APB1Periph_UART4, DISABLE);
  91              		.loc 1 81 9 is_stmt 1
  92 0088 8545     		li	a1,1
  93 008a 37050800 		li	a0,524288
  94              	.LVL12:
  95 008e 97000000 		call	RCC_APB1PeriphResetCmd
  95      E7800000 
  96              	.LVL13:
  82:../Peripheral/src/ch32v30x_usart.c ****     }
  97              		.loc 1 82 9
  98 0096 8145     		li	a1,0
  99 0098 37050800 		li	a0,524288
 100 009c 65BF     		j	.L11
 101              	.LVL14:
 102              	.L6:
  84:../Peripheral/src/ch32v30x_usart.c ****     {
 103              		.loc 1 84 10
  84:../Peripheral/src/ch32v30x_usart.c ****     {
 104              		.loc 1 84 12 is_stmt 0
 105 009e 631DF500 		bne	a0,a5,.L7
  86:../Peripheral/src/ch32v30x_usart.c ****         RCC_APB1PeriphResetCmd(RCC_APB1Periph_UART5, DISABLE);
 106              		.loc 1 86 9 is_stmt 1
 107 00a2 8545     		li	a1,1
 108 00a4 37051000 		li	a0,1048576
 109              	.LVL15:
 110 00a8 97000000 		call	RCC_APB1PeriphResetCmd
 110      E7800000 
 111              	.LVL16:
  87:../Peripheral/src/ch32v30x_usart.c ****     }
 112              		.loc 1 87 9
 113 00b0 8145     		li	a1,0
 114 00b2 37051000 		li	a0,1048576
 115 00b6 79BF     		j	.L11
 116              	.LVL17:
 117              	.L7:
  89:../Peripheral/src/ch32v30x_usart.c ****     {
 118              		.loc 1 89 10
  89:../Peripheral/src/ch32v30x_usart.c ****     {
 119              		.loc 1 89 12 is_stmt 0
 120 00b8 B7270040 		li	a5,1073750016
 121 00bc 13870780 		addi	a4,a5,-2048
 122 00c0 631DE500 		bne	a0,a4,.L8
  91:../Peripheral/src/ch32v30x_usart.c ****         RCC_APB1PeriphResetCmd(RCC_APB1Periph_UART6, DISABLE);
 123              		.loc 1 91 9 is_stmt 1
 124 00c4 8545     		li	a1,1
 125 00c6 13050004 		li	a0,64
 126              	.LVL18:
 127 00ca 97000000 		call	RCC_APB1PeriphResetCmd
 127      E7800000 
 128              	.LVL19:
  92:../Peripheral/src/ch32v30x_usart.c ****     }
 129              		.loc 1 92 9
 130 00d2 8145     		li	a1,0
 131 00d4 13050004 		li	a0,64
 132 00d8 B5BF     		j	.L11
 133              	.LVL20:
 134              	.L8:
  94:../Peripheral/src/ch32v30x_usart.c ****     {
 135              		.loc 1 94 10
  94:../Peripheral/src/ch32v30x_usart.c ****     {
 136              		.loc 1 94 12 is_stmt 0
 137 00da 138707C0 		addi	a4,a5,-1024
 138 00de 631DE500 		bne	a0,a4,.L9
  96:../Peripheral/src/ch32v30x_usart.c ****         RCC_APB1PeriphResetCmd(RCC_APB1Periph_UART7, DISABLE);
 139              		.loc 1 96 9 is_stmt 1
 140 00e2 8545     		li	a1,1
 141 00e4 13050008 		li	a0,128
 142              	.LVL21:
 143 00e8 97000000 		call	RCC_APB1PeriphResetCmd
 143      E7800000 
 144              	.LVL22:
  97:../Peripheral/src/ch32v30x_usart.c ****     }
 145              		.loc 1 97 9
 146 00f0 8145     		li	a1,0
 147 00f2 13050008 		li	a0,128
 148 00f6 B9BF     		j	.L11
 149              	.LVL23:
 150              	.L9:
  99:../Peripheral/src/ch32v30x_usart.c ****     {
 151              		.loc 1 99 10
  99:../Peripheral/src/ch32v30x_usart.c ****     {
 152              		.loc 1 99 12 is_stmt 0
 153 00f8 E31AF5F2 		bne	a0,a5,.L1
 101:../Peripheral/src/ch32v30x_usart.c ****         RCC_APB1PeriphResetCmd(RCC_APB1Periph_UART8, DISABLE);
 154              		.loc 1 101 9 is_stmt 1
 155 00fc 8545     		li	a1,1
 156 00fe 13050010 		li	a0,256
 157              	.LVL24:
 158 0102 97000000 		call	RCC_APB1PeriphResetCmd
 158      E7800000 
 159              	.LVL25:
 102:../Peripheral/src/ch32v30x_usart.c ****     }
 160              		.loc 1 102 9
 161 010a 8145     		li	a1,0
 162 010c 13050010 		li	a0,256
 163 0110 91B7     		j	.L11
 164              		.cfi_endproc
 165              	.LFE29:
 167              		.section	.text.USART_Init,"ax",@progbits
 168              		.align	1
 169              		.globl	USART_Init
 171              	USART_Init:
 172              	.LFB30:
 105:../Peripheral/src/ch32v30x_usart.c **** 
 106:../Peripheral/src/ch32v30x_usart.c **** /*********************************************************************
 107:../Peripheral/src/ch32v30x_usart.c ****  * @fn      USART_Init
 108:../Peripheral/src/ch32v30x_usart.c ****  *
 109:../Peripheral/src/ch32v30x_usart.c ****  * @brief   Initializes the USARTx peripheral according to the specified
 110:../Peripheral/src/ch32v30x_usart.c ****  *        parameters in the USART_InitStruct.
 111:../Peripheral/src/ch32v30x_usart.c ****  *
 112:../Peripheral/src/ch32v30x_usart.c ****  * @param   USARTx - where x can be 1, 2 or 3 to select the UART peripheral.
 113:../Peripheral/src/ch32v30x_usart.c ****  *          USART_InitStruct - pointer to a USART_InitTypeDef structure
 114:../Peripheral/src/ch32v30x_usart.c ****  *        that contains the configuration information for the specified
 115:../Peripheral/src/ch32v30x_usart.c ****  *        USART peripheral.
 116:../Peripheral/src/ch32v30x_usart.c ****  *
 117:../Peripheral/src/ch32v30x_usart.c ****  * @return  none
 118:../Peripheral/src/ch32v30x_usart.c ****  */
 119:../Peripheral/src/ch32v30x_usart.c **** void USART_Init(USART_TypeDef *USARTx, USART_InitTypeDef *USART_InitStruct)
 120:../Peripheral/src/ch32v30x_usart.c **** {
 173              		.loc 1 120 1
 174              		.cfi_startproc
 175              	.LVL26:
 176 0000 17030000 		call	t0,__riscv_save_2
 176      E7020300 
 177              		.cfi_offset 9, -12
 178              		.cfi_offset 8, -8
 179              		.cfi_offset 1, -4
 180              		.cfi_def_cfa_offset 16
 121:../Peripheral/src/ch32v30x_usart.c ****     uint32_t          tmpreg = 0x00, apbclock = 0x00;
 181              		.loc 1 121 5
 182              	.LVL27:
 122:../Peripheral/src/ch32v30x_usart.c ****     uint32_t          integerdivider = 0x00;
 183              		.loc 1 122 5
 123:../Peripheral/src/ch32v30x_usart.c ****     uint32_t          fractionaldivider = 0x00;
 184              		.loc 1 123 5
 124:../Peripheral/src/ch32v30x_usart.c ****     uint32_t          usartxbase = 0;
 185              		.loc 1 124 5
 125:../Peripheral/src/ch32v30x_usart.c ****     RCC_ClocksTypeDef RCC_ClocksStatus;
 186              		.loc 1 125 5
 126:../Peripheral/src/ch32v30x_usart.c **** 
 127:../Peripheral/src/ch32v30x_usart.c ****     if(USART_InitStruct->USART_HardwareFlowControl != USART_HardwareFlowControl_None)
 187              		.loc 1 127 5
 128:../Peripheral/src/ch32v30x_usart.c ****     {
 129:../Peripheral/src/ch32v30x_usart.c ****     }
 130:../Peripheral/src/ch32v30x_usart.c **** 
 131:../Peripheral/src/ch32v30x_usart.c ****     usartxbase = (uint32_t)USARTx;
 132:../Peripheral/src/ch32v30x_usart.c ****     tmpreg = USARTx->CTLR2;
 188              		.loc 1 132 20 is_stmt 0
 189 0008 1629     		lhu	a3,16(a0)
 190 000a F577     		li	a5,-12288
 191 000c FD17     		addi	a5,a5,-1
 192 000e FD8E     		and	a3,a3,a5
 193 0010 FE21     		lhu	a5,6(a1)
 127:../Peripheral/src/ch32v30x_usart.c ****     {
 194              		.loc 1 127 24
 195 0012 DA25     		lhu	a4,12(a1)
 129:../Peripheral/src/ch32v30x_usart.c **** 
 196              		.loc 1 129 5 is_stmt 1
 131:../Peripheral/src/ch32v30x_usart.c ****     tmpreg = USARTx->CTLR2;
 197              		.loc 1 131 5
 198              	.LVL28:
 199              		.loc 1 132 5
 133:../Peripheral/src/ch32v30x_usart.c ****     tmpreg &= CTLR2_STOP_CLEAR_Mask;
 200              		.loc 1 133 5
 134:../Peripheral/src/ch32v30x_usart.c ****     tmpreg |= (uint32_t)USART_InitStruct->USART_StopBits;
 201              		.loc 1 134 5
 120:../Peripheral/src/ch32v30x_usart.c ****     uint32_t          tmpreg = 0x00, apbclock = 0x00;
 202              		.loc 1 120 1 is_stmt 0
 203 0014 0111     		addi	sp,sp,-32
 204              		.cfi_def_cfa_offset 48
 205 0016 D58F     		or	a5,a5,a3
 206              	.LVL29:
 135:../Peripheral/src/ch32v30x_usart.c **** 
 136:../Peripheral/src/ch32v30x_usart.c ****     USARTx->CTLR2 = (uint16_t)tmpreg;
 207              		.loc 1 136 5 is_stmt 1
 208              		.loc 1 136 19 is_stmt 0
 209 0018 1EA9     		sh	a5,16(a0)
 137:../Peripheral/src/ch32v30x_usart.c ****     tmpreg = USARTx->CTLR1;
 210              		.loc 1 137 5 is_stmt 1
 211              		.loc 1 137 20 is_stmt 0
 212 001a 5625     		lhu	a3,12(a0)
 213              	.LVL30:
 138:../Peripheral/src/ch32v30x_usart.c ****     tmpreg &= CTLR1_CLEAR_Mask;
 214              		.loc 1 138 5 is_stmt 1
 139:../Peripheral/src/ch32v30x_usart.c ****     tmpreg |= (uint32_t)USART_InitStruct->USART_WordLength | USART_InitStruct->USART_Parity |
 215              		.loc 1 139 5
 216 001c FD77     		li	a5,-4096
 217 001e 9387379F 		addi	a5,a5,-1549
 218 0022 FD8E     		and	a3,a3,a5
 219              	.LVL31:
 220 0024 DE21     		lhu	a5,4(a1)
 120:../Peripheral/src/ch32v30x_usart.c ****     uint32_t          tmpreg = 0x00, apbclock = 0x00;
 221              		.loc 1 120 1 is_stmt 0
 222 0026 2A84     		mv	s0,a0
 223 0028 AE84     		mv	s1,a1
 224 002a D58F     		or	a5,a5,a3
 225 002c 9625     		lhu	a3,8(a1)
 226 002e D58F     		or	a5,a5,a3
 227 0030 B625     		lhu	a3,10(a1)
 228 0032 D58F     		or	a5,a5,a3
 229              	.LVL32:
 140:../Peripheral/src/ch32v30x_usart.c ****               USART_InitStruct->USART_Mode;
 141:../Peripheral/src/ch32v30x_usart.c ****     USARTx->CTLR1 = (uint16_t)tmpreg;
 230              		.loc 1 141 5 is_stmt 1
 231              		.loc 1 141 19 is_stmt 0
 232 0034 5EA5     		sh	a5,12(a0)
 142:../Peripheral/src/ch32v30x_usart.c **** 
 143:../Peripheral/src/ch32v30x_usart.c ****     tmpreg = USARTx->CTLR3;
 233              		.loc 1 143 5 is_stmt 1
 234              		.loc 1 143 20 is_stmt 0
 235 0036 5E29     		lhu	a5,20(a0)
 236              	.LVL33:
 237 0038 C207     		slli	a5,a5,16
 238 003a C183     		srli	a5,a5,16
 239              	.LVL34:
 144:../Peripheral/src/ch32v30x_usart.c ****     tmpreg &= CTLR3_CLEAR_Mask;
 240              		.loc 1 144 5 is_stmt 1
 145:../Peripheral/src/ch32v30x_usart.c ****     tmpreg |= USART_InitStruct->USART_HardwareFlowControl;
 241              		.loc 1 145 5
 242 003c 93F7F7CF 		andi	a5,a5,-769
 243              	.LVL35:
 244 0040 D98F     		or	a5,a4,a5
 245              	.LVL36:
 146:../Peripheral/src/ch32v30x_usart.c ****     USARTx->CTLR3 = (uint16_t)tmpreg;
 246              		.loc 1 146 5
 247              		.loc 1 146 19 is_stmt 0
 248 0042 5EA9     		sh	a5,20(a0)
 147:../Peripheral/src/ch32v30x_usart.c **** 
 148:../Peripheral/src/ch32v30x_usart.c ****     RCC_GetClocksFreq(&RCC_ClocksStatus);
 249              		.loc 1 148 5 is_stmt 1
 250 0044 6800     		addi	a0,sp,12
 251              	.LVL37:
 252 0046 97000000 		call	RCC_GetClocksFreq
 252      E7800000 
 253              	.LVL38:
 149:../Peripheral/src/ch32v30x_usart.c **** 
 150:../Peripheral/src/ch32v30x_usart.c ****     if(usartxbase == USART1_BASE)
 254              		.loc 1 150 5
 255              		.loc 1 150 7 is_stmt 0
 256 004e B7470140 		li	a5,1073823744
 257 0052 93870780 		addi	a5,a5,-2048
 258 0056 6310F404 		bne	s0,a5,.L13
 151:../Peripheral/src/ch32v30x_usart.c ****     {
 152:../Peripheral/src/ch32v30x_usart.c ****         apbclock = RCC_ClocksStatus.PCLK2_Frequency;
 259              		.loc 1 152 9 is_stmt 1
 260              		.loc 1 152 18 is_stmt 0
 261 005a E247     		lw	a5,24(sp)
 262              	.LVL39:
 263              	.L14:
 153:../Peripheral/src/ch32v30x_usart.c ****     }
 154:../Peripheral/src/ch32v30x_usart.c ****     else
 155:../Peripheral/src/ch32v30x_usart.c ****     {
 156:../Peripheral/src/ch32v30x_usart.c ****         apbclock = RCC_ClocksStatus.PCLK1_Frequency;
 157:../Peripheral/src/ch32v30x_usart.c ****     }
 158:../Peripheral/src/ch32v30x_usart.c **** 
 159:../Peripheral/src/ch32v30x_usart.c ****     integerdivider = ((25 * apbclock) / (4 * (USART_InitStruct->USART_BaudRate)));
 264              		.loc 1 159 5 is_stmt 1
 265              		.loc 1 159 27 is_stmt 0
 266 005c 6547     		li	a4,25
 267 005e B387E702 		mul	a5,a5,a4
 268              	.LVL40:
 269              		.loc 1 159 44
 270 0062 9840     		lw	a4,0(s1)
 160:../Peripheral/src/ch32v30x_usart.c ****     tmpreg = (integerdivider / 100) << 4;
 271              		.loc 1 160 30
 272 0064 93064006 		li	a3,100
 159:../Peripheral/src/ch32v30x_usart.c ****     tmpreg = (integerdivider / 100) << 4;
 273              		.loc 1 159 44
 274 0068 0A07     		slli	a4,a4,2
 159:../Peripheral/src/ch32v30x_usart.c ****     tmpreg = (integerdivider / 100) << 4;
 275              		.loc 1 159 20
 276 006a B3D7E702 		divu	a5,a5,a4
 277              	.LVL41:
 278              		.loc 1 160 5 is_stmt 1
 279              		.loc 1 160 30 is_stmt 0
 280 006e 33D7D702 		divu	a4,a5,a3
 161:../Peripheral/src/ch32v30x_usart.c ****     fractionaldivider = integerdivider - (100 * (tmpreg >> 4));
 162:../Peripheral/src/ch32v30x_usart.c ****     tmpreg |= ((((fractionaldivider * 16) + 50) / 100)) & ((uint8_t)0x0F);
 281              		.loc 1 162 37
 282 0072 B3F7D702 		remu	a5,a5,a3
 283              	.LVL42:
 160:../Peripheral/src/ch32v30x_usart.c ****     fractionaldivider = integerdivider - (100 * (tmpreg >> 4));
 284              		.loc 1 160 12
 285 0076 1207     		slli	a4,a4,4
 286              	.LVL43:
 161:../Peripheral/src/ch32v30x_usart.c ****     fractionaldivider = integerdivider - (100 * (tmpreg >> 4));
 287              		.loc 1 161 5 is_stmt 1
 288              		.loc 1 162 5
 163:../Peripheral/src/ch32v30x_usart.c ****     USARTx->BRR = (uint16_t)tmpreg;
 289              		.loc 1 163 5
 162:../Peripheral/src/ch32v30x_usart.c ****     USARTx->BRR = (uint16_t)tmpreg;
 290              		.loc 1 162 37 is_stmt 0
 291 0078 9207     		slli	a5,a5,4
 162:../Peripheral/src/ch32v30x_usart.c ****     USARTx->BRR = (uint16_t)tmpreg;
 292              		.loc 1 162 43
 293 007a 93872703 		addi	a5,a5,50
 162:../Peripheral/src/ch32v30x_usart.c ****     USARTx->BRR = (uint16_t)tmpreg;
 294              		.loc 1 162 49
 295 007e B3D7D702 		divu	a5,a5,a3
 162:../Peripheral/src/ch32v30x_usart.c ****     USARTx->BRR = (uint16_t)tmpreg;
 296              		.loc 1 162 57
 297 0082 BD8B     		andi	a5,a5,15
 162:../Peripheral/src/ch32v30x_usart.c ****     USARTx->BRR = (uint16_t)tmpreg;
 298              		.loc 1 162 12
 299 0084 D98F     		or	a5,a5,a4
 300              		.loc 1 163 19
 301 0086 C207     		slli	a5,a5,16
 302 0088 C183     		srli	a5,a5,16
 303              		.loc 1 163 17
 304 008a 1EA4     		sh	a5,8(s0)
 164:../Peripheral/src/ch32v30x_usart.c **** }
 305              		.loc 1 164 1
 306 008c 0561     		addi	sp,sp,32
 307              		.cfi_remember_state
 308              		.cfi_def_cfa_offset 0
 309 008e 17030000 		tail	__riscv_restore_2
 309      67000300 
 310              		.cfi_restore 9
 311              		.cfi_restore 8
 312              		.cfi_restore 1
 313              		.cfi_def_cfa_offset -16
 314              	.LVL44:
 315              	.L13:
 316              		.cfi_restore_state
 156:../Peripheral/src/ch32v30x_usart.c ****     }
 317              		.loc 1 156 9 is_stmt 1
 156:../Peripheral/src/ch32v30x_usart.c ****     }
 318              		.loc 1 156 18 is_stmt 0
 319 0096 D247     		lw	a5,20(sp)
 320              	.LVL45:
 321 0098 D1B7     		j	.L14
 322              		.cfi_endproc
 323              	.LFE30:
 325              		.section	.text.USART_StructInit,"ax",@progbits
 326              		.align	1
 327              		.globl	USART_StructInit
 329              	USART_StructInit:
 330              	.LFB31:
 165:../Peripheral/src/ch32v30x_usart.c **** 
 166:../Peripheral/src/ch32v30x_usart.c **** /*********************************************************************
 167:../Peripheral/src/ch32v30x_usart.c ****  * @fn      USART_StructInit
 168:../Peripheral/src/ch32v30x_usart.c ****  *
 169:../Peripheral/src/ch32v30x_usart.c ****  * @brief   Fills each USART_InitStruct member with its default value.
 170:../Peripheral/src/ch32v30x_usart.c ****  *
 171:../Peripheral/src/ch32v30x_usart.c ****  * @param   USART_InitStruct: pointer to a USART_InitTypeDef structure
 172:../Peripheral/src/ch32v30x_usart.c ****  *       which will be initialized.
 173:../Peripheral/src/ch32v30x_usart.c ****  *
 174:../Peripheral/src/ch32v30x_usart.c ****  * @return  none
 175:../Peripheral/src/ch32v30x_usart.c ****  */
 176:../Peripheral/src/ch32v30x_usart.c **** void USART_StructInit(USART_InitTypeDef *USART_InitStruct)
 177:../Peripheral/src/ch32v30x_usart.c **** {
 331              		.loc 1 177 1 is_stmt 1
 332              		.cfi_startproc
 333              	.LVL46:
 178:../Peripheral/src/ch32v30x_usart.c ****     USART_InitStruct->USART_BaudRate = 9600;
 334              		.loc 1 178 5
 179:../Peripheral/src/ch32v30x_usart.c ****     USART_InitStruct->USART_WordLength = USART_WordLength_8b;
 335              		.loc 1 179 5
 180:../Peripheral/src/ch32v30x_usart.c ****     USART_InitStruct->USART_StopBits = USART_StopBits_1;
 336              		.loc 1 180 5
 181:../Peripheral/src/ch32v30x_usart.c ****     USART_InitStruct->USART_Parity = USART_Parity_No;
 337              		.loc 1 181 5
 182:../Peripheral/src/ch32v30x_usart.c ****     USART_InitStruct->USART_Mode = USART_Mode_Rx | USART_Mode_Tx;
 338              		.loc 1 182 5
 183:../Peripheral/src/ch32v30x_usart.c ****     USART_InitStruct->USART_HardwareFlowControl = USART_HardwareFlowControl_None;
 339              		.loc 1 183 5
 178:../Peripheral/src/ch32v30x_usart.c ****     USART_InitStruct->USART_WordLength = USART_WordLength_8b;
 340              		.loc 1 178 38 is_stmt 0
 341 0000 8967     		li	a5,8192
 342 0002 93870758 		addi	a5,a5,1408
 343 0006 1CC1     		sw	a5,0(a0)
 181:../Peripheral/src/ch32v30x_usart.c ****     USART_InitStruct->USART_Mode = USART_Mode_Rx | USART_Mode_Tx;
 344              		.loc 1 181 36
 345 0008 B7070C00 		li	a5,786432
 179:../Peripheral/src/ch32v30x_usart.c ****     USART_InitStruct->USART_StopBits = USART_StopBits_1;
 346              		.loc 1 179 40
 347 000c 23220500 		sw	zero,4(a0)
 181:../Peripheral/src/ch32v30x_usart.c ****     USART_InitStruct->USART_Mode = USART_Mode_Rx | USART_Mode_Tx;
 348              		.loc 1 181 36
 349 0010 1CC5     		sw	a5,8(a0)
 350              		.loc 1 183 49
 351 0012 23160500 		sh	zero,12(a0)
 184:../Peripheral/src/ch32v30x_usart.c **** }
 352              		.loc 1 184 1
 353 0016 8280     		ret
 354              		.cfi_endproc
 355              	.LFE31:
 357              		.section	.text.USART_ClockInit,"ax",@progbits
 358              		.align	1
 359              		.globl	USART_ClockInit
 361              	USART_ClockInit:
 362              	.LFB32:
 185:../Peripheral/src/ch32v30x_usart.c **** 
 186:../Peripheral/src/ch32v30x_usart.c **** /*********************************************************************
 187:../Peripheral/src/ch32v30x_usart.c ****  * @fn      USART_ClockInit
 188:../Peripheral/src/ch32v30x_usart.c ****  *
 189:../Peripheral/src/ch32v30x_usart.c ****  * @brief   Initializes the USARTx peripheral Clock according to the
 190:../Peripheral/src/ch32v30x_usart.c ****  *        specified parameters in the USART_ClockInitStruct .
 191:../Peripheral/src/ch32v30x_usart.c ****  *
 192:../Peripheral/src/ch32v30x_usart.c ****  * @param   USARTx - where x can be 1, 2, 3 to select the USART peripheral.
 193:../Peripheral/src/ch32v30x_usart.c ****  *          USART_ClockInitStruct - pointer to a USART_ClockInitTypeDef
 194:../Peripheral/src/ch32v30x_usart.c ****  *        structure that contains the configuration information for the specified
 195:../Peripheral/src/ch32v30x_usart.c ****  *        USART peripheral.
 196:../Peripheral/src/ch32v30x_usart.c ****  *
 197:../Peripheral/src/ch32v30x_usart.c ****  * @return  none
 198:../Peripheral/src/ch32v30x_usart.c ****  */
 199:../Peripheral/src/ch32v30x_usart.c **** void USART_ClockInit(USART_TypeDef *USARTx, USART_ClockInitTypeDef *USART_ClockInitStruct)
 200:../Peripheral/src/ch32v30x_usart.c **** {
 363              		.loc 1 200 1 is_stmt 1
 364              		.cfi_startproc
 365              	.LVL47:
 201:../Peripheral/src/ch32v30x_usart.c ****     uint32_t tmpreg = 0x00;
 366              		.loc 1 201 5
 202:../Peripheral/src/ch32v30x_usart.c **** 
 203:../Peripheral/src/ch32v30x_usart.c ****     tmpreg = USARTx->CTLR2;
 367              		.loc 1 203 5
 204:../Peripheral/src/ch32v30x_usart.c ****     tmpreg &= CTLR2_CLOCK_CLEAR_Mask;
 205:../Peripheral/src/ch32v30x_usart.c ****     tmpreg |= (uint32_t)USART_ClockInitStruct->USART_Clock | USART_ClockInitStruct->USART_CPOL |
 206:../Peripheral/src/ch32v30x_usart.c ****               USART_ClockInitStruct->USART_CPHA | USART_ClockInitStruct->USART_LastBit;
 368              		.loc 1 206 49 is_stmt 0
 369 0000 B621     		lhu	a3,2(a1)
 370 0002 9E21     		lhu	a5,0(a1)
 203:../Peripheral/src/ch32v30x_usart.c ****     tmpreg &= CTLR2_CLOCK_CLEAR_Mask;
 371              		.loc 1 203 20
 372 0004 1A29     		lhu	a4,16(a0)
 373              	.LVL48:
 204:../Peripheral/src/ch32v30x_usart.c ****     tmpreg &= CTLR2_CLOCK_CLEAR_Mask;
 374              		.loc 1 204 5 is_stmt 1
 205:../Peripheral/src/ch32v30x_usart.c ****               USART_ClockInitStruct->USART_CPHA | USART_ClockInitStruct->USART_LastBit;
 375              		.loc 1 205 5
 376              		.loc 1 206 49 is_stmt 0
 377 0006 D58F     		or	a5,a5,a3
 378 0008 D621     		lhu	a3,4(a1)
 379 000a D58F     		or	a5,a5,a3
 380 000c F621     		lhu	a3,6(a1)
 381 000e D58F     		or	a5,a5,a3
 382 0010 FD76     		li	a3,-4096
 383 0012 9386F60F 		addi	a3,a3,255
 384 0016 758F     		and	a4,a4,a3
 385              	.LVL49:
 386 0018 D98F     		or	a5,a5,a4
 387              	.LVL50:
 207:../Peripheral/src/ch32v30x_usart.c ****     USARTx->CTLR2 = (uint16_t)tmpreg;
 388              		.loc 1 207 5 is_stmt 1
 389              		.loc 1 207 19 is_stmt 0
 390 001a 1EA9     		sh	a5,16(a0)
 208:../Peripheral/src/ch32v30x_usart.c **** }
 391              		.loc 1 208 1
 392 001c 8280     		ret
 393              		.cfi_endproc
 394              	.LFE32:
 396              		.section	.text.USART_ClockStructInit,"ax",@progbits
 397              		.align	1
 398              		.globl	USART_ClockStructInit
 400              	USART_ClockStructInit:
 401              	.LFB33:
 209:../Peripheral/src/ch32v30x_usart.c **** 
 210:../Peripheral/src/ch32v30x_usart.c **** /*********************************************************************
 211:../Peripheral/src/ch32v30x_usart.c ****  * @fn      USART_ClockStructInit
 212:../Peripheral/src/ch32v30x_usart.c ****  *
 213:../Peripheral/src/ch32v30x_usart.c ****  * @brief   Fills each USART_ClockStructInit member with its default value.
 214:../Peripheral/src/ch32v30x_usart.c ****  *
 215:../Peripheral/src/ch32v30x_usart.c ****  * @param   USART_ClockInitStruct - pointer to a USART_ClockInitTypeDef
 216:../Peripheral/src/ch32v30x_usart.c ****  *        structure which will be initialized.
 217:../Peripheral/src/ch32v30x_usart.c ****  *
 218:../Peripheral/src/ch32v30x_usart.c ****  * @return  none
 219:../Peripheral/src/ch32v30x_usart.c ****  */
 220:../Peripheral/src/ch32v30x_usart.c **** void USART_ClockStructInit(USART_ClockInitTypeDef *USART_ClockInitStruct)
 221:../Peripheral/src/ch32v30x_usart.c **** {
 402              		.loc 1 221 1 is_stmt 1
 403              		.cfi_startproc
 404              	.LVL51:
 222:../Peripheral/src/ch32v30x_usart.c ****     USART_ClockInitStruct->USART_Clock = USART_Clock_Disable;
 405              		.loc 1 222 5
 406              		.loc 1 222 40 is_stmt 0
 407 0000 23100500 		sh	zero,0(a0)
 223:../Peripheral/src/ch32v30x_usart.c ****     USART_ClockInitStruct->USART_CPOL = USART_CPOL_Low;
 408              		.loc 1 223 5 is_stmt 1
 409              		.loc 1 223 39 is_stmt 0
 410 0004 23110500 		sh	zero,2(a0)
 224:../Peripheral/src/ch32v30x_usart.c ****     USART_ClockInitStruct->USART_CPHA = USART_CPHA_1Edge;
 411              		.loc 1 224 5 is_stmt 1
 412              		.loc 1 224 39 is_stmt 0
 413 0008 23120500 		sh	zero,4(a0)
 225:../Peripheral/src/ch32v30x_usart.c ****     USART_ClockInitStruct->USART_LastBit = USART_LastBit_Disable;
 414              		.loc 1 225 5 is_stmt 1
 415              		.loc 1 225 42 is_stmt 0
 416 000c 23130500 		sh	zero,6(a0)
 226:../Peripheral/src/ch32v30x_usart.c **** }
 417              		.loc 1 226 1
 418 0010 8280     		ret
 419              		.cfi_endproc
 420              	.LFE33:
 422              		.section	.text.USART_Cmd,"ax",@progbits
 423              		.align	1
 424              		.globl	USART_Cmd
 426              	USART_Cmd:
 427              	.LFB34:
 227:../Peripheral/src/ch32v30x_usart.c **** 
 228:../Peripheral/src/ch32v30x_usart.c **** /*********************************************************************
 229:../Peripheral/src/ch32v30x_usart.c ****  * @fn      USART_Cmd
 230:../Peripheral/src/ch32v30x_usart.c ****  *
 231:../Peripheral/src/ch32v30x_usart.c ****  * @brief   Enables or disables the specified USART peripheral.
 232:../Peripheral/src/ch32v30x_usart.c ****  *        reset values (Affects also the I2Ss).
 233:../Peripheral/src/ch32v30x_usart.c ****  *
 234:../Peripheral/src/ch32v30x_usart.c ****  * @param   USARTx - where x can be 1, 2, 3 to select the USART peripheral.
 235:../Peripheral/src/ch32v30x_usart.c ****  *          NewState: ENABLE or DISABLE.
 236:../Peripheral/src/ch32v30x_usart.c ****  *
 237:../Peripheral/src/ch32v30x_usart.c ****  * @return  none
 238:../Peripheral/src/ch32v30x_usart.c ****  */
 239:../Peripheral/src/ch32v30x_usart.c **** void USART_Cmd(USART_TypeDef *USARTx, FunctionalState NewState)
 240:../Peripheral/src/ch32v30x_usart.c **** {
 428              		.loc 1 240 1 is_stmt 1
 429              		.cfi_startproc
 430              	.LVL52:
 241:../Peripheral/src/ch32v30x_usart.c ****     if(NewState != DISABLE)
 431              		.loc 1 241 5
 242:../Peripheral/src/ch32v30x_usart.c ****     {
 243:../Peripheral/src/ch32v30x_usart.c ****         USARTx->CTLR1 |= CTLR1_UE_Set;
 432              		.loc 1 243 15 is_stmt 0
 433 0000 5E25     		lhu	a5,12(a0)
 241:../Peripheral/src/ch32v30x_usart.c ****     if(NewState != DISABLE)
 434              		.loc 1 241 7
 435 0002 89C5     		beq	a1,zero,.L20
 436              		.loc 1 243 9 is_stmt 1
 437              		.loc 1 243 23 is_stmt 0
 438 0004 0967     		li	a4,8192
 439 0006 D98F     		or	a5,a5,a4
 440              	.L22:
 244:../Peripheral/src/ch32v30x_usart.c ****     }
 245:../Peripheral/src/ch32v30x_usart.c ****     else
 246:../Peripheral/src/ch32v30x_usart.c ****     {
 247:../Peripheral/src/ch32v30x_usart.c ****         USARTx->CTLR1 &= CTLR1_UE_Reset;
 441              		.loc 1 247 23
 442 0008 5EA5     		sh	a5,12(a0)
 248:../Peripheral/src/ch32v30x_usart.c ****     }
 249:../Peripheral/src/ch32v30x_usart.c **** }
 443              		.loc 1 249 1
 444 000a 8280     		ret
 445              	.L20:
 247:../Peripheral/src/ch32v30x_usart.c ****     }
 446              		.loc 1 247 9 is_stmt 1
 247:../Peripheral/src/ch32v30x_usart.c ****     }
 447              		.loc 1 247 23 is_stmt 0
 448 000c 7977     		li	a4,-8192
 449 000e 7D17     		addi	a4,a4,-1
 450 0010 F98F     		and	a5,a5,a4
 451 0012 DDBF     		j	.L22
 452              		.cfi_endproc
 453              	.LFE34:
 455              		.section	.text.USART_ITConfig,"ax",@progbits
 456              		.align	1
 457              		.globl	USART_ITConfig
 459              	USART_ITConfig:
 460              	.LFB35:
 250:../Peripheral/src/ch32v30x_usart.c **** 
 251:../Peripheral/src/ch32v30x_usart.c **** /*********************************************************************
 252:../Peripheral/src/ch32v30x_usart.c ****  * @fn      USART_ITConfig
 253:../Peripheral/src/ch32v30x_usart.c ****  *
 254:../Peripheral/src/ch32v30x_usart.c ****  * @brief   Enables or disables the specified USART interrupts.
 255:../Peripheral/src/ch32v30x_usart.c ****  *        reset values (Affects also the I2Ss).
 256:../Peripheral/src/ch32v30x_usart.c ****  *
 257:../Peripheral/src/ch32v30x_usart.c ****  * @param   USARTx - where x can be 1, 2, 3 to select the USART peripheral.
 258:../Peripheral/src/ch32v30x_usart.c ****  *          USART_IT - specifies the USART interrupt sources to be enabled or disabled.
 259:../Peripheral/src/ch32v30x_usart.c ****  *            USART_IT_LBD - LIN Break detection interrupt.
 260:../Peripheral/src/ch32v30x_usart.c ****  *            USART_IT_TXE - Transmit Data Register empty interrupt.
 261:../Peripheral/src/ch32v30x_usart.c ****  *            USART_IT_TC - Transmission complete interrupt.
 262:../Peripheral/src/ch32v30x_usart.c ****  *            USART_IT_RXNE - Receive Data register not empty interrupt.
 263:../Peripheral/src/ch32v30x_usart.c ****  *            USART_IT_IDLE - Idle line detection interrupt.
 264:../Peripheral/src/ch32v30x_usart.c ****  *            USART_IT_PE - Parity Error interrupt.
 265:../Peripheral/src/ch32v30x_usart.c ****  *            USART_IT_ERR - Error interrupt.
 266:../Peripheral/src/ch32v30x_usart.c ****  *          NewState - ENABLE or DISABLE.
 267:../Peripheral/src/ch32v30x_usart.c ****  *
 268:../Peripheral/src/ch32v30x_usart.c ****  * @return  none
 269:../Peripheral/src/ch32v30x_usart.c ****  */
 270:../Peripheral/src/ch32v30x_usart.c **** void USART_ITConfig(USART_TypeDef *USARTx, uint16_t USART_IT, FunctionalState NewState)
 271:../Peripheral/src/ch32v30x_usart.c **** {
 461              		.loc 1 271 1 is_stmt 1
 462              		.cfi_startproc
 463              	.LVL53:
 272:../Peripheral/src/ch32v30x_usart.c ****     uint32_t usartreg = 0x00, itpos = 0x00, itmask = 0x00;
 464              		.loc 1 272 5
 273:../Peripheral/src/ch32v30x_usart.c ****     uint32_t usartxbase = 0x00;
 465              		.loc 1 273 5
 274:../Peripheral/src/ch32v30x_usart.c **** 
 275:../Peripheral/src/ch32v30x_usart.c ****     usartxbase = (uint32_t)USARTx;
 466              		.loc 1 275 5
 276:../Peripheral/src/ch32v30x_usart.c ****     usartreg = (((uint8_t)USART_IT) >> 0x05);
 467              		.loc 1 276 5
 468              		.loc 1 276 37 is_stmt 0
 469 0000 13F7F50F 		andi	a4,a1,0xff
 277:../Peripheral/src/ch32v30x_usart.c ****     itpos = USART_IT & IT_Mask;
 278:../Peripheral/src/ch32v30x_usart.c ****     itmask = (((uint32_t)0x01) << itpos);
 470              		.loc 1 278 12
 471 0004 8547     		li	a5,1
 276:../Peripheral/src/ch32v30x_usart.c ****     usartreg = (((uint8_t)USART_IT) >> 0x05);
 472              		.loc 1 276 37
 473 0006 1583     		srli	a4,a4,5
 474              	.LVL54:
 277:../Peripheral/src/ch32v30x_usart.c ****     itpos = USART_IT & IT_Mask;
 475              		.loc 1 277 5 is_stmt 1
 476              		.loc 1 278 5
 477              		.loc 1 278 12 is_stmt 0
 478 0008 B395B700 		sll	a1,a5,a1
 479              	.LVL55:
 279:../Peripheral/src/ch32v30x_usart.c **** 
 280:../Peripheral/src/ch32v30x_usart.c ****     if(usartreg == 0x01)
 480              		.loc 1 280 5 is_stmt 1
 481              		.loc 1 280 7 is_stmt 0
 482 000c 6319F700 		bne	a4,a5,.L24
 281:../Peripheral/src/ch32v30x_usart.c ****     {
 282:../Peripheral/src/ch32v30x_usart.c ****         usartxbase += 0x0C;
 483              		.loc 1 282 9 is_stmt 1
 484              		.loc 1 282 20 is_stmt 0
 485 0010 9307C500 		addi	a5,a0,12
 486              	.LVL56:
 487              	.L25:
 283:../Peripheral/src/ch32v30x_usart.c ****     }
 284:../Peripheral/src/ch32v30x_usart.c ****     else if(usartreg == 0x02)
 285:../Peripheral/src/ch32v30x_usart.c ****     {
 286:../Peripheral/src/ch32v30x_usart.c ****         usartxbase += 0x10;
 287:../Peripheral/src/ch32v30x_usart.c ****     }
 288:../Peripheral/src/ch32v30x_usart.c ****     else
 289:../Peripheral/src/ch32v30x_usart.c ****     {
 290:../Peripheral/src/ch32v30x_usart.c ****         usartxbase += 0x14;
 291:../Peripheral/src/ch32v30x_usart.c ****     }
 292:../Peripheral/src/ch32v30x_usart.c **** 
 293:../Peripheral/src/ch32v30x_usart.c ****     if(NewState != DISABLE)
 488              		.loc 1 293 5 is_stmt 1
 294:../Peripheral/src/ch32v30x_usart.c ****     {
 295:../Peripheral/src/ch32v30x_usart.c ****         *(__IO uint32_t *)usartxbase |= itmask;
 489              		.loc 1 295 9 is_stmt 0
 490 0014 9843     		lw	a4,0(a5)
 491              	.LVL57:
 293:../Peripheral/src/ch32v30x_usart.c ****     {
 492              		.loc 1 293 7
 493 0016 01CE     		beq	a2,zero,.L27
 494              		.loc 1 295 9 is_stmt 1
 495              		.loc 1 295 38 is_stmt 0
 496 0018 4D8F     		or	a4,a4,a1
 497 001a 98C3     		sw	a4,0(a5)
 498 001c 8280     		ret
 499              	.LVL58:
 500              	.L24:
 284:../Peripheral/src/ch32v30x_usart.c ****     {
 501              		.loc 1 284 10 is_stmt 1
 284:../Peripheral/src/ch32v30x_usart.c ****     {
 502              		.loc 1 284 12 is_stmt 0
 503 001e 8946     		li	a3,2
 290:../Peripheral/src/ch32v30x_usart.c ****     }
 504              		.loc 1 290 20
 505 0020 93074501 		addi	a5,a0,20
 284:../Peripheral/src/ch32v30x_usart.c ****     {
 506              		.loc 1 284 12
 507 0024 E318D7FE 		bne	a4,a3,.L25
 286:../Peripheral/src/ch32v30x_usart.c ****     }
 508              		.loc 1 286 9 is_stmt 1
 286:../Peripheral/src/ch32v30x_usart.c ****     }
 509              		.loc 1 286 20 is_stmt 0
 510 0028 93070501 		addi	a5,a0,16
 511              	.LVL59:
 512 002c E5B7     		j	.L25
 513              	.LVL60:
 514              	.L27:
 296:../Peripheral/src/ch32v30x_usart.c ****     }
 297:../Peripheral/src/ch32v30x_usart.c ****     else
 298:../Peripheral/src/ch32v30x_usart.c ****     {
 299:../Peripheral/src/ch32v30x_usart.c ****         *(__IO uint32_t *)usartxbase &= ~itmask;
 515              		.loc 1 299 9 is_stmt 1
 516              		.loc 1 299 41 is_stmt 0
 517 002e 93C5F5FF 		not	a1,a1
 518              	.LVL61:
 519              		.loc 1 299 38
 520 0032 F98D     		and	a1,a1,a4
 521              	.LVL62:
 522 0034 8CC3     		sw	a1,0(a5)
 300:../Peripheral/src/ch32v30x_usart.c ****     }
 301:../Peripheral/src/ch32v30x_usart.c **** }
 523              		.loc 1 301 1
 524 0036 8280     		ret
 525              		.cfi_endproc
 526              	.LFE35:
 528              		.section	.text.USART_DMACmd,"ax",@progbits
 529              		.align	1
 530              		.globl	USART_DMACmd
 532              	USART_DMACmd:
 533              	.LFB36:
 302:../Peripheral/src/ch32v30x_usart.c **** 
 303:../Peripheral/src/ch32v30x_usart.c **** /*********************************************************************
 304:../Peripheral/src/ch32v30x_usart.c ****  * @fn      USART_DMACmd
 305:../Peripheral/src/ch32v30x_usart.c ****  *
 306:../Peripheral/src/ch32v30x_usart.c ****  * @brief   Enables or disables the USART DMA interface.
 307:../Peripheral/src/ch32v30x_usart.c ****  *
 308:../Peripheral/src/ch32v30x_usart.c ****  * @param   USARTx - where x can be 1, 2, 3 to select the USART peripheral.
 309:../Peripheral/src/ch32v30x_usart.c ****  *          USART_DMAReq - specifies the DMA request.
 310:../Peripheral/src/ch32v30x_usart.c ****  *            USART_DMAReq_Tx - USART DMA transmit request.
 311:../Peripheral/src/ch32v30x_usart.c ****  *            USART_DMAReq_Rx - USART DMA receive request.
 312:../Peripheral/src/ch32v30x_usart.c ****  *          NewState - ENABLE or DISABLE.
 313:../Peripheral/src/ch32v30x_usart.c ****  *
 314:../Peripheral/src/ch32v30x_usart.c ****  * @return  none
 315:../Peripheral/src/ch32v30x_usart.c ****  */
 316:../Peripheral/src/ch32v30x_usart.c **** void USART_DMACmd(USART_TypeDef *USARTx, uint16_t USART_DMAReq, FunctionalState NewState)
 317:../Peripheral/src/ch32v30x_usart.c **** {
 534              		.loc 1 317 1 is_stmt 1
 535              		.cfi_startproc
 536              	.LVL63:
 318:../Peripheral/src/ch32v30x_usart.c ****     if(NewState != DISABLE)
 537              		.loc 1 318 5
 319:../Peripheral/src/ch32v30x_usart.c ****     {
 320:../Peripheral/src/ch32v30x_usart.c ****         USARTx->CTLR3 |= USART_DMAReq;
 538              		.loc 1 320 15 is_stmt 0
 539 0000 5E29     		lhu	a5,20(a0)
 318:../Peripheral/src/ch32v30x_usart.c ****     if(NewState != DISABLE)
 540              		.loc 1 318 7
 541 0002 01C6     		beq	a2,zero,.L30
 542              		.loc 1 320 9 is_stmt 1
 543              		.loc 1 320 23 is_stmt 0
 544 0004 CD8F     		or	a5,a5,a1
 545              	.LVL64:
 546              	.L32:
 321:../Peripheral/src/ch32v30x_usart.c ****     }
 322:../Peripheral/src/ch32v30x_usart.c ****     else
 323:../Peripheral/src/ch32v30x_usart.c ****     {
 324:../Peripheral/src/ch32v30x_usart.c ****         USARTx->CTLR3 &= (uint16_t)~USART_DMAReq;
 547              		.loc 1 324 23
 548 0006 5EA9     		sh	a5,20(a0)
 325:../Peripheral/src/ch32v30x_usart.c ****     }
 326:../Peripheral/src/ch32v30x_usart.c **** }
 549              		.loc 1 326 1
 550 0008 8280     		ret
 551              	.LVL65:
 552              	.L30:
 324:../Peripheral/src/ch32v30x_usart.c ****     }
 553              		.loc 1 324 9 is_stmt 1
 324:../Peripheral/src/ch32v30x_usart.c ****     }
 554              		.loc 1 324 26 is_stmt 0
 555 000a 93C5F5FF 		not	a1,a1
 556              	.LVL66:
 324:../Peripheral/src/ch32v30x_usart.c ****     }
 557              		.loc 1 324 23
 558 000e ED8F     		and	a5,a5,a1
 559 0010 DDBF     		j	.L32
 560              		.cfi_endproc
 561              	.LFE36:
 563              		.section	.text.USART_SetAddress,"ax",@progbits
 564              		.align	1
 565              		.globl	USART_SetAddress
 567              	USART_SetAddress:
 568              	.LFB37:
 327:../Peripheral/src/ch32v30x_usart.c **** 
 328:../Peripheral/src/ch32v30x_usart.c **** /*********************************************************************
 329:../Peripheral/src/ch32v30x_usart.c ****  * @fn      USART_SetAddress
 330:../Peripheral/src/ch32v30x_usart.c ****  *
 331:../Peripheral/src/ch32v30x_usart.c ****  * @brief   Sets the address of the USART node.
 332:../Peripheral/src/ch32v30x_usart.c ****  *
 333:../Peripheral/src/ch32v30x_usart.c ****  * @param   USARTx - where x can be 1, 2, 3 to select the USART peripheral.
 334:../Peripheral/src/ch32v30x_usart.c ****  *          USART_Address - Indicates the address of the USART node.
 335:../Peripheral/src/ch32v30x_usart.c ****  *
 336:../Peripheral/src/ch32v30x_usart.c ****  * @return  none
 337:../Peripheral/src/ch32v30x_usart.c ****  */
 338:../Peripheral/src/ch32v30x_usart.c **** void USART_SetAddress(USART_TypeDef *USARTx, uint8_t USART_Address)
 339:../Peripheral/src/ch32v30x_usart.c **** {
 569              		.loc 1 339 1 is_stmt 1
 570              		.cfi_startproc
 571              	.LVL67:
 340:../Peripheral/src/ch32v30x_usart.c ****     USARTx->CTLR2 &= CTLR2_Address_Mask;
 572              		.loc 1 340 5
 573              		.loc 1 340 11 is_stmt 0
 574 0000 1E29     		lhu	a5,16(a0)
 575 0002 C207     		slli	a5,a5,16
 576 0004 C183     		srli	a5,a5,16
 577              		.loc 1 340 19
 578 0006 C19B     		andi	a5,a5,-16
 579 0008 C207     		slli	a5,a5,16
 580 000a C183     		srli	a5,a5,16
 581 000c 1EA9     		sh	a5,16(a0)
 341:../Peripheral/src/ch32v30x_usart.c ****     USARTx->CTLR2 |= USART_Address;
 582              		.loc 1 341 5 is_stmt 1
 583              		.loc 1 341 11 is_stmt 0
 584 000e 1E29     		lhu	a5,16(a0)
 585              		.loc 1 341 19
 586 0010 DD8D     		or	a1,a1,a5
 587              	.LVL68:
 588 0012 0EA9     		sh	a1,16(a0)
 342:../Peripheral/src/ch32v30x_usart.c **** }
 589              		.loc 1 342 1
 590 0014 8280     		ret
 591              		.cfi_endproc
 592              	.LFE37:
 594              		.section	.text.USART_WakeUpConfig,"ax",@progbits
 595              		.align	1
 596              		.globl	USART_WakeUpConfig
 598              	USART_WakeUpConfig:
 599              	.LFB38:
 343:../Peripheral/src/ch32v30x_usart.c **** 
 344:../Peripheral/src/ch32v30x_usart.c **** /*********************************************************************
 345:../Peripheral/src/ch32v30x_usart.c ****  * @fn      USART_WakeUpConfig
 346:../Peripheral/src/ch32v30x_usart.c ****  *
 347:../Peripheral/src/ch32v30x_usart.c ****  * @brief   Selects the USART WakeUp method.
 348:../Peripheral/src/ch32v30x_usart.c ****  *
 349:../Peripheral/src/ch32v30x_usart.c ****  * @param   USARTx - where x can be 1, 2, 3 to select the USART peripheral.
 350:../Peripheral/src/ch32v30x_usart.c ****  *          USART_WakeUp - specifies the USART wakeup method.
 351:../Peripheral/src/ch32v30x_usart.c ****  *            USART_WakeUp_IdleLine - WakeUp by an idle line detection.
 352:../Peripheral/src/ch32v30x_usart.c ****  *            USART_WakeUp_AddressMark - WakeUp by an address mark.
 353:../Peripheral/src/ch32v30x_usart.c ****  *
 354:../Peripheral/src/ch32v30x_usart.c ****  * @return  none
 355:../Peripheral/src/ch32v30x_usart.c ****  */
 356:../Peripheral/src/ch32v30x_usart.c **** void USART_WakeUpConfig(USART_TypeDef *USARTx, uint16_t USART_WakeUp)
 357:../Peripheral/src/ch32v30x_usart.c **** {
 600              		.loc 1 357 1 is_stmt 1
 601              		.cfi_startproc
 602              	.LVL69:
 358:../Peripheral/src/ch32v30x_usart.c ****     USARTx->CTLR1 &= CTLR1_WAKE_Mask;
 603              		.loc 1 358 5
 604              		.loc 1 358 11 is_stmt 0
 605 0000 5E25     		lhu	a5,12(a0)
 606              		.loc 1 358 19
 607 0002 7D77     		li	a4,-4096
 608 0004 1307F77F 		addi	a4,a4,2047
 609 0008 F98F     		and	a5,a5,a4
 610 000a 5EA5     		sh	a5,12(a0)
 359:../Peripheral/src/ch32v30x_usart.c ****     USARTx->CTLR1 |= USART_WakeUp;
 611              		.loc 1 359 5 is_stmt 1
 612              		.loc 1 359 11 is_stmt 0
 613 000c 5E25     		lhu	a5,12(a0)
 614              		.loc 1 359 19
 615 000e CD8F     		or	a5,a5,a1
 616 0010 5EA5     		sh	a5,12(a0)
 360:../Peripheral/src/ch32v30x_usart.c **** }
 617              		.loc 1 360 1
 618 0012 8280     		ret
 619              		.cfi_endproc
 620              	.LFE38:
 622              		.section	.text.USART_ReceiverWakeUpCmd,"ax",@progbits
 623              		.align	1
 624              		.globl	USART_ReceiverWakeUpCmd
 626              	USART_ReceiverWakeUpCmd:
 627              	.LFB39:
 361:../Peripheral/src/ch32v30x_usart.c **** 
 362:../Peripheral/src/ch32v30x_usart.c **** /*********************************************************************
 363:../Peripheral/src/ch32v30x_usart.c ****  * @fn      USART_ReceiverWakeUpCmd
 364:../Peripheral/src/ch32v30x_usart.c ****  *
 365:../Peripheral/src/ch32v30x_usart.c ****  * @brief   Determines if the USART is in mute mode or not.
 366:../Peripheral/src/ch32v30x_usart.c ****  *
 367:../Peripheral/src/ch32v30x_usart.c ****  * @param   USARTx - where x can be 1, 2, 3 to select the USART peripheral.
 368:../Peripheral/src/ch32v30x_usart.c ****  *          NewState - ENABLE or DISABLE.
 369:../Peripheral/src/ch32v30x_usart.c ****  *
 370:../Peripheral/src/ch32v30x_usart.c ****  * @return  none
 371:../Peripheral/src/ch32v30x_usart.c ****  */
 372:../Peripheral/src/ch32v30x_usart.c **** void USART_ReceiverWakeUpCmd(USART_TypeDef *USARTx, FunctionalState NewState)
 373:../Peripheral/src/ch32v30x_usart.c **** {
 628              		.loc 1 373 1 is_stmt 1
 629              		.cfi_startproc
 630              	.LVL70:
 374:../Peripheral/src/ch32v30x_usart.c ****     if(NewState != DISABLE)
 631              		.loc 1 374 5
 375:../Peripheral/src/ch32v30x_usart.c ****     {
 376:../Peripheral/src/ch32v30x_usart.c ****         USARTx->CTLR1 |= CTLR1_RWU_Set;
 632              		.loc 1 376 15 is_stmt 0
 633 0000 5E25     		lhu	a5,12(a0)
 374:../Peripheral/src/ch32v30x_usart.c ****     if(NewState != DISABLE)
 634              		.loc 1 374 7
 635 0002 89C5     		beq	a1,zero,.L36
 636              		.loc 1 376 9 is_stmt 1
 637              		.loc 1 376 23 is_stmt 0
 638 0004 93E72700 		ori	a5,a5,2
 639              	.L38:
 377:../Peripheral/src/ch32v30x_usart.c ****     }
 378:../Peripheral/src/ch32v30x_usart.c ****     else
 379:../Peripheral/src/ch32v30x_usart.c ****     {
 380:../Peripheral/src/ch32v30x_usart.c ****         USARTx->CTLR1 &= CTLR1_RWU_Reset;
 640              		.loc 1 380 23
 641 0008 5EA5     		sh	a5,12(a0)
 381:../Peripheral/src/ch32v30x_usart.c ****     }
 382:../Peripheral/src/ch32v30x_usart.c **** }
 642              		.loc 1 382 1
 643 000a 8280     		ret
 644              	.L36:
 380:../Peripheral/src/ch32v30x_usart.c ****     }
 645              		.loc 1 380 9 is_stmt 1
 380:../Peripheral/src/ch32v30x_usart.c ****     }
 646              		.loc 1 380 15 is_stmt 0
 647 000c C207     		slli	a5,a5,16
 648 000e C183     		srli	a5,a5,16
 380:../Peripheral/src/ch32v30x_usart.c ****     }
 649              		.loc 1 380 23
 650 0010 F59B     		andi	a5,a5,-3
 651 0012 C207     		slli	a5,a5,16
 652 0014 C183     		srli	a5,a5,16
 653 0016 CDBF     		j	.L38
 654              		.cfi_endproc
 655              	.LFE39:
 657              		.section	.text.USART_LINBreakDetectLengthConfig,"ax",@progbits
 658              		.align	1
 659              		.globl	USART_LINBreakDetectLengthConfig
 661              	USART_LINBreakDetectLengthConfig:
 662              	.LFB40:
 383:../Peripheral/src/ch32v30x_usart.c **** 
 384:../Peripheral/src/ch32v30x_usart.c **** /*********************************************************************
 385:../Peripheral/src/ch32v30x_usart.c ****  * @fn      USART_LINBreakDetectLengthConfig
 386:../Peripheral/src/ch32v30x_usart.c ****  *
 387:../Peripheral/src/ch32v30x_usart.c ****  * @brief   Sets the USART LIN Break detection length.
 388:../Peripheral/src/ch32v30x_usart.c ****  *
 389:../Peripheral/src/ch32v30x_usart.c ****  * @param   USARTx - where x can be 1, 2, 3 to select the USART peripheral.
 390:../Peripheral/src/ch32v30x_usart.c ****  *          USART_LINBreakDetectLength - specifies the LIN break detection length.
 391:../Peripheral/src/ch32v30x_usart.c ****  *            USART_LINBreakDetectLength_10b - 10-bit break detection.
 392:../Peripheral/src/ch32v30x_usart.c ****  *            USART_LINBreakDetectLength_11b - 11-bit break detection.
 393:../Peripheral/src/ch32v30x_usart.c ****  *
 394:../Peripheral/src/ch32v30x_usart.c ****  * @return  none
 395:../Peripheral/src/ch32v30x_usart.c ****  */
 396:../Peripheral/src/ch32v30x_usart.c **** void USART_LINBreakDetectLengthConfig(USART_TypeDef *USARTx, uint16_t USART_LINBreakDetectLength)
 397:../Peripheral/src/ch32v30x_usart.c **** {
 663              		.loc 1 397 1 is_stmt 1
 664              		.cfi_startproc
 665              	.LVL71:
 398:../Peripheral/src/ch32v30x_usart.c ****     USARTx->CTLR2 &= CTLR2_LBDL_Mask;
 666              		.loc 1 398 5
 667              		.loc 1 398 11 is_stmt 0
 668 0000 1E29     		lhu	a5,16(a0)
 669 0002 C207     		slli	a5,a5,16
 670 0004 C183     		srli	a5,a5,16
 671              		.loc 1 398 19
 672 0006 93F7F7FD 		andi	a5,a5,-33
 673 000a C207     		slli	a5,a5,16
 674 000c C183     		srli	a5,a5,16
 675 000e 1EA9     		sh	a5,16(a0)
 399:../Peripheral/src/ch32v30x_usart.c ****     USARTx->CTLR2 |= USART_LINBreakDetectLength;
 676              		.loc 1 399 5 is_stmt 1
 677              		.loc 1 399 11 is_stmt 0
 678 0010 1E29     		lhu	a5,16(a0)
 679              		.loc 1 399 19
 680 0012 CD8F     		or	a5,a5,a1
 681 0014 1EA9     		sh	a5,16(a0)
 400:../Peripheral/src/ch32v30x_usart.c **** }
 682              		.loc 1 400 1
 683 0016 8280     		ret
 684              		.cfi_endproc
 685              	.LFE40:
 687              		.section	.text.USART_LINCmd,"ax",@progbits
 688              		.align	1
 689              		.globl	USART_LINCmd
 691              	USART_LINCmd:
 692              	.LFB41:
 401:../Peripheral/src/ch32v30x_usart.c **** 
 402:../Peripheral/src/ch32v30x_usart.c **** /*********************************************************************
 403:../Peripheral/src/ch32v30x_usart.c ****  * @fn      USART_LINCmd
 404:../Peripheral/src/ch32v30x_usart.c ****  *
 405:../Peripheral/src/ch32v30x_usart.c ****  * @brief   Enables or disables the USART LIN mode.
 406:../Peripheral/src/ch32v30x_usart.c ****  *
 407:../Peripheral/src/ch32v30x_usart.c ****  * @param   USARTx - where x can be 1, 2, 3 to select the USART peripheral.
 408:../Peripheral/src/ch32v30x_usart.c ****  *          NewState - ENABLE or DISABLE.
 409:../Peripheral/src/ch32v30x_usart.c ****  *
 410:../Peripheral/src/ch32v30x_usart.c ****  * @return  none
 411:../Peripheral/src/ch32v30x_usart.c ****  */
 412:../Peripheral/src/ch32v30x_usart.c **** void USART_LINCmd(USART_TypeDef *USARTx, FunctionalState NewState)
 413:../Peripheral/src/ch32v30x_usart.c **** {
 693              		.loc 1 413 1 is_stmt 1
 694              		.cfi_startproc
 695              	.LVL72:
 414:../Peripheral/src/ch32v30x_usart.c ****     if(NewState != DISABLE)
 696              		.loc 1 414 5
 415:../Peripheral/src/ch32v30x_usart.c ****     {
 416:../Peripheral/src/ch32v30x_usart.c ****         USARTx->CTLR2 |= CTLR2_LINEN_Set;
 697              		.loc 1 416 15 is_stmt 0
 698 0000 1E29     		lhu	a5,16(a0)
 414:../Peripheral/src/ch32v30x_usart.c ****     if(NewState != DISABLE)
 699              		.loc 1 414 7
 700 0002 89C5     		beq	a1,zero,.L41
 701              		.loc 1 416 9 is_stmt 1
 702              		.loc 1 416 23 is_stmt 0
 703 0004 1167     		li	a4,16384
 704 0006 D98F     		or	a5,a5,a4
 705              	.L43:
 417:../Peripheral/src/ch32v30x_usart.c ****     }
 418:../Peripheral/src/ch32v30x_usart.c ****     else
 419:../Peripheral/src/ch32v30x_usart.c ****     {
 420:../Peripheral/src/ch32v30x_usart.c ****         USARTx->CTLR2 &= CTLR2_LINEN_Reset;
 706              		.loc 1 420 23
 707 0008 1EA9     		sh	a5,16(a0)
 421:../Peripheral/src/ch32v30x_usart.c ****     }
 422:../Peripheral/src/ch32v30x_usart.c **** }
 708              		.loc 1 422 1
 709 000a 8280     		ret
 710              	.L41:
 420:../Peripheral/src/ch32v30x_usart.c ****     }
 711              		.loc 1 420 9 is_stmt 1
 420:../Peripheral/src/ch32v30x_usart.c ****     }
 712              		.loc 1 420 23 is_stmt 0
 713 000c 7177     		li	a4,-16384
 714 000e 7D17     		addi	a4,a4,-1
 715 0010 F98F     		and	a5,a5,a4
 716 0012 DDBF     		j	.L43
 717              		.cfi_endproc
 718              	.LFE41:
 720              		.section	.text.USART_SendData,"ax",@progbits
 721              		.align	1
 722              		.globl	USART_SendData
 724              	USART_SendData:
 725              	.LFB42:
 423:../Peripheral/src/ch32v30x_usart.c **** 
 424:../Peripheral/src/ch32v30x_usart.c **** /*********************************************************************
 425:../Peripheral/src/ch32v30x_usart.c ****  * @fn      USART_SendData
 426:../Peripheral/src/ch32v30x_usart.c ****  *
 427:../Peripheral/src/ch32v30x_usart.c ****  * @brief   Transmits single data through the USARTx peripheral.
 428:../Peripheral/src/ch32v30x_usart.c ****  *
 429:../Peripheral/src/ch32v30x_usart.c ****  * @param   USARTx - where x can be 1, 2, 3 to select the USART peripheral.
 430:../Peripheral/src/ch32v30x_usart.c ****  *          Data - the data to transmit.
 431:../Peripheral/src/ch32v30x_usart.c ****  *
 432:../Peripheral/src/ch32v30x_usart.c ****  * @return  none
 433:../Peripheral/src/ch32v30x_usart.c ****  */
 434:../Peripheral/src/ch32v30x_usart.c **** void USART_SendData(USART_TypeDef *USARTx, uint16_t Data)
 435:../Peripheral/src/ch32v30x_usart.c **** {
 726              		.loc 1 435 1 is_stmt 1
 727              		.cfi_startproc
 728              	.LVL73:
 436:../Peripheral/src/ch32v30x_usart.c ****     USARTx->DATAR = (Data & (uint16_t)0x01FF);
 729              		.loc 1 436 5
 730              		.loc 1 436 27 is_stmt 0
 731 0000 93F5F51F 		andi	a1,a1,511
 732              	.LVL74:
 733              		.loc 1 436 19
 734 0004 4EA1     		sh	a1,4(a0)
 437:../Peripheral/src/ch32v30x_usart.c **** }
 735              		.loc 1 437 1
 736 0006 8280     		ret
 737              		.cfi_endproc
 738              	.LFE42:
 740              		.section	.text.USART_ReceiveData,"ax",@progbits
 741              		.align	1
 742              		.globl	USART_ReceiveData
 744              	USART_ReceiveData:
 745              	.LFB43:
 438:../Peripheral/src/ch32v30x_usart.c **** 
 439:../Peripheral/src/ch32v30x_usart.c **** /*********************************************************************
 440:../Peripheral/src/ch32v30x_usart.c ****  * @fn      USART_ReceiveData
 441:../Peripheral/src/ch32v30x_usart.c ****  *
 442:../Peripheral/src/ch32v30x_usart.c ****  * @brief   Returns the most recent received data by the USARTx peripheral.
 443:../Peripheral/src/ch32v30x_usart.c ****  *
 444:../Peripheral/src/ch32v30x_usart.c ****  * @param   USARTx - where x can be 1, 2, 3 to select the USART peripheral.
 445:../Peripheral/src/ch32v30x_usart.c ****  *
 446:../Peripheral/src/ch32v30x_usart.c ****  * @return  The received data.
 447:../Peripheral/src/ch32v30x_usart.c ****  */
 448:../Peripheral/src/ch32v30x_usart.c **** uint16_t USART_ReceiveData(USART_TypeDef *USARTx)
 449:../Peripheral/src/ch32v30x_usart.c **** {
 746              		.loc 1 449 1 is_stmt 1
 747              		.cfi_startproc
 748              	.LVL75:
 450:../Peripheral/src/ch32v30x_usart.c ****     return (uint16_t)(USARTx->DATAR & (uint16_t)0x01FF);
 749              		.loc 1 450 5
 750              		.loc 1 450 29 is_stmt 0
 751 0000 4A21     		lhu	a0,4(a0)
 752              	.LVL76:
 451:../Peripheral/src/ch32v30x_usart.c **** }
 753              		.loc 1 451 1
 754 0002 1375F51F 		andi	a0,a0,511
 755 0006 8280     		ret
 756              		.cfi_endproc
 757              	.LFE43:
 759              		.section	.text.USART_SendBreak,"ax",@progbits
 760              		.align	1
 761              		.globl	USART_SendBreak
 763              	USART_SendBreak:
 764              	.LFB44:
 452:../Peripheral/src/ch32v30x_usart.c **** 
 453:../Peripheral/src/ch32v30x_usart.c **** /*********************************************************************
 454:../Peripheral/src/ch32v30x_usart.c ****  * @fn      USART_SendBreak
 455:../Peripheral/src/ch32v30x_usart.c ****  *
 456:../Peripheral/src/ch32v30x_usart.c ****  * @brief   Transmits break characters.
 457:../Peripheral/src/ch32v30x_usart.c ****  *
 458:../Peripheral/src/ch32v30x_usart.c ****  * @param   USARTx - where x can be 1, 2, 3 to select the USART peripheral.
 459:../Peripheral/src/ch32v30x_usart.c ****  *
 460:../Peripheral/src/ch32v30x_usart.c ****  * @return  none
 461:../Peripheral/src/ch32v30x_usart.c ****  */
 462:../Peripheral/src/ch32v30x_usart.c **** void USART_SendBreak(USART_TypeDef *USARTx)
 463:../Peripheral/src/ch32v30x_usart.c **** {
 765              		.loc 1 463 1 is_stmt 1
 766              		.cfi_startproc
 767              	.LVL77:
 464:../Peripheral/src/ch32v30x_usart.c ****     USARTx->CTLR1 |= CTLR1_SBK_Set;
 768              		.loc 1 464 5
 769              		.loc 1 464 11 is_stmt 0
 770 0000 5E25     		lhu	a5,12(a0)
 771              		.loc 1 464 19
 772 0002 93E71700 		ori	a5,a5,1
 773 0006 5EA5     		sh	a5,12(a0)
 465:../Peripheral/src/ch32v30x_usart.c **** }
 774              		.loc 1 465 1
 775 0008 8280     		ret
 776              		.cfi_endproc
 777              	.LFE44:
 779              		.section	.text.USART_SetGuardTime,"ax",@progbits
 780              		.align	1
 781              		.globl	USART_SetGuardTime
 783              	USART_SetGuardTime:
 784              	.LFB45:
 466:../Peripheral/src/ch32v30x_usart.c **** 
 467:../Peripheral/src/ch32v30x_usart.c **** /*********************************************************************
 468:../Peripheral/src/ch32v30x_usart.c ****  * @fn      USART_SetGuardTime
 469:../Peripheral/src/ch32v30x_usart.c ****  *
 470:../Peripheral/src/ch32v30x_usart.c ****  * @brief   Sets the specified USART guard time.
 471:../Peripheral/src/ch32v30x_usart.c ****  *
 472:../Peripheral/src/ch32v30x_usart.c ****  * @param   USARTx - where x can be 1, 2, 3 to select the USART peripheral.
 473:../Peripheral/src/ch32v30x_usart.c ****  *          USART_GuardTime - specifies the guard time.
 474:../Peripheral/src/ch32v30x_usart.c ****  *
 475:../Peripheral/src/ch32v30x_usart.c ****  * @return  none
 476:../Peripheral/src/ch32v30x_usart.c ****  */
 477:../Peripheral/src/ch32v30x_usart.c **** void USART_SetGuardTime(USART_TypeDef *USARTx, uint8_t USART_GuardTime)
 478:../Peripheral/src/ch32v30x_usart.c **** {
 785              		.loc 1 478 1 is_stmt 1
 786              		.cfi_startproc
 787              	.LVL78:
 479:../Peripheral/src/ch32v30x_usart.c ****     USARTx->GPR &= GPR_LSB_Mask;
 788              		.loc 1 479 5
 789              		.loc 1 479 11 is_stmt 0
 790 0000 1E2D     		lhu	a5,24(a0)
 480:../Peripheral/src/ch32v30x_usart.c ****     USARTx->GPR |= (uint16_t)((uint16_t)USART_GuardTime << 0x08);
 791              		.loc 1 480 20
 792 0002 A205     		slli	a1,a1,8
 793              	.LVL79:
 479:../Peripheral/src/ch32v30x_usart.c ****     USARTx->GPR &= GPR_LSB_Mask;
 794              		.loc 1 479 17
 795 0004 93F7F70F 		andi	a5,a5,0xff
 796 0008 1EAD     		sh	a5,24(a0)
 797              		.loc 1 480 5 is_stmt 1
 798              		.loc 1 480 11 is_stmt 0
 799 000a 1E2D     		lhu	a5,24(a0)
 800              		.loc 1 480 17
 801 000c CD8F     		or	a5,a5,a1
 802 000e 1EAD     		sh	a5,24(a0)
 481:../Peripheral/src/ch32v30x_usart.c **** }
 803              		.loc 1 481 1
 804 0010 8280     		ret
 805              		.cfi_endproc
 806              	.LFE45:
 808              		.section	.text.USART_SetPrescaler,"ax",@progbits
 809              		.align	1
 810              		.globl	USART_SetPrescaler
 812              	USART_SetPrescaler:
 813              	.LFB46:
 482:../Peripheral/src/ch32v30x_usart.c **** 
 483:../Peripheral/src/ch32v30x_usart.c **** /*********************************************************************
 484:../Peripheral/src/ch32v30x_usart.c ****  * @fn      USART_SetPrescaler
 485:../Peripheral/src/ch32v30x_usart.c ****  *
 486:../Peripheral/src/ch32v30x_usart.c ****  * @brief   Sets the system clock prescaler.
 487:../Peripheral/src/ch32v30x_usart.c ****  *
 488:../Peripheral/src/ch32v30x_usart.c ****  * @param   USARTx - where x can be 1, 2, 3 to select the USART peripheral.
 489:../Peripheral/src/ch32v30x_usart.c ****  *          USART_Prescaler - specifies the prescaler clock.
 490:../Peripheral/src/ch32v30x_usart.c ****  *
 491:../Peripheral/src/ch32v30x_usart.c ****  * @return  none
 492:../Peripheral/src/ch32v30x_usart.c ****  */
 493:../Peripheral/src/ch32v30x_usart.c **** void USART_SetPrescaler(USART_TypeDef *USARTx, uint8_t USART_Prescaler)
 494:../Peripheral/src/ch32v30x_usart.c **** {
 814              		.loc 1 494 1 is_stmt 1
 815              		.cfi_startproc
 816              	.LVL80:
 495:../Peripheral/src/ch32v30x_usart.c ****     USARTx->GPR &= GPR_MSB_Mask;
 817              		.loc 1 495 5
 818              		.loc 1 495 11 is_stmt 0
 819 0000 1E2D     		lhu	a5,24(a0)
 820 0002 C207     		slli	a5,a5,16
 821 0004 C183     		srli	a5,a5,16
 822              		.loc 1 495 17
 823 0006 93F707F0 		andi	a5,a5,-256
 824 000a C207     		slli	a5,a5,16
 825 000c C183     		srli	a5,a5,16
 826 000e 1EAD     		sh	a5,24(a0)
 496:../Peripheral/src/ch32v30x_usart.c ****     USARTx->GPR |= USART_Prescaler;
 827              		.loc 1 496 5 is_stmt 1
 828              		.loc 1 496 11 is_stmt 0
 829 0010 1E2D     		lhu	a5,24(a0)
 830              		.loc 1 496 17
 831 0012 DD8D     		or	a1,a1,a5
 832              	.LVL81:
 833 0014 0EAD     		sh	a1,24(a0)
 497:../Peripheral/src/ch32v30x_usart.c **** }
 834              		.loc 1 497 1
 835 0016 8280     		ret
 836              		.cfi_endproc
 837              	.LFE46:
 839              		.section	.text.USART_SmartCardCmd,"ax",@progbits
 840              		.align	1
 841              		.globl	USART_SmartCardCmd
 843              	USART_SmartCardCmd:
 844              	.LFB47:
 498:../Peripheral/src/ch32v30x_usart.c **** 
 499:../Peripheral/src/ch32v30x_usart.c **** /*********************************************************************
 500:../Peripheral/src/ch32v30x_usart.c ****  * @fn      USART_SmartCardCmd
 501:../Peripheral/src/ch32v30x_usart.c ****  *
 502:../Peripheral/src/ch32v30x_usart.c ****  * @brief   Enables or disables the USART Smart Card mode.
 503:../Peripheral/src/ch32v30x_usart.c ****  *
 504:../Peripheral/src/ch32v30x_usart.c ****  * @param   USARTx - where x can be 1, 2, 3 to select the USART peripheral.
 505:../Peripheral/src/ch32v30x_usart.c ****  *          NewState - ENABLE or DISABLE.
 506:../Peripheral/src/ch32v30x_usart.c ****  *
 507:../Peripheral/src/ch32v30x_usart.c ****  * @return  none
 508:../Peripheral/src/ch32v30x_usart.c ****  */
 509:../Peripheral/src/ch32v30x_usart.c **** void USART_SmartCardCmd(USART_TypeDef *USARTx, FunctionalState NewState)
 510:../Peripheral/src/ch32v30x_usart.c **** {
 845              		.loc 1 510 1 is_stmt 1
 846              		.cfi_startproc
 847              	.LVL82:
 511:../Peripheral/src/ch32v30x_usart.c ****     if(NewState != DISABLE)
 848              		.loc 1 511 5
 512:../Peripheral/src/ch32v30x_usart.c ****     {
 513:../Peripheral/src/ch32v30x_usart.c ****         USARTx->CTLR3 |= CTLR3_SCEN_Set;
 849              		.loc 1 513 15 is_stmt 0
 850 0000 5E29     		lhu	a5,20(a0)
 511:../Peripheral/src/ch32v30x_usart.c ****     if(NewState != DISABLE)
 851              		.loc 1 511 7
 852 0002 89C5     		beq	a1,zero,.L50
 853              		.loc 1 513 9 is_stmt 1
 854              		.loc 1 513 23 is_stmt 0
 855 0004 93E70702 		ori	a5,a5,32
 856              	.L52:
 514:../Peripheral/src/ch32v30x_usart.c ****     }
 515:../Peripheral/src/ch32v30x_usart.c ****     else
 516:../Peripheral/src/ch32v30x_usart.c ****     {
 517:../Peripheral/src/ch32v30x_usart.c ****         USARTx->CTLR3 &= CTLR3_SCEN_Reset;
 857              		.loc 1 517 23
 858 0008 5EA9     		sh	a5,20(a0)
 518:../Peripheral/src/ch32v30x_usart.c ****     }
 519:../Peripheral/src/ch32v30x_usart.c **** }
 859              		.loc 1 519 1
 860 000a 8280     		ret
 861              	.L50:
 517:../Peripheral/src/ch32v30x_usart.c ****     }
 862              		.loc 1 517 9 is_stmt 1
 517:../Peripheral/src/ch32v30x_usart.c ****     }
 863              		.loc 1 517 15 is_stmt 0
 864 000c C207     		slli	a5,a5,16
 865 000e C183     		srli	a5,a5,16
 517:../Peripheral/src/ch32v30x_usart.c ****     }
 866              		.loc 1 517 23
 867 0010 93F7F7FD 		andi	a5,a5,-33
 868 0014 C207     		slli	a5,a5,16
 869 0016 C183     		srli	a5,a5,16
 870 0018 C5BF     		j	.L52
 871              		.cfi_endproc
 872              	.LFE47:
 874              		.section	.text.USART_SmartCardNACKCmd,"ax",@progbits
 875              		.align	1
 876              		.globl	USART_SmartCardNACKCmd
 878              	USART_SmartCardNACKCmd:
 879              	.LFB48:
 520:../Peripheral/src/ch32v30x_usart.c **** 
 521:../Peripheral/src/ch32v30x_usart.c **** /*********************************************************************
 522:../Peripheral/src/ch32v30x_usart.c ****  * @fn      USART_SmartCardNACKCmd
 523:../Peripheral/src/ch32v30x_usart.c ****  *
 524:../Peripheral/src/ch32v30x_usart.c ****  * @brief   Enables or disables NACK transmission.
 525:../Peripheral/src/ch32v30x_usart.c ****  *
 526:../Peripheral/src/ch32v30x_usart.c ****  * @param   USARTx - where x can be 1, 2, 3 to select the USART peripheral.
 527:../Peripheral/src/ch32v30x_usart.c ****  *          NewState - ENABLE or DISABLE.
 528:../Peripheral/src/ch32v30x_usart.c ****  *
 529:../Peripheral/src/ch32v30x_usart.c ****  * @return  none
 530:../Peripheral/src/ch32v30x_usart.c ****  */
 531:../Peripheral/src/ch32v30x_usart.c **** void USART_SmartCardNACKCmd(USART_TypeDef *USARTx, FunctionalState NewState)
 532:../Peripheral/src/ch32v30x_usart.c **** {
 880              		.loc 1 532 1 is_stmt 1
 881              		.cfi_startproc
 882              	.LVL83:
 533:../Peripheral/src/ch32v30x_usart.c ****     if(NewState != DISABLE)
 883              		.loc 1 533 5
 534:../Peripheral/src/ch32v30x_usart.c ****     {
 535:../Peripheral/src/ch32v30x_usart.c ****         USARTx->CTLR3 |= CTLR3_NACK_Set;
 884              		.loc 1 535 15 is_stmt 0
 885 0000 5E29     		lhu	a5,20(a0)
 533:../Peripheral/src/ch32v30x_usart.c ****     if(NewState != DISABLE)
 886              		.loc 1 533 7
 887 0002 89C5     		beq	a1,zero,.L54
 888              		.loc 1 535 9 is_stmt 1
 889              		.loc 1 535 23 is_stmt 0
 890 0004 93E70701 		ori	a5,a5,16
 891              	.L56:
 536:../Peripheral/src/ch32v30x_usart.c ****     }
 537:../Peripheral/src/ch32v30x_usart.c ****     else
 538:../Peripheral/src/ch32v30x_usart.c ****     {
 539:../Peripheral/src/ch32v30x_usart.c ****         USARTx->CTLR3 &= CTLR3_NACK_Reset;
 892              		.loc 1 539 23
 893 0008 5EA9     		sh	a5,20(a0)
 540:../Peripheral/src/ch32v30x_usart.c ****     }
 541:../Peripheral/src/ch32v30x_usart.c **** }
 894              		.loc 1 541 1
 895 000a 8280     		ret
 896              	.L54:
 539:../Peripheral/src/ch32v30x_usart.c ****     }
 897              		.loc 1 539 9 is_stmt 1
 539:../Peripheral/src/ch32v30x_usart.c ****     }
 898              		.loc 1 539 15 is_stmt 0
 899 000c C207     		slli	a5,a5,16
 900 000e C183     		srli	a5,a5,16
 539:../Peripheral/src/ch32v30x_usart.c ****     }
 901              		.loc 1 539 23
 902 0010 BD9B     		andi	a5,a5,-17
 903 0012 C207     		slli	a5,a5,16
 904 0014 C183     		srli	a5,a5,16
 905 0016 CDBF     		j	.L56
 906              		.cfi_endproc
 907              	.LFE48:
 909              		.section	.text.USART_HalfDuplexCmd,"ax",@progbits
 910              		.align	1
 911              		.globl	USART_HalfDuplexCmd
 913              	USART_HalfDuplexCmd:
 914              	.LFB49:
 542:../Peripheral/src/ch32v30x_usart.c **** 
 543:../Peripheral/src/ch32v30x_usart.c **** /*********************************************************************
 544:../Peripheral/src/ch32v30x_usart.c ****  * @fn      USART_HalfDuplexCmd
 545:../Peripheral/src/ch32v30x_usart.c ****  *
 546:../Peripheral/src/ch32v30x_usart.c ****  * @brief   Enables or disables the USART Half Duplex communication.
 547:../Peripheral/src/ch32v30x_usart.c ****  *
 548:../Peripheral/src/ch32v30x_usart.c ****  * @param   USARTx - where x can be 1, 2, 3 to select the USART peripheral.
 549:../Peripheral/src/ch32v30x_usart.c ****  *                  NewState - ENABLE or DISABLE.
 550:../Peripheral/src/ch32v30x_usart.c ****  *
 551:../Peripheral/src/ch32v30x_usart.c ****  * @return  none
 552:../Peripheral/src/ch32v30x_usart.c ****  */
 553:../Peripheral/src/ch32v30x_usart.c **** void USART_HalfDuplexCmd(USART_TypeDef *USARTx, FunctionalState NewState)
 554:../Peripheral/src/ch32v30x_usart.c **** {
 915              		.loc 1 554 1 is_stmt 1
 916              		.cfi_startproc
 917              	.LVL84:
 555:../Peripheral/src/ch32v30x_usart.c ****     if(NewState != DISABLE)
 918              		.loc 1 555 5
 556:../Peripheral/src/ch32v30x_usart.c ****     {
 557:../Peripheral/src/ch32v30x_usart.c ****         USARTx->CTLR3 |= CTLR3_HDSEL_Set;
 919              		.loc 1 557 15 is_stmt 0
 920 0000 5E29     		lhu	a5,20(a0)
 555:../Peripheral/src/ch32v30x_usart.c ****     if(NewState != DISABLE)
 921              		.loc 1 555 7
 922 0002 89C5     		beq	a1,zero,.L58
 923              		.loc 1 557 9 is_stmt 1
 924              		.loc 1 557 23 is_stmt 0
 925 0004 93E78700 		ori	a5,a5,8
 926              	.L60:
 558:../Peripheral/src/ch32v30x_usart.c ****     }
 559:../Peripheral/src/ch32v30x_usart.c ****     else
 560:../Peripheral/src/ch32v30x_usart.c ****     {
 561:../Peripheral/src/ch32v30x_usart.c ****         USARTx->CTLR3 &= CTLR3_HDSEL_Reset;
 927              		.loc 1 561 23
 928 0008 5EA9     		sh	a5,20(a0)
 562:../Peripheral/src/ch32v30x_usart.c ****     }
 563:../Peripheral/src/ch32v30x_usart.c **** }
 929              		.loc 1 563 1
 930 000a 8280     		ret
 931              	.L58:
 561:../Peripheral/src/ch32v30x_usart.c ****     }
 932              		.loc 1 561 9 is_stmt 1
 561:../Peripheral/src/ch32v30x_usart.c ****     }
 933              		.loc 1 561 15 is_stmt 0
 934 000c C207     		slli	a5,a5,16
 935 000e C183     		srli	a5,a5,16
 561:../Peripheral/src/ch32v30x_usart.c ****     }
 936              		.loc 1 561 23
 937 0010 DD9B     		andi	a5,a5,-9
 938 0012 C207     		slli	a5,a5,16
 939 0014 C183     		srli	a5,a5,16
 940 0016 CDBF     		j	.L60
 941              		.cfi_endproc
 942              	.LFE49:
 944              		.section	.text.USART_IrDAConfig,"ax",@progbits
 945              		.align	1
 946              		.globl	USART_IrDAConfig
 948              	USART_IrDAConfig:
 949              	.LFB50:
 564:../Peripheral/src/ch32v30x_usart.c **** 
 565:../Peripheral/src/ch32v30x_usart.c **** /*********************************************************************
 566:../Peripheral/src/ch32v30x_usart.c ****  * @fn      USART_IrDAConfig
 567:../Peripheral/src/ch32v30x_usart.c ****  *
 568:../Peripheral/src/ch32v30x_usart.c ****  * @brief   Configures the USART's IrDA interface.
 569:../Peripheral/src/ch32v30x_usart.c ****  *
 570:../Peripheral/src/ch32v30x_usart.c ****  * @param   USARTx - where x can be 1, 2, 3 to select the USART peripheral.
 571:../Peripheral/src/ch32v30x_usart.c ****  *          USART_IrDAMode - specifies the IrDA mode.
 572:../Peripheral/src/ch32v30x_usart.c ****  *            USART_IrDAMode_LowPower.
 573:../Peripheral/src/ch32v30x_usart.c ****  *            USART_IrDAMode_Normal.
 574:../Peripheral/src/ch32v30x_usart.c ****  *
 575:../Peripheral/src/ch32v30x_usart.c ****  * @return  none
 576:../Peripheral/src/ch32v30x_usart.c ****  */
 577:../Peripheral/src/ch32v30x_usart.c **** void USART_IrDAConfig(USART_TypeDef *USARTx, uint16_t USART_IrDAMode)
 578:../Peripheral/src/ch32v30x_usart.c **** {
 950              		.loc 1 578 1 is_stmt 1
 951              		.cfi_startproc
 952              	.LVL85:
 579:../Peripheral/src/ch32v30x_usart.c ****     USARTx->CTLR3 &= CTLR3_IRLP_Mask;
 953              		.loc 1 579 5
 954              		.loc 1 579 11 is_stmt 0
 955 0000 5E29     		lhu	a5,20(a0)
 956 0002 C207     		slli	a5,a5,16
 957 0004 C183     		srli	a5,a5,16
 958              		.loc 1 579 19
 959 0006 ED9B     		andi	a5,a5,-5
 960 0008 C207     		slli	a5,a5,16
 961 000a C183     		srli	a5,a5,16
 962 000c 5EA9     		sh	a5,20(a0)
 580:../Peripheral/src/ch32v30x_usart.c ****     USARTx->CTLR3 |= USART_IrDAMode;
 963              		.loc 1 580 5 is_stmt 1
 964              		.loc 1 580 11 is_stmt 0
 965 000e 5E29     		lhu	a5,20(a0)
 966              		.loc 1 580 19
 967 0010 CD8F     		or	a5,a5,a1
 968 0012 5EA9     		sh	a5,20(a0)
 581:../Peripheral/src/ch32v30x_usart.c **** }
 969              		.loc 1 581 1
 970 0014 8280     		ret
 971              		.cfi_endproc
 972              	.LFE50:
 974              		.section	.text.USART_IrDACmd,"ax",@progbits
 975              		.align	1
 976              		.globl	USART_IrDACmd
 978              	USART_IrDACmd:
 979              	.LFB51:
 582:../Peripheral/src/ch32v30x_usart.c **** 
 583:../Peripheral/src/ch32v30x_usart.c **** /*********************************************************************
 584:../Peripheral/src/ch32v30x_usart.c ****  * @fn      USART_IrDACmd
 585:../Peripheral/src/ch32v30x_usart.c ****  *
 586:../Peripheral/src/ch32v30x_usart.c ****  * @brief   Enables or disables the USART's IrDA interface.
 587:../Peripheral/src/ch32v30x_usart.c ****  *
 588:../Peripheral/src/ch32v30x_usart.c ****  * @param   USARTx - where x can be 1, 2, 3 to select the USART peripheral.
 589:../Peripheral/src/ch32v30x_usart.c ****  *          NewState - ENABLE or DISABLE.
 590:../Peripheral/src/ch32v30x_usart.c ****  *
 591:../Peripheral/src/ch32v30x_usart.c ****  * @return  none
 592:../Peripheral/src/ch32v30x_usart.c ****  */
 593:../Peripheral/src/ch32v30x_usart.c **** void USART_IrDACmd(USART_TypeDef *USARTx, FunctionalState NewState)
 594:../Peripheral/src/ch32v30x_usart.c **** {
 980              		.loc 1 594 1 is_stmt 1
 981              		.cfi_startproc
 982              	.LVL86:
 595:../Peripheral/src/ch32v30x_usart.c ****     if(NewState != DISABLE)
 983              		.loc 1 595 5
 596:../Peripheral/src/ch32v30x_usart.c ****     {
 597:../Peripheral/src/ch32v30x_usart.c ****         USARTx->CTLR3 |= CTLR3_IREN_Set;
 984              		.loc 1 597 15 is_stmt 0
 985 0000 5E29     		lhu	a5,20(a0)
 595:../Peripheral/src/ch32v30x_usart.c ****     if(NewState != DISABLE)
 986              		.loc 1 595 7
 987 0002 89C5     		beq	a1,zero,.L63
 988              		.loc 1 597 9 is_stmt 1
 989              		.loc 1 597 23 is_stmt 0
 990 0004 93E72700 		ori	a5,a5,2
 991              	.L65:
 598:../Peripheral/src/ch32v30x_usart.c ****     }
 599:../Peripheral/src/ch32v30x_usart.c ****     else
 600:../Peripheral/src/ch32v30x_usart.c ****     {
 601:../Peripheral/src/ch32v30x_usart.c ****         USARTx->CTLR3 &= CTLR3_IREN_Reset;
 992              		.loc 1 601 23
 993 0008 5EA9     		sh	a5,20(a0)
 602:../Peripheral/src/ch32v30x_usart.c ****     }
 603:../Peripheral/src/ch32v30x_usart.c **** }
 994              		.loc 1 603 1
 995 000a 8280     		ret
 996              	.L63:
 601:../Peripheral/src/ch32v30x_usart.c ****     }
 997              		.loc 1 601 9 is_stmt 1
 601:../Peripheral/src/ch32v30x_usart.c ****     }
 998              		.loc 1 601 15 is_stmt 0
 999 000c C207     		slli	a5,a5,16
 1000 000e C183     		srli	a5,a5,16
 601:../Peripheral/src/ch32v30x_usart.c ****     }
 1001              		.loc 1 601 23
 1002 0010 F59B     		andi	a5,a5,-3
 1003 0012 C207     		slli	a5,a5,16
 1004 0014 C183     		srli	a5,a5,16
 1005 0016 CDBF     		j	.L65
 1006              		.cfi_endproc
 1007              	.LFE51:
 1009              		.section	.text.USART_GetFlagStatus,"ax",@progbits
 1010              		.align	1
 1011              		.globl	USART_GetFlagStatus
 1013              	USART_GetFlagStatus:
 1014              	.LFB52:
 604:../Peripheral/src/ch32v30x_usart.c **** 
 605:../Peripheral/src/ch32v30x_usart.c **** /*********************************************************************
 606:../Peripheral/src/ch32v30x_usart.c ****  * @fn      USART_GetFlagStatus
 607:../Peripheral/src/ch32v30x_usart.c ****  *
 608:../Peripheral/src/ch32v30x_usart.c ****  * @brief   Checks whether the specified USART flag is set or not.
 609:../Peripheral/src/ch32v30x_usart.c ****  *
 610:../Peripheral/src/ch32v30x_usart.c ****  * @param   USARTx - where x can be 1, 2, 3 to select the USART peripheral.
 611:../Peripheral/src/ch32v30x_usart.c ****  *          USART_FLAG - specifies the flag to check.
 612:../Peripheral/src/ch32v30x_usart.c ****  *            USART_FLAG_LBD - LIN Break detection flag.
 613:../Peripheral/src/ch32v30x_usart.c ****  *            USART_FLAG_TXE - Transmit data register empty flag.
 614:../Peripheral/src/ch32v30x_usart.c ****  *            USART_FLAG_TC - Transmission Complete flag.
 615:../Peripheral/src/ch32v30x_usart.c ****  *            USART_FLAG_RXNE - Receive data register not empty flag.
 616:../Peripheral/src/ch32v30x_usart.c ****  *            USART_FLAG_IDLE - Idle Line detection flag.
 617:../Peripheral/src/ch32v30x_usart.c ****  *            USART_FLAG_ORE - OverRun Error flag.
 618:../Peripheral/src/ch32v30x_usart.c ****  *            USART_FLAG_NE - Noise Error flag.
 619:../Peripheral/src/ch32v30x_usart.c ****  *            USART_FLAG_FE - Framing Error flag.
 620:../Peripheral/src/ch32v30x_usart.c ****  *            USART_FLAG_PE - Parity Error flag.
 621:../Peripheral/src/ch32v30x_usart.c ****  *
 622:../Peripheral/src/ch32v30x_usart.c ****  * @return  bitstatus: SET or RESET
 623:../Peripheral/src/ch32v30x_usart.c ****  */
 624:../Peripheral/src/ch32v30x_usart.c **** FlagStatus USART_GetFlagStatus(USART_TypeDef *USARTx, uint16_t USART_FLAG)
 625:../Peripheral/src/ch32v30x_usart.c **** {
 1015              		.loc 1 625 1 is_stmt 1
 1016              		.cfi_startproc
 1017              	.LVL87:
 626:../Peripheral/src/ch32v30x_usart.c ****     FlagStatus bitstatus = RESET;
 1018              		.loc 1 626 5
 627:../Peripheral/src/ch32v30x_usart.c **** 
 628:../Peripheral/src/ch32v30x_usart.c ****     if((USARTx->STATR & USART_FLAG) != (uint16_t)RESET)
 1019              		.loc 1 628 5
 1020              		.loc 1 628 15 is_stmt 0
 1021 0000 0A21     		lhu	a0,0(a0)
 1022              	.LVL88:
 629:../Peripheral/src/ch32v30x_usart.c ****     {
 630:../Peripheral/src/ch32v30x_usart.c ****         bitstatus = SET;
 631:../Peripheral/src/ch32v30x_usart.c ****     }
 632:../Peripheral/src/ch32v30x_usart.c ****     else
 633:../Peripheral/src/ch32v30x_usart.c ****     {
 634:../Peripheral/src/ch32v30x_usart.c ****         bitstatus = RESET;
 635:../Peripheral/src/ch32v30x_usart.c ****     }
 636:../Peripheral/src/ch32v30x_usart.c ****     return bitstatus;
 1023              		.loc 1 636 5 is_stmt 1
 628:../Peripheral/src/ch32v30x_usart.c ****     {
 1024              		.loc 1 628 7 is_stmt 0
 1025 0002 6D8D     		and	a0,a0,a1
 1026              	.LVL89:
 637:../Peripheral/src/ch32v30x_usart.c **** }
 1027              		.loc 1 637 1
 1028 0004 3335A000 		snez	a0,a0
 1029 0008 8280     		ret
 1030              		.cfi_endproc
 1031              	.LFE52:
 1033              		.section	.text.USART_ClearFlag,"ax",@progbits
 1034              		.align	1
 1035              		.globl	USART_ClearFlag
 1037              	USART_ClearFlag:
 1038              	.LFB53:
 638:../Peripheral/src/ch32v30x_usart.c **** 
 639:../Peripheral/src/ch32v30x_usart.c **** /*********************************************************************
 640:../Peripheral/src/ch32v30x_usart.c ****  * @fn      USART_ClearFlag
 641:../Peripheral/src/ch32v30x_usart.c ****  *
 642:../Peripheral/src/ch32v30x_usart.c ****  * @brief   Clears the USARTx's pending flags.
 643:../Peripheral/src/ch32v30x_usart.c ****  *
 644:../Peripheral/src/ch32v30x_usart.c ****  * @param   USARTx - where x can be 1, 2, 3 to select the USART peripheral.
 645:../Peripheral/src/ch32v30x_usart.c ****  *          USART_FLAG - specifies the flag to clear.
 646:../Peripheral/src/ch32v30x_usart.c ****  *            USART_FLAG_LBD - LIN Break detection flag.
 647:../Peripheral/src/ch32v30x_usart.c ****  *            USART_FLAG_TC - Transmission Complete flag.
 648:../Peripheral/src/ch32v30x_usart.c ****  *            USART_FLAG_RXNE - Receive data register not empty flag.
 649:../Peripheral/src/ch32v30x_usart.c ****  *          Note-
 650:../Peripheral/src/ch32v30x_usart.c ****  *            - PE (Parity error), FE (Framing error), NE (Noise error), ORE (OverRun 
 651:../Peripheral/src/ch32v30x_usart.c ****  *            error) and IDLE (Idle line detected) flags are cleared by software 
 652:../Peripheral/src/ch32v30x_usart.c ****  *            sequence: a read operation to USART_STATR register (USART_GetFlagStatus()) 
 653:../Peripheral/src/ch32v30x_usart.c ****  *            followed by a read operation to USART_DATAR register (USART_ReceiveData()).
 654:../Peripheral/src/ch32v30x_usart.c ****  *            - RXNE flag can be also cleared by a read to the USART_DATAR register 
 655:../Peripheral/src/ch32v30x_usart.c ****  *            (USART_ReceiveData()).
 656:../Peripheral/src/ch32v30x_usart.c ****  *            - TC flag can be also cleared by software sequence: a read operation to 
 657:../Peripheral/src/ch32v30x_usart.c ****  *            USART_STATR register (USART_GetFlagStatus()) followed by a write operation
 658:../Peripheral/src/ch32v30x_usart.c ****  *            to USART_DATAR register (USART_SendData()).
 659:../Peripheral/src/ch32v30x_usart.c ****  *            - TXE flag is cleared only by a write to the USART_DATAR register 
 660:../Peripheral/src/ch32v30x_usart.c ****  *            (USART_SendData()).
 661:../Peripheral/src/ch32v30x_usart.c ****  * @return  none
 662:../Peripheral/src/ch32v30x_usart.c ****  */
 663:../Peripheral/src/ch32v30x_usart.c **** void USART_ClearFlag(USART_TypeDef *USARTx, uint16_t USART_FLAG)
 664:../Peripheral/src/ch32v30x_usart.c **** {
 1039              		.loc 1 664 1 is_stmt 1
 1040              		.cfi_startproc
 1041              	.LVL90:
 665:../Peripheral/src/ch32v30x_usart.c **** 
 666:../Peripheral/src/ch32v30x_usart.c ****     USARTx->STATR = (uint16_t)~USART_FLAG;
 1042              		.loc 1 666 5
 1043              		.loc 1 666 21 is_stmt 0
 1044 0000 93C5F5FF 		not	a1,a1
 1045              	.LVL91:
 1046 0004 C205     		slli	a1,a1,16
 1047 0006 C181     		srli	a1,a1,16
 1048              		.loc 1 666 19
 1049 0008 0EA1     		sh	a1,0(a0)
 667:../Peripheral/src/ch32v30x_usart.c **** }
 1050              		.loc 1 667 1
 1051 000a 8280     		ret
 1052              		.cfi_endproc
 1053              	.LFE53:
 1055              		.section	.text.USART_GetITStatus,"ax",@progbits
 1056              		.align	1
 1057              		.globl	USART_GetITStatus
 1059              	USART_GetITStatus:
 1060              	.LFB54:
 668:../Peripheral/src/ch32v30x_usart.c **** 
 669:../Peripheral/src/ch32v30x_usart.c **** /*********************************************************************
 670:../Peripheral/src/ch32v30x_usart.c ****  * @fn      USART_GetITStatus
 671:../Peripheral/src/ch32v30x_usart.c ****  *
 672:../Peripheral/src/ch32v30x_usart.c ****  * @brief   Checks whether the specified USART interrupt has occurred or not.
 673:../Peripheral/src/ch32v30x_usart.c ****  *
 674:../Peripheral/src/ch32v30x_usart.c ****  * @param   USARTx - where x can be 1, 2, 3 to select the USART peripheral.
 675:../Peripheral/src/ch32v30x_usart.c ****  *          USART_IT - specifies the USART interrupt source to check.
 676:../Peripheral/src/ch32v30x_usart.c ****  *            USART_IT_LBD - LIN Break detection interrupt.
 677:../Peripheral/src/ch32v30x_usart.c ****  *            USART_IT_TXE - Tansmit Data Register empty interrupt.
 678:../Peripheral/src/ch32v30x_usart.c ****  *            USART_IT_TC - Transmission complete interrupt.
 679:../Peripheral/src/ch32v30x_usart.c ****  *            USART_IT_RXNE - Receive Data register not empty interrupt.
 680:../Peripheral/src/ch32v30x_usart.c ****  *            USART_IT_IDLE - Idle line detection interrupt.
 681:../Peripheral/src/ch32v30x_usart.c ****  *            USART_IT_ORE_RX - OverRun Error interrupt if the RXNEIE bit is set.
 682:../Peripheral/src/ch32v30x_usart.c ****  *            USART_IT_ORE_ER - OverRun Error interrupt if the EIE bit is set.
 683:../Peripheral/src/ch32v30x_usart.c ****  *            USART_IT_NE - Noise Error interrupt.
 684:../Peripheral/src/ch32v30x_usart.c ****  *            USART_IT_FE - Framing Error interrupt.
 685:../Peripheral/src/ch32v30x_usart.c ****  *            USART_IT_PE - Parity Error interrupt.
 686:../Peripheral/src/ch32v30x_usart.c ****  *
 687:../Peripheral/src/ch32v30x_usart.c ****  * @return  bitstatus: SET or RESET.
 688:../Peripheral/src/ch32v30x_usart.c ****  */
 689:../Peripheral/src/ch32v30x_usart.c **** ITStatus USART_GetITStatus(USART_TypeDef *USARTx, uint16_t USART_IT)
 690:../Peripheral/src/ch32v30x_usart.c **** {
 1061              		.loc 1 690 1 is_stmt 1
 1062              		.cfi_startproc
 1063              	.LVL92:
 691:../Peripheral/src/ch32v30x_usart.c ****     uint32_t bitpos = 0x00, itmask = 0x00, usartreg = 0x00;
 1064              		.loc 1 691 5
 692:../Peripheral/src/ch32v30x_usart.c ****     ITStatus bitstatus = RESET;
 1065              		.loc 1 692 5
 693:../Peripheral/src/ch32v30x_usart.c **** 
 694:../Peripheral/src/ch32v30x_usart.c ****     usartreg = (((uint8_t)USART_IT) >> 0x05);
 1066              		.loc 1 694 5
 1067              		.loc 1 694 37 is_stmt 0
 1068 0000 93F6F50F 		andi	a3,a1,0xff
 695:../Peripheral/src/ch32v30x_usart.c ****     itmask = USART_IT & IT_Mask;
 696:../Peripheral/src/ch32v30x_usart.c ****     itmask = (uint32_t)0x01 << itmask;
 1069              		.loc 1 696 12
 1070 0004 0546     		li	a2,1
 694:../Peripheral/src/ch32v30x_usart.c ****     itmask = USART_IT & IT_Mask;
 1071              		.loc 1 694 37
 1072 0006 9582     		srli	a3,a3,5
 1073              	.LVL93:
 695:../Peripheral/src/ch32v30x_usart.c ****     itmask = USART_IT & IT_Mask;
 1074              		.loc 1 695 5 is_stmt 1
 1075              		.loc 1 696 5
 690:../Peripheral/src/ch32v30x_usart.c ****     uint32_t bitpos = 0x00, itmask = 0x00, usartreg = 0x00;
 1076              		.loc 1 690 1 is_stmt 0
 1077 0008 2A87     		mv	a4,a0
 1078              		.loc 1 696 12
 1079 000a B317B600 		sll	a5,a2,a1
 1080              	.LVL94:
 697:../Peripheral/src/ch32v30x_usart.c **** 
 698:../Peripheral/src/ch32v30x_usart.c ****     if(usartreg == 0x01)
 1081              		.loc 1 698 5 is_stmt 1
 1082              		.loc 1 698 7 is_stmt 0
 1083 000e 6391C602 		bne	a3,a2,.L69
 699:../Peripheral/src/ch32v30x_usart.c ****     {
 700:../Peripheral/src/ch32v30x_usart.c ****         itmask &= USARTx->CTLR1;
 1084              		.loc 1 700 9 is_stmt 1
 1085              		.loc 1 700 25 is_stmt 0
 1086 0012 5625     		lhu	a3,12(a0)
 1087              	.LVL95:
 1088              	.L76:
 701:../Peripheral/src/ch32v30x_usart.c ****     }
 702:../Peripheral/src/ch32v30x_usart.c ****     else if(usartreg == 0x02)
 703:../Peripheral/src/ch32v30x_usart.c ****     {
 704:../Peripheral/src/ch32v30x_usart.c ****         itmask &= USARTx->CTLR2;
 705:../Peripheral/src/ch32v30x_usart.c ****     }
 706:../Peripheral/src/ch32v30x_usart.c ****     else
 707:../Peripheral/src/ch32v30x_usart.c ****     {
 708:../Peripheral/src/ch32v30x_usart.c ****         itmask &= USARTx->CTLR3;
 1089              		.loc 1 708 16
 1090 0014 33F5F600 		and	a0,a3,a5
 1091              	.LVL96:
 709:../Peripheral/src/ch32v30x_usart.c ****     }
 710:../Peripheral/src/ch32v30x_usart.c **** 
 711:../Peripheral/src/ch32v30x_usart.c ****     bitpos = USART_IT >> 0x08;
 1092              		.loc 1 711 5 is_stmt 1
 712:../Peripheral/src/ch32v30x_usart.c ****     bitpos = (uint32_t)0x01 << bitpos;
 1093              		.loc 1 712 5
 713:../Peripheral/src/ch32v30x_usart.c ****     bitpos &= USARTx->STATR;
 1094              		.loc 1 713 5
 1095              		.loc 1 713 21 is_stmt 0
 1096 0018 1E23     		lhu	a5,0(a4)
 1097 001a C207     		slli	a5,a5,16
 1098 001c C183     		srli	a5,a5,16
 1099              	.LVL97:
 714:../Peripheral/src/ch32v30x_usart.c **** 
 715:../Peripheral/src/ch32v30x_usart.c ****     if((itmask != (uint16_t)RESET) && (bitpos != (uint16_t)RESET))
 1100              		.loc 1 715 5 is_stmt 1
 1101              		.loc 1 715 7 is_stmt 0
 1102 001e 01C9     		beq	a0,zero,.L68
 711:../Peripheral/src/ch32v30x_usart.c ****     bitpos = (uint32_t)0x01 << bitpos;
 1103              		.loc 1 711 12 discriminator 1
 1104 0020 A181     		srli	a1,a1,8
 1105              	.LVL98:
 712:../Peripheral/src/ch32v30x_usart.c ****     bitpos &= USARTx->STATR;
 1106              		.loc 1 712 12 discriminator 1
 1107 0022 0547     		li	a4,1
 1108              	.LVL99:
 1109 0024 3317B700 		sll	a4,a4,a1
 713:../Peripheral/src/ch32v30x_usart.c **** 
 1110              		.loc 1 713 12 discriminator 1
 1111 0028 F98F     		and	a5,a5,a4
 1112              	.LVL100:
 1113              		.loc 1 715 36 discriminator 1
 1114 002a 3335F000 		snez	a0,a5
 1115              	.LVL101:
 716:../Peripheral/src/ch32v30x_usart.c ****     {
 717:../Peripheral/src/ch32v30x_usart.c ****         bitstatus = SET;
 718:../Peripheral/src/ch32v30x_usart.c ****     }
 719:../Peripheral/src/ch32v30x_usart.c ****     else
 720:../Peripheral/src/ch32v30x_usart.c ****     {
 721:../Peripheral/src/ch32v30x_usart.c ****         bitstatus = RESET;
 722:../Peripheral/src/ch32v30x_usart.c ****     }
 723:../Peripheral/src/ch32v30x_usart.c **** 
 724:../Peripheral/src/ch32v30x_usart.c ****     return bitstatus;
 1116              		.loc 1 724 5 is_stmt 1 discriminator 1
 1117              	.L68:
 725:../Peripheral/src/ch32v30x_usart.c **** }
 1118              		.loc 1 725 1 is_stmt 0
 1119 002e 8280     		ret
 1120              	.LVL102:
 1121              	.L69:
 702:../Peripheral/src/ch32v30x_usart.c ****     {
 1122              		.loc 1 702 10 is_stmt 1
 702:../Peripheral/src/ch32v30x_usart.c ****     {
 1123              		.loc 1 702 12 is_stmt 0
 1124 0030 0946     		li	a2,2
 1125 0032 6394C600 		bne	a3,a2,.L71
 704:../Peripheral/src/ch32v30x_usart.c ****     }
 1126              		.loc 1 704 9 is_stmt 1
 704:../Peripheral/src/ch32v30x_usart.c ****     }
 1127              		.loc 1 704 25 is_stmt 0
 1128 0036 1629     		lhu	a3,16(a0)
 1129              	.LVL103:
 1130 0038 F1BF     		j	.L76
 1131              	.LVL104:
 1132              	.L71:
 708:../Peripheral/src/ch32v30x_usart.c ****     }
 1133              		.loc 1 708 9 is_stmt 1
 708:../Peripheral/src/ch32v30x_usart.c ****     }
 1134              		.loc 1 708 25 is_stmt 0
 1135 003a 5629     		lhu	a3,20(a0)
 1136              	.LVL105:
 1137 003c E1BF     		j	.L76
 1138              		.cfi_endproc
 1139              	.LFE54:
 1141              		.section	.text.USART_ClearITPendingBit,"ax",@progbits
 1142              		.align	1
 1143              		.globl	USART_ClearITPendingBit
 1145              	USART_ClearITPendingBit:
 1146              	.LFB55:
 726:../Peripheral/src/ch32v30x_usart.c **** 
 727:../Peripheral/src/ch32v30x_usart.c **** /*********************************************************************
 728:../Peripheral/src/ch32v30x_usart.c ****  * @fn      USART_ClearITPendingBit
 729:../Peripheral/src/ch32v30x_usart.c ****  *
 730:../Peripheral/src/ch32v30x_usart.c ****  * @brief   Clears the USARTx's interrupt pending bits.
 731:../Peripheral/src/ch32v30x_usart.c ****  *
 732:../Peripheral/src/ch32v30x_usart.c ****  * @param   USARTx - where x can be 1, 2, 3 to select the USART peripheral.
 733:../Peripheral/src/ch32v30x_usart.c ****  *          USART_IT - specifies the interrupt pending bit to clear.
 734:../Peripheral/src/ch32v30x_usart.c ****  *            USART_IT_LBD - LIN Break detection interrupt.
 735:../Peripheral/src/ch32v30x_usart.c ****  *            USART_IT_TC - Transmission complete interrupt.
 736:../Peripheral/src/ch32v30x_usart.c ****  *            USART_IT_RXNE - Receive Data register not empty interrupt.
 737:../Peripheral/src/ch32v30x_usart.c ****  *         Note-
 738:../Peripheral/src/ch32v30x_usart.c ****  *            - PE (Parity error), FE (Framing error), NE (Noise error), ORE (OverRun 
 739:../Peripheral/src/ch32v30x_usart.c ****  *            error) and IDLE (Idle line detected) pending bits are cleared by 
 740:../Peripheral/src/ch32v30x_usart.c ****  *            software sequence: a read operation to USART_STATR register 
 741:../Peripheral/src/ch32v30x_usart.c ****  *            (USART_GetITStatus()) followed by a read operation to USART_DATAR register 
 742:../Peripheral/src/ch32v30x_usart.c ****  *            (USART_ReceiveData()).
 743:../Peripheral/src/ch32v30x_usart.c ****  *            - RXNE pending bit can be also cleared by a read to the USART_DATAR register 
 744:../Peripheral/src/ch32v30x_usart.c ****  *            (USART_ReceiveData()).
 745:../Peripheral/src/ch32v30x_usart.c ****  *            - TC pending bit can be also cleared by software sequence: a read 
 746:../Peripheral/src/ch32v30x_usart.c ****  *            operation to USART_STATR register (USART_GetITStatus()) followed by a write 
 747:../Peripheral/src/ch32v30x_usart.c ****  *            operation to USART_DATAR register (USART_SendData()).
 748:../Peripheral/src/ch32v30x_usart.c ****  *            - TXE pending bit is cleared only by a write to the USART_DATAR register 
 749:../Peripheral/src/ch32v30x_usart.c ****  *            (USART_SendData()).
 750:../Peripheral/src/ch32v30x_usart.c ****  * @return  none
 751:../Peripheral/src/ch32v30x_usart.c ****  */
 752:../Peripheral/src/ch32v30x_usart.c **** void USART_ClearITPendingBit(USART_TypeDef *USARTx, uint16_t USART_IT)
 753:../Peripheral/src/ch32v30x_usart.c **** {
 1147              		.loc 1 753 1 is_stmt 1
 1148              		.cfi_startproc
 1149              	.LVL106:
 754:../Peripheral/src/ch32v30x_usart.c ****     uint16_t bitpos = 0x00, itmask = 0x00;
 1150              		.loc 1 754 5
 755:../Peripheral/src/ch32v30x_usart.c **** 
 756:../Peripheral/src/ch32v30x_usart.c ****     bitpos = USART_IT >> 0x08;
 1151              		.loc 1 756 5
 757:../Peripheral/src/ch32v30x_usart.c ****     itmask = ((uint16_t)0x01 << (uint16_t)bitpos);
 1152              		.loc 1 757 5
 758:../Peripheral/src/ch32v30x_usart.c ****     USARTx->STATR = (uint16_t)~itmask;
 1153              		.loc 1 758 5
 757:../Peripheral/src/ch32v30x_usart.c ****     itmask = ((uint16_t)0x01 << (uint16_t)bitpos);
 1154              		.loc 1 757 33 is_stmt 0
 1155 0000 A181     		srli	a1,a1,8
 1156              	.LVL107:
 757:../Peripheral/src/ch32v30x_usart.c ****     itmask = ((uint16_t)0x01 << (uint16_t)bitpos);
 1157              		.loc 1 757 30
 1158 0002 8547     		li	a5,1
 1159 0004 B397B700 		sll	a5,a5,a1
 1160              		.loc 1 758 21
 1161 0008 93C7F7FF 		not	a5,a5
 1162 000c C207     		slli	a5,a5,16
 1163 000e C183     		srli	a5,a5,16
 1164              		.loc 1 758 19
 1165 0010 1EA1     		sh	a5,0(a0)
 759:../Peripheral/src/ch32v30x_usart.c **** }
 1166              		.loc 1 759 1
 1167 0012 8280     		ret
 1168              		.cfi_endproc
 1169              	.LFE55:
 1171              		.text
 1172              	.Letext0:
 1173              		.file 2 "d:\\software\\mounriver_studio\\toolchain\\risc-v embedded gcc12\\riscv-none-elf\\include
 1174              		.file 3 "d:\\software\\mounriver_studio\\toolchain\\risc-v embedded gcc12\\riscv-none-elf\\include
 1175              		.file 4 "C:\\Users\\localhost\\Documents\\turbomoskal-repo\\qqexpert\\firmware\\MasterController\\
 1176              		.file 5 "C:\\Users\\localhost\\Documents\\turbomoskal-repo\\qqexpert\\firmware\\MasterController\\
 1177              		.file 6 "C:\\Users\\localhost\\Documents\\turbomoskal-repo\\qqexpert\\firmware\\MasterController\\
 1178              		.file 7 "C:\\Users\\localhost\\Documents\\turbomoskal-repo\\qqexpert\\firmware\\MasterController\\
DEFINED SYMBOLS
                            *ABS*:0000000000000000 ch32v30x_usart.c
C:\Users\LOCALH~1\AppData\Local\Temp\ccRUXxV8.s:14     .text.USART_DeInit:0000000000000000 USART_DeInit
C:\Users\LOCALH~1\AppData\Local\Temp\ccRUXxV8.s:18     .text.USART_DeInit:0000000000000000 .L0 
C:\Users\LOCALH~1\AppData\Local\Temp\ccRUXxV8.s:20     .text.USART_DeInit:0000000000000000 $x
C:\Users\LOCALH~1\AppData\Local\Temp\ccRUXxV8.s:20     .text.USART_DeInit:0000000000000000 .L0 
C:\Users\LOCALH~1\AppData\Local\Temp\ccRUXxV8.s:21     .text.USART_DeInit:0000000000000008 .L0 
C:\Users\LOCALH~1\AppData\Local\Temp\ccRUXxV8.s:22     .text.USART_DeInit:0000000000000008 .L0 
C:\Users\LOCALH~1\AppData\Local\Temp\ccRUXxV8.s:24     .text.USART_DeInit:0000000000000008 .L0 
C:\Users\LOCALH~1\AppData\Local\Temp\ccRUXxV8.s:25     .text.USART_DeInit:0000000000000008 .L0 
C:\Users\LOCALH~1\AppData\Local\Temp\ccRUXxV8.s:29     .text.USART_DeInit:0000000000000014 .L0 
C:\Users\LOCALH~1\AppData\Local\Temp\ccRUXxV8.s:35     .text.USART_DeInit:0000000000000020 .L0 
C:\Users\LOCALH~1\AppData\Local\Temp\ccRUXxV8.s:41     .text.USART_DeInit:000000000000002c .L0 
C:\Users\LOCALH~1\AppData\Local\Temp\ccRUXxV8.s:42     .text.USART_DeInit:0000000000000034 .L0 
C:\Users\LOCALH~1\AppData\Local\Temp\ccRUXxV8.s:43     .text.USART_DeInit:0000000000000034 .L0 
C:\Users\LOCALH~1\AppData\Local\Temp\ccRUXxV8.s:44     .text.USART_DeInit:0000000000000034 .L0 
C:\Users\LOCALH~1\AppData\Local\Temp\ccRUXxV8.s:47     .text.USART_DeInit:0000000000000034 .L0 
C:\Users\LOCALH~1\AppData\Local\Temp\ccRUXxV8.s:49     .text.USART_DeInit:0000000000000034 .L0 
C:\Users\LOCALH~1\AppData\Local\Temp\ccRUXxV8.s:50     .text.USART_DeInit:0000000000000034 .L0 
C:\Users\LOCALH~1\AppData\Local\Temp\ccRUXxV8.s:54     .text.USART_DeInit:0000000000000040 .L0 
C:\Users\LOCALH~1\AppData\Local\Temp\ccRUXxV8.s:60     .text.USART_DeInit:000000000000004e .L0 
C:\Users\LOCALH~1\AppData\Local\Temp\ccRUXxV8.s:64     .text.USART_DeInit:0000000000000054 .L0 
C:\Users\LOCALH~1\AppData\Local\Temp\ccRUXxV8.s:67     .text.USART_DeInit:000000000000005c .L0 
C:\Users\LOCALH~1\AppData\Local\Temp\ccRUXxV8.s:71     .text.USART_DeInit:000000000000005e .L0 
C:\Users\LOCALH~1\AppData\Local\Temp\ccRUXxV8.s:72     .text.USART_DeInit:000000000000005e .L0 
C:\Users\LOCALH~1\AppData\Local\Temp\ccRUXxV8.s:76     .text.USART_DeInit:000000000000006a .L0 
C:\Users\LOCALH~1\AppData\Local\Temp\ccRUXxV8.s:82     .text.USART_DeInit:0000000000000078 .L0 
C:\Users\LOCALH~1\AppData\Local\Temp\ccRUXxV8.s:88     .text.USART_DeInit:0000000000000080 .L0 
C:\Users\LOCALH~1\AppData\Local\Temp\ccRUXxV8.s:89     .text.USART_DeInit:0000000000000080 .L0 
C:\Users\LOCALH~1\AppData\Local\Temp\ccRUXxV8.s:92     .text.USART_DeInit:0000000000000088 .L0 
C:\Users\LOCALH~1\AppData\Local\Temp\ccRUXxV8.s:98     .text.USART_DeInit:0000000000000096 .L0 
C:\Users\LOCALH~1\AppData\Local\Temp\ccRUXxV8.s:104    .text.USART_DeInit:000000000000009e .L0 
C:\Users\LOCALH~1\AppData\Local\Temp\ccRUXxV8.s:105    .text.USART_DeInit:000000000000009e .L0 
C:\Users\LOCALH~1\AppData\Local\Temp\ccRUXxV8.s:107    .text.USART_DeInit:00000000000000a2 .L0 
C:\Users\LOCALH~1\AppData\Local\Temp\ccRUXxV8.s:113    .text.USART_DeInit:00000000000000b0 .L0 
C:\Users\LOCALH~1\AppData\Local\Temp\ccRUXxV8.s:119    .text.USART_DeInit:00000000000000b8 .L0 
C:\Users\LOCALH~1\AppData\Local\Temp\ccRUXxV8.s:120    .text.USART_DeInit:00000000000000b8 .L0 
C:\Users\LOCALH~1\AppData\Local\Temp\ccRUXxV8.s:124    .text.USART_DeInit:00000000000000c4 .L0 
C:\Users\LOCALH~1\AppData\Local\Temp\ccRUXxV8.s:130    .text.USART_DeInit:00000000000000d2 .L0 
C:\Users\LOCALH~1\AppData\Local\Temp\ccRUXxV8.s:136    .text.USART_DeInit:00000000000000da .L0 
C:\Users\LOCALH~1\AppData\Local\Temp\ccRUXxV8.s:137    .text.USART_DeInit:00000000000000da .L0 
C:\Users\LOCALH~1\AppData\Local\Temp\ccRUXxV8.s:140    .text.USART_DeInit:00000000000000e2 .L0 
C:\Users\LOCALH~1\AppData\Local\Temp\ccRUXxV8.s:146    .text.USART_DeInit:00000000000000f0 .L0 
C:\Users\LOCALH~1\AppData\Local\Temp\ccRUXxV8.s:152    .text.USART_DeInit:00000000000000f8 .L0 
C:\Users\LOCALH~1\AppData\Local\Temp\ccRUXxV8.s:153    .text.USART_DeInit:00000000000000f8 .L0 
C:\Users\LOCALH~1\AppData\Local\Temp\ccRUXxV8.s:155    .text.USART_DeInit:00000000000000fc .L0 
C:\Users\LOCALH~1\AppData\Local\Temp\ccRUXxV8.s:161    .text.USART_DeInit:000000000000010a .L0 
C:\Users\LOCALH~1\AppData\Local\Temp\ccRUXxV8.s:164    .text.USART_DeInit:0000000000000112 .L0 
C:\Users\LOCALH~1\AppData\Local\Temp\ccRUXxV8.s:171    .text.USART_Init:0000000000000000 USART_Init
C:\Users\LOCALH~1\AppData\Local\Temp\ccRUXxV8.s:174    .text.USART_Init:0000000000000000 .L0 
C:\Users\LOCALH~1\AppData\Local\Temp\ccRUXxV8.s:176    .text.USART_Init:0000000000000000 $x
C:\Users\LOCALH~1\AppData\Local\Temp\ccRUXxV8.s:176    .text.USART_Init:0000000000000000 .L0 
C:\Users\LOCALH~1\AppData\Local\Temp\ccRUXxV8.s:177    .text.USART_Init:0000000000000008 .L0 
C:\Users\LOCALH~1\AppData\Local\Temp\ccRUXxV8.s:178    .text.USART_Init:0000000000000008 .L0 
C:\Users\LOCALH~1\AppData\Local\Temp\ccRUXxV8.s:179    .text.USART_Init:0000000000000008 .L0 
C:\Users\LOCALH~1\AppData\Local\Temp\ccRUXxV8.s:180    .text.USART_Init:0000000000000008 .L0 
C:\Users\LOCALH~1\AppData\Local\Temp\ccRUXxV8.s:183    .text.USART_Init:0000000000000008 .L0 
C:\Users\LOCALH~1\AppData\Local\Temp\ccRUXxV8.s:184    .text.USART_Init:0000000000000008 .L0 
C:\Users\LOCALH~1\AppData\Local\Temp\ccRUXxV8.s:185    .text.USART_Init:0000000000000008 .L0 
C:\Users\LOCALH~1\AppData\Local\Temp\ccRUXxV8.s:186    .text.USART_Init:0000000000000008 .L0 
C:\Users\LOCALH~1\AppData\Local\Temp\ccRUXxV8.s:187    .text.USART_Init:0000000000000008 .L0 
C:\Users\LOCALH~1\AppData\Local\Temp\ccRUXxV8.s:188    .text.USART_Init:0000000000000008 .L0 
C:\Users\LOCALH~1\AppData\Local\Temp\ccRUXxV8.s:189    .text.USART_Init:0000000000000008 .L0 
C:\Users\LOCALH~1\AppData\Local\Temp\ccRUXxV8.s:195    .text.USART_Init:0000000000000012 .L0 
C:\Users\LOCALH~1\AppData\Local\Temp\ccRUXxV8.s:197    .text.USART_Init:0000000000000014 .L0 
C:\Users\LOCALH~1\AppData\Local\Temp\ccRUXxV8.s:199    .text.USART_Init:0000000000000014 .L0 
C:\Users\LOCALH~1\AppData\Local\Temp\ccRUXxV8.s:200    .text.USART_Init:0000000000000014 .L0 
C:\Users\LOCALH~1\AppData\Local\Temp\ccRUXxV8.s:201    .text.USART_Init:0000000000000014 .L0 
C:\Users\LOCALH~1\AppData\Local\Temp\ccRUXxV8.s:202    .text.USART_Init:0000000000000014 .L0 
C:\Users\LOCALH~1\AppData\Local\Temp\ccRUXxV8.s:203    .text.USART_Init:0000000000000014 .L0 
C:\Users\LOCALH~1\AppData\Local\Temp\ccRUXxV8.s:204    .text.USART_Init:0000000000000016 .L0 
C:\Users\LOCALH~1\AppData\Local\Temp\ccRUXxV8.s:208    .text.USART_Init:0000000000000018 .L0 
C:\Users\LOCALH~1\AppData\Local\Temp\ccRUXxV8.s:209    .text.USART_Init:0000000000000018 .L0 
C:\Users\LOCALH~1\AppData\Local\Temp\ccRUXxV8.s:211    .text.USART_Init:000000000000001a .L0 
C:\Users\LOCALH~1\AppData\Local\Temp\ccRUXxV8.s:212    .text.USART_Init:000000000000001a .L0 
C:\Users\LOCALH~1\AppData\Local\Temp\ccRUXxV8.s:215    .text.USART_Init:000000000000001c .L0 
C:\Users\LOCALH~1\AppData\Local\Temp\ccRUXxV8.s:216    .text.USART_Init:000000000000001c .L0 
C:\Users\LOCALH~1\AppData\Local\Temp\ccRUXxV8.s:222    .text.USART_Init:0000000000000026 .L0 
C:\Users\LOCALH~1\AppData\Local\Temp\ccRUXxV8.s:231    .text.USART_Init:0000000000000034 .L0 
C:\Users\LOCALH~1\AppData\Local\Temp\ccRUXxV8.s:232    .text.USART_Init:0000000000000034 .L0 
C:\Users\LOCALH~1\AppData\Local\Temp\ccRUXxV8.s:234    .text.USART_Init:0000000000000036 .L0 
C:\Users\LOCALH~1\AppData\Local\Temp\ccRUXxV8.s:235    .text.USART_Init:0000000000000036 .L0 
C:\Users\LOCALH~1\AppData\Local\Temp\ccRUXxV8.s:241    .text.USART_Init:000000000000003c .L0 
C:\Users\LOCALH~1\AppData\Local\Temp\ccRUXxV8.s:242    .text.USART_Init:000000000000003c .L0 
C:\Users\LOCALH~1\AppData\Local\Temp\ccRUXxV8.s:247    .text.USART_Init:0000000000000042 .L0 
C:\Users\LOCALH~1\AppData\Local\Temp\ccRUXxV8.s:248    .text.USART_Init:0000000000000042 .L0 
C:\Users\LOCALH~1\AppData\Local\Temp\ccRUXxV8.s:250    .text.USART_Init:0000000000000044 .L0 
C:\Users\LOCALH~1\AppData\Local\Temp\ccRUXxV8.s:255    .text.USART_Init:000000000000004e .L0 
C:\Users\LOCALH~1\AppData\Local\Temp\ccRUXxV8.s:256    .text.USART_Init:000000000000004e .L0 
C:\Users\LOCALH~1\AppData\Local\Temp\ccRUXxV8.s:260    .text.USART_Init:000000000000005a .L0 
C:\Users\LOCALH~1\AppData\Local\Temp\ccRUXxV8.s:261    .text.USART_Init:000000000000005a .L0 
C:\Users\LOCALH~1\AppData\Local\Temp\ccRUXxV8.s:265    .text.USART_Init:000000000000005c .L0 
C:\Users\LOCALH~1\AppData\Local\Temp\ccRUXxV8.s:266    .text.USART_Init:000000000000005c .L0 
C:\Users\LOCALH~1\AppData\Local\Temp\ccRUXxV8.s:270    .text.USART_Init:0000000000000062 .L0 
C:\Users\LOCALH~1\AppData\Local\Temp\ccRUXxV8.s:272    .text.USART_Init:0000000000000064 .L0 
C:\Users\LOCALH~1\AppData\Local\Temp\ccRUXxV8.s:274    .text.USART_Init:0000000000000068 .L0 
C:\Users\LOCALH~1\AppData\Local\Temp\ccRUXxV8.s:276    .text.USART_Init:000000000000006a .L0 
C:\Users\LOCALH~1\AppData\Local\Temp\ccRUXxV8.s:279    .text.USART_Init:000000000000006e .L0 
C:\Users\LOCALH~1\AppData\Local\Temp\ccRUXxV8.s:280    .text.USART_Init:000000000000006e .L0 
C:\Users\LOCALH~1\AppData\Local\Temp\ccRUXxV8.s:282    .text.USART_Init:0000000000000072 .L0 
C:\Users\LOCALH~1\AppData\Local\Temp\ccRUXxV8.s:285    .text.USART_Init:0000000000000076 .L0 
C:\Users\LOCALH~1\AppData\Local\Temp\ccRUXxV8.s:288    .text.USART_Init:0000000000000078 .L0 
C:\Users\LOCALH~1\AppData\Local\Temp\ccRUXxV8.s:289    .text.USART_Init:0000000000000078 .L0 
C:\Users\LOCALH~1\AppData\Local\Temp\ccRUXxV8.s:290    .text.USART_Init:0000000000000078 .L0 
C:\Users\LOCALH~1\AppData\Local\Temp\ccRUXxV8.s:291    .text.USART_Init:0000000000000078 .L0 
C:\Users\LOCALH~1\AppData\Local\Temp\ccRUXxV8.s:293    .text.USART_Init:000000000000007a .L0 
C:\Users\LOCALH~1\AppData\Local\Temp\ccRUXxV8.s:295    .text.USART_Init:000000000000007e .L0 
C:\Users\LOCALH~1\AppData\Local\Temp\ccRUXxV8.s:297    .text.USART_Init:0000000000000082 .L0 
C:\Users\LOCALH~1\AppData\Local\Temp\ccRUXxV8.s:299    .text.USART_Init:0000000000000084 .L0 
C:\Users\LOCALH~1\AppData\Local\Temp\ccRUXxV8.s:301    .text.USART_Init:0000000000000086 .L0 
C:\Users\LOCALH~1\AppData\Local\Temp\ccRUXxV8.s:304    .text.USART_Init:000000000000008a .L0 
C:\Users\LOCALH~1\AppData\Local\Temp\ccRUXxV8.s:306    .text.USART_Init:000000000000008c .L0 
C:\Users\LOCALH~1\AppData\Local\Temp\ccRUXxV8.s:307    .text.USART_Init:000000000000008e .L0 
C:\Users\LOCALH~1\AppData\Local\Temp\ccRUXxV8.s:308    .text.USART_Init:000000000000008e .L0 
C:\Users\LOCALH~1\AppData\Local\Temp\ccRUXxV8.s:310    .text.USART_Init:0000000000000096 .L0 
C:\Users\LOCALH~1\AppData\Local\Temp\ccRUXxV8.s:311    .text.USART_Init:0000000000000096 .L0 
C:\Users\LOCALH~1\AppData\Local\Temp\ccRUXxV8.s:312    .text.USART_Init:0000000000000096 .L0 
C:\Users\LOCALH~1\AppData\Local\Temp\ccRUXxV8.s:313    .text.USART_Init:0000000000000096 .L0 
C:\Users\LOCALH~1\AppData\Local\Temp\ccRUXxV8.s:316    .text.USART_Init:0000000000000096 .L0 
C:\Users\LOCALH~1\AppData\Local\Temp\ccRUXxV8.s:318    .text.USART_Init:0000000000000096 .L0 
C:\Users\LOCALH~1\AppData\Local\Temp\ccRUXxV8.s:319    .text.USART_Init:0000000000000096 .L0 
C:\Users\LOCALH~1\AppData\Local\Temp\ccRUXxV8.s:322    .text.USART_Init:000000000000009a .L0 
C:\Users\LOCALH~1\AppData\Local\Temp\ccRUXxV8.s:329    .text.USART_StructInit:0000000000000000 USART_StructInit
C:\Users\LOCALH~1\AppData\Local\Temp\ccRUXxV8.s:332    .text.USART_StructInit:0000000000000000 .L0 
C:\Users\LOCALH~1\AppData\Local\Temp\ccRUXxV8.s:334    .text.USART_StructInit:0000000000000000 .L0 
C:\Users\LOCALH~1\AppData\Local\Temp\ccRUXxV8.s:335    .text.USART_StructInit:0000000000000000 .L0 
C:\Users\LOCALH~1\AppData\Local\Temp\ccRUXxV8.s:336    .text.USART_StructInit:0000000000000000 .L0 
C:\Users\LOCALH~1\AppData\Local\Temp\ccRUXxV8.s:337    .text.USART_StructInit:0000000000000000 .L0 
C:\Users\LOCALH~1\AppData\Local\Temp\ccRUXxV8.s:338    .text.USART_StructInit:0000000000000000 .L0 
C:\Users\LOCALH~1\AppData\Local\Temp\ccRUXxV8.s:339    .text.USART_StructInit:0000000000000000 .L0 
C:\Users\LOCALH~1\AppData\Local\Temp\ccRUXxV8.s:340    .text.USART_StructInit:0000000000000000 .L0 
C:\Users\LOCALH~1\AppData\Local\Temp\ccRUXxV8.s:341    .text.USART_StructInit:0000000000000000 $x
C:\Users\LOCALH~1\AppData\Local\Temp\ccRUXxV8.s:341    .text.USART_StructInit:0000000000000000 .L0 
C:\Users\LOCALH~1\AppData\Local\Temp\ccRUXxV8.s:345    .text.USART_StructInit:0000000000000008 .L0 
C:\Users\LOCALH~1\AppData\Local\Temp\ccRUXxV8.s:347    .text.USART_StructInit:000000000000000c .L0 
C:\Users\LOCALH~1\AppData\Local\Temp\ccRUXxV8.s:349    .text.USART_StructInit:0000000000000010 .L0 
C:\Users\LOCALH~1\AppData\Local\Temp\ccRUXxV8.s:351    .text.USART_StructInit:0000000000000012 .L0 
C:\Users\LOCALH~1\AppData\Local\Temp\ccRUXxV8.s:353    .text.USART_StructInit:0000000000000016 .L0 
C:\Users\LOCALH~1\AppData\Local\Temp\ccRUXxV8.s:354    .text.USART_StructInit:0000000000000018 .L0 
C:\Users\LOCALH~1\AppData\Local\Temp\ccRUXxV8.s:361    .text.USART_ClockInit:0000000000000000 USART_ClockInit
C:\Users\LOCALH~1\AppData\Local\Temp\ccRUXxV8.s:364    .text.USART_ClockInit:0000000000000000 .L0 
C:\Users\LOCALH~1\AppData\Local\Temp\ccRUXxV8.s:366    .text.USART_ClockInit:0000000000000000 .L0 
C:\Users\LOCALH~1\AppData\Local\Temp\ccRUXxV8.s:367    .text.USART_ClockInit:0000000000000000 .L0 
C:\Users\LOCALH~1\AppData\Local\Temp\ccRUXxV8.s:368    .text.USART_ClockInit:0000000000000000 .L0 
C:\Users\LOCALH~1\AppData\Local\Temp\ccRUXxV8.s:369    .text.USART_ClockInit:0000000000000000 $x
C:\Users\LOCALH~1\AppData\Local\Temp\ccRUXxV8.s:369    .text.USART_ClockInit:0000000000000000 .L0 
C:\Users\LOCALH~1\AppData\Local\Temp\ccRUXxV8.s:372    .text.USART_ClockInit:0000000000000004 .L0 
C:\Users\LOCALH~1\AppData\Local\Temp\ccRUXxV8.s:375    .text.USART_ClockInit:0000000000000006 .L0 
C:\Users\LOCALH~1\AppData\Local\Temp\ccRUXxV8.s:376    .text.USART_ClockInit:0000000000000006 .L0 
C:\Users\LOCALH~1\AppData\Local\Temp\ccRUXxV8.s:377    .text.USART_ClockInit:0000000000000006 .L0 
C:\Users\LOCALH~1\AppData\Local\Temp\ccRUXxV8.s:389    .text.USART_ClockInit:000000000000001a .L0 
C:\Users\LOCALH~1\AppData\Local\Temp\ccRUXxV8.s:390    .text.USART_ClockInit:000000000000001a .L0 
C:\Users\LOCALH~1\AppData\Local\Temp\ccRUXxV8.s:392    .text.USART_ClockInit:000000000000001c .L0 
C:\Users\LOCALH~1\AppData\Local\Temp\ccRUXxV8.s:393    .text.USART_ClockInit:000000000000001e .L0 
C:\Users\LOCALH~1\AppData\Local\Temp\ccRUXxV8.s:400    .text.USART_ClockStructInit:0000000000000000 USART_ClockStructInit
C:\Users\LOCALH~1\AppData\Local\Temp\ccRUXxV8.s:403    .text.USART_ClockStructInit:0000000000000000 .L0 
C:\Users\LOCALH~1\AppData\Local\Temp\ccRUXxV8.s:405    .text.USART_ClockStructInit:0000000000000000 .L0 
C:\Users\LOCALH~1\AppData\Local\Temp\ccRUXxV8.s:406    .text.USART_ClockStructInit:0000000000000000 .L0 
C:\Users\LOCALH~1\AppData\Local\Temp\ccRUXxV8.s:407    .text.USART_ClockStructInit:0000000000000000 $x
C:\Users\LOCALH~1\AppData\Local\Temp\ccRUXxV8.s:407    .text.USART_ClockStructInit:0000000000000000 .L0 
C:\Users\LOCALH~1\AppData\Local\Temp\ccRUXxV8.s:409    .text.USART_ClockStructInit:0000000000000004 .L0 
C:\Users\LOCALH~1\AppData\Local\Temp\ccRUXxV8.s:410    .text.USART_ClockStructInit:0000000000000004 .L0 
C:\Users\LOCALH~1\AppData\Local\Temp\ccRUXxV8.s:412    .text.USART_ClockStructInit:0000000000000008 .L0 
C:\Users\LOCALH~1\AppData\Local\Temp\ccRUXxV8.s:413    .text.USART_ClockStructInit:0000000000000008 .L0 
C:\Users\LOCALH~1\AppData\Local\Temp\ccRUXxV8.s:415    .text.USART_ClockStructInit:000000000000000c .L0 
C:\Users\LOCALH~1\AppData\Local\Temp\ccRUXxV8.s:416    .text.USART_ClockStructInit:000000000000000c .L0 
C:\Users\LOCALH~1\AppData\Local\Temp\ccRUXxV8.s:418    .text.USART_ClockStructInit:0000000000000010 .L0 
C:\Users\LOCALH~1\AppData\Local\Temp\ccRUXxV8.s:419    .text.USART_ClockStructInit:0000000000000012 .L0 
C:\Users\LOCALH~1\AppData\Local\Temp\ccRUXxV8.s:426    .text.USART_Cmd:0000000000000000 USART_Cmd
C:\Users\LOCALH~1\AppData\Local\Temp\ccRUXxV8.s:429    .text.USART_Cmd:0000000000000000 .L0 
C:\Users\LOCALH~1\AppData\Local\Temp\ccRUXxV8.s:431    .text.USART_Cmd:0000000000000000 .L0 
C:\Users\LOCALH~1\AppData\Local\Temp\ccRUXxV8.s:432    .text.USART_Cmd:0000000000000000 .L0 
C:\Users\LOCALH~1\AppData\Local\Temp\ccRUXxV8.s:433    .text.USART_Cmd:0000000000000000 $x
C:\Users\LOCALH~1\AppData\Local\Temp\ccRUXxV8.s:433    .text.USART_Cmd:0000000000000000 .L0 
C:\Users\LOCALH~1\AppData\Local\Temp\ccRUXxV8.s:435    .text.USART_Cmd:0000000000000002 .L0 
C:\Users\LOCALH~1\AppData\Local\Temp\ccRUXxV8.s:437    .text.USART_Cmd:0000000000000004 .L0 
C:\Users\LOCALH~1\AppData\Local\Temp\ccRUXxV8.s:438    .text.USART_Cmd:0000000000000004 .L0 
C:\Users\LOCALH~1\AppData\Local\Temp\ccRUXxV8.s:442    .text.USART_Cmd:0000000000000008 .L0 
C:\Users\LOCALH~1\AppData\Local\Temp\ccRUXxV8.s:444    .text.USART_Cmd:000000000000000a .L0 
C:\Users\LOCALH~1\AppData\Local\Temp\ccRUXxV8.s:447    .text.USART_Cmd:000000000000000c .L0 
C:\Users\LOCALH~1\AppData\Local\Temp\ccRUXxV8.s:448    .text.USART_Cmd:000000000000000c .L0 
C:\Users\LOCALH~1\AppData\Local\Temp\ccRUXxV8.s:452    .text.USART_Cmd:0000000000000014 .L0 
C:\Users\LOCALH~1\AppData\Local\Temp\ccRUXxV8.s:459    .text.USART_ITConfig:0000000000000000 USART_ITConfig
C:\Users\LOCALH~1\AppData\Local\Temp\ccRUXxV8.s:462    .text.USART_ITConfig:0000000000000000 .L0 
C:\Users\LOCALH~1\AppData\Local\Temp\ccRUXxV8.s:464    .text.USART_ITConfig:0000000000000000 .L0 
C:\Users\LOCALH~1\AppData\Local\Temp\ccRUXxV8.s:465    .text.USART_ITConfig:0000000000000000 .L0 
C:\Users\LOCALH~1\AppData\Local\Temp\ccRUXxV8.s:466    .text.USART_ITConfig:0000000000000000 .L0 
C:\Users\LOCALH~1\AppData\Local\Temp\ccRUXxV8.s:467    .text.USART_ITConfig:0000000000000000 .L0 
C:\Users\LOCALH~1\AppData\Local\Temp\ccRUXxV8.s:468    .text.USART_ITConfig:0000000000000000 .L0 
C:\Users\LOCALH~1\AppData\Local\Temp\ccRUXxV8.s:469    .text.USART_ITConfig:0000000000000000 $x
C:\Users\LOCALH~1\AppData\Local\Temp\ccRUXxV8.s:469    .text.USART_ITConfig:0000000000000000 .L0 
C:\Users\LOCALH~1\AppData\Local\Temp\ccRUXxV8.s:471    .text.USART_ITConfig:0000000000000004 .L0 
C:\Users\LOCALH~1\AppData\Local\Temp\ccRUXxV8.s:473    .text.USART_ITConfig:0000000000000006 .L0 
C:\Users\LOCALH~1\AppData\Local\Temp\ccRUXxV8.s:476    .text.USART_ITConfig:0000000000000008 .L0 
C:\Users\LOCALH~1\AppData\Local\Temp\ccRUXxV8.s:477    .text.USART_ITConfig:0000000000000008 .L0 
C:\Users\LOCALH~1\AppData\Local\Temp\ccRUXxV8.s:478    .text.USART_ITConfig:0000000000000008 .L0 
C:\Users\LOCALH~1\AppData\Local\Temp\ccRUXxV8.s:481    .text.USART_ITConfig:000000000000000c .L0 
C:\Users\LOCALH~1\AppData\Local\Temp\ccRUXxV8.s:482    .text.USART_ITConfig:000000000000000c .L0 
C:\Users\LOCALH~1\AppData\Local\Temp\ccRUXxV8.s:484    .text.USART_ITConfig:0000000000000010 .L0 
C:\Users\LOCALH~1\AppData\Local\Temp\ccRUXxV8.s:485    .text.USART_ITConfig:0000000000000010 .L0 
C:\Users\LOCALH~1\AppData\Local\Temp\ccRUXxV8.s:489    .text.USART_ITConfig:0000000000000014 .L0 
C:\Users\LOCALH~1\AppData\Local\Temp\ccRUXxV8.s:490    .text.USART_ITConfig:0000000000000014 .L0 
C:\Users\LOCALH~1\AppData\Local\Temp\ccRUXxV8.s:493    .text.USART_ITConfig:0000000000000016 .L0 
C:\Users\LOCALH~1\AppData\Local\Temp\ccRUXxV8.s:495    .text.USART_ITConfig:0000000000000018 .L0 
C:\Users\LOCALH~1\AppData\Local\Temp\ccRUXxV8.s:496    .text.USART_ITConfig:0000000000000018 .L0 
C:\Users\LOCALH~1\AppData\Local\Temp\ccRUXxV8.s:502    .text.USART_ITConfig:000000000000001e .L0 
C:\Users\LOCALH~1\AppData\Local\Temp\ccRUXxV8.s:503    .text.USART_ITConfig:000000000000001e .L0 
C:\Users\LOCALH~1\AppData\Local\Temp\ccRUXxV8.s:505    .text.USART_ITConfig:0000000000000020 .L0 
C:\Users\LOCALH~1\AppData\Local\Temp\ccRUXxV8.s:507    .text.USART_ITConfig:0000000000000024 .L0 
C:\Users\LOCALH~1\AppData\Local\Temp\ccRUXxV8.s:509    .text.USART_ITConfig:0000000000000028 .L0 
C:\Users\LOCALH~1\AppData\Local\Temp\ccRUXxV8.s:510    .text.USART_ITConfig:0000000000000028 .L0 
C:\Users\LOCALH~1\AppData\Local\Temp\ccRUXxV8.s:516    .text.USART_ITConfig:000000000000002e .L0 
C:\Users\LOCALH~1\AppData\Local\Temp\ccRUXxV8.s:517    .text.USART_ITConfig:000000000000002e .L0 
C:\Users\LOCALH~1\AppData\Local\Temp\ccRUXxV8.s:520    .text.USART_ITConfig:0000000000000032 .L0 
C:\Users\LOCALH~1\AppData\Local\Temp\ccRUXxV8.s:524    .text.USART_ITConfig:0000000000000036 .L0 
C:\Users\LOCALH~1\AppData\Local\Temp\ccRUXxV8.s:525    .text.USART_ITConfig:0000000000000038 .L0 
C:\Users\LOCALH~1\AppData\Local\Temp\ccRUXxV8.s:532    .text.USART_DMACmd:0000000000000000 USART_DMACmd
C:\Users\LOCALH~1\AppData\Local\Temp\ccRUXxV8.s:535    .text.USART_DMACmd:0000000000000000 .L0 
C:\Users\LOCALH~1\AppData\Local\Temp\ccRUXxV8.s:537    .text.USART_DMACmd:0000000000000000 .L0 
C:\Users\LOCALH~1\AppData\Local\Temp\ccRUXxV8.s:538    .text.USART_DMACmd:0000000000000000 .L0 
C:\Users\LOCALH~1\AppData\Local\Temp\ccRUXxV8.s:539    .text.USART_DMACmd:0000000000000000 $x
C:\Users\LOCALH~1\AppData\Local\Temp\ccRUXxV8.s:539    .text.USART_DMACmd:0000000000000000 .L0 
C:\Users\LOCALH~1\AppData\Local\Temp\ccRUXxV8.s:541    .text.USART_DMACmd:0000000000000002 .L0 
C:\Users\LOCALH~1\AppData\Local\Temp\ccRUXxV8.s:543    .text.USART_DMACmd:0000000000000004 .L0 
C:\Users\LOCALH~1\AppData\Local\Temp\ccRUXxV8.s:544    .text.USART_DMACmd:0000000000000004 .L0 
C:\Users\LOCALH~1\AppData\Local\Temp\ccRUXxV8.s:548    .text.USART_DMACmd:0000000000000006 .L0 
C:\Users\LOCALH~1\AppData\Local\Temp\ccRUXxV8.s:550    .text.USART_DMACmd:0000000000000008 .L0 
C:\Users\LOCALH~1\AppData\Local\Temp\ccRUXxV8.s:554    .text.USART_DMACmd:000000000000000a .L0 
C:\Users\LOCALH~1\AppData\Local\Temp\ccRUXxV8.s:555    .text.USART_DMACmd:000000000000000a .L0 
C:\Users\LOCALH~1\AppData\Local\Temp\ccRUXxV8.s:558    .text.USART_DMACmd:000000000000000e .L0 
C:\Users\LOCALH~1\AppData\Local\Temp\ccRUXxV8.s:560    .text.USART_DMACmd:0000000000000012 .L0 
C:\Users\LOCALH~1\AppData\Local\Temp\ccRUXxV8.s:567    .text.USART_SetAddress:0000000000000000 USART_SetAddress
C:\Users\LOCALH~1\AppData\Local\Temp\ccRUXxV8.s:570    .text.USART_SetAddress:0000000000000000 .L0 
C:\Users\LOCALH~1\AppData\Local\Temp\ccRUXxV8.s:572    .text.USART_SetAddress:0000000000000000 .L0 
C:\Users\LOCALH~1\AppData\Local\Temp\ccRUXxV8.s:573    .text.USART_SetAddress:0000000000000000 .L0 
C:\Users\LOCALH~1\AppData\Local\Temp\ccRUXxV8.s:574    .text.USART_SetAddress:0000000000000000 $x
C:\Users\LOCALH~1\AppData\Local\Temp\ccRUXxV8.s:574    .text.USART_SetAddress:0000000000000000 .L0 
C:\Users\LOCALH~1\AppData\Local\Temp\ccRUXxV8.s:578    .text.USART_SetAddress:0000000000000006 .L0 
C:\Users\LOCALH~1\AppData\Local\Temp\ccRUXxV8.s:583    .text.USART_SetAddress:000000000000000e .L0 
C:\Users\LOCALH~1\AppData\Local\Temp\ccRUXxV8.s:584    .text.USART_SetAddress:000000000000000e .L0 
C:\Users\LOCALH~1\AppData\Local\Temp\ccRUXxV8.s:586    .text.USART_SetAddress:0000000000000010 .L0 
C:\Users\LOCALH~1\AppData\Local\Temp\ccRUXxV8.s:590    .text.USART_SetAddress:0000000000000014 .L0 
C:\Users\LOCALH~1\AppData\Local\Temp\ccRUXxV8.s:591    .text.USART_SetAddress:0000000000000016 .L0 
C:\Users\LOCALH~1\AppData\Local\Temp\ccRUXxV8.s:598    .text.USART_WakeUpConfig:0000000000000000 USART_WakeUpConfig
C:\Users\LOCALH~1\AppData\Local\Temp\ccRUXxV8.s:601    .text.USART_WakeUpConfig:0000000000000000 .L0 
C:\Users\LOCALH~1\AppData\Local\Temp\ccRUXxV8.s:603    .text.USART_WakeUpConfig:0000000000000000 .L0 
C:\Users\LOCALH~1\AppData\Local\Temp\ccRUXxV8.s:604    .text.USART_WakeUpConfig:0000000000000000 .L0 
C:\Users\LOCALH~1\AppData\Local\Temp\ccRUXxV8.s:605    .text.USART_WakeUpConfig:0000000000000000 $x
C:\Users\LOCALH~1\AppData\Local\Temp\ccRUXxV8.s:605    .text.USART_WakeUpConfig:0000000000000000 .L0 
C:\Users\LOCALH~1\AppData\Local\Temp\ccRUXxV8.s:607    .text.USART_WakeUpConfig:0000000000000002 .L0 
C:\Users\LOCALH~1\AppData\Local\Temp\ccRUXxV8.s:612    .text.USART_WakeUpConfig:000000000000000c .L0 
C:\Users\LOCALH~1\AppData\Local\Temp\ccRUXxV8.s:613    .text.USART_WakeUpConfig:000000000000000c .L0 
C:\Users\LOCALH~1\AppData\Local\Temp\ccRUXxV8.s:615    .text.USART_WakeUpConfig:000000000000000e .L0 
C:\Users\LOCALH~1\AppData\Local\Temp\ccRUXxV8.s:618    .text.USART_WakeUpConfig:0000000000000012 .L0 
C:\Users\LOCALH~1\AppData\Local\Temp\ccRUXxV8.s:619    .text.USART_WakeUpConfig:0000000000000014 .L0 
C:\Users\LOCALH~1\AppData\Local\Temp\ccRUXxV8.s:626    .text.USART_ReceiverWakeUpCmd:0000000000000000 USART_ReceiverWakeUpCmd
C:\Users\LOCALH~1\AppData\Local\Temp\ccRUXxV8.s:629    .text.USART_ReceiverWakeUpCmd:0000000000000000 .L0 
C:\Users\LOCALH~1\AppData\Local\Temp\ccRUXxV8.s:631    .text.USART_ReceiverWakeUpCmd:0000000000000000 .L0 
C:\Users\LOCALH~1\AppData\Local\Temp\ccRUXxV8.s:632    .text.USART_ReceiverWakeUpCmd:0000000000000000 .L0 
C:\Users\LOCALH~1\AppData\Local\Temp\ccRUXxV8.s:633    .text.USART_ReceiverWakeUpCmd:0000000000000000 $x
C:\Users\LOCALH~1\AppData\Local\Temp\ccRUXxV8.s:633    .text.USART_ReceiverWakeUpCmd:0000000000000000 .L0 
C:\Users\LOCALH~1\AppData\Local\Temp\ccRUXxV8.s:635    .text.USART_ReceiverWakeUpCmd:0000000000000002 .L0 
C:\Users\LOCALH~1\AppData\Local\Temp\ccRUXxV8.s:637    .text.USART_ReceiverWakeUpCmd:0000000000000004 .L0 
C:\Users\LOCALH~1\AppData\Local\Temp\ccRUXxV8.s:638    .text.USART_ReceiverWakeUpCmd:0000000000000004 .L0 
C:\Users\LOCALH~1\AppData\Local\Temp\ccRUXxV8.s:641    .text.USART_ReceiverWakeUpCmd:0000000000000008 .L0 
C:\Users\LOCALH~1\AppData\Local\Temp\ccRUXxV8.s:643    .text.USART_ReceiverWakeUpCmd:000000000000000a .L0 
C:\Users\LOCALH~1\AppData\Local\Temp\ccRUXxV8.s:646    .text.USART_ReceiverWakeUpCmd:000000000000000c .L0 
C:\Users\LOCALH~1\AppData\Local\Temp\ccRUXxV8.s:647    .text.USART_ReceiverWakeUpCmd:000000000000000c .L0 
C:\Users\LOCALH~1\AppData\Local\Temp\ccRUXxV8.s:650    .text.USART_ReceiverWakeUpCmd:0000000000000010 .L0 
C:\Users\LOCALH~1\AppData\Local\Temp\ccRUXxV8.s:654    .text.USART_ReceiverWakeUpCmd:0000000000000018 .L0 
C:\Users\LOCALH~1\AppData\Local\Temp\ccRUXxV8.s:661    .text.USART_LINBreakDetectLengthConfig:0000000000000000 USART_LINBreakDetectLengthConfig
C:\Users\LOCALH~1\AppData\Local\Temp\ccRUXxV8.s:664    .text.USART_LINBreakDetectLengthConfig:0000000000000000 .L0 
C:\Users\LOCALH~1\AppData\Local\Temp\ccRUXxV8.s:666    .text.USART_LINBreakDetectLengthConfig:0000000000000000 .L0 
C:\Users\LOCALH~1\AppData\Local\Temp\ccRUXxV8.s:667    .text.USART_LINBreakDetectLengthConfig:0000000000000000 .L0 
C:\Users\LOCALH~1\AppData\Local\Temp\ccRUXxV8.s:668    .text.USART_LINBreakDetectLengthConfig:0000000000000000 $x
C:\Users\LOCALH~1\AppData\Local\Temp\ccRUXxV8.s:668    .text.USART_LINBreakDetectLengthConfig:0000000000000000 .L0 
C:\Users\LOCALH~1\AppData\Local\Temp\ccRUXxV8.s:672    .text.USART_LINBreakDetectLengthConfig:0000000000000006 .L0 
C:\Users\LOCALH~1\AppData\Local\Temp\ccRUXxV8.s:677    .text.USART_LINBreakDetectLengthConfig:0000000000000010 .L0 
C:\Users\LOCALH~1\AppData\Local\Temp\ccRUXxV8.s:678    .text.USART_LINBreakDetectLengthConfig:0000000000000010 .L0 
C:\Users\LOCALH~1\AppData\Local\Temp\ccRUXxV8.s:680    .text.USART_LINBreakDetectLengthConfig:0000000000000012 .L0 
C:\Users\LOCALH~1\AppData\Local\Temp\ccRUXxV8.s:683    .text.USART_LINBreakDetectLengthConfig:0000000000000016 .L0 
C:\Users\LOCALH~1\AppData\Local\Temp\ccRUXxV8.s:684    .text.USART_LINBreakDetectLengthConfig:0000000000000018 .L0 
C:\Users\LOCALH~1\AppData\Local\Temp\ccRUXxV8.s:691    .text.USART_LINCmd:0000000000000000 USART_LINCmd
C:\Users\LOCALH~1\AppData\Local\Temp\ccRUXxV8.s:694    .text.USART_LINCmd:0000000000000000 .L0 
C:\Users\LOCALH~1\AppData\Local\Temp\ccRUXxV8.s:696    .text.USART_LINCmd:0000000000000000 .L0 
C:\Users\LOCALH~1\AppData\Local\Temp\ccRUXxV8.s:697    .text.USART_LINCmd:0000000000000000 .L0 
C:\Users\LOCALH~1\AppData\Local\Temp\ccRUXxV8.s:698    .text.USART_LINCmd:0000000000000000 $x
C:\Users\LOCALH~1\AppData\Local\Temp\ccRUXxV8.s:698    .text.USART_LINCmd:0000000000000000 .L0 
C:\Users\LOCALH~1\AppData\Local\Temp\ccRUXxV8.s:700    .text.USART_LINCmd:0000000000000002 .L0 
C:\Users\LOCALH~1\AppData\Local\Temp\ccRUXxV8.s:702    .text.USART_LINCmd:0000000000000004 .L0 
C:\Users\LOCALH~1\AppData\Local\Temp\ccRUXxV8.s:703    .text.USART_LINCmd:0000000000000004 .L0 
C:\Users\LOCALH~1\AppData\Local\Temp\ccRUXxV8.s:707    .text.USART_LINCmd:0000000000000008 .L0 
C:\Users\LOCALH~1\AppData\Local\Temp\ccRUXxV8.s:709    .text.USART_LINCmd:000000000000000a .L0 
C:\Users\LOCALH~1\AppData\Local\Temp\ccRUXxV8.s:712    .text.USART_LINCmd:000000000000000c .L0 
C:\Users\LOCALH~1\AppData\Local\Temp\ccRUXxV8.s:713    .text.USART_LINCmd:000000000000000c .L0 
C:\Users\LOCALH~1\AppData\Local\Temp\ccRUXxV8.s:717    .text.USART_LINCmd:0000000000000014 .L0 
C:\Users\LOCALH~1\AppData\Local\Temp\ccRUXxV8.s:724    .text.USART_SendData:0000000000000000 USART_SendData
C:\Users\LOCALH~1\AppData\Local\Temp\ccRUXxV8.s:727    .text.USART_SendData:0000000000000000 .L0 
C:\Users\LOCALH~1\AppData\Local\Temp\ccRUXxV8.s:729    .text.USART_SendData:0000000000000000 .L0 
C:\Users\LOCALH~1\AppData\Local\Temp\ccRUXxV8.s:730    .text.USART_SendData:0000000000000000 .L0 
C:\Users\LOCALH~1\AppData\Local\Temp\ccRUXxV8.s:731    .text.USART_SendData:0000000000000000 $x
C:\Users\LOCALH~1\AppData\Local\Temp\ccRUXxV8.s:731    .text.USART_SendData:0000000000000000 .L0 
C:\Users\LOCALH~1\AppData\Local\Temp\ccRUXxV8.s:734    .text.USART_SendData:0000000000000004 .L0 
C:\Users\LOCALH~1\AppData\Local\Temp\ccRUXxV8.s:736    .text.USART_SendData:0000000000000006 .L0 
C:\Users\LOCALH~1\AppData\Local\Temp\ccRUXxV8.s:737    .text.USART_SendData:0000000000000008 .L0 
C:\Users\LOCALH~1\AppData\Local\Temp\ccRUXxV8.s:744    .text.USART_ReceiveData:0000000000000000 USART_ReceiveData
C:\Users\LOCALH~1\AppData\Local\Temp\ccRUXxV8.s:747    .text.USART_ReceiveData:0000000000000000 .L0 
C:\Users\LOCALH~1\AppData\Local\Temp\ccRUXxV8.s:749    .text.USART_ReceiveData:0000000000000000 .L0 
C:\Users\LOCALH~1\AppData\Local\Temp\ccRUXxV8.s:750    .text.USART_ReceiveData:0000000000000000 .L0 
C:\Users\LOCALH~1\AppData\Local\Temp\ccRUXxV8.s:751    .text.USART_ReceiveData:0000000000000000 $x
C:\Users\LOCALH~1\AppData\Local\Temp\ccRUXxV8.s:751    .text.USART_ReceiveData:0000000000000000 .L0 
C:\Users\LOCALH~1\AppData\Local\Temp\ccRUXxV8.s:754    .text.USART_ReceiveData:0000000000000002 .L0 
C:\Users\LOCALH~1\AppData\Local\Temp\ccRUXxV8.s:756    .text.USART_ReceiveData:0000000000000008 .L0 
C:\Users\LOCALH~1\AppData\Local\Temp\ccRUXxV8.s:763    .text.USART_SendBreak:0000000000000000 USART_SendBreak
C:\Users\LOCALH~1\AppData\Local\Temp\ccRUXxV8.s:766    .text.USART_SendBreak:0000000000000000 .L0 
C:\Users\LOCALH~1\AppData\Local\Temp\ccRUXxV8.s:768    .text.USART_SendBreak:0000000000000000 .L0 
C:\Users\LOCALH~1\AppData\Local\Temp\ccRUXxV8.s:769    .text.USART_SendBreak:0000000000000000 .L0 
C:\Users\LOCALH~1\AppData\Local\Temp\ccRUXxV8.s:770    .text.USART_SendBreak:0000000000000000 $x
C:\Users\LOCALH~1\AppData\Local\Temp\ccRUXxV8.s:770    .text.USART_SendBreak:0000000000000000 .L0 
C:\Users\LOCALH~1\AppData\Local\Temp\ccRUXxV8.s:772    .text.USART_SendBreak:0000000000000002 .L0 
C:\Users\LOCALH~1\AppData\Local\Temp\ccRUXxV8.s:775    .text.USART_SendBreak:0000000000000008 .L0 
C:\Users\LOCALH~1\AppData\Local\Temp\ccRUXxV8.s:776    .text.USART_SendBreak:000000000000000a .L0 
C:\Users\LOCALH~1\AppData\Local\Temp\ccRUXxV8.s:783    .text.USART_SetGuardTime:0000000000000000 USART_SetGuardTime
C:\Users\LOCALH~1\AppData\Local\Temp\ccRUXxV8.s:786    .text.USART_SetGuardTime:0000000000000000 .L0 
C:\Users\LOCALH~1\AppData\Local\Temp\ccRUXxV8.s:788    .text.USART_SetGuardTime:0000000000000000 .L0 
C:\Users\LOCALH~1\AppData\Local\Temp\ccRUXxV8.s:789    .text.USART_SetGuardTime:0000000000000000 .L0 
C:\Users\LOCALH~1\AppData\Local\Temp\ccRUXxV8.s:790    .text.USART_SetGuardTime:0000000000000000 $x
C:\Users\LOCALH~1\AppData\Local\Temp\ccRUXxV8.s:790    .text.USART_SetGuardTime:0000000000000000 .L0 
C:\Users\LOCALH~1\AppData\Local\Temp\ccRUXxV8.s:792    .text.USART_SetGuardTime:0000000000000002 .L0 
C:\Users\LOCALH~1\AppData\Local\Temp\ccRUXxV8.s:795    .text.USART_SetGuardTime:0000000000000004 .L0 
C:\Users\LOCALH~1\AppData\Local\Temp\ccRUXxV8.s:798    .text.USART_SetGuardTime:000000000000000a .L0 
C:\Users\LOCALH~1\AppData\Local\Temp\ccRUXxV8.s:799    .text.USART_SetGuardTime:000000000000000a .L0 
C:\Users\LOCALH~1\AppData\Local\Temp\ccRUXxV8.s:801    .text.USART_SetGuardTime:000000000000000c .L0 
C:\Users\LOCALH~1\AppData\Local\Temp\ccRUXxV8.s:804    .text.USART_SetGuardTime:0000000000000010 .L0 
C:\Users\LOCALH~1\AppData\Local\Temp\ccRUXxV8.s:805    .text.USART_SetGuardTime:0000000000000012 .L0 
C:\Users\LOCALH~1\AppData\Local\Temp\ccRUXxV8.s:812    .text.USART_SetPrescaler:0000000000000000 USART_SetPrescaler
C:\Users\LOCALH~1\AppData\Local\Temp\ccRUXxV8.s:815    .text.USART_SetPrescaler:0000000000000000 .L0 
C:\Users\LOCALH~1\AppData\Local\Temp\ccRUXxV8.s:817    .text.USART_SetPrescaler:0000000000000000 .L0 
C:\Users\LOCALH~1\AppData\Local\Temp\ccRUXxV8.s:818    .text.USART_SetPrescaler:0000000000000000 .L0 
C:\Users\LOCALH~1\AppData\Local\Temp\ccRUXxV8.s:819    .text.USART_SetPrescaler:0000000000000000 $x
C:\Users\LOCALH~1\AppData\Local\Temp\ccRUXxV8.s:819    .text.USART_SetPrescaler:0000000000000000 .L0 
C:\Users\LOCALH~1\AppData\Local\Temp\ccRUXxV8.s:823    .text.USART_SetPrescaler:0000000000000006 .L0 
C:\Users\LOCALH~1\AppData\Local\Temp\ccRUXxV8.s:828    .text.USART_SetPrescaler:0000000000000010 .L0 
C:\Users\LOCALH~1\AppData\Local\Temp\ccRUXxV8.s:829    .text.USART_SetPrescaler:0000000000000010 .L0 
C:\Users\LOCALH~1\AppData\Local\Temp\ccRUXxV8.s:831    .text.USART_SetPrescaler:0000000000000012 .L0 
C:\Users\LOCALH~1\AppData\Local\Temp\ccRUXxV8.s:835    .text.USART_SetPrescaler:0000000000000016 .L0 
C:\Users\LOCALH~1\AppData\Local\Temp\ccRUXxV8.s:836    .text.USART_SetPrescaler:0000000000000018 .L0 
C:\Users\LOCALH~1\AppData\Local\Temp\ccRUXxV8.s:843    .text.USART_SmartCardCmd:0000000000000000 USART_SmartCardCmd
C:\Users\LOCALH~1\AppData\Local\Temp\ccRUXxV8.s:846    .text.USART_SmartCardCmd:0000000000000000 .L0 
C:\Users\LOCALH~1\AppData\Local\Temp\ccRUXxV8.s:848    .text.USART_SmartCardCmd:0000000000000000 .L0 
C:\Users\LOCALH~1\AppData\Local\Temp\ccRUXxV8.s:849    .text.USART_SmartCardCmd:0000000000000000 .L0 
C:\Users\LOCALH~1\AppData\Local\Temp\ccRUXxV8.s:850    .text.USART_SmartCardCmd:0000000000000000 $x
C:\Users\LOCALH~1\AppData\Local\Temp\ccRUXxV8.s:850    .text.USART_SmartCardCmd:0000000000000000 .L0 
C:\Users\LOCALH~1\AppData\Local\Temp\ccRUXxV8.s:852    .text.USART_SmartCardCmd:0000000000000002 .L0 
C:\Users\LOCALH~1\AppData\Local\Temp\ccRUXxV8.s:854    .text.USART_SmartCardCmd:0000000000000004 .L0 
C:\Users\LOCALH~1\AppData\Local\Temp\ccRUXxV8.s:855    .text.USART_SmartCardCmd:0000000000000004 .L0 
C:\Users\LOCALH~1\AppData\Local\Temp\ccRUXxV8.s:858    .text.USART_SmartCardCmd:0000000000000008 .L0 
C:\Users\LOCALH~1\AppData\Local\Temp\ccRUXxV8.s:860    .text.USART_SmartCardCmd:000000000000000a .L0 
C:\Users\LOCALH~1\AppData\Local\Temp\ccRUXxV8.s:863    .text.USART_SmartCardCmd:000000000000000c .L0 
C:\Users\LOCALH~1\AppData\Local\Temp\ccRUXxV8.s:864    .text.USART_SmartCardCmd:000000000000000c .L0 
C:\Users\LOCALH~1\AppData\Local\Temp\ccRUXxV8.s:867    .text.USART_SmartCardCmd:0000000000000010 .L0 
C:\Users\LOCALH~1\AppData\Local\Temp\ccRUXxV8.s:871    .text.USART_SmartCardCmd:000000000000001a .L0 
C:\Users\LOCALH~1\AppData\Local\Temp\ccRUXxV8.s:878    .text.USART_SmartCardNACKCmd:0000000000000000 USART_SmartCardNACKCmd
C:\Users\LOCALH~1\AppData\Local\Temp\ccRUXxV8.s:881    .text.USART_SmartCardNACKCmd:0000000000000000 .L0 
C:\Users\LOCALH~1\AppData\Local\Temp\ccRUXxV8.s:883    .text.USART_SmartCardNACKCmd:0000000000000000 .L0 
C:\Users\LOCALH~1\AppData\Local\Temp\ccRUXxV8.s:884    .text.USART_SmartCardNACKCmd:0000000000000000 .L0 
C:\Users\LOCALH~1\AppData\Local\Temp\ccRUXxV8.s:885    .text.USART_SmartCardNACKCmd:0000000000000000 $x
C:\Users\LOCALH~1\AppData\Local\Temp\ccRUXxV8.s:885    .text.USART_SmartCardNACKCmd:0000000000000000 .L0 
C:\Users\LOCALH~1\AppData\Local\Temp\ccRUXxV8.s:887    .text.USART_SmartCardNACKCmd:0000000000000002 .L0 
C:\Users\LOCALH~1\AppData\Local\Temp\ccRUXxV8.s:889    .text.USART_SmartCardNACKCmd:0000000000000004 .L0 
C:\Users\LOCALH~1\AppData\Local\Temp\ccRUXxV8.s:890    .text.USART_SmartCardNACKCmd:0000000000000004 .L0 
C:\Users\LOCALH~1\AppData\Local\Temp\ccRUXxV8.s:893    .text.USART_SmartCardNACKCmd:0000000000000008 .L0 
C:\Users\LOCALH~1\AppData\Local\Temp\ccRUXxV8.s:895    .text.USART_SmartCardNACKCmd:000000000000000a .L0 
C:\Users\LOCALH~1\AppData\Local\Temp\ccRUXxV8.s:898    .text.USART_SmartCardNACKCmd:000000000000000c .L0 
C:\Users\LOCALH~1\AppData\Local\Temp\ccRUXxV8.s:899    .text.USART_SmartCardNACKCmd:000000000000000c .L0 
C:\Users\LOCALH~1\AppData\Local\Temp\ccRUXxV8.s:902    .text.USART_SmartCardNACKCmd:0000000000000010 .L0 
C:\Users\LOCALH~1\AppData\Local\Temp\ccRUXxV8.s:906    .text.USART_SmartCardNACKCmd:0000000000000018 .L0 
C:\Users\LOCALH~1\AppData\Local\Temp\ccRUXxV8.s:913    .text.USART_HalfDuplexCmd:0000000000000000 USART_HalfDuplexCmd
C:\Users\LOCALH~1\AppData\Local\Temp\ccRUXxV8.s:916    .text.USART_HalfDuplexCmd:0000000000000000 .L0 
C:\Users\LOCALH~1\AppData\Local\Temp\ccRUXxV8.s:918    .text.USART_HalfDuplexCmd:0000000000000000 .L0 
C:\Users\LOCALH~1\AppData\Local\Temp\ccRUXxV8.s:919    .text.USART_HalfDuplexCmd:0000000000000000 .L0 
C:\Users\LOCALH~1\AppData\Local\Temp\ccRUXxV8.s:920    .text.USART_HalfDuplexCmd:0000000000000000 $x
C:\Users\LOCALH~1\AppData\Local\Temp\ccRUXxV8.s:920    .text.USART_HalfDuplexCmd:0000000000000000 .L0 
C:\Users\LOCALH~1\AppData\Local\Temp\ccRUXxV8.s:922    .text.USART_HalfDuplexCmd:0000000000000002 .L0 
C:\Users\LOCALH~1\AppData\Local\Temp\ccRUXxV8.s:924    .text.USART_HalfDuplexCmd:0000000000000004 .L0 
C:\Users\LOCALH~1\AppData\Local\Temp\ccRUXxV8.s:925    .text.USART_HalfDuplexCmd:0000000000000004 .L0 
C:\Users\LOCALH~1\AppData\Local\Temp\ccRUXxV8.s:928    .text.USART_HalfDuplexCmd:0000000000000008 .L0 
C:\Users\LOCALH~1\AppData\Local\Temp\ccRUXxV8.s:930    .text.USART_HalfDuplexCmd:000000000000000a .L0 
C:\Users\LOCALH~1\AppData\Local\Temp\ccRUXxV8.s:933    .text.USART_HalfDuplexCmd:000000000000000c .L0 
C:\Users\LOCALH~1\AppData\Local\Temp\ccRUXxV8.s:934    .text.USART_HalfDuplexCmd:000000000000000c .L0 
C:\Users\LOCALH~1\AppData\Local\Temp\ccRUXxV8.s:937    .text.USART_HalfDuplexCmd:0000000000000010 .L0 
C:\Users\LOCALH~1\AppData\Local\Temp\ccRUXxV8.s:941    .text.USART_HalfDuplexCmd:0000000000000018 .L0 
C:\Users\LOCALH~1\AppData\Local\Temp\ccRUXxV8.s:948    .text.USART_IrDAConfig:0000000000000000 USART_IrDAConfig
C:\Users\LOCALH~1\AppData\Local\Temp\ccRUXxV8.s:951    .text.USART_IrDAConfig:0000000000000000 .L0 
C:\Users\LOCALH~1\AppData\Local\Temp\ccRUXxV8.s:953    .text.USART_IrDAConfig:0000000000000000 .L0 
C:\Users\LOCALH~1\AppData\Local\Temp\ccRUXxV8.s:954    .text.USART_IrDAConfig:0000000000000000 .L0 
C:\Users\LOCALH~1\AppData\Local\Temp\ccRUXxV8.s:955    .text.USART_IrDAConfig:0000000000000000 $x
C:\Users\LOCALH~1\AppData\Local\Temp\ccRUXxV8.s:955    .text.USART_IrDAConfig:0000000000000000 .L0 
C:\Users\LOCALH~1\AppData\Local\Temp\ccRUXxV8.s:959    .text.USART_IrDAConfig:0000000000000006 .L0 
C:\Users\LOCALH~1\AppData\Local\Temp\ccRUXxV8.s:964    .text.USART_IrDAConfig:000000000000000e .L0 
C:\Users\LOCALH~1\AppData\Local\Temp\ccRUXxV8.s:965    .text.USART_IrDAConfig:000000000000000e .L0 
C:\Users\LOCALH~1\AppData\Local\Temp\ccRUXxV8.s:967    .text.USART_IrDAConfig:0000000000000010 .L0 
C:\Users\LOCALH~1\AppData\Local\Temp\ccRUXxV8.s:970    .text.USART_IrDAConfig:0000000000000014 .L0 
C:\Users\LOCALH~1\AppData\Local\Temp\ccRUXxV8.s:971    .text.USART_IrDAConfig:0000000000000016 .L0 
C:\Users\LOCALH~1\AppData\Local\Temp\ccRUXxV8.s:978    .text.USART_IrDACmd:0000000000000000 USART_IrDACmd
C:\Users\LOCALH~1\AppData\Local\Temp\ccRUXxV8.s:981    .text.USART_IrDACmd:0000000000000000 .L0 
C:\Users\LOCALH~1\AppData\Local\Temp\ccRUXxV8.s:983    .text.USART_IrDACmd:0000000000000000 .L0 
C:\Users\LOCALH~1\AppData\Local\Temp\ccRUXxV8.s:984    .text.USART_IrDACmd:0000000000000000 .L0 
C:\Users\LOCALH~1\AppData\Local\Temp\ccRUXxV8.s:985    .text.USART_IrDACmd:0000000000000000 $x
C:\Users\LOCALH~1\AppData\Local\Temp\ccRUXxV8.s:985    .text.USART_IrDACmd:0000000000000000 .L0 
C:\Users\LOCALH~1\AppData\Local\Temp\ccRUXxV8.s:987    .text.USART_IrDACmd:0000000000000002 .L0 
C:\Users\LOCALH~1\AppData\Local\Temp\ccRUXxV8.s:989    .text.USART_IrDACmd:0000000000000004 .L0 
C:\Users\LOCALH~1\AppData\Local\Temp\ccRUXxV8.s:990    .text.USART_IrDACmd:0000000000000004 .L0 
C:\Users\LOCALH~1\AppData\Local\Temp\ccRUXxV8.s:993    .text.USART_IrDACmd:0000000000000008 .L0 
C:\Users\LOCALH~1\AppData\Local\Temp\ccRUXxV8.s:995    .text.USART_IrDACmd:000000000000000a .L0 
C:\Users\LOCALH~1\AppData\Local\Temp\ccRUXxV8.s:998    .text.USART_IrDACmd:000000000000000c .L0 
C:\Users\LOCALH~1\AppData\Local\Temp\ccRUXxV8.s:999    .text.USART_IrDACmd:000000000000000c .L0 
C:\Users\LOCALH~1\AppData\Local\Temp\ccRUXxV8.s:1002   .text.USART_IrDACmd:0000000000000010 .L0 
C:\Users\LOCALH~1\AppData\Local\Temp\ccRUXxV8.s:1006   .text.USART_IrDACmd:0000000000000018 .L0 
C:\Users\LOCALH~1\AppData\Local\Temp\ccRUXxV8.s:1013   .text.USART_GetFlagStatus:0000000000000000 USART_GetFlagStatus
C:\Users\LOCALH~1\AppData\Local\Temp\ccRUXxV8.s:1016   .text.USART_GetFlagStatus:0000000000000000 .L0 
C:\Users\LOCALH~1\AppData\Local\Temp\ccRUXxV8.s:1018   .text.USART_GetFlagStatus:0000000000000000 .L0 
C:\Users\LOCALH~1\AppData\Local\Temp\ccRUXxV8.s:1019   .text.USART_GetFlagStatus:0000000000000000 .L0 
C:\Users\LOCALH~1\AppData\Local\Temp\ccRUXxV8.s:1020   .text.USART_GetFlagStatus:0000000000000000 .L0 
C:\Users\LOCALH~1\AppData\Local\Temp\ccRUXxV8.s:1021   .text.USART_GetFlagStatus:0000000000000000 $x
C:\Users\LOCALH~1\AppData\Local\Temp\ccRUXxV8.s:1021   .text.USART_GetFlagStatus:0000000000000000 .L0 
C:\Users\LOCALH~1\AppData\Local\Temp\ccRUXxV8.s:1024   .text.USART_GetFlagStatus:0000000000000002 .L0 
C:\Users\LOCALH~1\AppData\Local\Temp\ccRUXxV8.s:1025   .text.USART_GetFlagStatus:0000000000000002 .L0 
C:\Users\LOCALH~1\AppData\Local\Temp\ccRUXxV8.s:1028   .text.USART_GetFlagStatus:0000000000000004 .L0 
C:\Users\LOCALH~1\AppData\Local\Temp\ccRUXxV8.s:1030   .text.USART_GetFlagStatus:000000000000000a .L0 
C:\Users\LOCALH~1\AppData\Local\Temp\ccRUXxV8.s:1037   .text.USART_ClearFlag:0000000000000000 USART_ClearFlag
C:\Users\LOCALH~1\AppData\Local\Temp\ccRUXxV8.s:1040   .text.USART_ClearFlag:0000000000000000 .L0 
C:\Users\LOCALH~1\AppData\Local\Temp\ccRUXxV8.s:1042   .text.USART_ClearFlag:0000000000000000 .L0 
C:\Users\LOCALH~1\AppData\Local\Temp\ccRUXxV8.s:1043   .text.USART_ClearFlag:0000000000000000 .L0 
C:\Users\LOCALH~1\AppData\Local\Temp\ccRUXxV8.s:1044   .text.USART_ClearFlag:0000000000000000 $x
C:\Users\LOCALH~1\AppData\Local\Temp\ccRUXxV8.s:1044   .text.USART_ClearFlag:0000000000000000 .L0 
C:\Users\LOCALH~1\AppData\Local\Temp\ccRUXxV8.s:1049   .text.USART_ClearFlag:0000000000000008 .L0 
C:\Users\LOCALH~1\AppData\Local\Temp\ccRUXxV8.s:1051   .text.USART_ClearFlag:000000000000000a .L0 
C:\Users\LOCALH~1\AppData\Local\Temp\ccRUXxV8.s:1052   .text.USART_ClearFlag:000000000000000c .L0 
C:\Users\LOCALH~1\AppData\Local\Temp\ccRUXxV8.s:1059   .text.USART_GetITStatus:0000000000000000 USART_GetITStatus
C:\Users\LOCALH~1\AppData\Local\Temp\ccRUXxV8.s:1062   .text.USART_GetITStatus:0000000000000000 .L0 
C:\Users\LOCALH~1\AppData\Local\Temp\ccRUXxV8.s:1064   .text.USART_GetITStatus:0000000000000000 .L0 
C:\Users\LOCALH~1\AppData\Local\Temp\ccRUXxV8.s:1065   .text.USART_GetITStatus:0000000000000000 .L0 
C:\Users\LOCALH~1\AppData\Local\Temp\ccRUXxV8.s:1066   .text.USART_GetITStatus:0000000000000000 .L0 
C:\Users\LOCALH~1\AppData\Local\Temp\ccRUXxV8.s:1067   .text.USART_GetITStatus:0000000000000000 .L0 
C:\Users\LOCALH~1\AppData\Local\Temp\ccRUXxV8.s:1068   .text.USART_GetITStatus:0000000000000000 $x
C:\Users\LOCALH~1\AppData\Local\Temp\ccRUXxV8.s:1068   .text.USART_GetITStatus:0000000000000000 .L0 
C:\Users\LOCALH~1\AppData\Local\Temp\ccRUXxV8.s:1070   .text.USART_GetITStatus:0000000000000004 .L0 
C:\Users\LOCALH~1\AppData\Local\Temp\ccRUXxV8.s:1072   .text.USART_GetITStatus:0000000000000006 .L0 
C:\Users\LOCALH~1\AppData\Local\Temp\ccRUXxV8.s:1075   .text.USART_GetITStatus:0000000000000008 .L0 
C:\Users\LOCALH~1\AppData\Local\Temp\ccRUXxV8.s:1076   .text.USART_GetITStatus:0000000000000008 .L0 
C:\Users\LOCALH~1\AppData\Local\Temp\ccRUXxV8.s:1077   .text.USART_GetITStatus:0000000000000008 .L0 
C:\Users\LOCALH~1\AppData\Local\Temp\ccRUXxV8.s:1079   .text.USART_GetITStatus:000000000000000a .L0 
C:\Users\LOCALH~1\AppData\Local\Temp\ccRUXxV8.s:1082   .text.USART_GetITStatus:000000000000000e .L0 
C:\Users\LOCALH~1\AppData\Local\Temp\ccRUXxV8.s:1083   .text.USART_GetITStatus:000000000000000e .L0 
C:\Users\LOCALH~1\AppData\Local\Temp\ccRUXxV8.s:1085   .text.USART_GetITStatus:0000000000000012 .L0 
C:\Users\LOCALH~1\AppData\Local\Temp\ccRUXxV8.s:1086   .text.USART_GetITStatus:0000000000000012 .L0 
C:\Users\LOCALH~1\AppData\Local\Temp\ccRUXxV8.s:1090   .text.USART_GetITStatus:0000000000000014 .L0 
C:\Users\LOCALH~1\AppData\Local\Temp\ccRUXxV8.s:1093   .text.USART_GetITStatus:0000000000000018 .L0 
C:\Users\LOCALH~1\AppData\Local\Temp\ccRUXxV8.s:1094   .text.USART_GetITStatus:0000000000000018 .L0 
C:\Users\LOCALH~1\AppData\Local\Temp\ccRUXxV8.s:1095   .text.USART_GetITStatus:0000000000000018 .L0 
C:\Users\LOCALH~1\AppData\Local\Temp\ccRUXxV8.s:1096   .text.USART_GetITStatus:0000000000000018 .L0 
C:\Users\LOCALH~1\AppData\Local\Temp\ccRUXxV8.s:1101   .text.USART_GetITStatus:000000000000001e .L0 
C:\Users\LOCALH~1\AppData\Local\Temp\ccRUXxV8.s:1102   .text.USART_GetITStatus:000000000000001e .L0 
C:\Users\LOCALH~1\AppData\Local\Temp\ccRUXxV8.s:1104   .text.USART_GetITStatus:0000000000000020 .L0 
C:\Users\LOCALH~1\AppData\Local\Temp\ccRUXxV8.s:1107   .text.USART_GetITStatus:0000000000000022 .L0 
C:\Users\LOCALH~1\AppData\Local\Temp\ccRUXxV8.s:1111   .text.USART_GetITStatus:0000000000000028 .L0 
C:\Users\LOCALH~1\AppData\Local\Temp\ccRUXxV8.s:1114   .text.USART_GetITStatus:000000000000002a .L0 
C:\Users\LOCALH~1\AppData\Local\Temp\ccRUXxV8.s:1118   .text.USART_GetITStatus:000000000000002e .L0 
C:\Users\LOCALH~1\AppData\Local\Temp\ccRUXxV8.s:1119   .text.USART_GetITStatus:000000000000002e .L0 
C:\Users\LOCALH~1\AppData\Local\Temp\ccRUXxV8.s:1123   .text.USART_GetITStatus:0000000000000030 .L0 
C:\Users\LOCALH~1\AppData\Local\Temp\ccRUXxV8.s:1124   .text.USART_GetITStatus:0000000000000030 .L0 
C:\Users\LOCALH~1\AppData\Local\Temp\ccRUXxV8.s:1127   .text.USART_GetITStatus:0000000000000036 .L0 
C:\Users\LOCALH~1\AppData\Local\Temp\ccRUXxV8.s:1128   .text.USART_GetITStatus:0000000000000036 .L0 
C:\Users\LOCALH~1\AppData\Local\Temp\ccRUXxV8.s:1134   .text.USART_GetITStatus:000000000000003a .L0 
C:\Users\LOCALH~1\AppData\Local\Temp\ccRUXxV8.s:1135   .text.USART_GetITStatus:000000000000003a .L0 
C:\Users\LOCALH~1\AppData\Local\Temp\ccRUXxV8.s:1138   .text.USART_GetITStatus:000000000000003e .L0 
C:\Users\LOCALH~1\AppData\Local\Temp\ccRUXxV8.s:1145   .text.USART_ClearITPendingBit:0000000000000000 USART_ClearITPendingBit
C:\Users\LOCALH~1\AppData\Local\Temp\ccRUXxV8.s:1148   .text.USART_ClearITPendingBit:0000000000000000 .L0 
C:\Users\LOCALH~1\AppData\Local\Temp\ccRUXxV8.s:1150   .text.USART_ClearITPendingBit:0000000000000000 .L0 
C:\Users\LOCALH~1\AppData\Local\Temp\ccRUXxV8.s:1151   .text.USART_ClearITPendingBit:0000000000000000 .L0 
C:\Users\LOCALH~1\AppData\Local\Temp\ccRUXxV8.s:1152   .text.USART_ClearITPendingBit:0000000000000000 .L0 
C:\Users\LOCALH~1\AppData\Local\Temp\ccRUXxV8.s:1153   .text.USART_ClearITPendingBit:0000000000000000 .L0 
C:\Users\LOCALH~1\AppData\Local\Temp\ccRUXxV8.s:1154   .text.USART_ClearITPendingBit:0000000000000000 .L0 
C:\Users\LOCALH~1\AppData\Local\Temp\ccRUXxV8.s:1155   .text.USART_ClearITPendingBit:0000000000000000 $x
C:\Users\LOCALH~1\AppData\Local\Temp\ccRUXxV8.s:1155   .text.USART_ClearITPendingBit:0000000000000000 .L0 
C:\Users\LOCALH~1\AppData\Local\Temp\ccRUXxV8.s:1158   .text.USART_ClearITPendingBit:0000000000000002 .L0 
C:\Users\LOCALH~1\AppData\Local\Temp\ccRUXxV8.s:1161   .text.USART_ClearITPendingBit:0000000000000008 .L0 
C:\Users\LOCALH~1\AppData\Local\Temp\ccRUXxV8.s:1165   .text.USART_ClearITPendingBit:0000000000000010 .L0 
C:\Users\LOCALH~1\AppData\Local\Temp\ccRUXxV8.s:1167   .text.USART_ClearITPendingBit:0000000000000012 .L0 
C:\Users\LOCALH~1\AppData\Local\Temp\ccRUXxV8.s:1168   .text.USART_ClearITPendingBit:0000000000000014 .L0 
C:\Users\LOCALH~1\AppData\Local\Temp\ccRUXxV8.s:4323   .debug_line_str:0000000000000078 .L0 
C:\Users\LOCALH~1\AppData\Local\Temp\ccRUXxV8.s:4323   .debug_line_str:00000000000000cd .L0 
C:\Users\LOCALH~1\AppData\Local\Temp\ccRUXxV8.s:4323   .debug_line_str:00000000000000df .L0 
C:\Users\LOCALH~1\AppData\Local\Temp\ccRUXxV8.s:4323   .debug_line_str:000000000000013b .L0 
C:\Users\LOCALH~1\AppData\Local\Temp\ccRUXxV8.s:4323   .debug_line_str:0000000000000193 .L0 
C:\Users\LOCALH~1\AppData\Local\Temp\ccRUXxV8.s:4323   .debug_line_str:00000000000001e9 .L0 
C:\Users\LOCALH~1\AppData\Local\Temp\ccRUXxV8.s:4323   .debug_line_str:0000000000000249 .L0 
C:\Users\LOCALH~1\AppData\Local\Temp\ccRUXxV8.s:4323   .debug_line_str:000000000000025a .L0 
C:\Users\LOCALH~1\AppData\Local\Temp\ccRUXxV8.s:4323   .debug_line_str:000000000000026b .L0 
C:\Users\LOCALH~1\AppData\Local\Temp\ccRUXxV8.s:4323   .debug_line_str:000000000000027c .L0 
C:\Users\LOCALH~1\AppData\Local\Temp\ccRUXxV8.s:4323   .debug_line_str:0000000000000286 .L0 
C:\Users\LOCALH~1\AppData\Local\Temp\ccRUXxV8.s:4323   .debug_line_str:0000000000000293 .L0 
C:\Users\LOCALH~1\AppData\Local\Temp\ccRUXxV8.s:4323   .debug_line_str:000000000000029e .L0 
C:\Users\LOCALH~1\AppData\Local\Temp\ccRUXxV8.s:4323   .debug_line_str:00000000000002ad .L0 
C:\Users\LOCALH~1\AppData\Local\Temp\ccRUXxV8.s:167    .text.USART_DeInit:0000000000000112 .L0 
C:\Users\LOCALH~1\AppData\Local\Temp\ccRUXxV8.s:325    .text.USART_Init:000000000000009a .L0 
C:\Users\LOCALH~1\AppData\Local\Temp\ccRUXxV8.s:357    .text.USART_StructInit:0000000000000018 .L0 
C:\Users\LOCALH~1\AppData\Local\Temp\ccRUXxV8.s:396    .text.USART_ClockInit:000000000000001e .L0 
C:\Users\LOCALH~1\AppData\Local\Temp\ccRUXxV8.s:422    .text.USART_ClockStructInit:0000000000000012 .L0 
C:\Users\LOCALH~1\AppData\Local\Temp\ccRUXxV8.s:455    .text.USART_Cmd:0000000000000014 .L0 
C:\Users\LOCALH~1\AppData\Local\Temp\ccRUXxV8.s:528    .text.USART_ITConfig:0000000000000038 .L0 
C:\Users\LOCALH~1\AppData\Local\Temp\ccRUXxV8.s:563    .text.USART_DMACmd:0000000000000012 .L0 
C:\Users\LOCALH~1\AppData\Local\Temp\ccRUXxV8.s:594    .text.USART_SetAddress:0000000000000016 .L0 
C:\Users\LOCALH~1\AppData\Local\Temp\ccRUXxV8.s:622    .text.USART_WakeUpConfig:0000000000000014 .L0 
C:\Users\LOCALH~1\AppData\Local\Temp\ccRUXxV8.s:657    .text.USART_ReceiverWakeUpCmd:0000000000000018 .L0 
C:\Users\LOCALH~1\AppData\Local\Temp\ccRUXxV8.s:687    .text.USART_LINBreakDetectLengthConfig:0000000000000018 .L0 
C:\Users\LOCALH~1\AppData\Local\Temp\ccRUXxV8.s:720    .text.USART_LINCmd:0000000000000014 .L0 
C:\Users\LOCALH~1\AppData\Local\Temp\ccRUXxV8.s:740    .text.USART_SendData:0000000000000008 .L0 
C:\Users\LOCALH~1\AppData\Local\Temp\ccRUXxV8.s:759    .text.USART_ReceiveData:0000000000000008 .L0 
C:\Users\LOCALH~1\AppData\Local\Temp\ccRUXxV8.s:779    .text.USART_SendBreak:000000000000000a .L0 
C:\Users\LOCALH~1\AppData\Local\Temp\ccRUXxV8.s:808    .text.USART_SetGuardTime:0000000000000012 .L0 
C:\Users\LOCALH~1\AppData\Local\Temp\ccRUXxV8.s:839    .text.USART_SetPrescaler:0000000000000018 .L0 
C:\Users\LOCALH~1\AppData\Local\Temp\ccRUXxV8.s:874    .text.USART_SmartCardCmd:000000000000001a .L0 
C:\Users\LOCALH~1\AppData\Local\Temp\ccRUXxV8.s:909    .text.USART_SmartCardNACKCmd:0000000000000018 .L0 
C:\Users\LOCALH~1\AppData\Local\Temp\ccRUXxV8.s:944    .text.USART_HalfDuplexCmd:0000000000000018 .L0 
C:\Users\LOCALH~1\AppData\Local\Temp\ccRUXxV8.s:974    .text.USART_IrDAConfig:0000000000000016 .L0 
C:\Users\LOCALH~1\AppData\Local\Temp\ccRUXxV8.s:1009   .text.USART_IrDACmd:0000000000000018 .L0 
C:\Users\LOCALH~1\AppData\Local\Temp\ccRUXxV8.s:1033   .text.USART_GetFlagStatus:000000000000000a .L0 
C:\Users\LOCALH~1\AppData\Local\Temp\ccRUXxV8.s:1055   .text.USART_ClearFlag:000000000000000c .L0 
C:\Users\LOCALH~1\AppData\Local\Temp\ccRUXxV8.s:1141   .text.USART_GetITStatus:000000000000003e .L0 
C:\Users\LOCALH~1\AppData\Local\Temp\ccRUXxV8.s:1171   .text.USART_ClearITPendingBit:0000000000000014 .L0 
                     .debug_frame:0000000000000000 .L0 
C:\Users\LOCALH~1\AppData\Local\Temp\ccRUXxV8.s:46     .text.USART_DeInit:0000000000000034 .L2
C:\Users\LOCALH~1\AppData\Local\Temp\ccRUXxV8.s:69     .text.USART_DeInit:000000000000005e .L4
C:\Users\LOCALH~1\AppData\Local\Temp\ccRUXxV8.s:39     .text.USART_DeInit:000000000000002c .L1
C:\Users\LOCALH~1\AppData\Local\Temp\ccRUXxV8.s:86     .text.USART_DeInit:0000000000000080 .L5
C:\Users\LOCALH~1\AppData\Local\Temp\ccRUXxV8.s:62     .text.USART_DeInit:0000000000000054 .L11
C:\Users\LOCALH~1\AppData\Local\Temp\ccRUXxV8.s:102    .text.USART_DeInit:000000000000009e .L6
C:\Users\LOCALH~1\AppData\Local\Temp\ccRUXxV8.s:117    .text.USART_DeInit:00000000000000b8 .L7
C:\Users\LOCALH~1\AppData\Local\Temp\ccRUXxV8.s:134    .text.USART_DeInit:00000000000000da .L8
C:\Users\LOCALH~1\AppData\Local\Temp\ccRUXxV8.s:150    .text.USART_DeInit:00000000000000f8 .L9
C:\Users\LOCALH~1\AppData\Local\Temp\ccRUXxV8.s:315    .text.USART_Init:0000000000000096 .L13
C:\Users\LOCALH~1\AppData\Local\Temp\ccRUXxV8.s:263    .text.USART_Init:000000000000005c .L14
C:\Users\LOCALH~1\AppData\Local\Temp\ccRUXxV8.s:445    .text.USART_Cmd:000000000000000c .L20
C:\Users\LOCALH~1\AppData\Local\Temp\ccRUXxV8.s:440    .text.USART_Cmd:0000000000000008 .L22
C:\Users\LOCALH~1\AppData\Local\Temp\ccRUXxV8.s:500    .text.USART_ITConfig:000000000000001e .L24
C:\Users\LOCALH~1\AppData\Local\Temp\ccRUXxV8.s:514    .text.USART_ITConfig:000000000000002e .L27
C:\Users\LOCALH~1\AppData\Local\Temp\ccRUXxV8.s:487    .text.USART_ITConfig:0000000000000014 .L25
C:\Users\LOCALH~1\AppData\Local\Temp\ccRUXxV8.s:552    .text.USART_DMACmd:000000000000000a .L30
C:\Users\LOCALH~1\AppData\Local\Temp\ccRUXxV8.s:546    .text.USART_DMACmd:0000000000000006 .L32
C:\Users\LOCALH~1\AppData\Local\Temp\ccRUXxV8.s:644    .text.USART_ReceiverWakeUpCmd:000000000000000c .L36
C:\Users\LOCALH~1\AppData\Local\Temp\ccRUXxV8.s:639    .text.USART_ReceiverWakeUpCmd:0000000000000008 .L38
C:\Users\LOCALH~1\AppData\Local\Temp\ccRUXxV8.s:710    .text.USART_LINCmd:000000000000000c .L41
C:\Users\LOCALH~1\AppData\Local\Temp\ccRUXxV8.s:705    .text.USART_LINCmd:0000000000000008 .L43
C:\Users\LOCALH~1\AppData\Local\Temp\ccRUXxV8.s:861    .text.USART_SmartCardCmd:000000000000000c .L50
C:\Users\LOCALH~1\AppData\Local\Temp\ccRUXxV8.s:856    .text.USART_SmartCardCmd:0000000000000008 .L52
C:\Users\LOCALH~1\AppData\Local\Temp\ccRUXxV8.s:896    .text.USART_SmartCardNACKCmd:000000000000000c .L54
C:\Users\LOCALH~1\AppData\Local\Temp\ccRUXxV8.s:891    .text.USART_SmartCardNACKCmd:0000000000000008 .L56
C:\Users\LOCALH~1\AppData\Local\Temp\ccRUXxV8.s:931    .text.USART_HalfDuplexCmd:000000000000000c .L58
C:\Users\LOCALH~1\AppData\Local\Temp\ccRUXxV8.s:926    .text.USART_HalfDuplexCmd:0000000000000008 .L60
C:\Users\LOCALH~1\AppData\Local\Temp\ccRUXxV8.s:996    .text.USART_IrDACmd:000000000000000c .L63
C:\Users\LOCALH~1\AppData\Local\Temp\ccRUXxV8.s:991    .text.USART_IrDACmd:0000000000000008 .L65
C:\Users\LOCALH~1\AppData\Local\Temp\ccRUXxV8.s:1121   .text.USART_GetITStatus:0000000000000030 .L69
C:\Users\LOCALH~1\AppData\Local\Temp\ccRUXxV8.s:1117   .text.USART_GetITStatus:000000000000002e .L68
C:\Users\LOCALH~1\AppData\Local\Temp\ccRUXxV8.s:1132   .text.USART_GetITStatus:000000000000003a .L71
C:\Users\LOCALH~1\AppData\Local\Temp\ccRUXxV8.s:1088   .text.USART_GetITStatus:0000000000000014 .L76
C:\Users\LOCALH~1\AppData\Local\Temp\ccRUXxV8.s:2451   .debug_abbrev:0000000000000000 .Ldebug_abbrev0
C:\Users\LOCALH~1\AppData\Local\Temp\ccRUXxV8.s:4282   .debug_str:000000000000051b .LASF112
C:\Users\LOCALH~1\AppData\Local\Temp\ccRUXxV8.s:4321   .debug_line_str:0000000000000055 .LASF0
C:\Users\LOCALH~1\AppData\Local\Temp\ccRUXxV8.s:4319   .debug_line_str:0000000000000000 .LASF1
C:\Users\LOCALH~1\AppData\Local\Temp\ccRUXxV8.s:4007   .debug_rnglists:000000000000000c .LLRL32
C:\Users\LOCALH~1\AppData\Local\Temp\ccRUXxV8.s:4092   .debug_line:0000000000000000 .Ldebug_line0
C:\Users\LOCALH~1\AppData\Local\Temp\ccRUXxV8.s:4208   .debug_str:0000000000000320 .LASF2
C:\Users\LOCALH~1\AppData\Local\Temp\ccRUXxV8.s:4156   .debug_str:0000000000000194 .LASF3
C:\Users\LOCALH~1\AppData\Local\Temp\ccRUXxV8.s:4180   .debug_str:0000000000000255 .LASF6
C:\Users\LOCALH~1\AppData\Local\Temp\ccRUXxV8.s:4196   .debug_str:00000000000002bb .LASF4
C:\Users\LOCALH~1\AppData\Local\Temp\ccRUXxV8.s:4130   .debug_str:00000000000000fd .LASF5
C:\Users\LOCALH~1\AppData\Local\Temp\ccRUXxV8.s:4124   .debug_str:00000000000000d5 .LASF7
C:\Users\LOCALH~1\AppData\Local\Temp\ccRUXxV8.s:4242   .debug_str:0000000000000405 .LASF8
C:\Users\LOCALH~1\AppData\Local\Temp\ccRUXxV8.s:4172   .debug_str:0000000000000203 .LASF9
C:\Users\LOCALH~1\AppData\Local\Temp\ccRUXxV8.s:4120   .debug_str:00000000000000bf .LASF10
C:\Users\LOCALH~1\AppData\Local\Temp\ccRUXxV8.s:4212   .debug_str:0000000000000336 .LASF11
C:\Users\LOCALH~1\AppData\Local\Temp\ccRUXxV8.s:4166   .debug_str:00000000000001d5 .LASF12
C:\Users\LOCALH~1\AppData\Local\Temp\ccRUXxV8.s:4202   .debug_str:00000000000002e5 .LASF13
C:\Users\LOCALH~1\AppData\Local\Temp\ccRUXxV8.s:4140   .debug_str:000000000000013d .LASF14
C:\Users\LOCALH~1\AppData\Local\Temp\ccRUXxV8.s:4210   .debug_str:000000000000032d .LASF15
C:\Users\LOCALH~1\AppData\Local\Temp\ccRUXxV8.s:4096   .debug_str:000000000000000f .LASF16
C:\Users\LOCALH~1\AppData\Local\Temp\ccRUXxV8.s:4154   .debug_str:000000000000018c .LASF17
C:\Users\LOCALH~1\AppData\Local\Temp\ccRUXxV8.s:4316   .debug_str:00000000000006f8 .LASF18
C:\Users\LOCALH~1\AppData\Local\Temp\ccRUXxV8.s:4274   .debug_str:00000000000004d0 .LASF19
C:\Users\LOCALH~1\AppData\Local\Temp\ccRUXxV8.s:4250   .debug_str:0000000000000448 .LASF20
C:\Users\LOCALH~1\AppData\Local\Temp\ccRUXxV8.s:4122   .debug_str:00000000000000ca .LASF21
C:\Users\LOCALH~1\AppData\Local\Temp\ccRUXxV8.s:4170   .debug_str:00000000000001fa .LASF22
C:\Users\LOCALH~1\AppData\Local\Temp\ccRUXxV8.s:4116   .debug_str:000000000000009e .LASF23
C:\Users\LOCALH~1\AppData\Local\Temp\ccRUXxV8.s:4256   .debug_str:000000000000046a .LASF24
C:\Users\LOCALH~1\AppData\Local\Temp\ccRUXxV8.s:4136   .debug_str:0000000000000128 .LASF25
C:\Users\LOCALH~1\AppData\Local\Temp\ccRUXxV8.s:4258   .debug_str:0000000000000474 .LASF26
C:\Users\LOCALH~1\AppData\Local\Temp\ccRUXxV8.s:4260   .debug_str:000000000000047e .LASF27
C:\Users\LOCALH~1\AppData\Local\Temp\ccRUXxV8.s:4306   .debug_str:00000000000006c7 .LASF28
C:\Users\LOCALH~1\AppData\Local\Temp\ccRUXxV8.s:4262   .debug_str:0000000000000488 .LASF29
C:\Users\LOCALH~1\AppData\Local\Temp\ccRUXxV8.s:4222   .debug_str:0000000000000390 .LASF30
C:\Users\LOCALH~1\AppData\Local\Temp\ccRUXxV8.s:4264   .debug_str:0000000000000492 .LASF31
C:\Users\LOCALH~1\AppData\Local\Temp\ccRUXxV8.s:4224   .debug_str:0000000000000396 .LASF32
C:\Users\LOCALH~1\AppData\Local\Temp\ccRUXxV8.s:4266   .debug_str:000000000000049c .LASF33
C:\Users\LOCALH~1\AppData\Local\Temp\ccRUXxV8.s:4268   .debug_str:00000000000004a6 .LASF34
C:\Users\LOCALH~1\AppData\Local\Temp\ccRUXxV8.s:4310   .debug_str:00000000000006d7 .LASF35
C:\Users\LOCALH~1\AppData\Local\Temp\ccRUXxV8.s:4148   .debug_str:000000000000016c .LASF36
C:\Users\LOCALH~1\AppData\Local\Temp\ccRUXxV8.s:4126   .debug_str:00000000000000e0 .LASF37
C:\Users\LOCALH~1\AppData\Local\Temp\ccRUXxV8.s:4108   .debug_str:0000000000000060 .LASF38
C:\Users\LOCALH~1\AppData\Local\Temp\ccRUXxV8.s:4114   .debug_str:000000000000008f .LASF39
C:\Users\LOCALH~1\AppData\Local\Temp\ccRUXxV8.s:4278   .debug_str:00000000000004f7 .LASF40
C:\Users\LOCALH~1\AppData\Local\Temp\ccRUXxV8.s:4252   .debug_str:000000000000044e .LASF41
C:\Users\LOCALH~1\AppData\Local\Temp\ccRUXxV8.s:4204   .debug_str:00000000000002fc .LASF42
C:\Users\LOCALH~1\AppData\Local\Temp\ccRUXxV8.s:4100   .debug_str:0000000000000023 .LASF43
C:\Users\LOCALH~1\AppData\Local\Temp\ccRUXxV8.s:4194   .debug_str:00000000000002af .LASF44
C:\Users\LOCALH~1\AppData\Local\Temp\ccRUXxV8.s:4234   .debug_str:00000000000003db .LASF45
C:\Users\LOCALH~1\AppData\Local\Temp\ccRUXxV8.s:4160   .debug_str:00000000000001ae .LASF46
C:\Users\LOCALH~1\AppData\Local\Temp\ccRUXxV8.s:4146   .debug_str:000000000000015b .LASF47
C:\Users\LOCALH~1\AppData\Local\Temp\ccRUXxV8.s:4128   .debug_str:00000000000000ee .LASF48
C:\Users\LOCALH~1\AppData\Local\Temp\ccRUXxV8.s:4190   .debug_str:000000000000028c .LASF49
C:\Users\LOCALH~1\AppData\Local\Temp\ccRUXxV8.s:4232   .debug_str:00000000000003d0 .LASF50
C:\Users\LOCALH~1\AppData\Local\Temp\ccRUXxV8.s:4228   .debug_str:00000000000003a3 .LASF51
C:\Users\LOCALH~1\AppData\Local\Temp\ccRUXxV8.s:4216   .debug_str:0000000000000358 .LASF52
C:\Users\LOCALH~1\AppData\Local\Temp\ccRUXxV8.s:4254   .debug_str:000000000000045e .LASF53
C:\Users\LOCALH~1\AppData\Local\Temp\ccRUXxV8.s:4302   .debug_str:00000000000006b5 .LASF54
C:\Users\LOCALH~1\AppData\Local\Temp\ccRUXxV8.s:4098   .debug_str:0000000000000018 .LASF55
C:\Users\LOCALH~1\AppData\Local\Temp\ccRUXxV8.s:4158   .debug_str:00000000000001a0 .LASF56
C:\Users\LOCALH~1\AppData\Local\Temp\ccRUXxV8.s:4132   .debug_str:0000000000000107 .LASF57
C:\Users\LOCALH~1\AppData\Local\Temp\ccRUXxV8.s:4284   .debug_str:000000000000061c .LASF58
C:\Users\LOCALH~1\AppData\Local\Temp\ccRUXxV8.s:4168   .debug_str:00000000000001e3 .LASF59
C:\Users\LOCALH~1\AppData\Local\Temp\ccRUXxV8.s:4218   .debug_str:000000000000036a .LASF60
C:\Users\LOCALH~1\AppData\Local\Temp\ccRUXxV8.s:4174   .debug_str:000000000000020c .LASF67
C:\Users\LOCALH~1\AppData\Local\Temp\ccRUXxV8.s:1146   .text.USART_ClearITPendingBit:0000000000000000 .LFB55
C:\Users\LOCALH~1\AppData\Local\Temp\ccRUXxV8.s:1169   .text.USART_ClearITPendingBit:0000000000000014 .LFE55
C:\Users\LOCALH~1\AppData\Local\Temp\ccRUXxV8.s:4226   .debug_str:000000000000039c .LASF61
C:\Users\LOCALH~1\AppData\Local\Temp\ccRUXxV8.s:4142   .debug_str:0000000000000145 .LASF62
C:\Users\LOCALH~1\AppData\Local\Temp\ccRUXxV8.s:2982   .debug_loclists:000000000000000c .LLST29
C:\Users\LOCALH~1\AppData\Local\Temp\ccRUXxV8.s:4238   .debug_str:00000000000003ee .LASF63
C:\Users\LOCALH~1\AppData\Local\Temp\ccRUXxV8.s:2997   .debug_loclists:0000000000000026 .LLST30
C:\Users\LOCALH~1\AppData\Local\Temp\ccRUXxV8.s:4304   .debug_str:00000000000006c0 .LASF64
C:\Users\LOCALH~1\AppData\Local\Temp\ccRUXxV8.s:3018   .debug_loclists:0000000000000046 .LLST31
C:\Users\LOCALH~1\AppData\Local\Temp\ccRUXxV8.s:4244   .debug_str:0000000000000418 .LASF70
C:\Users\LOCALH~1\AppData\Local\Temp\ccRUXxV8.s:1060   .text.USART_GetITStatus:0000000000000000 .LFB54
C:\Users\LOCALH~1\AppData\Local\Temp\ccRUXxV8.s:1139   .text.USART_GetITStatus:000000000000003e .LFE54
C:\Users\LOCALH~1\AppData\Local\Temp\ccRUXxV8.s:3043   .debug_loclists:000000000000006a .LLST23
C:\Users\LOCALH~1\AppData\Local\Temp\ccRUXxV8.s:3068   .debug_loclists:000000000000009a .LLST24
C:\Users\LOCALH~1\AppData\Local\Temp\ccRUXxV8.s:3088   .debug_loclists:00000000000000bf .LLST25
C:\Users\LOCALH~1\AppData\Local\Temp\ccRUXxV8.s:3157   .debug_loclists:0000000000000126 .LLST26
C:\Users\LOCALH~1\AppData\Local\Temp\ccRUXxV8.s:4314   .debug_str:00000000000006ef .LASF65
C:\Users\LOCALH~1\AppData\Local\Temp\ccRUXxV8.s:3205   .debug_loclists:0000000000000179 .LLST27
C:\Users\LOCALH~1\AppData\Local\Temp\ccRUXxV8.s:4308   .debug_str:00000000000006cd .LASF66
C:\Users\LOCALH~1\AppData\Local\Temp\ccRUXxV8.s:3292   .debug_loclists:00000000000001ff .LLST28
C:\Users\LOCALH~1\AppData\Local\Temp\ccRUXxV8.s:4240   .debug_str:00000000000003f5 .LASF68
C:\Users\LOCALH~1\AppData\Local\Temp\ccRUXxV8.s:1038   .text.USART_ClearFlag:0000000000000000 .LFB53
C:\Users\LOCALH~1\AppData\Local\Temp\ccRUXxV8.s:1053   .text.USART_ClearFlag:000000000000000c .LFE53
C:\Users\LOCALH~1\AppData\Local\Temp\ccRUXxV8.s:4182   .debug_str:000000000000025f .LASF69
C:\Users\LOCALH~1\AppData\Local\Temp\ccRUXxV8.s:3306   .debug_loclists:0000000000000218 .LLST22
C:\Users\LOCALH~1\AppData\Local\Temp\ccRUXxV8.s:4280   .debug_str:0000000000000507 .LASF71
C:\Users\LOCALH~1\AppData\Local\Temp\ccRUXxV8.s:1014   .text.USART_GetFlagStatus:0000000000000000 .LFB52
C:\Users\LOCALH~1\AppData\Local\Temp\ccRUXxV8.s:1031   .text.USART_GetFlagStatus:000000000000000a .LFE52
C:\Users\LOCALH~1\AppData\Local\Temp\ccRUXxV8.s:3321   .debug_loclists:0000000000000232 .LLST20
C:\Users\LOCALH~1\AppData\Local\Temp\ccRUXxV8.s:3336   .debug_loclists:000000000000024c .LLST21
C:\Users\LOCALH~1\AppData\Local\Temp\ccRUXxV8.s:4270   .debug_str:00000000000004b0 .LASF72
C:\Users\LOCALH~1\AppData\Local\Temp\ccRUXxV8.s:979    .text.USART_IrDACmd:0000000000000000 .LFB51
C:\Users\LOCALH~1\AppData\Local\Temp\ccRUXxV8.s:1007   .text.USART_IrDACmd:0000000000000018 .LFE51
C:\Users\LOCALH~1\AppData\Local\Temp\ccRUXxV8.s:4150   .debug_str:0000000000000176 .LASF73
C:\Users\LOCALH~1\AppData\Local\Temp\ccRUXxV8.s:4248   .debug_str:0000000000000437 .LASF74
C:\Users\LOCALH~1\AppData\Local\Temp\ccRUXxV8.s:949    .text.USART_IrDAConfig:0000000000000000 .LFB50
C:\Users\LOCALH~1\AppData\Local\Temp\ccRUXxV8.s:972    .text.USART_IrDAConfig:0000000000000016 .LFE50
C:\Users\LOCALH~1\AppData\Local\Temp\ccRUXxV8.s:4162   .debug_str:00000000000001bd .LASF75
C:\Users\LOCALH~1\AppData\Local\Temp\ccRUXxV8.s:4294   .debug_str:0000000000000673 .LASF76
C:\Users\LOCALH~1\AppData\Local\Temp\ccRUXxV8.s:914    .text.USART_HalfDuplexCmd:0000000000000000 .LFB49
C:\Users\LOCALH~1\AppData\Local\Temp\ccRUXxV8.s:942    .text.USART_HalfDuplexCmd:0000000000000018 .LFE49
C:\Users\LOCALH~1\AppData\Local\Temp\ccRUXxV8.s:4276   .debug_str:00000000000004e0 .LASF77
C:\Users\LOCALH~1\AppData\Local\Temp\ccRUXxV8.s:879    .text.USART_SmartCardNACKCmd:0000000000000000 .LFB48
C:\Users\LOCALH~1\AppData\Local\Temp\ccRUXxV8.s:907    .text.USART_SmartCardNACKCmd:0000000000000018 .LFE48
C:\Users\LOCALH~1\AppData\Local\Temp\ccRUXxV8.s:4230   .debug_str:00000000000003bd .LASF78
C:\Users\LOCALH~1\AppData\Local\Temp\ccRUXxV8.s:844    .text.USART_SmartCardCmd:0000000000000000 .LFB47
C:\Users\LOCALH~1\AppData\Local\Temp\ccRUXxV8.s:872    .text.USART_SmartCardCmd:000000000000001a .LFE47
C:\Users\LOCALH~1\AppData\Local\Temp\ccRUXxV8.s:4110   .debug_str:0000000000000071 .LASF79
C:\Users\LOCALH~1\AppData\Local\Temp\ccRUXxV8.s:813    .text.USART_SetPrescaler:0000000000000000 .LFB46
C:\Users\LOCALH~1\AppData\Local\Temp\ccRUXxV8.s:837    .text.USART_SetPrescaler:0000000000000018 .LFE46
C:\Users\LOCALH~1\AppData\Local\Temp\ccRUXxV8.s:4300   .debug_str:00000000000006a5 .LASF80
C:\Users\LOCALH~1\AppData\Local\Temp\ccRUXxV8.s:3361   .debug_loclists:0000000000000270 .LLST19
C:\Users\LOCALH~1\AppData\Local\Temp\ccRUXxV8.s:4206   .debug_str:000000000000030d .LASF81
C:\Users\LOCALH~1\AppData\Local\Temp\ccRUXxV8.s:784    .text.USART_SetGuardTime:0000000000000000 .LFB45
C:\Users\LOCALH~1\AppData\Local\Temp\ccRUXxV8.s:806    .text.USART_SetGuardTime:0000000000000012 .LFE45
C:\Users\LOCALH~1\AppData\Local\Temp\ccRUXxV8.s:4176   .debug_str:0000000000000224 .LASF82
C:\Users\LOCALH~1\AppData\Local\Temp\ccRUXxV8.s:3376   .debug_loclists:000000000000028a .LLST18
C:\Users\LOCALH~1\AppData\Local\Temp\ccRUXxV8.s:4214   .debug_str:0000000000000348 .LASF83
C:\Users\LOCALH~1\AppData\Local\Temp\ccRUXxV8.s:764    .text.USART_SendBreak:0000000000000000 .LFB44
C:\Users\LOCALH~1\AppData\Local\Temp\ccRUXxV8.s:777    .text.USART_SendBreak:000000000000000a .LFE44
C:\Users\LOCALH~1\AppData\Local\Temp\ccRUXxV8.s:4312   .debug_str:00000000000006dd .LASF84
C:\Users\LOCALH~1\AppData\Local\Temp\ccRUXxV8.s:745    .text.USART_ReceiveData:0000000000000000 .LFB43
C:\Users\LOCALH~1\AppData\Local\Temp\ccRUXxV8.s:757    .text.USART_ReceiveData:0000000000000008 .LFE43
C:\Users\LOCALH~1\AppData\Local\Temp\ccRUXxV8.s:3391   .debug_loclists:00000000000002a4 .LLST17
C:\Users\LOCALH~1\AppData\Local\Temp\ccRUXxV8.s:4138   .debug_str:000000000000012e .LASF85
C:\Users\LOCALH~1\AppData\Local\Temp\ccRUXxV8.s:725    .text.USART_SendData:0000000000000000 .LFB42
C:\Users\LOCALH~1\AppData\Local\Temp\ccRUXxV8.s:738    .text.USART_SendData:0000000000000008 .LFE42
C:\Users\LOCALH~1\AppData\Local\Temp\ccRUXxV8.s:4186   .debug_str:0000000000000280 .LASF86
C:\Users\LOCALH~1\AppData\Local\Temp\ccRUXxV8.s:3406   .debug_loclists:00000000000002be .LLST16
C:\Users\LOCALH~1\AppData\Local\Temp\ccRUXxV8.s:4246   .debug_str:000000000000042a .LASF87
C:\Users\LOCALH~1\AppData\Local\Temp\ccRUXxV8.s:692    .text.USART_LINCmd:0000000000000000 .LFB41
C:\Users\LOCALH~1\AppData\Local\Temp\ccRUXxV8.s:718    .text.USART_LINCmd:0000000000000014 .LFE41
C:\Users\LOCALH~1\AppData\Local\Temp\ccRUXxV8.s:4178   .debug_str:0000000000000234 .LASF88
C:\Users\LOCALH~1\AppData\Local\Temp\ccRUXxV8.s:662    .text.USART_LINBreakDetectLengthConfig:0000000000000000 .LFB40
C:\Users\LOCALH~1\AppData\Local\Temp\ccRUXxV8.s:685    .text.USART_LINBreakDetectLengthConfig:0000000000000018 .LFE40
C:\Users\LOCALH~1\AppData\Local\Temp\ccRUXxV8.s:4118   .debug_str:00000000000000a4 .LASF89
C:\Users\LOCALH~1\AppData\Local\Temp\ccRUXxV8.s:4106   .debug_str:0000000000000048 .LASF90
C:\Users\LOCALH~1\AppData\Local\Temp\ccRUXxV8.s:627    .text.USART_ReceiverWakeUpCmd:0000000000000000 .LFB39
C:\Users\LOCALH~1\AppData\Local\Temp\ccRUXxV8.s:655    .text.USART_ReceiverWakeUpCmd:0000000000000018 .LFE39
C:\Users\LOCALH~1\AppData\Local\Temp\ccRUXxV8.s:4292   .debug_str:0000000000000660 .LASF91
C:\Users\LOCALH~1\AppData\Local\Temp\ccRUXxV8.s:599    .text.USART_WakeUpConfig:0000000000000000 .LFB38
C:\Users\LOCALH~1\AppData\Local\Temp\ccRUXxV8.s:620    .text.USART_WakeUpConfig:0000000000000014 .LFE38
C:\Users\LOCALH~1\AppData\Local\Temp\ccRUXxV8.s:4144   .debug_str:000000000000014e .LASF92
C:\Users\LOCALH~1\AppData\Local\Temp\ccRUXxV8.s:4200   .debug_str:00000000000002d4 .LASF93
C:\Users\LOCALH~1\AppData\Local\Temp\ccRUXxV8.s:568    .text.USART_SetAddress:0000000000000000 .LFB37
C:\Users\LOCALH~1\AppData\Local\Temp\ccRUXxV8.s:592    .text.USART_SetAddress:0000000000000016 .LFE37
C:\Users\LOCALH~1\AppData\Local\Temp\ccRUXxV8.s:4236   .debug_str:00000000000003e0 .LASF94
C:\Users\LOCALH~1\AppData\Local\Temp\ccRUXxV8.s:3421   .debug_loclists:00000000000002d8 .LLST15
C:\Users\LOCALH~1\AppData\Local\Temp\ccRUXxV8.s:4152   .debug_str:000000000000017f .LASF95
C:\Users\LOCALH~1\AppData\Local\Temp\ccRUXxV8.s:533    .text.USART_DMACmd:0000000000000000 .LFB36
C:\Users\LOCALH~1\AppData\Local\Temp\ccRUXxV8.s:561    .text.USART_DMACmd:0000000000000012 .LFE36
C:\Users\LOCALH~1\AppData\Local\Temp\ccRUXxV8.s:4298   .debug_str:0000000000000698 .LASF96
C:\Users\LOCALH~1\AppData\Local\Temp\ccRUXxV8.s:3436   .debug_loclists:00000000000002f2 .LLST14
C:\Users\LOCALH~1\AppData\Local\Temp\ccRUXxV8.s:4220   .debug_str:0000000000000381 .LASF97
C:\Users\LOCALH~1\AppData\Local\Temp\ccRUXxV8.s:460    .text.USART_ITConfig:0000000000000000 .LFB35
C:\Users\LOCALH~1\AppData\Local\Temp\ccRUXxV8.s:526    .text.USART_ITConfig:0000000000000038 .LFE35
C:\Users\LOCALH~1\AppData\Local\Temp\ccRUXxV8.s:3464   .debug_loclists:0000000000000325 .LLST9
C:\Users\LOCALH~1\AppData\Local\Temp\ccRUXxV8.s:3479   .debug_loclists:000000000000033f .LLST10
C:\Users\LOCALH~1\AppData\Local\Temp\ccRUXxV8.s:4104   .debug_str:0000000000000042 .LASF98
C:\Users\LOCALH~1\AppData\Local\Temp\ccRUXxV8.s:3533   .debug_loclists:0000000000000392 .LLST11
C:\Users\LOCALH~1\AppData\Local\Temp\ccRUXxV8.s:3566   .debug_loclists:00000000000003c6 .LLST12
C:\Users\LOCALH~1\AppData\Local\Temp\ccRUXxV8.s:4198   .debug_str:00000000000002c9 .LASF99
C:\Users\LOCALH~1\AppData\Local\Temp\ccRUXxV8.s:3600   .debug_loclists:00000000000003ff .LLST13
C:\Users\LOCALH~1\AppData\Local\Temp\ccRUXxV8.s:4134   .debug_str:000000000000011e .LASF100
C:\Users\LOCALH~1\AppData\Local\Temp\ccRUXxV8.s:427    .text.USART_Cmd:0000000000000000 .LFB34
C:\Users\LOCALH~1\AppData\Local\Temp\ccRUXxV8.s:453    .text.USART_Cmd:0000000000000014 .LFE34
C:\Users\LOCALH~1\AppData\Local\Temp\ccRUXxV8.s:4192   .debug_str:0000000000000299 .LASF101
C:\Users\LOCALH~1\AppData\Local\Temp\ccRUXxV8.s:401    .text.USART_ClockStructInit:0000000000000000 .LFB33
C:\Users\LOCALH~1\AppData\Local\Temp\ccRUXxV8.s:420    .text.USART_ClockStructInit:0000000000000012 .LFE33
C:\Users\LOCALH~1\AppData\Local\Temp\ccRUXxV8.s:4184   .debug_str:000000000000026a .LASF102
C:\Users\LOCALH~1\AppData\Local\Temp\ccRUXxV8.s:4290   .debug_str:0000000000000650 .LASF103
C:\Users\LOCALH~1\AppData\Local\Temp\ccRUXxV8.s:362    .text.USART_ClockInit:0000000000000000 .LFB32
C:\Users\LOCALH~1\AppData\Local\Temp\ccRUXxV8.s:394    .text.USART_ClockInit:000000000000001e .LFE32
C:\Users\LOCALH~1\AppData\Local\Temp\ccRUXxV8.s:4188   .debug_str:0000000000000285 .LASF104
C:\Users\LOCALH~1\AppData\Local\Temp\ccRUXxV8.s:3622   .debug_loclists:000000000000042c .LLST8
C:\Users\LOCALH~1\AppData\Local\Temp\ccRUXxV8.s:4296   .debug_str:0000000000000687 .LASF105
C:\Users\LOCALH~1\AppData\Local\Temp\ccRUXxV8.s:330    .text.USART_StructInit:0000000000000000 .LFB31
C:\Users\LOCALH~1\AppData\Local\Temp\ccRUXxV8.s:355    .text.USART_StructInit:0000000000000018 .LFE31
C:\Users\LOCALH~1\AppData\Local\Temp\ccRUXxV8.s:4286   .debug_str:000000000000062e .LASF106
C:\Users\LOCALH~1\AppData\Local\Temp\ccRUXxV8.s:4112   .debug_str:0000000000000084 .LASF107
C:\Users\LOCALH~1\AppData\Local\Temp\ccRUXxV8.s:172    .text.USART_Init:0000000000000000 .LFB30
C:\Users\LOCALH~1\AppData\Local\Temp\ccRUXxV8.s:323    .text.USART_Init:000000000000009a .LFE30
C:\Users\LOCALH~1\AppData\Local\Temp\ccRUXxV8.s:3653   .debug_loclists:000000000000045f .LLST1
C:\Users\LOCALH~1\AppData\Local\Temp\ccRUXxV8.s:3665   .debug_loclists:0000000000000476 .LLST2
C:\Users\LOCALH~1\AppData\Local\Temp\ccRUXxV8.s:3677   .debug_loclists:000000000000048d .LLST3
C:\Users\LOCALH~1\AppData\Local\Temp\ccRUXxV8.s:4164   .debug_str:00000000000001cc .LASF108
C:\Users\LOCALH~1\AppData\Local\Temp\ccRUXxV8.s:3753   .debug_loclists:000000000000050a .LLST4
C:\Users\LOCALH~1\AppData\Local\Temp\ccRUXxV8.s:4094   .debug_str:0000000000000000 .LASF109
C:\Users\LOCALH~1\AppData\Local\Temp\ccRUXxV8.s:3777   .debug_loclists:0000000000000539 .LLST5
C:\Users\LOCALH~1\AppData\Local\Temp\ccRUXxV8.s:4272   .debug_str:00000000000004be .LASF110
C:\Users\LOCALH~1\AppData\Local\Temp\ccRUXxV8.s:3796   .debug_loclists:000000000000055d .LLST6
C:\Users\LOCALH~1\AppData\Local\Temp\ccRUXxV8.s:3810   .debug_loclists:0000000000000576 .LLST7
C:\Users\LOCALH~1\AppData\Local\Temp\ccRUXxV8.s:4288   .debug_str:000000000000063f .LASF111
C:\Users\LOCALH~1\AppData\Local\Temp\ccRUXxV8.s:253    .text.USART_Init:000000000000004e .LVL38
C:\Users\LOCALH~1\AppData\Local\Temp\ccRUXxV8.s:4102   .debug_str:0000000000000035 .LASF113
C:\Users\LOCALH~1\AppData\Local\Temp\ccRUXxV8.s:15     .text.USART_DeInit:0000000000000000 .LFB29
C:\Users\LOCALH~1\AppData\Local\Temp\ccRUXxV8.s:165    .text.USART_DeInit:0000000000000112 .LFE29
C:\Users\LOCALH~1\AppData\Local\Temp\ccRUXxV8.s:3828   .debug_loclists:0000000000000599 .LLST0
C:\Users\LOCALH~1\AppData\Local\Temp\ccRUXxV8.s:33     .text.USART_DeInit:0000000000000020 .LVL2
C:\Users\LOCALH~1\AppData\Local\Temp\ccRUXxV8.s:38     .text.USART_DeInit:000000000000002c .LVL3
C:\Users\LOCALH~1\AppData\Local\Temp\ccRUXxV8.s:58     .text.USART_DeInit:000000000000004e .LVL6
C:\Users\LOCALH~1\AppData\Local\Temp\ccRUXxV8.s:65     .text.USART_DeInit:000000000000005c .LVL7
C:\Users\LOCALH~1\AppData\Local\Temp\ccRUXxV8.s:80     .text.USART_DeInit:0000000000000078 .LVL10
C:\Users\LOCALH~1\AppData\Local\Temp\ccRUXxV8.s:96     .text.USART_DeInit:0000000000000096 .LVL13
C:\Users\LOCALH~1\AppData\Local\Temp\ccRUXxV8.s:111    .text.USART_DeInit:00000000000000b0 .LVL16
C:\Users\LOCALH~1\AppData\Local\Temp\ccRUXxV8.s:128    .text.USART_DeInit:00000000000000d2 .LVL19
C:\Users\LOCALH~1\AppData\Local\Temp\ccRUXxV8.s:144    .text.USART_DeInit:00000000000000f0 .LVL22
C:\Users\LOCALH~1\AppData\Local\Temp\ccRUXxV8.s:159    .text.USART_DeInit:000000000000010a .LVL25
C:\Users\LOCALH~1\AppData\Local\Temp\ccRUXxV8.s:1149   .text.USART_ClearITPendingBit:0000000000000000 .LVL106
C:\Users\LOCALH~1\AppData\Local\Temp\ccRUXxV8.s:1156   .text.USART_ClearITPendingBit:0000000000000002 .LVL107
C:\Users\LOCALH~1\AppData\Local\Temp\ccRUXxV8.s:1063   .text.USART_GetITStatus:0000000000000000 .LVL92
C:\Users\LOCALH~1\AppData\Local\Temp\ccRUXxV8.s:1091   .text.USART_GetITStatus:0000000000000018 .LVL96
C:\Users\LOCALH~1\AppData\Local\Temp\ccRUXxV8.s:1108   .text.USART_GetITStatus:0000000000000024 .LVL99
C:\Users\LOCALH~1\AppData\Local\Temp\ccRUXxV8.s:1120   .text.USART_GetITStatus:0000000000000030 .LVL102
C:\Users\LOCALH~1\AppData\Local\Temp\ccRUXxV8.s:1105   .text.USART_GetITStatus:0000000000000022 .LVL98
C:\Users\LOCALH~1\AppData\Local\Temp\ccRUXxV8.s:1099   .text.USART_GetITStatus:000000000000001e .LVL97
C:\Users\LOCALH~1\AppData\Local\Temp\ccRUXxV8.s:1112   .text.USART_GetITStatus:000000000000002a .LVL100
C:\Users\LOCALH~1\AppData\Local\Temp\ccRUXxV8.s:1073   .text.USART_GetITStatus:0000000000000008 .LVL93
C:\Users\LOCALH~1\AppData\Local\Temp\ccRUXxV8.s:1080   .text.USART_GetITStatus:000000000000000e .LVL94
C:\Users\LOCALH~1\AppData\Local\Temp\ccRUXxV8.s:1115   .text.USART_GetITStatus:000000000000002e .LVL101
C:\Users\LOCALH~1\AppData\Local\Temp\ccRUXxV8.s:1087   .text.USART_GetITStatus:0000000000000014 .LVL95
C:\Users\LOCALH~1\AppData\Local\Temp\ccRUXxV8.s:1129   .text.USART_GetITStatus:0000000000000038 .LVL103
C:\Users\LOCALH~1\AppData\Local\Temp\ccRUXxV8.s:1131   .text.USART_GetITStatus:000000000000003a .LVL104
C:\Users\LOCALH~1\AppData\Local\Temp\ccRUXxV8.s:1136   .text.USART_GetITStatus:000000000000003c .LVL105
C:\Users\LOCALH~1\AppData\Local\Temp\ccRUXxV8.s:1041   .text.USART_ClearFlag:0000000000000000 .LVL90
C:\Users\LOCALH~1\AppData\Local\Temp\ccRUXxV8.s:1045   .text.USART_ClearFlag:0000000000000004 .LVL91
C:\Users\LOCALH~1\AppData\Local\Temp\ccRUXxV8.s:1017   .text.USART_GetFlagStatus:0000000000000000 .LVL87
C:\Users\LOCALH~1\AppData\Local\Temp\ccRUXxV8.s:1022   .text.USART_GetFlagStatus:0000000000000002 .LVL88
C:\Users\LOCALH~1\AppData\Local\Temp\ccRUXxV8.s:1026   .text.USART_GetFlagStatus:0000000000000004 .LVL89
C:\Users\LOCALH~1\AppData\Local\Temp\ccRUXxV8.s:816    .text.USART_SetPrescaler:0000000000000000 .LVL80
C:\Users\LOCALH~1\AppData\Local\Temp\ccRUXxV8.s:832    .text.USART_SetPrescaler:0000000000000014 .LVL81
C:\Users\LOCALH~1\AppData\Local\Temp\ccRUXxV8.s:787    .text.USART_SetGuardTime:0000000000000000 .LVL78
C:\Users\LOCALH~1\AppData\Local\Temp\ccRUXxV8.s:793    .text.USART_SetGuardTime:0000000000000004 .LVL79
C:\Users\LOCALH~1\AppData\Local\Temp\ccRUXxV8.s:748    .text.USART_ReceiveData:0000000000000000 .LVL75
C:\Users\LOCALH~1\AppData\Local\Temp\ccRUXxV8.s:752    .text.USART_ReceiveData:0000000000000002 .LVL76
C:\Users\LOCALH~1\AppData\Local\Temp\ccRUXxV8.s:728    .text.USART_SendData:0000000000000000 .LVL73
C:\Users\LOCALH~1\AppData\Local\Temp\ccRUXxV8.s:732    .text.USART_SendData:0000000000000004 .LVL74
C:\Users\LOCALH~1\AppData\Local\Temp\ccRUXxV8.s:571    .text.USART_SetAddress:0000000000000000 .LVL67
C:\Users\LOCALH~1\AppData\Local\Temp\ccRUXxV8.s:587    .text.USART_SetAddress:0000000000000012 .LVL68
C:\Users\LOCALH~1\AppData\Local\Temp\ccRUXxV8.s:536    .text.USART_DMACmd:0000000000000000 .LVL63
C:\Users\LOCALH~1\AppData\Local\Temp\ccRUXxV8.s:545    .text.USART_DMACmd:0000000000000006 .LVL64
C:\Users\LOCALH~1\AppData\Local\Temp\ccRUXxV8.s:551    .text.USART_DMACmd:000000000000000a .LVL65
C:\Users\LOCALH~1\AppData\Local\Temp\ccRUXxV8.s:556    .text.USART_DMACmd:000000000000000e .LVL66
C:\Users\LOCALH~1\AppData\Local\Temp\ccRUXxV8.s:463    .text.USART_ITConfig:0000000000000000 .LVL53
C:\Users\LOCALH~1\AppData\Local\Temp\ccRUXxV8.s:479    .text.USART_ITConfig:000000000000000c .LVL55
C:\Users\LOCALH~1\AppData\Local\Temp\ccRUXxV8.s:474    .text.USART_ITConfig:0000000000000008 .LVL54
C:\Users\LOCALH~1\AppData\Local\Temp\ccRUXxV8.s:491    .text.USART_ITConfig:0000000000000016 .LVL57
C:\Users\LOCALH~1\AppData\Local\Temp\ccRUXxV8.s:499    .text.USART_ITConfig:000000000000001e .LVL58
C:\Users\LOCALH~1\AppData\Local\Temp\ccRUXxV8.s:513    .text.USART_ITConfig:000000000000002e .LVL60
C:\Users\LOCALH~1\AppData\Local\Temp\ccRUXxV8.s:518    .text.USART_ITConfig:0000000000000032 .LVL61
C:\Users\LOCALH~1\AppData\Local\Temp\ccRUXxV8.s:521    .text.USART_ITConfig:0000000000000034 .LVL62
C:\Users\LOCALH~1\AppData\Local\Temp\ccRUXxV8.s:486    .text.USART_ITConfig:0000000000000014 .LVL56
C:\Users\LOCALH~1\AppData\Local\Temp\ccRUXxV8.s:511    .text.USART_ITConfig:000000000000002c .LVL59
C:\Users\LOCALH~1\AppData\Local\Temp\ccRUXxV8.s:365    .text.USART_ClockInit:0000000000000000 .LVL47
C:\Users\LOCALH~1\AppData\Local\Temp\ccRUXxV8.s:373    .text.USART_ClockInit:0000000000000006 .LVL48
C:\Users\LOCALH~1\AppData\Local\Temp\ccRUXxV8.s:385    .text.USART_ClockInit:0000000000000018 .LVL49
C:\Users\LOCALH~1\AppData\Local\Temp\ccRUXxV8.s:387    .text.USART_ClockInit:000000000000001a .LVL50
C:\Users\LOCALH~1\AppData\Local\Temp\ccRUXxV8.s:175    .text.USART_Init:0000000000000000 .LVL26
C:\Users\LOCALH~1\AppData\Local\Temp\ccRUXxV8.s:251    .text.USART_Init:0000000000000046 .LVL37
C:\Users\LOCALH~1\AppData\Local\Temp\ccRUXxV8.s:182    .text.USART_Init:0000000000000008 .LVL27
C:\Users\LOCALH~1\AppData\Local\Temp\ccRUXxV8.s:198    .text.USART_Init:0000000000000014 .LVL28
C:\Users\LOCALH~1\AppData\Local\Temp\ccRUXxV8.s:206    .text.USART_Init:0000000000000018 .LVL29
C:\Users\LOCALH~1\AppData\Local\Temp\ccRUXxV8.s:213    .text.USART_Init:000000000000001c .LVL30
C:\Users\LOCALH~1\AppData\Local\Temp\ccRUXxV8.s:219    .text.USART_Init:0000000000000024 .LVL31
C:\Users\LOCALH~1\AppData\Local\Temp\ccRUXxV8.s:229    .text.USART_Init:0000000000000034 .LVL32
C:\Users\LOCALH~1\AppData\Local\Temp\ccRUXxV8.s:236    .text.USART_Init:0000000000000038 .LVL33
C:\Users\LOCALH~1\AppData\Local\Temp\ccRUXxV8.s:239    .text.USART_Init:000000000000003c .LVL34
C:\Users\LOCALH~1\AppData\Local\Temp\ccRUXxV8.s:243    .text.USART_Init:0000000000000040 .LVL35
C:\Users\LOCALH~1\AppData\Local\Temp\ccRUXxV8.s:245    .text.USART_Init:0000000000000042 .LVL36
C:\Users\LOCALH~1\AppData\Local\Temp\ccRUXxV8.s:262    .text.USART_Init:000000000000005c .LVL39
C:\Users\LOCALH~1\AppData\Local\Temp\ccRUXxV8.s:268    .text.USART_Init:0000000000000062 .LVL40
C:\Users\LOCALH~1\AppData\Local\Temp\ccRUXxV8.s:314    .text.USART_Init:0000000000000096 .LVL44
C:\Users\LOCALH~1\AppData\Local\Temp\ccRUXxV8.s:320    .text.USART_Init:0000000000000098 .LVL45
C:\Users\LOCALH~1\AppData\Local\Temp\ccRUXxV8.s:277    .text.USART_Init:000000000000006e .LVL41
C:\Users\LOCALH~1\AppData\Local\Temp\ccRUXxV8.s:283    .text.USART_Init:0000000000000076 .LVL42
C:\Users\LOCALH~1\AppData\Local\Temp\ccRUXxV8.s:286    .text.USART_Init:0000000000000078 .LVL43
C:\Users\LOCALH~1\AppData\Local\Temp\ccRUXxV8.s:19     .text.USART_DeInit:0000000000000000 .LVL0
C:\Users\LOCALH~1\AppData\Local\Temp\ccRUXxV8.s:31     .text.USART_DeInit:0000000000000018 .LVL1
C:\Users\LOCALH~1\AppData\Local\Temp\ccRUXxV8.s:45     .text.USART_DeInit:0000000000000034 .LVL4
C:\Users\LOCALH~1\AppData\Local\Temp\ccRUXxV8.s:56     .text.USART_DeInit:0000000000000046 .LVL5
C:\Users\LOCALH~1\AppData\Local\Temp\ccRUXxV8.s:68     .text.USART_DeInit:000000000000005e .LVL8
C:\Users\LOCALH~1\AppData\Local\Temp\ccRUXxV8.s:78     .text.USART_DeInit:0000000000000070 .LVL9
C:\Users\LOCALH~1\AppData\Local\Temp\ccRUXxV8.s:85     .text.USART_DeInit:0000000000000080 .LVL11
C:\Users\LOCALH~1\AppData\Local\Temp\ccRUXxV8.s:94     .text.USART_DeInit:000000000000008e .LVL12
C:\Users\LOCALH~1\AppData\Local\Temp\ccRUXxV8.s:101    .text.USART_DeInit:000000000000009e .LVL14
C:\Users\LOCALH~1\AppData\Local\Temp\ccRUXxV8.s:109    .text.USART_DeInit:00000000000000a8 .LVL15
C:\Users\LOCALH~1\AppData\Local\Temp\ccRUXxV8.s:116    .text.USART_DeInit:00000000000000b8 .LVL17
C:\Users\LOCALH~1\AppData\Local\Temp\ccRUXxV8.s:126    .text.USART_DeInit:00000000000000ca .LVL18
C:\Users\LOCALH~1\AppData\Local\Temp\ccRUXxV8.s:133    .text.USART_DeInit:00000000000000da .LVL20
C:\Users\LOCALH~1\AppData\Local\Temp\ccRUXxV8.s:142    .text.USART_DeInit:00000000000000e8 .LVL21
C:\Users\LOCALH~1\AppData\Local\Temp\ccRUXxV8.s:149    .text.USART_DeInit:00000000000000f8 .LVL23
C:\Users\LOCALH~1\AppData\Local\Temp\ccRUXxV8.s:157    .text.USART_DeInit:0000000000000102 .LVL24
C:\Users\LOCALH~1\AppData\Local\Temp\ccRUXxV8.s:1180   .debug_info:0000000000000000 .Ldebug_info0

UNDEFINED SYMBOLS
__riscv_save_0
RCC_APB2PeriphResetCmd
__riscv_restore_0
RCC_APB1PeriphResetCmd
__riscv_save_2
RCC_GetClocksFreq
__riscv_restore_2
