   1              		.file	"ch32v30x_rcc.c"
   2              		.option nopic
   3              		.attribute arch, "rv32i2p0_m2p0_a2p0_f2p0_c2p0_xw"
   4              		.attribute unaligned_access, 0
   5              		.attribute stack_align, 16
   6              		.text
   7              	.Ltext0:
   8              		.cfi_sections	.debug_frame
   9              		.file 0 "C:\\Users\\localhost\\Documents\\turbomoskal-repo\\qqexpert\\firmware\\MasterController\\
  10              		.section	.text.RCC_DeInit,"ax",@progbits
  11              		.align	1
  12              		.globl	RCC_DeInit
  14              	RCC_DeInit:
  15              	.LFB29:
  16              		.file 1 "../Peripheral/src/ch32v30x_rcc.c"
   1:../Peripheral/src/ch32v30x_rcc.c **** /********************************** (C) COPYRIGHT *******************************
   2:../Peripheral/src/ch32v30x_rcc.c **** * File Name          : ch32v30x_rcc.c
   3:../Peripheral/src/ch32v30x_rcc.c **** * Author             : WCH
   4:../Peripheral/src/ch32v30x_rcc.c **** * Version            : V1.0.0
   5:../Peripheral/src/ch32v30x_rcc.c **** * Date               : 2024/05/28
   6:../Peripheral/src/ch32v30x_rcc.c **** * Description        : This file provides all the RCC firmware functions.
   7:../Peripheral/src/ch32v30x_rcc.c **** *********************************************************************************
   8:../Peripheral/src/ch32v30x_rcc.c **** * Copyright (c) 2021 Nanjing Qinheng Microelectronics Co., Ltd.
   9:../Peripheral/src/ch32v30x_rcc.c **** * Attention: This software (modified or not) and binary are used for 
  10:../Peripheral/src/ch32v30x_rcc.c **** * microcontroller manufactured by Nanjing Qinheng Microelectronics.
  11:../Peripheral/src/ch32v30x_rcc.c **** *******************************************************************************/
  12:../Peripheral/src/ch32v30x_rcc.c **** #include "ch32v30x_rcc.h"
  13:../Peripheral/src/ch32v30x_rcc.c **** 
  14:../Peripheral/src/ch32v30x_rcc.c **** /* RCC registers bit address in the alias region */
  15:../Peripheral/src/ch32v30x_rcc.c **** #define RCC_OFFSET                 (RCC_BASE - PERIPH_BASE)
  16:../Peripheral/src/ch32v30x_rcc.c **** 
  17:../Peripheral/src/ch32v30x_rcc.c **** /* BDCTLR Register */
  18:../Peripheral/src/ch32v30x_rcc.c **** #define BDCTLR_OFFSET              (RCC_OFFSET + 0x20)
  19:../Peripheral/src/ch32v30x_rcc.c **** 
  20:../Peripheral/src/ch32v30x_rcc.c **** /* RCC registers bit mask */
  21:../Peripheral/src/ch32v30x_rcc.c **** 
  22:../Peripheral/src/ch32v30x_rcc.c **** /* CTLR register bit mask */
  23:../Peripheral/src/ch32v30x_rcc.c **** #define CTLR_HSEBYP_Reset          ((uint32_t)0xFFFBFFFF)
  24:../Peripheral/src/ch32v30x_rcc.c **** #define CTLR_HSEBYP_Set            ((uint32_t)0x00040000)
  25:../Peripheral/src/ch32v30x_rcc.c **** #define CTLR_HSEON_Reset           ((uint32_t)0xFFFEFFFF)
  26:../Peripheral/src/ch32v30x_rcc.c **** #define CTLR_HSEON_Set             ((uint32_t)0x00010000)
  27:../Peripheral/src/ch32v30x_rcc.c **** #define CTLR_HSITRIM_Mask          ((uint32_t)0xFFFFFF07)
  28:../Peripheral/src/ch32v30x_rcc.c **** 
  29:../Peripheral/src/ch32v30x_rcc.c **** #define CFGR0_PLL_Mask             ((uint32_t)0xFFC0FFFF)
  30:../Peripheral/src/ch32v30x_rcc.c **** #define CFGR0_PLL_Mask_1           ((uint32_t)0xFFC2FFFF)
  31:../Peripheral/src/ch32v30x_rcc.c **** 
  32:../Peripheral/src/ch32v30x_rcc.c **** #define CFGR0_PLLMull_Mask         ((uint32_t)0x003C0000)
  33:../Peripheral/src/ch32v30x_rcc.c **** #define CFGR0_PLLSRC_Mask          ((uint32_t)0x00010000)
  34:../Peripheral/src/ch32v30x_rcc.c **** #define CFGR0_PLLXTPRE_Mask        ((uint32_t)0x00020000)
  35:../Peripheral/src/ch32v30x_rcc.c **** #define CFGR0_SWS_Mask             ((uint32_t)0x0000000C)
  36:../Peripheral/src/ch32v30x_rcc.c **** #define CFGR0_SW_Mask              ((uint32_t)0xFFFFFFFC)
  37:../Peripheral/src/ch32v30x_rcc.c **** #define CFGR0_HPRE_Reset_Mask      ((uint32_t)0xFFFFFF0F)
  38:../Peripheral/src/ch32v30x_rcc.c **** #define CFGR0_HPRE_Set_Mask        ((uint32_t)0x000000F0)
  39:../Peripheral/src/ch32v30x_rcc.c **** #define CFGR0_PPRE1_Reset_Mask     ((uint32_t)0xFFFFF8FF)
  40:../Peripheral/src/ch32v30x_rcc.c **** #define CFGR0_PPRE1_Set_Mask       ((uint32_t)0x00000700)
  41:../Peripheral/src/ch32v30x_rcc.c **** #define CFGR0_PPRE2_Reset_Mask     ((uint32_t)0xFFFFC7FF)
  42:../Peripheral/src/ch32v30x_rcc.c **** #define CFGR0_PPRE2_Set_Mask       ((uint32_t)0x00003800)
  43:../Peripheral/src/ch32v30x_rcc.c **** #define CFGR0_ADCPRE_Reset_Mask    ((uint32_t)0xFFFF3FFF)
  44:../Peripheral/src/ch32v30x_rcc.c **** #define CFGR0_ADCPRE_Set_Mask      ((uint32_t)0x0000C000)
  45:../Peripheral/src/ch32v30x_rcc.c **** 
  46:../Peripheral/src/ch32v30x_rcc.c **** /* RSTSCKR register bit mask */
  47:../Peripheral/src/ch32v30x_rcc.c **** #define RSTSCKR_RMVF_Set           ((uint32_t)0x01000000)
  48:../Peripheral/src/ch32v30x_rcc.c **** 
  49:../Peripheral/src/ch32v30x_rcc.c **** /* CFGR2 register bit mask */
  50:../Peripheral/src/ch32v30x_rcc.c **** #define CFGR2_PREDIV1SRC           ((uint32_t)0x00010000)
  51:../Peripheral/src/ch32v30x_rcc.c **** #define CFGR2_PREDIV1              ((uint32_t)0x0000000F)
  52:../Peripheral/src/ch32v30x_rcc.c **** #define CFGR2_PREDIV2              ((uint32_t)0x000000F0)
  53:../Peripheral/src/ch32v30x_rcc.c **** #define CFGR2_PLL2MUL              ((uint32_t)0x00000F00)
  54:../Peripheral/src/ch32v30x_rcc.c **** #define CFGR2_PLL3MUL              ((uint32_t)0x0000F000)
  55:../Peripheral/src/ch32v30x_rcc.c **** 
  56:../Peripheral/src/ch32v30x_rcc.c **** /* RCC Flag Mask */
  57:../Peripheral/src/ch32v30x_rcc.c **** #define FLAG_Mask                  ((uint8_t)0x1F)
  58:../Peripheral/src/ch32v30x_rcc.c **** 
  59:../Peripheral/src/ch32v30x_rcc.c **** /* INTR register byte 2 (Bits[15:8]) base address */
  60:../Peripheral/src/ch32v30x_rcc.c **** #define INTR_BYTE2_ADDRESS         ((uint32_t)0x40021009)
  61:../Peripheral/src/ch32v30x_rcc.c **** 
  62:../Peripheral/src/ch32v30x_rcc.c **** /* INTR register byte 3 (Bits[23:16]) base address */
  63:../Peripheral/src/ch32v30x_rcc.c **** #define INTR_BYTE3_ADDRESS         ((uint32_t)0x4002100A)
  64:../Peripheral/src/ch32v30x_rcc.c **** 
  65:../Peripheral/src/ch32v30x_rcc.c **** /* CFGR0 register byte 4 (Bits[31:24]) base address */
  66:../Peripheral/src/ch32v30x_rcc.c **** #define CFGR0_BYTE4_ADDRESS        ((uint32_t)0x40021007)
  67:../Peripheral/src/ch32v30x_rcc.c **** 
  68:../Peripheral/src/ch32v30x_rcc.c **** /* BDCTLR register base address */
  69:../Peripheral/src/ch32v30x_rcc.c **** #define BDCTLR_ADDRESS             (PERIPH_BASE + BDCTLR_OFFSET)
  70:../Peripheral/src/ch32v30x_rcc.c **** 
  71:../Peripheral/src/ch32v30x_rcc.c **** static __I uint8_t APBAHBPrescTable[16] = {0, 0, 0, 0, 1, 2, 3, 4, 1, 2, 3, 4, 6, 7, 8, 9};
  72:../Peripheral/src/ch32v30x_rcc.c **** static __I uint8_t ADCPrescTable[4] = {2, 4, 6, 8};
  73:../Peripheral/src/ch32v30x_rcc.c **** 
  74:../Peripheral/src/ch32v30x_rcc.c **** /*********************************************************************
  75:../Peripheral/src/ch32v30x_rcc.c ****  * @fn      RCC_DeInit
  76:../Peripheral/src/ch32v30x_rcc.c ****  *
  77:../Peripheral/src/ch32v30x_rcc.c ****  * @brief   Resets the RCC clock configuration to the default reset state.
  78:../Peripheral/src/ch32v30x_rcc.c ****  *          Note-
  79:../Peripheral/src/ch32v30x_rcc.c ****  *          HSE can not be stopped if it is used directly or through the PLL as system clock.
  80:../Peripheral/src/ch32v30x_rcc.c ****  * @return  none
  81:../Peripheral/src/ch32v30x_rcc.c ****  */
  82:../Peripheral/src/ch32v30x_rcc.c **** void RCC_DeInit(void)
  83:../Peripheral/src/ch32v30x_rcc.c **** {
  17              		.loc 1 83 1
  18              		.cfi_startproc
  84:../Peripheral/src/ch32v30x_rcc.c ****     RCC->CTLR |= (uint32_t)0x00000001;
  19              		.loc 1 84 5
  20              		.loc 1 84 8 is_stmt 0
  21 0000 B7170240 		li	a5,1073876992
  22 0004 9843     		lw	a4,0(a5)
  85:../Peripheral/src/ch32v30x_rcc.c **** 
  86:../Peripheral/src/ch32v30x_rcc.c **** #ifdef CH32V30x_D8C
  87:../Peripheral/src/ch32v30x_rcc.c ****     RCC->CFGR0 &= (uint32_t)0xF8FF0000;
  23              		.loc 1 87 16
  24 0006 B706FFF8 		li	a3,-117506048
  84:../Peripheral/src/ch32v30x_rcc.c ****     RCC->CTLR |= (uint32_t)0x00000001;
  25              		.loc 1 84 15
  26 000a 13671700 		ori	a4,a4,1
  27 000e 98C3     		sw	a4,0(a5)
  28              		.loc 1 87 5 is_stmt 1
  29              		.loc 1 87 8 is_stmt 0
  30 0010 D843     		lw	a4,4(a5)
  31              		.loc 1 87 16
  32 0012 758F     		and	a4,a4,a3
  33 0014 D8C3     		sw	a4,4(a5)
  88:../Peripheral/src/ch32v30x_rcc.c **** #else
  89:../Peripheral/src/ch32v30x_rcc.c ****     RCC->CFGR0 &= (uint32_t)0xF0FF0000;
  90:../Peripheral/src/ch32v30x_rcc.c **** #endif
  91:../Peripheral/src/ch32v30x_rcc.c **** 
  92:../Peripheral/src/ch32v30x_rcc.c ****     RCC->CTLR &= (uint32_t)0xFEF6FFFF;
  34              		.loc 1 92 5 is_stmt 1
  35              		.loc 1 92 8 is_stmt 0
  36 0016 9843     		lw	a4,0(a5)
  37              		.loc 1 92 15
  38 0018 B706F7FE 		li	a3,-17367040
  39 001c FD16     		addi	a3,a3,-1
  40 001e 758F     		and	a4,a4,a3
  41 0020 98C3     		sw	a4,0(a5)
  93:../Peripheral/src/ch32v30x_rcc.c ****     RCC->CTLR &= (uint32_t)0xFFFBFFFF;
  42              		.loc 1 93 5 is_stmt 1
  43              		.loc 1 93 8 is_stmt 0
  44 0022 9843     		lw	a4,0(a5)
  45              		.loc 1 93 15
  46 0024 B706FCFF 		li	a3,-262144
  47 0028 FD16     		addi	a3,a3,-1
  48 002a 758F     		and	a4,a4,a3
  49 002c 98C3     		sw	a4,0(a5)
  94:../Peripheral/src/ch32v30x_rcc.c ****     RCC->CFGR0 &= (uint32_t)0xFF80FFFF;
  50              		.loc 1 94 5 is_stmt 1
  51              		.loc 1 94 8 is_stmt 0
  52 002e D843     		lw	a4,4(a5)
  53              		.loc 1 94 16
  54 0030 B70681FF 		li	a3,-8323072
  55 0034 FD16     		addi	a3,a3,-1
  56 0036 758F     		and	a4,a4,a3
  57 0038 D8C3     		sw	a4,4(a5)
  95:../Peripheral/src/ch32v30x_rcc.c **** 
  96:../Peripheral/src/ch32v30x_rcc.c **** #ifdef CH32V30x_D8C
  97:../Peripheral/src/ch32v30x_rcc.c ****     RCC->CTLR &= (uint32_t)0xEBFFFFFF;
  58              		.loc 1 97 5 is_stmt 1
  59              		.loc 1 97 8 is_stmt 0
  60 003a 9843     		lw	a4,0(a5)
  61              		.loc 1 97 15
  62 003c B70600EC 		li	a3,-335544320
  63 0040 FD16     		addi	a3,a3,-1
  64 0042 758F     		and	a4,a4,a3
  65 0044 98C3     		sw	a4,0(a5)
  98:../Peripheral/src/ch32v30x_rcc.c ****     RCC->INTR = 0x00FF0000;
  66              		.loc 1 98 5 is_stmt 1
  67              		.loc 1 98 15 is_stmt 0
  68 0046 3707FF00 		li	a4,16711680
  69 004a 98C7     		sw	a4,8(a5)
  99:../Peripheral/src/ch32v30x_rcc.c ****     RCC->CFGR2 = 0x00000000;
  70              		.loc 1 99 5 is_stmt 1
  71              		.loc 1 99 16 is_stmt 0
  72 004c 23A60702 		sw	zero,44(a5)
 100:../Peripheral/src/ch32v30x_rcc.c **** #else
 101:../Peripheral/src/ch32v30x_rcc.c ****     RCC->INTR = 0x009F0000;
 102:../Peripheral/src/ch32v30x_rcc.c **** #endif
 103:../Peripheral/src/ch32v30x_rcc.c **** }
  73              		.loc 1 103 1
  74 0050 8280     		ret
  75              		.cfi_endproc
  76              	.LFE29:
  78              		.section	.text.RCC_HSEConfig,"ax",@progbits
  79              		.align	1
  80              		.globl	RCC_HSEConfig
  82              	RCC_HSEConfig:
  83              	.LFB30:
 104:../Peripheral/src/ch32v30x_rcc.c **** 
 105:../Peripheral/src/ch32v30x_rcc.c **** /*********************************************************************
 106:../Peripheral/src/ch32v30x_rcc.c ****  * @fn      RCC_HSEConfig
 107:../Peripheral/src/ch32v30x_rcc.c ****  *
 108:../Peripheral/src/ch32v30x_rcc.c ****  * @brief   Configures the External High Speed oscillator (HSE).
 109:../Peripheral/src/ch32v30x_rcc.c ****  *
 110:../Peripheral/src/ch32v30x_rcc.c ****  * @param   RCC_HSE -
 111:../Peripheral/src/ch32v30x_rcc.c ****  *            RCC_HSE_OFF - HSE oscillator OFF.
 112:../Peripheral/src/ch32v30x_rcc.c ****  *            RCC_HSE_ON - HSE oscillator ON.
 113:../Peripheral/src/ch32v30x_rcc.c ****  *            RCC_HSE_Bypass - HSE oscillator bypassed with external clock.
 114:../Peripheral/src/ch32v30x_rcc.c ****  *            Note-
 115:../Peripheral/src/ch32v30x_rcc.c ****  *            HSE can not be stopped if it is used directly or through the PLL as system clock.
 116:../Peripheral/src/ch32v30x_rcc.c ****  * @return  none
 117:../Peripheral/src/ch32v30x_rcc.c ****  */
 118:../Peripheral/src/ch32v30x_rcc.c **** void RCC_HSEConfig(uint32_t RCC_HSE)
 119:../Peripheral/src/ch32v30x_rcc.c **** {
  84              		.loc 1 119 1 is_stmt 1
  85              		.cfi_startproc
  86              	.LVL0:
 120:../Peripheral/src/ch32v30x_rcc.c ****     RCC->CTLR &= CTLR_HSEON_Reset;
  87              		.loc 1 120 5
  88              		.loc 1 120 8 is_stmt 0
  89 0000 B7170240 		li	a5,1073876992
  90 0004 9843     		lw	a4,0(a5)
  91              		.loc 1 120 15
  92 0006 C176     		li	a3,-65536
  93 0008 FD16     		addi	a3,a3,-1
  94 000a 758F     		and	a4,a4,a3
  95 000c 98C3     		sw	a4,0(a5)
 121:../Peripheral/src/ch32v30x_rcc.c ****     RCC->CTLR &= CTLR_HSEBYP_Reset;
  96              		.loc 1 121 5 is_stmt 1
  97              		.loc 1 121 8 is_stmt 0
  98 000e 9843     		lw	a4,0(a5)
  99              		.loc 1 121 15
 100 0010 B706FCFF 		li	a3,-262144
 101 0014 FD16     		addi	a3,a3,-1
 102 0016 758F     		and	a4,a4,a3
 103 0018 98C3     		sw	a4,0(a5)
 122:../Peripheral/src/ch32v30x_rcc.c **** 
 123:../Peripheral/src/ch32v30x_rcc.c ****     switch(RCC_HSE)
 104              		.loc 1 123 5 is_stmt 1
 105 001a 4167     		li	a4,65536
 106 001c 6307E500 		beq	a0,a4,.L3
 107 0020 37070400 		li	a4,262144
 108 0024 6307E500 		beq	a0,a4,.L4
 109 0028 8280     		ret
 110              	.L3:
 124:../Peripheral/src/ch32v30x_rcc.c ****     {
 125:../Peripheral/src/ch32v30x_rcc.c ****         case RCC_HSE_ON:
 126:../Peripheral/src/ch32v30x_rcc.c ****             RCC->CTLR |= CTLR_HSEON_Set;
 111              		.loc 1 126 13
 112              		.loc 1 126 16 is_stmt 0
 113 002a 9843     		lw	a4,0(a5)
 114              		.loc 1 126 23
 115 002c 498F     		or	a4,a4,a0
 116              	.L6:
 127:../Peripheral/src/ch32v30x_rcc.c ****             break;
 128:../Peripheral/src/ch32v30x_rcc.c **** 
 129:../Peripheral/src/ch32v30x_rcc.c ****         case RCC_HSE_Bypass:
 130:../Peripheral/src/ch32v30x_rcc.c ****             RCC->CTLR |= CTLR_HSEBYP_Set | CTLR_HSEON_Set;
 117              		.loc 1 130 23
 118 002e 98C3     		sw	a4,0(a5)
 131:../Peripheral/src/ch32v30x_rcc.c ****             break;
 119              		.loc 1 131 13 is_stmt 1
 132:../Peripheral/src/ch32v30x_rcc.c **** 
 133:../Peripheral/src/ch32v30x_rcc.c ****         default:
 134:../Peripheral/src/ch32v30x_rcc.c ****             break;
 135:../Peripheral/src/ch32v30x_rcc.c ****     }
 136:../Peripheral/src/ch32v30x_rcc.c **** }
 120              		.loc 1 136 1 is_stmt 0
 121 0030 8280     		ret
 122              	.L4:
 130:../Peripheral/src/ch32v30x_rcc.c ****             break;
 123              		.loc 1 130 13 is_stmt 1
 130:../Peripheral/src/ch32v30x_rcc.c ****             break;
 124              		.loc 1 130 16 is_stmt 0
 125 0032 9843     		lw	a4,0(a5)
 130:../Peripheral/src/ch32v30x_rcc.c ****             break;
 126              		.loc 1 130 23
 127 0034 B7060500 		li	a3,327680
 128 0038 558F     		or	a4,a4,a3
 129 003a D5BF     		j	.L6
 130              		.cfi_endproc
 131              	.LFE30:
 133              		.section	.text.RCC_AdjustHSICalibrationValue,"ax",@progbits
 134              		.align	1
 135              		.globl	RCC_AdjustHSICalibrationValue
 137              	RCC_AdjustHSICalibrationValue:
 138              	.LFB32:
 137:../Peripheral/src/ch32v30x_rcc.c **** 
 138:../Peripheral/src/ch32v30x_rcc.c **** /*********************************************************************
 139:../Peripheral/src/ch32v30x_rcc.c ****  * @fn      RCC_WaitForHSEStartUp
 140:../Peripheral/src/ch32v30x_rcc.c ****  *
 141:../Peripheral/src/ch32v30x_rcc.c ****  * @brief   Waits for HSE start-up.
 142:../Peripheral/src/ch32v30x_rcc.c ****  *
 143:../Peripheral/src/ch32v30x_rcc.c ****  * @return  READY - HSE oscillator is stable and ready to use.
 144:../Peripheral/src/ch32v30x_rcc.c ****  *          NoREADY - HSE oscillator not yet ready.
 145:../Peripheral/src/ch32v30x_rcc.c ****  */
 146:../Peripheral/src/ch32v30x_rcc.c **** ErrorStatus RCC_WaitForHSEStartUp(void)
 147:../Peripheral/src/ch32v30x_rcc.c **** {
 148:../Peripheral/src/ch32v30x_rcc.c ****     __IO uint32_t StartUpCounter = 0;
 149:../Peripheral/src/ch32v30x_rcc.c **** 
 150:../Peripheral/src/ch32v30x_rcc.c ****     ErrorStatus status = NoREADY;
 151:../Peripheral/src/ch32v30x_rcc.c ****     FlagStatus  HSEStatus = RESET;
 152:../Peripheral/src/ch32v30x_rcc.c **** 
 153:../Peripheral/src/ch32v30x_rcc.c ****     do
 154:../Peripheral/src/ch32v30x_rcc.c ****     {
 155:../Peripheral/src/ch32v30x_rcc.c ****         HSEStatus = RCC_GetFlagStatus(RCC_FLAG_HSERDY);
 156:../Peripheral/src/ch32v30x_rcc.c ****         StartUpCounter++;
 157:../Peripheral/src/ch32v30x_rcc.c ****     } while((StartUpCounter != HSE_STARTUP_TIMEOUT) && (HSEStatus == RESET));
 158:../Peripheral/src/ch32v30x_rcc.c **** 
 159:../Peripheral/src/ch32v30x_rcc.c ****     if(RCC_GetFlagStatus(RCC_FLAG_HSERDY) != RESET)
 160:../Peripheral/src/ch32v30x_rcc.c ****     {
 161:../Peripheral/src/ch32v30x_rcc.c ****         status = READY;
 162:../Peripheral/src/ch32v30x_rcc.c ****     }
 163:../Peripheral/src/ch32v30x_rcc.c ****     else
 164:../Peripheral/src/ch32v30x_rcc.c ****     {
 165:../Peripheral/src/ch32v30x_rcc.c ****         status = NoREADY;
 166:../Peripheral/src/ch32v30x_rcc.c ****     }
 167:../Peripheral/src/ch32v30x_rcc.c **** 
 168:../Peripheral/src/ch32v30x_rcc.c ****     return (status);
 169:../Peripheral/src/ch32v30x_rcc.c **** }
 170:../Peripheral/src/ch32v30x_rcc.c **** 
 171:../Peripheral/src/ch32v30x_rcc.c **** /*********************************************************************
 172:../Peripheral/src/ch32v30x_rcc.c ****  * @fn      RCC_AdjustHSICalibrationValue
 173:../Peripheral/src/ch32v30x_rcc.c ****  *
 174:../Peripheral/src/ch32v30x_rcc.c ****  * @brief   Adjusts the Internal High Speed oscillator (HSI) calibration value.
 175:../Peripheral/src/ch32v30x_rcc.c ****  *
 176:../Peripheral/src/ch32v30x_rcc.c ****  * @param   HSICalibrationValue - specifies the calibration trimming value.
 177:../Peripheral/src/ch32v30x_rcc.c ****  *                    This parameter must be a number between 0 and 0x1F.
 178:../Peripheral/src/ch32v30x_rcc.c ****  *
 179:../Peripheral/src/ch32v30x_rcc.c ****  * @return  none
 180:../Peripheral/src/ch32v30x_rcc.c ****  */
 181:../Peripheral/src/ch32v30x_rcc.c **** void RCC_AdjustHSICalibrationValue(uint8_t HSICalibrationValue)
 182:../Peripheral/src/ch32v30x_rcc.c **** {
 139              		.loc 1 182 1 is_stmt 1
 140              		.cfi_startproc
 141              	.LVL1:
 183:../Peripheral/src/ch32v30x_rcc.c ****     uint32_t tmpreg = 0;
 142              		.loc 1 183 5
 184:../Peripheral/src/ch32v30x_rcc.c **** 
 185:../Peripheral/src/ch32v30x_rcc.c ****     tmpreg = RCC->CTLR;
 143              		.loc 1 185 5
 144              		.loc 1 185 12 is_stmt 0
 145 0000 37170240 		li	a4,1073876992
 146 0004 1C43     		lw	a5,0(a4)
 147              	.LVL2:
 186:../Peripheral/src/ch32v30x_rcc.c ****     tmpreg &= CTLR_HSITRIM_Mask;
 148              		.loc 1 186 5 is_stmt 1
 187:../Peripheral/src/ch32v30x_rcc.c ****     tmpreg |= (uint32_t)HSICalibrationValue << 3;
 149              		.loc 1 187 45 is_stmt 0
 150 0006 0E05     		slli	a0,a0,3
 151              	.LVL3:
 186:../Peripheral/src/ch32v30x_rcc.c ****     tmpreg &= CTLR_HSITRIM_Mask;
 152              		.loc 1 186 12
 153 0008 93F777F0 		andi	a5,a5,-249
 154              	.LVL4:
 155              		.loc 1 187 5 is_stmt 1
 156              		.loc 1 187 12 is_stmt 0
 157 000c 5D8D     		or	a0,a0,a5
 158              	.LVL5:
 188:../Peripheral/src/ch32v30x_rcc.c ****     RCC->CTLR = tmpreg;
 159              		.loc 1 188 5 is_stmt 1
 160              		.loc 1 188 15 is_stmt 0
 161 000e 08C3     		sw	a0,0(a4)
 189:../Peripheral/src/ch32v30x_rcc.c **** }
 162              		.loc 1 189 1
 163 0010 8280     		ret
 164              		.cfi_endproc
 165              	.LFE32:
 167              		.section	.text.RCC_HSICmd,"ax",@progbits
 168              		.align	1
 169              		.globl	RCC_HSICmd
 171              	RCC_HSICmd:
 172              	.LFB33:
 190:../Peripheral/src/ch32v30x_rcc.c **** 
 191:../Peripheral/src/ch32v30x_rcc.c **** /*********************************************************************
 192:../Peripheral/src/ch32v30x_rcc.c ****  * @fn      RCC_HSICmd
 193:../Peripheral/src/ch32v30x_rcc.c ****  *
 194:../Peripheral/src/ch32v30x_rcc.c ****  * @brief   Enables or disables the Internal High Speed oscillator (HSI).
 195:../Peripheral/src/ch32v30x_rcc.c ****  *
 196:../Peripheral/src/ch32v30x_rcc.c ****  * @param   NewState - ENABLE or DISABLE.
 197:../Peripheral/src/ch32v30x_rcc.c ****  *
 198:../Peripheral/src/ch32v30x_rcc.c ****  * @return  none
 199:../Peripheral/src/ch32v30x_rcc.c ****  */
 200:../Peripheral/src/ch32v30x_rcc.c **** void RCC_HSICmd(FunctionalState NewState)
 201:../Peripheral/src/ch32v30x_rcc.c **** {
 173              		.loc 1 201 1 is_stmt 1
 174              		.cfi_startproc
 175              	.LVL6:
 202:../Peripheral/src/ch32v30x_rcc.c ****     if(NewState)
 176              		.loc 1 202 5
 203:../Peripheral/src/ch32v30x_rcc.c ****     {
 204:../Peripheral/src/ch32v30x_rcc.c ****         RCC->CTLR |= (1 << 0);
 177              		.loc 1 204 12 is_stmt 0
 178 0000 37170240 		li	a4,1073876992
 179 0004 1C43     		lw	a5,0(a4)
 202:../Peripheral/src/ch32v30x_rcc.c ****     if(NewState)
 180              		.loc 1 202 7
 181 0006 09C5     		beq	a0,zero,.L9
 182              		.loc 1 204 9 is_stmt 1
 183              		.loc 1 204 19 is_stmt 0
 184 0008 93E71700 		ori	a5,a5,1
 185              	.L11:
 205:../Peripheral/src/ch32v30x_rcc.c ****     }
 206:../Peripheral/src/ch32v30x_rcc.c ****     else
 207:../Peripheral/src/ch32v30x_rcc.c ****     {
 208:../Peripheral/src/ch32v30x_rcc.c ****         RCC->CTLR &= ~(1 << 0);
 186              		.loc 1 208 19
 187 000c 1CC3     		sw	a5,0(a4)
 209:../Peripheral/src/ch32v30x_rcc.c ****     }
 210:../Peripheral/src/ch32v30x_rcc.c **** }
 188              		.loc 1 210 1
 189 000e 8280     		ret
 190              	.L9:
 208:../Peripheral/src/ch32v30x_rcc.c ****     }
 191              		.loc 1 208 9 is_stmt 1
 208:../Peripheral/src/ch32v30x_rcc.c ****     }
 192              		.loc 1 208 19 is_stmt 0
 193 0010 F99B     		andi	a5,a5,-2
 194 0012 EDBF     		j	.L11
 195              		.cfi_endproc
 196              	.LFE33:
 198              		.section	.text.RCC_PLLConfig,"ax",@progbits
 199              		.align	1
 200              		.globl	RCC_PLLConfig
 202              	RCC_PLLConfig:
 203              	.LFB34:
 211:../Peripheral/src/ch32v30x_rcc.c **** 
 212:../Peripheral/src/ch32v30x_rcc.c **** /*********************************************************************
 213:../Peripheral/src/ch32v30x_rcc.c ****  * @fn      RCC_PLLConfig
 214:../Peripheral/src/ch32v30x_rcc.c ****  *
 215:../Peripheral/src/ch32v30x_rcc.c ****  * @brief   Configures the PLL clock source and multiplication factor.
 216:../Peripheral/src/ch32v30x_rcc.c ****  *
 217:../Peripheral/src/ch32v30x_rcc.c ****  * @param   RCC_PLLSource - specifies the PLL entry clock source.
 218:../Peripheral/src/ch32v30x_rcc.c ****  *            RCC_PLLSource_HSI_Div2 - HSI oscillator clock divided by 2
 219:../Peripheral/src/ch32v30x_rcc.c ****  *        selected as PLL clock entry.
 220:../Peripheral/src/ch32v30x_rcc.c ****  *            RCC_PLLSource_PREDIV1 - PREDIV1 clock selected as PLL clock
 221:../Peripheral/src/ch32v30x_rcc.c ****  *        entry.
 222:../Peripheral/src/ch32v30x_rcc.c ****  *          RCC_PLLMul - specifies the PLL multiplication factor.
 223:../Peripheral/src/ch32v30x_rcc.c ****  *            This parameter can be RCC_PLLMul_x where x:[2,16].
 224:../Peripheral/src/ch32v30x_rcc.c ****  *            For CH32V307 -
 225:../Peripheral/src/ch32v30x_rcc.c ****  *              RCC_PLLMul_18_EXTEN
 226:../Peripheral/src/ch32v30x_rcc.c ****  *              RCC_PLLMul_3_EXTEN
 227:../Peripheral/src/ch32v30x_rcc.c ****  *              RCC_PLLMul_4_EXTEN
 228:../Peripheral/src/ch32v30x_rcc.c ****  *              RCC_PLLMul_5_EXTEN
 229:../Peripheral/src/ch32v30x_rcc.c ****  *              RCC_PLLMul_6_EXTEN
 230:../Peripheral/src/ch32v30x_rcc.c ****  *              RCC_PLLMul_7_EXTEN
 231:../Peripheral/src/ch32v30x_rcc.c ****  *              RCC_PLLMul_8_EXTEN
 232:../Peripheral/src/ch32v30x_rcc.c ****  *              RCC_PLLMul_9_EXTEN
 233:../Peripheral/src/ch32v30x_rcc.c ****  *              RCC_PLLMul_10_EXTEN
 234:../Peripheral/src/ch32v30x_rcc.c ****  *              RCC_PLLMul_11_EXTEN
 235:../Peripheral/src/ch32v30x_rcc.c ****  *              RCC_PLLMul_12_EXTEN
 236:../Peripheral/src/ch32v30x_rcc.c ****  *              RCC_PLLMul_13_EXTEN
 237:../Peripheral/src/ch32v30x_rcc.c ****  *              RCC_PLLMul_14_EXTEN
 238:../Peripheral/src/ch32v30x_rcc.c ****  *              RCC_PLLMul_6_5_EXTEN
 239:../Peripheral/src/ch32v30x_rcc.c ****  *              RCC_PLLMul_15_EXTEN
 240:../Peripheral/src/ch32v30x_rcc.c ****  *              RCC_PLLMul_16_EXTEN
 241:../Peripheral/src/ch32v30x_rcc.c ****  *            For other CH32V30x -
 242:../Peripheral/src/ch32v30x_rcc.c ****  *              RCC_PLLMul_2
 243:../Peripheral/src/ch32v30x_rcc.c ****  *              RCC_PLLMul_3
 244:../Peripheral/src/ch32v30x_rcc.c ****  *              RCC_PLLMul_4
 245:../Peripheral/src/ch32v30x_rcc.c ****  *              RCC_PLLMul_5
 246:../Peripheral/src/ch32v30x_rcc.c ****  *              RCC_PLLMul_6
 247:../Peripheral/src/ch32v30x_rcc.c ****  *              RCC_PLLMul_7
 248:../Peripheral/src/ch32v30x_rcc.c ****  *              RCC_PLLMul_8
 249:../Peripheral/src/ch32v30x_rcc.c ****  *              RCC_PLLMul_9
 250:../Peripheral/src/ch32v30x_rcc.c ****  *              RCC_PLLMul_10
 251:../Peripheral/src/ch32v30x_rcc.c ****  *              RCC_PLLMul_11
 252:../Peripheral/src/ch32v30x_rcc.c ****  *              RCC_PLLMul_12
 253:../Peripheral/src/ch32v30x_rcc.c ****  *              RCC_PLLMul_13
 254:../Peripheral/src/ch32v30x_rcc.c ****  *              RCC_PLLMul_14
 255:../Peripheral/src/ch32v30x_rcc.c ****  *              RCC_PLLMul_15
 256:../Peripheral/src/ch32v30x_rcc.c ****  *              RCC_PLLMul_16
 257:../Peripheral/src/ch32v30x_rcc.c ****  *              RCC_PLLMul_18
 258:../Peripheral/src/ch32v30x_rcc.c ****  *
 259:../Peripheral/src/ch32v30x_rcc.c ****  * @return  none
 260:../Peripheral/src/ch32v30x_rcc.c ****  */
 261:../Peripheral/src/ch32v30x_rcc.c **** void RCC_PLLConfig(uint32_t RCC_PLLSource, uint32_t RCC_PLLMul)
 262:../Peripheral/src/ch32v30x_rcc.c **** {
 204              		.loc 1 262 1 is_stmt 1
 205              		.cfi_startproc
 206              	.LVL7:
 263:../Peripheral/src/ch32v30x_rcc.c ****     uint32_t tmpreg = 0;
 207              		.loc 1 263 5
 264:../Peripheral/src/ch32v30x_rcc.c **** 
 265:../Peripheral/src/ch32v30x_rcc.c ****     tmpreg = RCC->CFGR0;
 208              		.loc 1 265 5
 266:../Peripheral/src/ch32v30x_rcc.c **** 
 267:../Peripheral/src/ch32v30x_rcc.c ****     if(((*(uint32_t *)0x1FFFF70C) & (1 << 14)) != (1 << 14))
 209              		.loc 1 267 35 is_stmt 0
 210 0000 37F7FF1F 		li	a4,536866816
 211 0004 8326C770 		lw	a3,1804(a4)
 265:../Peripheral/src/ch32v30x_rcc.c **** 
 212              		.loc 1 265 12
 213 0008 B7170240 		li	a5,1073876992
 214              		.loc 1 267 35
 215 000c 1167     		li	a4,16384
 265:../Peripheral/src/ch32v30x_rcc.c **** 
 216              		.loc 1 265 12
 217 000e DC43     		lw	a5,4(a5)
 218              	.LVL8:
 219              		.loc 1 267 5 is_stmt 1
 220              		.loc 1 267 35 is_stmt 0
 221 0010 758F     		and	a4,a4,a3
 222              		.loc 1 267 7
 223 0012 19EB     		bne	a4,zero,.L13
 268:../Peripheral/src/ch32v30x_rcc.c ****     { /* for other CH32V30x */
 269:../Peripheral/src/ch32v30x_rcc.c ****         tmpreg &= CFGR0_PLL_Mask;
 224              		.loc 1 269 9 is_stmt 1
 225              		.loc 1 269 16 is_stmt 0
 226 0014 3707C1FF 		li	a4,-4128768
 227              	.L15:
 270:../Peripheral/src/ch32v30x_rcc.c ****     }
 271:../Peripheral/src/ch32v30x_rcc.c ****     else
 272:../Peripheral/src/ch32v30x_rcc.c ****     { /* for CH32V307 */
 273:../Peripheral/src/ch32v30x_rcc.c ****         tmpreg &= CFGR0_PLL_Mask_1;
 228              		.loc 1 273 16
 229 0018 7D17     		addi	a4,a4,-1
 230 001a F98F     		and	a5,a5,a4
 231              	.LVL9:
 274:../Peripheral/src/ch32v30x_rcc.c ****     }
 275:../Peripheral/src/ch32v30x_rcc.c **** 
 276:../Peripheral/src/ch32v30x_rcc.c ****     tmpreg |= RCC_PLLSource | RCC_PLLMul;
 232              		.loc 1 276 5 is_stmt 1
 233              		.loc 1 276 29 is_stmt 0
 234 001c 4D8D     		or	a0,a0,a1
 235              	.LVL10:
 236              		.loc 1 276 12
 237 001e 5D8D     		or	a0,a0,a5
 238              	.LVL11:
 277:../Peripheral/src/ch32v30x_rcc.c ****     RCC->CFGR0 = tmpreg;
 239              		.loc 1 277 5 is_stmt 1
 240              		.loc 1 277 16 is_stmt 0
 241 0020 B7170240 		li	a5,1073876992
 242 0024 C8C3     		sw	a0,4(a5)
 278:../Peripheral/src/ch32v30x_rcc.c **** }
 243              		.loc 1 278 1
 244 0026 8280     		ret
 245              	.LVL12:
 246              	.L13:
 273:../Peripheral/src/ch32v30x_rcc.c ****     }
 247              		.loc 1 273 9 is_stmt 1
 273:../Peripheral/src/ch32v30x_rcc.c ****     }
 248              		.loc 1 273 16 is_stmt 0
 249 0028 3707C3FF 		li	a4,-3997696
 250 002c F5B7     		j	.L15
 251              		.cfi_endproc
 252              	.LFE34:
 254              		.section	.text.RCC_PLLCmd,"ax",@progbits
 255              		.align	1
 256              		.globl	RCC_PLLCmd
 258              	RCC_PLLCmd:
 259              	.LFB35:
 279:../Peripheral/src/ch32v30x_rcc.c **** 
 280:../Peripheral/src/ch32v30x_rcc.c **** /*********************************************************************
 281:../Peripheral/src/ch32v30x_rcc.c ****  * @fn      RCC_PLLCmd
 282:../Peripheral/src/ch32v30x_rcc.c ****  *
 283:../Peripheral/src/ch32v30x_rcc.c ****  * @brief   Enables or disables the PLL.
 284:../Peripheral/src/ch32v30x_rcc.c ****  *          Note-The PLL can not be disabled if it is used as system clock.
 285:../Peripheral/src/ch32v30x_rcc.c ****  *          
 286:../Peripheral/src/ch32v30x_rcc.c ****  *
 287:../Peripheral/src/ch32v30x_rcc.c ****  * @param   NewState - ENABLE or DISABLE.
 288:../Peripheral/src/ch32v30x_rcc.c ****  *
 289:../Peripheral/src/ch32v30x_rcc.c ****  * @return  none
 290:../Peripheral/src/ch32v30x_rcc.c ****  */
 291:../Peripheral/src/ch32v30x_rcc.c **** void RCC_PLLCmd(FunctionalState NewState)
 292:../Peripheral/src/ch32v30x_rcc.c **** {
 260              		.loc 1 292 1 is_stmt 1
 261              		.cfi_startproc
 262              	.LVL13:
 293:../Peripheral/src/ch32v30x_rcc.c ****     if(NewState)
 263              		.loc 1 293 5
 264              		.loc 1 293 7 is_stmt 0
 265 0000 09C9     		beq	a0,zero,.L17
 294:../Peripheral/src/ch32v30x_rcc.c ****     {
 295:../Peripheral/src/ch32v30x_rcc.c ****         RCC->CTLR |= (1 << 24);
 266              		.loc 1 295 9 is_stmt 1
 267              		.loc 1 295 12 is_stmt 0
 268 0002 37170240 		li	a4,1073876992
 269 0006 1C43     		lw	a5,0(a4)
 270              		.loc 1 295 19
 271 0008 B7060001 		li	a3,16777216
 272 000c D58F     		or	a5,a5,a3
 273 000e 1CC3     		sw	a5,0(a4)
 274 0010 8280     		ret
 275              	.L17:
 296:../Peripheral/src/ch32v30x_rcc.c ****     }
 297:../Peripheral/src/ch32v30x_rcc.c ****     else
 298:../Peripheral/src/ch32v30x_rcc.c ****     {
 299:../Peripheral/src/ch32v30x_rcc.c ****         RCC->CTLR &= ~(1 << 24);
 276              		.loc 1 299 9 is_stmt 1
 277              		.loc 1 299 12 is_stmt 0
 278 0012 B7160240 		li	a3,1073876992
 279 0016 9C42     		lw	a5,0(a3)
 280              		.loc 1 299 19
 281 0018 370700FF 		li	a4,-16777216
 282 001c 7D17     		addi	a4,a4,-1
 283 001e F98F     		and	a5,a5,a4
 284 0020 9CC2     		sw	a5,0(a3)
 300:../Peripheral/src/ch32v30x_rcc.c ****     }
 301:../Peripheral/src/ch32v30x_rcc.c **** }
 285              		.loc 1 301 1
 286 0022 8280     		ret
 287              		.cfi_endproc
 288              	.LFE35:
 290              		.section	.text.RCC_SYSCLKConfig,"ax",@progbits
 291              		.align	1
 292              		.globl	RCC_SYSCLKConfig
 294              	RCC_SYSCLKConfig:
 295              	.LFB36:
 302:../Peripheral/src/ch32v30x_rcc.c **** 
 303:../Peripheral/src/ch32v30x_rcc.c **** /*********************************************************************
 304:../Peripheral/src/ch32v30x_rcc.c ****  * @fn      RCC_SYSCLKConfig
 305:../Peripheral/src/ch32v30x_rcc.c ****  *
 306:../Peripheral/src/ch32v30x_rcc.c ****  * @brief   Configures the system clock (SYSCLK).
 307:../Peripheral/src/ch32v30x_rcc.c ****  *
 308:../Peripheral/src/ch32v30x_rcc.c ****  * @param   RCC_SYSCLKSource - specifies the clock source used as system clock.
 309:../Peripheral/src/ch32v30x_rcc.c ****  *            RCC_SYSCLKSource_HSI - HSI selected as system clock.
 310:../Peripheral/src/ch32v30x_rcc.c ****  *            RCC_SYSCLKSource_HSE - HSE selected as system clock.
 311:../Peripheral/src/ch32v30x_rcc.c ****  *            RCC_SYSCLKSource_PLLCLK - PLL selected as system clock.
 312:../Peripheral/src/ch32v30x_rcc.c ****  *
 313:../Peripheral/src/ch32v30x_rcc.c ****  * @return  none
 314:../Peripheral/src/ch32v30x_rcc.c ****  */
 315:../Peripheral/src/ch32v30x_rcc.c **** void RCC_SYSCLKConfig(uint32_t RCC_SYSCLKSource)
 316:../Peripheral/src/ch32v30x_rcc.c **** {
 296              		.loc 1 316 1 is_stmt 1
 297              		.cfi_startproc
 298              	.LVL14:
 317:../Peripheral/src/ch32v30x_rcc.c ****     uint32_t tmpreg = 0;
 299              		.loc 1 317 5
 318:../Peripheral/src/ch32v30x_rcc.c **** 
 319:../Peripheral/src/ch32v30x_rcc.c ****     tmpreg = RCC->CFGR0;
 300              		.loc 1 319 5
 301              		.loc 1 319 12 is_stmt 0
 302 0000 37170240 		li	a4,1073876992
 303 0004 5C43     		lw	a5,4(a4)
 304              	.LVL15:
 320:../Peripheral/src/ch32v30x_rcc.c ****     tmpreg &= CFGR0_SW_Mask;
 305              		.loc 1 320 5 is_stmt 1
 306              		.loc 1 320 12 is_stmt 0
 307 0006 F19B     		andi	a5,a5,-4
 308              	.LVL16:
 321:../Peripheral/src/ch32v30x_rcc.c ****     tmpreg |= RCC_SYSCLKSource;
 309              		.loc 1 321 5 is_stmt 1
 310              		.loc 1 321 12 is_stmt 0
 311 0008 C98F     		or	a5,a5,a0
 312              	.LVL17:
 322:../Peripheral/src/ch32v30x_rcc.c ****     RCC->CFGR0 = tmpreg;
 313              		.loc 1 322 5 is_stmt 1
 314              		.loc 1 322 16 is_stmt 0
 315 000a 5CC3     		sw	a5,4(a4)
 323:../Peripheral/src/ch32v30x_rcc.c **** }
 316              		.loc 1 323 1
 317 000c 8280     		ret
 318              		.cfi_endproc
 319              	.LFE36:
 321              		.section	.text.RCC_GetSYSCLKSource,"ax",@progbits
 322              		.align	1
 323              		.globl	RCC_GetSYSCLKSource
 325              	RCC_GetSYSCLKSource:
 326              	.LFB37:
 324:../Peripheral/src/ch32v30x_rcc.c **** 
 325:../Peripheral/src/ch32v30x_rcc.c **** /*********************************************************************
 326:../Peripheral/src/ch32v30x_rcc.c ****  * @fn      RCC_GetSYSCLKSource
 327:../Peripheral/src/ch32v30x_rcc.c ****  *
 328:../Peripheral/src/ch32v30x_rcc.c ****  * @brief   Returns the clock source used as system clock.
 329:../Peripheral/src/ch32v30x_rcc.c ****  *
 330:../Peripheral/src/ch32v30x_rcc.c ****  * @return  0x00 - HSI used as system clock.
 331:../Peripheral/src/ch32v30x_rcc.c ****  *          0x04 - HSE used as system clock.
 332:../Peripheral/src/ch32v30x_rcc.c ****  *          0x08 - PLL used as system clock.
 333:../Peripheral/src/ch32v30x_rcc.c ****  */
 334:../Peripheral/src/ch32v30x_rcc.c **** uint8_t RCC_GetSYSCLKSource(void)
 335:../Peripheral/src/ch32v30x_rcc.c **** {
 327              		.loc 1 335 1 is_stmt 1
 328              		.cfi_startproc
 336:../Peripheral/src/ch32v30x_rcc.c ****     return ((uint8_t)(RCC->CFGR0 & CFGR0_SWS_Mask));
 329              		.loc 1 336 5
 330              		.loc 1 336 26 is_stmt 0
 331 0000 B7170240 		li	a5,1073876992
 332 0004 C843     		lw	a0,4(a5)
 337:../Peripheral/src/ch32v30x_rcc.c **** }
 333              		.loc 1 337 1
 334 0006 3189     		andi	a0,a0,12
 335 0008 8280     		ret
 336              		.cfi_endproc
 337              	.LFE37:
 339              		.section	.text.RCC_HCLKConfig,"ax",@progbits
 340              		.align	1
 341              		.globl	RCC_HCLKConfig
 343              	RCC_HCLKConfig:
 344              	.LFB38:
 338:../Peripheral/src/ch32v30x_rcc.c **** 
 339:../Peripheral/src/ch32v30x_rcc.c **** /*********************************************************************
 340:../Peripheral/src/ch32v30x_rcc.c ****  * @fn      RCC_HCLKConfig
 341:../Peripheral/src/ch32v30x_rcc.c ****  *
 342:../Peripheral/src/ch32v30x_rcc.c ****  * @brief   Configures the AHB clock (HCLK).
 343:../Peripheral/src/ch32v30x_rcc.c ****  *
 344:../Peripheral/src/ch32v30x_rcc.c ****  * @param   RCC_SYSCLK - defines the AHB clock divider. This clock is derived from
 345:../Peripheral/src/ch32v30x_rcc.c ****  *        the system clock (SYSCLK).
 346:../Peripheral/src/ch32v30x_rcc.c ****  *            RCC_SYSCLK_Div1 - AHB clock = SYSCLK.
 347:../Peripheral/src/ch32v30x_rcc.c ****  *            RCC_SYSCLK_Div2 - AHB clock = SYSCLK/2.
 348:../Peripheral/src/ch32v30x_rcc.c ****  *            RCC_SYSCLK_Div4 - AHB clock = SYSCLK/4.
 349:../Peripheral/src/ch32v30x_rcc.c ****  *            RCC_SYSCLK_Div8 - AHB clock = SYSCLK/8.
 350:../Peripheral/src/ch32v30x_rcc.c ****  *            RCC_SYSCLK_Div16 - AHB clock = SYSCLK/16.
 351:../Peripheral/src/ch32v30x_rcc.c ****  *            RCC_SYSCLK_Div64 - AHB clock = SYSCLK/64.
 352:../Peripheral/src/ch32v30x_rcc.c ****  *            RCC_SYSCLK_Div128 - AHB clock = SYSCLK/128.
 353:../Peripheral/src/ch32v30x_rcc.c ****  *            RCC_SYSCLK_Div256 - AHB clock = SYSCLK/256.
 354:../Peripheral/src/ch32v30x_rcc.c ****  *            RCC_SYSCLK_Div512 - AHB clock = SYSCLK/512.
 355:../Peripheral/src/ch32v30x_rcc.c ****  *
 356:../Peripheral/src/ch32v30x_rcc.c ****  * @return  none
 357:../Peripheral/src/ch32v30x_rcc.c ****  */
 358:../Peripheral/src/ch32v30x_rcc.c **** void RCC_HCLKConfig(uint32_t RCC_SYSCLK)
 359:../Peripheral/src/ch32v30x_rcc.c **** {
 345              		.loc 1 359 1 is_stmt 1
 346              		.cfi_startproc
 347              	.LVL18:
 360:../Peripheral/src/ch32v30x_rcc.c ****     uint32_t tmpreg = 0;
 348              		.loc 1 360 5
 361:../Peripheral/src/ch32v30x_rcc.c **** 
 362:../Peripheral/src/ch32v30x_rcc.c ****     tmpreg = RCC->CFGR0;
 349              		.loc 1 362 5
 350              		.loc 1 362 12 is_stmt 0
 351 0000 37170240 		li	a4,1073876992
 352 0004 5C43     		lw	a5,4(a4)
 353              	.LVL19:
 363:../Peripheral/src/ch32v30x_rcc.c ****     tmpreg &= CFGR0_HPRE_Reset_Mask;
 354              		.loc 1 363 5 is_stmt 1
 355              		.loc 1 363 12 is_stmt 0
 356 0006 93F7F7F0 		andi	a5,a5,-241
 357              	.LVL20:
 364:../Peripheral/src/ch32v30x_rcc.c ****     tmpreg |= RCC_SYSCLK;
 358              		.loc 1 364 5 is_stmt 1
 359              		.loc 1 364 12 is_stmt 0
 360 000a C98F     		or	a5,a5,a0
 361              	.LVL21:
 365:../Peripheral/src/ch32v30x_rcc.c ****     RCC->CFGR0 = tmpreg;
 362              		.loc 1 365 5 is_stmt 1
 363              		.loc 1 365 16 is_stmt 0
 364 000c 5CC3     		sw	a5,4(a4)
 366:../Peripheral/src/ch32v30x_rcc.c **** }
 365              		.loc 1 366 1
 366 000e 8280     		ret
 367              		.cfi_endproc
 368              	.LFE38:
 370              		.section	.text.RCC_PCLK1Config,"ax",@progbits
 371              		.align	1
 372              		.globl	RCC_PCLK1Config
 374              	RCC_PCLK1Config:
 375              	.LFB39:
 367:../Peripheral/src/ch32v30x_rcc.c **** 
 368:../Peripheral/src/ch32v30x_rcc.c **** /*********************************************************************
 369:../Peripheral/src/ch32v30x_rcc.c ****  * @fn      RCC_PCLK1Config
 370:../Peripheral/src/ch32v30x_rcc.c ****  *
 371:../Peripheral/src/ch32v30x_rcc.c ****  * @brief   Configures the Low Speed APB clock (PCLK1).
 372:../Peripheral/src/ch32v30x_rcc.c ****  *
 373:../Peripheral/src/ch32v30x_rcc.c ****  * @param   RCC_HCLK - defines the APB1 clock divider. This clock is derived from
 374:../Peripheral/src/ch32v30x_rcc.c ****  *        the AHB clock (HCLK).
 375:../Peripheral/src/ch32v30x_rcc.c ****  *            RCC_HCLK_Div1 - APB1 clock = HCLK.
 376:../Peripheral/src/ch32v30x_rcc.c ****  *            RCC_HCLK_Div2 - APB1 clock = HCLK/2.
 377:../Peripheral/src/ch32v30x_rcc.c ****  *            RCC_HCLK_Div4 - APB1 clock = HCLK/4.
 378:../Peripheral/src/ch32v30x_rcc.c ****  *            RCC_HCLK_Div8 - APB1 clock = HCLK/8.
 379:../Peripheral/src/ch32v30x_rcc.c ****  *            RCC_HCLK_Div16 - APB1 clock = HCLK/16.
 380:../Peripheral/src/ch32v30x_rcc.c ****  *
 381:../Peripheral/src/ch32v30x_rcc.c ****  * @return  none
 382:../Peripheral/src/ch32v30x_rcc.c ****  */
 383:../Peripheral/src/ch32v30x_rcc.c **** void RCC_PCLK1Config(uint32_t RCC_HCLK)
 384:../Peripheral/src/ch32v30x_rcc.c **** {
 376              		.loc 1 384 1 is_stmt 1
 377              		.cfi_startproc
 378              	.LVL22:
 385:../Peripheral/src/ch32v30x_rcc.c ****     uint32_t tmpreg = 0;
 379              		.loc 1 385 5
 386:../Peripheral/src/ch32v30x_rcc.c **** 
 387:../Peripheral/src/ch32v30x_rcc.c ****     tmpreg = RCC->CFGR0;
 380              		.loc 1 387 5
 381              		.loc 1 387 12 is_stmt 0
 382 0000 37170240 		li	a4,1073876992
 383 0004 5C43     		lw	a5,4(a4)
 384              	.LVL23:
 388:../Peripheral/src/ch32v30x_rcc.c ****     tmpreg &= CFGR0_PPRE1_Reset_Mask;
 385              		.loc 1 388 5 is_stmt 1
 386              		.loc 1 388 12 is_stmt 0
 387 0006 93F7F78F 		andi	a5,a5,-1793
 388              	.LVL24:
 389:../Peripheral/src/ch32v30x_rcc.c ****     tmpreg |= RCC_HCLK;
 389              		.loc 1 389 5 is_stmt 1
 390              		.loc 1 389 12 is_stmt 0
 391 000a C98F     		or	a5,a5,a0
 392              	.LVL25:
 390:../Peripheral/src/ch32v30x_rcc.c ****     RCC->CFGR0 = tmpreg;
 393              		.loc 1 390 5 is_stmt 1
 394              		.loc 1 390 16 is_stmt 0
 395 000c 5CC3     		sw	a5,4(a4)
 391:../Peripheral/src/ch32v30x_rcc.c **** }
 396              		.loc 1 391 1
 397 000e 8280     		ret
 398              		.cfi_endproc
 399              	.LFE39:
 401              		.section	.text.RCC_PCLK2Config,"ax",@progbits
 402              		.align	1
 403              		.globl	RCC_PCLK2Config
 405              	RCC_PCLK2Config:
 406              	.LFB40:
 392:../Peripheral/src/ch32v30x_rcc.c **** 
 393:../Peripheral/src/ch32v30x_rcc.c **** /*********************************************************************
 394:../Peripheral/src/ch32v30x_rcc.c ****  * @fn      RCC_PCLK2Config
 395:../Peripheral/src/ch32v30x_rcc.c ****  *
 396:../Peripheral/src/ch32v30x_rcc.c ****  * @brief   Configures the High Speed APB clock (PCLK2).
 397:../Peripheral/src/ch32v30x_rcc.c ****  *
 398:../Peripheral/src/ch32v30x_rcc.c ****  * @param   RCC_HCLK - defines the APB2 clock divider. This clock is derived from
 399:../Peripheral/src/ch32v30x_rcc.c ****  *        the AHB clock (HCLK).
 400:../Peripheral/src/ch32v30x_rcc.c ****  *            RCC_HCLK_Div1 - APB2 clock = HCLK.
 401:../Peripheral/src/ch32v30x_rcc.c ****  *            RCC_HCLK_Div2 - APB2 clock = HCLK/2.
 402:../Peripheral/src/ch32v30x_rcc.c ****  *            RCC_HCLK_Div4 - APB2 clock = HCLK/4.
 403:../Peripheral/src/ch32v30x_rcc.c ****  *            RCC_HCLK_Div8 - APB2 clock = HCLK/8.
 404:../Peripheral/src/ch32v30x_rcc.c ****  *            RCC_HCLK_Div16 - APB2 clock = HCLK/16.
 405:../Peripheral/src/ch32v30x_rcc.c ****  *
 406:../Peripheral/src/ch32v30x_rcc.c ****  * @return  none
 407:../Peripheral/src/ch32v30x_rcc.c ****  */
 408:../Peripheral/src/ch32v30x_rcc.c **** void RCC_PCLK2Config(uint32_t RCC_HCLK)
 409:../Peripheral/src/ch32v30x_rcc.c **** {
 407              		.loc 1 409 1 is_stmt 1
 408              		.cfi_startproc
 409              	.LVL26:
 410:../Peripheral/src/ch32v30x_rcc.c ****     uint32_t tmpreg = 0;
 410              		.loc 1 410 5
 411:../Peripheral/src/ch32v30x_rcc.c **** 
 412:../Peripheral/src/ch32v30x_rcc.c ****     tmpreg = RCC->CFGR0;
 411              		.loc 1 412 5
 412              		.loc 1 412 12 is_stmt 0
 413 0000 B7160240 		li	a3,1073876992
 414 0004 DC42     		lw	a5,4(a3)
 415              	.LVL27:
 413:../Peripheral/src/ch32v30x_rcc.c ****     tmpreg &= CFGR0_PPRE2_Reset_Mask;
 416              		.loc 1 413 5 is_stmt 1
 417              		.loc 1 413 12 is_stmt 0
 418 0006 7177     		li	a4,-16384
 419 0008 1307F77F 		addi	a4,a4,2047
 420 000c F98F     		and	a5,a5,a4
 421              	.LVL28:
 414:../Peripheral/src/ch32v30x_rcc.c ****     tmpreg |= RCC_HCLK << 3;
 422              		.loc 1 414 5 is_stmt 1
 423              		.loc 1 414 24 is_stmt 0
 424 000e 0E05     		slli	a0,a0,3
 425              	.LVL29:
 426              		.loc 1 414 12
 427 0010 5D8D     		or	a0,a0,a5
 428              	.LVL30:
 415:../Peripheral/src/ch32v30x_rcc.c ****     RCC->CFGR0 = tmpreg;
 429              		.loc 1 415 5 is_stmt 1
 430              		.loc 1 415 16 is_stmt 0
 431 0012 C8C2     		sw	a0,4(a3)
 416:../Peripheral/src/ch32v30x_rcc.c **** }
 432              		.loc 1 416 1
 433 0014 8280     		ret
 434              		.cfi_endproc
 435              	.LFE40:
 437              		.section	.text.RCC_ITConfig,"ax",@progbits
 438              		.align	1
 439              		.globl	RCC_ITConfig
 441              	RCC_ITConfig:
 442              	.LFB41:
 417:../Peripheral/src/ch32v30x_rcc.c **** 
 418:../Peripheral/src/ch32v30x_rcc.c **** /*********************************************************************
 419:../Peripheral/src/ch32v30x_rcc.c ****  * @fn      RCC_ITConfig
 420:../Peripheral/src/ch32v30x_rcc.c ****  *
 421:../Peripheral/src/ch32v30x_rcc.c ****  * @brief   Enables or disables the specified RCC interrupts.
 422:../Peripheral/src/ch32v30x_rcc.c ****  *
 423:../Peripheral/src/ch32v30x_rcc.c ****  * @param   RCC_IT - specifies the RCC interrupt sources to be enabled or disabled.
 424:../Peripheral/src/ch32v30x_rcc.c ****  *            RCC_IT_LSIRDY - LSI ready interrupt.
 425:../Peripheral/src/ch32v30x_rcc.c ****  *            RCC_IT_LSERDY - LSE ready interrupt.
 426:../Peripheral/src/ch32v30x_rcc.c ****  *            RCC_IT_HSIRDY - HSI ready interrupt.
 427:../Peripheral/src/ch32v30x_rcc.c ****  *            RCC_IT_HSERDY - HSE ready interrupt.
 428:../Peripheral/src/ch32v30x_rcc.c ****  *            RCC_IT_PLLRDY - PLL ready interrupt.
 429:../Peripheral/src/ch32v30x_rcc.c ****  *          NewState - ENABLE or DISABLE.
 430:../Peripheral/src/ch32v30x_rcc.c ****  *
 431:../Peripheral/src/ch32v30x_rcc.c ****  * @return  none
 432:../Peripheral/src/ch32v30x_rcc.c ****  */
 433:../Peripheral/src/ch32v30x_rcc.c **** void RCC_ITConfig(uint8_t RCC_IT, FunctionalState NewState)
 434:../Peripheral/src/ch32v30x_rcc.c **** {
 443              		.loc 1 434 1 is_stmt 1
 444              		.cfi_startproc
 445              	.LVL31:
 435:../Peripheral/src/ch32v30x_rcc.c ****     if(NewState != DISABLE)
 446              		.loc 1 435 5
 436:../Peripheral/src/ch32v30x_rcc.c ****     {
 437:../Peripheral/src/ch32v30x_rcc.c ****         *(__IO uint8_t *)INTR_BYTE2_ADDRESS |= RCC_IT;
 447              		.loc 1 437 9 is_stmt 0
 448 0000 37170240 		li	a4,1073876992
 449 0004 1C37     		lbu	a5,9(a4)
 435:../Peripheral/src/ch32v30x_rcc.c ****     if(NewState != DISABLE)
 450              		.loc 1 435 7
 451 0006 81C5     		beq	a1,zero,.L25
 452              		.loc 1 437 9 is_stmt 1
 453              		.loc 1 437 45 is_stmt 0
 454 0008 C98F     		or	a5,a5,a0
 455              	.LVL32:
 456              	.L27:
 438:../Peripheral/src/ch32v30x_rcc.c ****     }
 439:../Peripheral/src/ch32v30x_rcc.c ****     else
 440:../Peripheral/src/ch32v30x_rcc.c ****     {
 441:../Peripheral/src/ch32v30x_rcc.c ****         *(__IO uint8_t *)INTR_BYTE2_ADDRESS &= (uint8_t)~RCC_IT;
 457              		.loc 1 441 45
 458 000a 1CB7     		sb	a5,9(a4)
 442:../Peripheral/src/ch32v30x_rcc.c ****     }
 443:../Peripheral/src/ch32v30x_rcc.c **** }
 459              		.loc 1 443 1
 460 000c 8280     		ret
 461              	.LVL33:
 462              	.L25:
 441:../Peripheral/src/ch32v30x_rcc.c ****     }
 463              		.loc 1 441 9 is_stmt 1
 441:../Peripheral/src/ch32v30x_rcc.c ****     }
 464              		.loc 1 441 48 is_stmt 0
 465 000e 1345F5FF 		not	a0,a0
 466              	.LVL34:
 441:../Peripheral/src/ch32v30x_rcc.c ****     }
 467              		.loc 1 441 45
 468 0012 E98F     		and	a5,a5,a0
 469 0014 DDBF     		j	.L27
 470              		.cfi_endproc
 471              	.LFE41:
 473              		.section	.text.RCC_ADCCLKConfig,"ax",@progbits
 474              		.align	1
 475              		.globl	RCC_ADCCLKConfig
 477              	RCC_ADCCLKConfig:
 478              	.LFB42:
 444:../Peripheral/src/ch32v30x_rcc.c **** 
 445:../Peripheral/src/ch32v30x_rcc.c **** /*********************************************************************
 446:../Peripheral/src/ch32v30x_rcc.c ****  * @fn      RCC_ADCCLKConfig
 447:../Peripheral/src/ch32v30x_rcc.c ****  *
 448:../Peripheral/src/ch32v30x_rcc.c ****  * @brief   Configures the ADC clock (ADCCLK).
 449:../Peripheral/src/ch32v30x_rcc.c ****  *
 450:../Peripheral/src/ch32v30x_rcc.c ****  * @param   RCC_PCLK2 - defines the ADC clock divider. This clock is derived from
 451:../Peripheral/src/ch32v30x_rcc.c ****  *        the APB2 clock (PCLK2).
 452:../Peripheral/src/ch32v30x_rcc.c ****  *          RCC_PCLK2_Div2 - ADC clock = PCLK2/2.
 453:../Peripheral/src/ch32v30x_rcc.c ****  *          RCC_PCLK2_Div4 - ADC clock = PCLK2/4.
 454:../Peripheral/src/ch32v30x_rcc.c ****  *          RCC_PCLK2_Div6 - ADC clock = PCLK2/6.
 455:../Peripheral/src/ch32v30x_rcc.c ****  *          RCC_PCLK2_Div8 - ADC clock = PCLK2/8.
 456:../Peripheral/src/ch32v30x_rcc.c ****  *
 457:../Peripheral/src/ch32v30x_rcc.c ****  * @return  none
 458:../Peripheral/src/ch32v30x_rcc.c ****  */
 459:../Peripheral/src/ch32v30x_rcc.c **** void RCC_ADCCLKConfig(uint32_t RCC_PCLK2)
 460:../Peripheral/src/ch32v30x_rcc.c **** {
 479              		.loc 1 460 1 is_stmt 1
 480              		.cfi_startproc
 481              	.LVL35:
 461:../Peripheral/src/ch32v30x_rcc.c ****     uint32_t tmpreg = 0;
 482              		.loc 1 461 5
 462:../Peripheral/src/ch32v30x_rcc.c **** 
 463:../Peripheral/src/ch32v30x_rcc.c ****     tmpreg = RCC->CFGR0;
 483              		.loc 1 463 5
 484              		.loc 1 463 12 is_stmt 0
 485 0000 B7160240 		li	a3,1073876992
 486 0004 DC42     		lw	a5,4(a3)
 487              	.LVL36:
 464:../Peripheral/src/ch32v30x_rcc.c ****     tmpreg &= CFGR0_ADCPRE_Reset_Mask;
 488              		.loc 1 464 5 is_stmt 1
 489              		.loc 1 464 12 is_stmt 0
 490 0006 5177     		li	a4,-49152
 491 0008 7D17     		addi	a4,a4,-1
 492 000a F98F     		and	a5,a5,a4
 493              	.LVL37:
 465:../Peripheral/src/ch32v30x_rcc.c ****     tmpreg |= RCC_PCLK2;
 494              		.loc 1 465 5 is_stmt 1
 495              		.loc 1 465 12 is_stmt 0
 496 000c C98F     		or	a5,a5,a0
 497              	.LVL38:
 466:../Peripheral/src/ch32v30x_rcc.c ****     RCC->CFGR0 = tmpreg;
 498              		.loc 1 466 5 is_stmt 1
 499              		.loc 1 466 16 is_stmt 0
 500 000e DCC2     		sw	a5,4(a3)
 467:../Peripheral/src/ch32v30x_rcc.c **** }
 501              		.loc 1 467 1
 502 0010 8280     		ret
 503              		.cfi_endproc
 504              	.LFE42:
 506              		.section	.text.RCC_LSEConfig,"ax",@progbits
 507              		.align	1
 508              		.globl	RCC_LSEConfig
 510              	RCC_LSEConfig:
 511              	.LFB43:
 468:../Peripheral/src/ch32v30x_rcc.c **** 
 469:../Peripheral/src/ch32v30x_rcc.c **** /*********************************************************************
 470:../Peripheral/src/ch32v30x_rcc.c ****  * @fn      RCC_LSEConfig
 471:../Peripheral/src/ch32v30x_rcc.c ****  *
 472:../Peripheral/src/ch32v30x_rcc.c ****  * @brief   Configures the External Low Speed oscillator (LSE).
 473:../Peripheral/src/ch32v30x_rcc.c ****  *
 474:../Peripheral/src/ch32v30x_rcc.c ****  * @param   RCC_LSE - specifies the new state of the LSE.
 475:../Peripheral/src/ch32v30x_rcc.c ****  *            RCC_LSE_OFF - LSE oscillator OFF.
 476:../Peripheral/src/ch32v30x_rcc.c ****  *            RCC_LSE_ON - LSE oscillator ON.
 477:../Peripheral/src/ch32v30x_rcc.c ****  *            RCC_LSE_Bypass - LSE oscillator bypassed with external clock.
 478:../Peripheral/src/ch32v30x_rcc.c ****  *
 479:../Peripheral/src/ch32v30x_rcc.c ****  * @return  none
 480:../Peripheral/src/ch32v30x_rcc.c ****  */
 481:../Peripheral/src/ch32v30x_rcc.c **** void RCC_LSEConfig(uint8_t RCC_LSE)
 482:../Peripheral/src/ch32v30x_rcc.c **** {
 512              		.loc 1 482 1 is_stmt 1
 513              		.cfi_startproc
 514              	.LVL39:
 483:../Peripheral/src/ch32v30x_rcc.c ****     *(__IO uint8_t *)BDCTLR_ADDRESS = RCC_LSE_OFF;
 515              		.loc 1 483 5
 516              		.loc 1 483 37 is_stmt 0
 517 0000 B7170240 		li	a5,1073876992
 518 0004 23800702 		sb	zero,32(a5)
 484:../Peripheral/src/ch32v30x_rcc.c ****     *(__IO uint8_t *)BDCTLR_ADDRESS = RCC_LSE_OFF;
 519              		.loc 1 484 5 is_stmt 1
 520              		.loc 1 484 37 is_stmt 0
 521 0008 23800702 		sb	zero,32(a5)
 485:../Peripheral/src/ch32v30x_rcc.c **** 
 486:../Peripheral/src/ch32v30x_rcc.c ****     switch(RCC_LSE)
 522              		.loc 1 486 5 is_stmt 1
 523 000c 0547     		li	a4,1
 524 000e 6306E500 		beq	a0,a4,.L30
 525 0012 1147     		li	a4,4
 526 0014 6306E500 		beq	a0,a4,.L31
 527 0018 8280     		ret
 528              	.L30:
 487:../Peripheral/src/ch32v30x_rcc.c ****     {
 488:../Peripheral/src/ch32v30x_rcc.c ****         case RCC_LSE_ON:
 489:../Peripheral/src/ch32v30x_rcc.c ****             *(__IO uint8_t *)BDCTLR_ADDRESS = RCC_LSE_ON;
 529              		.loc 1 489 13
 530              		.loc 1 489 45 is_stmt 0
 531 001a 2380A702 		sb	a0,32(a5)
 490:../Peripheral/src/ch32v30x_rcc.c ****             break;
 532              		.loc 1 490 13 is_stmt 1
 533 001e 8280     		ret
 534              	.L31:
 491:../Peripheral/src/ch32v30x_rcc.c **** 
 492:../Peripheral/src/ch32v30x_rcc.c ****         case RCC_LSE_Bypass:
 493:../Peripheral/src/ch32v30x_rcc.c ****             *(__IO uint8_t *)BDCTLR_ADDRESS = RCC_LSE_Bypass | RCC_LSE_ON;
 535              		.loc 1 493 13
 536              		.loc 1 493 45 is_stmt 0
 537 0020 1547     		li	a4,5
 538 0022 2380E702 		sb	a4,32(a5)
 494:../Peripheral/src/ch32v30x_rcc.c ****             break;
 539              		.loc 1 494 13 is_stmt 1
 495:../Peripheral/src/ch32v30x_rcc.c **** 
 496:../Peripheral/src/ch32v30x_rcc.c ****         default:
 497:../Peripheral/src/ch32v30x_rcc.c ****             break;
 498:../Peripheral/src/ch32v30x_rcc.c ****     }
 499:../Peripheral/src/ch32v30x_rcc.c **** }
 540              		.loc 1 499 1 is_stmt 0
 541 0026 8280     		ret
 542              		.cfi_endproc
 543              	.LFE43:
 545              		.section	.text.RCC_LSICmd,"ax",@progbits
 546              		.align	1
 547              		.globl	RCC_LSICmd
 549              	RCC_LSICmd:
 550              	.LFB44:
 500:../Peripheral/src/ch32v30x_rcc.c **** 
 501:../Peripheral/src/ch32v30x_rcc.c **** /*********************************************************************
 502:../Peripheral/src/ch32v30x_rcc.c ****  * @fn      RCC_LSICmd
 503:../Peripheral/src/ch32v30x_rcc.c ****  *
 504:../Peripheral/src/ch32v30x_rcc.c ****  * @brief   Enables or disables the Internal Low Speed oscillator (LSI).
 505:../Peripheral/src/ch32v30x_rcc.c ****  *          Note-
 506:../Peripheral/src/ch32v30x_rcc.c ****  *          LSI can not be disabled if the IWDG is running.
 507:../Peripheral/src/ch32v30x_rcc.c ****  *
 508:../Peripheral/src/ch32v30x_rcc.c ****  * @param   NewState - ENABLE or DISABLE.
 509:../Peripheral/src/ch32v30x_rcc.c ****  *
 510:../Peripheral/src/ch32v30x_rcc.c ****  * @return  none
 511:../Peripheral/src/ch32v30x_rcc.c ****  */
 512:../Peripheral/src/ch32v30x_rcc.c **** void RCC_LSICmd(FunctionalState NewState)
 513:../Peripheral/src/ch32v30x_rcc.c **** {
 551              		.loc 1 513 1 is_stmt 1
 552              		.cfi_startproc
 553              	.LVL40:
 514:../Peripheral/src/ch32v30x_rcc.c ****     if(NewState)
 554              		.loc 1 514 5
 515:../Peripheral/src/ch32v30x_rcc.c ****     {
 516:../Peripheral/src/ch32v30x_rcc.c ****         RCC->RSTSCKR |= (1 << 0);
 555              		.loc 1 516 12 is_stmt 0
 556 0000 37170240 		li	a4,1073876992
 557 0004 5C53     		lw	a5,36(a4)
 514:../Peripheral/src/ch32v30x_rcc.c ****     if(NewState)
 558              		.loc 1 514 7
 559 0006 09C5     		beq	a0,zero,.L34
 560              		.loc 1 516 9 is_stmt 1
 561              		.loc 1 516 22 is_stmt 0
 562 0008 93E71700 		ori	a5,a5,1
 563              	.L36:
 517:../Peripheral/src/ch32v30x_rcc.c ****     }
 518:../Peripheral/src/ch32v30x_rcc.c ****     else
 519:../Peripheral/src/ch32v30x_rcc.c ****     {
 520:../Peripheral/src/ch32v30x_rcc.c ****         RCC->RSTSCKR &= ~(1 << 0);
 564              		.loc 1 520 22
 565 000c 5CD3     		sw	a5,36(a4)
 521:../Peripheral/src/ch32v30x_rcc.c ****     }
 522:../Peripheral/src/ch32v30x_rcc.c **** }
 566              		.loc 1 522 1
 567 000e 8280     		ret
 568              	.L34:
 520:../Peripheral/src/ch32v30x_rcc.c ****     }
 569              		.loc 1 520 9 is_stmt 1
 520:../Peripheral/src/ch32v30x_rcc.c ****     }
 570              		.loc 1 520 22 is_stmt 0
 571 0010 F99B     		andi	a5,a5,-2
 572 0012 EDBF     		j	.L36
 573              		.cfi_endproc
 574              	.LFE44:
 576              		.section	.text.RCC_RTCCLKConfig,"ax",@progbits
 577              		.align	1
 578              		.globl	RCC_RTCCLKConfig
 580              	RCC_RTCCLKConfig:
 581              	.LFB45:
 523:../Peripheral/src/ch32v30x_rcc.c **** 
 524:../Peripheral/src/ch32v30x_rcc.c **** /*********************************************************************
 525:../Peripheral/src/ch32v30x_rcc.c ****  * @fn      RCC_RTCCLKConfig
 526:../Peripheral/src/ch32v30x_rcc.c ****  *
 527:../Peripheral/src/ch32v30x_rcc.c ****  * @brief   Once the RTC clock is selected it can't be changed unless the Backup domain is reset.
 528:../Peripheral/src/ch32v30x_rcc.c ****  *
 529:../Peripheral/src/ch32v30x_rcc.c ****  * @param   RCC_RTCCLKSource - specifies the RTC clock source.
 530:../Peripheral/src/ch32v30x_rcc.c ****  *            RCC_RTCCLKSource_LSE - LSE selected as RTC clock.
 531:../Peripheral/src/ch32v30x_rcc.c ****  *            RCC_RTCCLKSource_LSI - LSI selected as RTC clock.
 532:../Peripheral/src/ch32v30x_rcc.c ****  *            RCC_RTCCLKSource_HSE_Div128 - HSE clock divided by 128 selected as RTC clock.
 533:../Peripheral/src/ch32v30x_rcc.c ****  *         Note-   
 534:../Peripheral/src/ch32v30x_rcc.c ****  *           Once the RTC clock is selected it can't be changed unless the Backup domain is reset.
 535:../Peripheral/src/ch32v30x_rcc.c ****  * @return  none
 536:../Peripheral/src/ch32v30x_rcc.c ****  */
 537:../Peripheral/src/ch32v30x_rcc.c **** void RCC_RTCCLKConfig(uint32_t RCC_RTCCLKSource)
 538:../Peripheral/src/ch32v30x_rcc.c **** {
 582              		.loc 1 538 1 is_stmt 1
 583              		.cfi_startproc
 584              	.LVL41:
 539:../Peripheral/src/ch32v30x_rcc.c ****     RCC->BDCTLR |= RCC_RTCCLKSource;
 585              		.loc 1 539 5
 586              		.loc 1 539 8 is_stmt 0
 587 0000 37170240 		li	a4,1073876992
 588 0004 1C53     		lw	a5,32(a4)
 589              		.loc 1 539 17
 590 0006 C98F     		or	a5,a5,a0
 591 0008 1CD3     		sw	a5,32(a4)
 540:../Peripheral/src/ch32v30x_rcc.c **** }
 592              		.loc 1 540 1
 593 000a 8280     		ret
 594              		.cfi_endproc
 595              	.LFE45:
 597              		.section	.text.RCC_RTCCLKCmd,"ax",@progbits
 598              		.align	1
 599              		.globl	RCC_RTCCLKCmd
 601              	RCC_RTCCLKCmd:
 602              	.LFB46:
 541:../Peripheral/src/ch32v30x_rcc.c **** 
 542:../Peripheral/src/ch32v30x_rcc.c **** /*********************************************************************
 543:../Peripheral/src/ch32v30x_rcc.c ****  * @fn      RCC_RTCCLKCmd
 544:../Peripheral/src/ch32v30x_rcc.c ****  *
 545:../Peripheral/src/ch32v30x_rcc.c ****  * @brief   This function must be used only after the RTC clock was selected
 546:../Peripheral/src/ch32v30x_rcc.c ****  *        using the RCC_RTCCLKConfig function.
 547:../Peripheral/src/ch32v30x_rcc.c ****  *
 548:../Peripheral/src/ch32v30x_rcc.c ****  * @param   NewState - ENABLE or DISABLE.
 549:../Peripheral/src/ch32v30x_rcc.c ****  *
 550:../Peripheral/src/ch32v30x_rcc.c ****  * @return  none
 551:../Peripheral/src/ch32v30x_rcc.c ****  */
 552:../Peripheral/src/ch32v30x_rcc.c **** void RCC_RTCCLKCmd(FunctionalState NewState)
 553:../Peripheral/src/ch32v30x_rcc.c **** {
 603              		.loc 1 553 1 is_stmt 1
 604              		.cfi_startproc
 605              	.LVL42:
 554:../Peripheral/src/ch32v30x_rcc.c ****     if(NewState)
 606              		.loc 1 554 5
 607              		.loc 1 554 7 is_stmt 0
 608 0000 01C9     		beq	a0,zero,.L39
 555:../Peripheral/src/ch32v30x_rcc.c ****     {
 556:../Peripheral/src/ch32v30x_rcc.c ****         RCC->BDCTLR |= (1 << 15);
 609              		.loc 1 556 9 is_stmt 1
 610              		.loc 1 556 12 is_stmt 0
 611 0002 37170240 		li	a4,1073876992
 612 0006 1C53     		lw	a5,32(a4)
 613              		.loc 1 556 21
 614 0008 A166     		li	a3,32768
 615 000a D58F     		or	a5,a5,a3
 616 000c 1CD3     		sw	a5,32(a4)
 617 000e 8280     		ret
 618              	.L39:
 557:../Peripheral/src/ch32v30x_rcc.c ****     }
 558:../Peripheral/src/ch32v30x_rcc.c ****     else
 559:../Peripheral/src/ch32v30x_rcc.c ****     {
 560:../Peripheral/src/ch32v30x_rcc.c ****         RCC->BDCTLR &= ~(1 << 15);
 619              		.loc 1 560 9 is_stmt 1
 620              		.loc 1 560 12 is_stmt 0
 621 0010 B7160240 		li	a3,1073876992
 622 0014 9C52     		lw	a5,32(a3)
 623              		.loc 1 560 21
 624 0016 6177     		li	a4,-32768
 625 0018 7D17     		addi	a4,a4,-1
 626 001a F98F     		and	a5,a5,a4
 627 001c 9CD2     		sw	a5,32(a3)
 561:../Peripheral/src/ch32v30x_rcc.c ****     }
 562:../Peripheral/src/ch32v30x_rcc.c **** }
 628              		.loc 1 562 1
 629 001e 8280     		ret
 630              		.cfi_endproc
 631              	.LFE46:
 633              		.section	.text.RCC_GetClocksFreq,"ax",@progbits
 634              		.align	1
 635              		.globl	RCC_GetClocksFreq
 637              	RCC_GetClocksFreq:
 638              	.LFB47:
 563:../Peripheral/src/ch32v30x_rcc.c **** 
 564:../Peripheral/src/ch32v30x_rcc.c **** /*********************************************************************
 565:../Peripheral/src/ch32v30x_rcc.c ****  * @fn      RCC_GetClocksFreq
 566:../Peripheral/src/ch32v30x_rcc.c ****  *
 567:../Peripheral/src/ch32v30x_rcc.c ****  * @brief   The result of this function could be not correct when using
 568:../Peripheral/src/ch32v30x_rcc.c ****  *        fractional value for HSE crystal.
 569:../Peripheral/src/ch32v30x_rcc.c ****  *
 570:../Peripheral/src/ch32v30x_rcc.c ****  * @param   RCC_Clocks - pointer to a RCC_ClocksTypeDef structure which will hold
 571:../Peripheral/src/ch32v30x_rcc.c ****  *        the clocks frequencies.
 572:../Peripheral/src/ch32v30x_rcc.c ****  *
 573:../Peripheral/src/ch32v30x_rcc.c ****  * @return  none
 574:../Peripheral/src/ch32v30x_rcc.c ****  */
 575:../Peripheral/src/ch32v30x_rcc.c **** void RCC_GetClocksFreq(RCC_ClocksTypeDef *RCC_Clocks)
 576:../Peripheral/src/ch32v30x_rcc.c **** {
 639              		.loc 1 576 1 is_stmt 1
 640              		.cfi_startproc
 641              	.LVL43:
 577:../Peripheral/src/ch32v30x_rcc.c ****     uint32_t tmp = 0, pllmull = 0, pllsource = 0, presc = 0;
 642              		.loc 1 577 5
 578:../Peripheral/src/ch32v30x_rcc.c ****     uint8_t Pll_6_5 = 0;
 643              		.loc 1 578 5
 579:../Peripheral/src/ch32v30x_rcc.c **** 
 580:../Peripheral/src/ch32v30x_rcc.c **** #ifdef CH32V30x_D8C
 581:../Peripheral/src/ch32v30x_rcc.c ****     uint8_t Pll2mull = 0;
 644              		.loc 1 581 5
 582:../Peripheral/src/ch32v30x_rcc.c **** 
 583:../Peripheral/src/ch32v30x_rcc.c **** #endif
 584:../Peripheral/src/ch32v30x_rcc.c **** 
 585:../Peripheral/src/ch32v30x_rcc.c ****     tmp = RCC->CFGR0 & CFGR0_SWS_Mask;
 645              		.loc 1 585 5
 646              		.loc 1 585 14 is_stmt 0
 647 0000 37170240 		li	a4,1073876992
 648 0004 5C43     		lw	a5,4(a4)
 649              	.LVL44:
 586:../Peripheral/src/ch32v30x_rcc.c **** 
 587:../Peripheral/src/ch32v30x_rcc.c ****     switch(tmp)
 650              		.loc 1 587 5 is_stmt 1
 651 0006 A146     		li	a3,8
 585:../Peripheral/src/ch32v30x_rcc.c **** 
 652              		.loc 1 585 9 is_stmt 0
 653 0008 B18B     		andi	a5,a5,12
 654              	.LVL45:
 655              		.loc 1 587 5
 656 000a 6383D706 		beq	a5,a3,.L42
 588:../Peripheral/src/ch32v30x_rcc.c ****     {
 589:../Peripheral/src/ch32v30x_rcc.c ****         case 0x00:
 590:../Peripheral/src/ch32v30x_rcc.c ****             RCC_Clocks->SYSCLK_Frequency = HSI_VALUE;
 657              		.loc 1 590 13 is_stmt 1
 658              		.loc 1 590 42 is_stmt 0
 659 000e B7177A00 		li	a5,7999488
 660              	.LVL46:
 661 0012 93870720 		addi	a5,a5,512
 662              	.LVL47:
 663              	.L66:
 591:../Peripheral/src/ch32v30x_rcc.c ****             break;
 592:../Peripheral/src/ch32v30x_rcc.c **** 
 593:../Peripheral/src/ch32v30x_rcc.c ****         case 0x04:
 594:../Peripheral/src/ch32v30x_rcc.c ****             RCC_Clocks->SYSCLK_Frequency = HSE_VALUE;
 595:../Peripheral/src/ch32v30x_rcc.c ****             break;
 596:../Peripheral/src/ch32v30x_rcc.c **** 
 597:../Peripheral/src/ch32v30x_rcc.c ****         case 0x08:
 598:../Peripheral/src/ch32v30x_rcc.c ****             pllmull = RCC->CFGR0 & CFGR0_PLLMull_Mask;
 599:../Peripheral/src/ch32v30x_rcc.c ****             pllsource = RCC->CFGR0 & CFGR0_PLLSRC_Mask;
 600:../Peripheral/src/ch32v30x_rcc.c **** 
 601:../Peripheral/src/ch32v30x_rcc.c ****             pllmull = (pllmull >> 18) + 2;
 602:../Peripheral/src/ch32v30x_rcc.c **** 
 603:../Peripheral/src/ch32v30x_rcc.c ****             if(((*(uint32_t *)0x1FFFF70C) & (1 << 14)) != (1 << 14))
 604:../Peripheral/src/ch32v30x_rcc.c ****             { /* for other CH32V30x */
 605:../Peripheral/src/ch32v30x_rcc.c ****                 if(pllmull == 17)
 606:../Peripheral/src/ch32v30x_rcc.c ****                     pllmull = 18;
 607:../Peripheral/src/ch32v30x_rcc.c ****             }
 608:../Peripheral/src/ch32v30x_rcc.c ****             else
 609:../Peripheral/src/ch32v30x_rcc.c ****             { /* for CH32V307 */
 610:../Peripheral/src/ch32v30x_rcc.c ****                 if(pllmull == 2)
 611:../Peripheral/src/ch32v30x_rcc.c ****                     pllmull = 18;
 612:../Peripheral/src/ch32v30x_rcc.c ****                 if(pllmull == 15)
 613:../Peripheral/src/ch32v30x_rcc.c ****                 {
 614:../Peripheral/src/ch32v30x_rcc.c ****                     pllmull = 13; /* *6.5 */
 615:../Peripheral/src/ch32v30x_rcc.c ****                     Pll_6_5 = 1;
 616:../Peripheral/src/ch32v30x_rcc.c ****                 }
 617:../Peripheral/src/ch32v30x_rcc.c ****                 if(pllmull == 16)
 618:../Peripheral/src/ch32v30x_rcc.c ****                     pllmull = 15;
 619:../Peripheral/src/ch32v30x_rcc.c ****                 if(pllmull == 17)
 620:../Peripheral/src/ch32v30x_rcc.c ****                     pllmull = 16;
 621:../Peripheral/src/ch32v30x_rcc.c ****             }
 622:../Peripheral/src/ch32v30x_rcc.c **** 
 623:../Peripheral/src/ch32v30x_rcc.c ****             if(pllsource == 0x00)
 624:../Peripheral/src/ch32v30x_rcc.c ****             {
 625:../Peripheral/src/ch32v30x_rcc.c ****                 if(EXTEN->EXTEN_CTR & EXTEN_PLL_HSI_PRE)
 626:../Peripheral/src/ch32v30x_rcc.c ****                 {
 627:../Peripheral/src/ch32v30x_rcc.c ****                     RCC_Clocks->SYSCLK_Frequency = (HSI_VALUE)*pllmull;
 628:../Peripheral/src/ch32v30x_rcc.c ****                 }
 629:../Peripheral/src/ch32v30x_rcc.c ****                 else
 630:../Peripheral/src/ch32v30x_rcc.c ****                 {
 631:../Peripheral/src/ch32v30x_rcc.c ****                     RCC_Clocks->SYSCLK_Frequency = (HSI_VALUE >> 1) * pllmull;
 632:../Peripheral/src/ch32v30x_rcc.c ****                 }
 633:../Peripheral/src/ch32v30x_rcc.c ****             }
 634:../Peripheral/src/ch32v30x_rcc.c ****             else
 635:../Peripheral/src/ch32v30x_rcc.c ****             {
 636:../Peripheral/src/ch32v30x_rcc.c **** #ifdef CH32V30x_D8
 637:../Peripheral/src/ch32v30x_rcc.c ****                 if((RCC->CFGR0 & CFGR0_PLLXTPRE_Mask) != (uint32_t)RESET)
 638:../Peripheral/src/ch32v30x_rcc.c ****                 {
 639:../Peripheral/src/ch32v30x_rcc.c ****                     RCC_Clocks->SYSCLK_Frequency = (HSE_VALUE >> 1) * pllmull;
 640:../Peripheral/src/ch32v30x_rcc.c ****                 }
 641:../Peripheral/src/ch32v30x_rcc.c ****                 else
 642:../Peripheral/src/ch32v30x_rcc.c ****                 {
 643:../Peripheral/src/ch32v30x_rcc.c ****                     RCC_Clocks->SYSCLK_Frequency = HSE_VALUE * pllmull;
 644:../Peripheral/src/ch32v30x_rcc.c ****                 }
 645:../Peripheral/src/ch32v30x_rcc.c **** #else
 646:../Peripheral/src/ch32v30x_rcc.c ****                 if(RCC->CFGR2 & (1<<16)){ /* PLL2 */
 647:../Peripheral/src/ch32v30x_rcc.c ****                     RCC_Clocks->SYSCLK_Frequency = HSE_VALUE/(((RCC->CFGR2 & 0xF0)>>4) + 1);  /* PR
 648:../Peripheral/src/ch32v30x_rcc.c **** 
 649:../Peripheral/src/ch32v30x_rcc.c ****                     Pll2mull = (uint8_t)((RCC->CFGR2 & 0xF00)>>8);
 650:../Peripheral/src/ch32v30x_rcc.c **** 
 651:../Peripheral/src/ch32v30x_rcc.c ****                     if(Pll2mull == 0) RCC_Clocks->SYSCLK_Frequency = (RCC_Clocks->SYSCLK_Frequency 
 652:../Peripheral/src/ch32v30x_rcc.c ****                     else if(Pll2mull == 1) RCC_Clocks->SYSCLK_Frequency = (RCC_Clocks->SYSCLK_Frequ
 653:../Peripheral/src/ch32v30x_rcc.c ****                     else if(Pll2mull == 15) RCC_Clocks->SYSCLK_Frequency = RCC_Clocks->SYSCLK_Frequ
 654:../Peripheral/src/ch32v30x_rcc.c ****                     else  RCC_Clocks->SYSCLK_Frequency = RCC_Clocks->SYSCLK_Frequency * (Pll2mull +
 655:../Peripheral/src/ch32v30x_rcc.c **** 
 656:../Peripheral/src/ch32v30x_rcc.c ****                     RCC_Clocks->SYSCLK_Frequency = RCC_Clocks->SYSCLK_Frequency/((RCC->CFGR2 & 0xF)
 657:../Peripheral/src/ch32v30x_rcc.c ****                 }
 658:../Peripheral/src/ch32v30x_rcc.c ****                 else{/* HSE */
 659:../Peripheral/src/ch32v30x_rcc.c ****                     RCC_Clocks->SYSCLK_Frequency = HSE_VALUE/((RCC->CFGR2 & 0xF) + 1);  /* PREDIV1 
 660:../Peripheral/src/ch32v30x_rcc.c ****                 }
 661:../Peripheral/src/ch32v30x_rcc.c **** 
 662:../Peripheral/src/ch32v30x_rcc.c ****                 RCC_Clocks->SYSCLK_Frequency = RCC_Clocks->SYSCLK_Frequency * pllmull;
 663:../Peripheral/src/ch32v30x_rcc.c **** 
 664:../Peripheral/src/ch32v30x_rcc.c **** #endif
 665:../Peripheral/src/ch32v30x_rcc.c ****             }
 666:../Peripheral/src/ch32v30x_rcc.c **** 
 667:../Peripheral/src/ch32v30x_rcc.c ****             if(Pll_6_5 == 1)
 668:../Peripheral/src/ch32v30x_rcc.c ****                 RCC_Clocks->SYSCLK_Frequency = (RCC_Clocks->SYSCLK_Frequency / 2);
 664              		.loc 1 668 46
 665 0016 1CC1     		sw	a5,0(a0)
 669:../Peripheral/src/ch32v30x_rcc.c **** 
 670:../Peripheral/src/ch32v30x_rcc.c ****             break;
 671:../Peripheral/src/ch32v30x_rcc.c **** 
 672:../Peripheral/src/ch32v30x_rcc.c ****         default:
 673:../Peripheral/src/ch32v30x_rcc.c ****             RCC_Clocks->SYSCLK_Frequency = HSI_VALUE;
 674:../Peripheral/src/ch32v30x_rcc.c ****             break;
 675:../Peripheral/src/ch32v30x_rcc.c ****     }
 676:../Peripheral/src/ch32v30x_rcc.c **** 
 677:../Peripheral/src/ch32v30x_rcc.c ****     tmp = RCC->CFGR0 & CFGR0_HPRE_Set_Mask;
 666              		.loc 1 677 5 is_stmt 1
 667              		.loc 1 677 14 is_stmt 0
 668 0018 37160240 		li	a2,1073876992
 669 001c 5C42     		lw	a5,4(a2)
 670              	.LVL48:
 678:../Peripheral/src/ch32v30x_rcc.c ****     tmp = tmp >> 4;
 671              		.loc 1 678 5 is_stmt 1
 679:../Peripheral/src/ch32v30x_rcc.c ****     presc = APBAHBPrescTable[tmp];
 672              		.loc 1 679 29 is_stmt 0
 673 001e 97060000 		lla	a3,APBAHBPrescTable
 673      93860600 
 678:../Peripheral/src/ch32v30x_rcc.c ****     tmp = tmp >> 4;
 674              		.loc 1 678 9
 675 0026 9183     		srli	a5,a5,4
 676              	.LVL49:
 677 0028 BD8B     		andi	a5,a5,15
 678              	.LVL50:
 679              		.loc 1 679 5 is_stmt 1
 680              		.loc 1 679 29 is_stmt 0
 681 002a B697     		add	a5,a3,a5
 682              	.LVL51:
 683 002c 9823     		lbu	a4,0(a5)
 684              	.LVL52:
 680:../Peripheral/src/ch32v30x_rcc.c ****     RCC_Clocks->HCLK_Frequency = RCC_Clocks->SYSCLK_Frequency >> presc;
 685              		.loc 1 680 5 is_stmt 1
 686              		.loc 1 680 63 is_stmt 0
 687 002e 1C41     		lw	a5,0(a0)
 688 0030 B3D7E700 		srl	a5,a5,a4
 689              		.loc 1 680 32
 690 0034 5CC1     		sw	a5,4(a0)
 681:../Peripheral/src/ch32v30x_rcc.c ****     tmp = RCC->CFGR0 & CFGR0_PPRE1_Set_Mask;
 691              		.loc 1 681 5 is_stmt 1
 692              		.loc 1 681 14 is_stmt 0
 693 0036 5842     		lw	a4,4(a2)
 694              	.LVL53:
 682:../Peripheral/src/ch32v30x_rcc.c ****     tmp = tmp >> 8;
 695              		.loc 1 682 5 is_stmt 1
 696              		.loc 1 682 9 is_stmt 0
 697 0038 2183     		srli	a4,a4,8
 698              	.LVL54:
 699 003a 1D8B     		andi	a4,a4,7
 700              	.LVL55:
 683:../Peripheral/src/ch32v30x_rcc.c ****     presc = APBAHBPrescTable[tmp];
 701              		.loc 1 683 5 is_stmt 1
 702              		.loc 1 683 29 is_stmt 0
 703 003c 3697     		add	a4,a3,a4
 704              	.LVL56:
 705 003e 1823     		lbu	a4,0(a4)
 706              	.LVL57:
 684:../Peripheral/src/ch32v30x_rcc.c ****     RCC_Clocks->PCLK1_Frequency = RCC_Clocks->HCLK_Frequency >> presc;
 707              		.loc 1 684 5 is_stmt 1
 708              		.loc 1 684 62 is_stmt 0
 709 0040 33D7E700 		srl	a4,a5,a4
 710              	.LVL58:
 711              		.loc 1 684 33
 712 0044 18C5     		sw	a4,8(a0)
 685:../Peripheral/src/ch32v30x_rcc.c ****     tmp = RCC->CFGR0 & CFGR0_PPRE2_Set_Mask;
 713              		.loc 1 685 5 is_stmt 1
 714              		.loc 1 685 14 is_stmt 0
 715 0046 5842     		lw	a4,4(a2)
 716              	.LVL59:
 686:../Peripheral/src/ch32v30x_rcc.c ****     tmp = tmp >> 11;
 717              		.loc 1 686 5 is_stmt 1
 718              		.loc 1 686 9 is_stmt 0
 719 0048 2D83     		srli	a4,a4,11
 720              	.LVL60:
 721 004a 1D8B     		andi	a4,a4,7
 722              	.LVL61:
 687:../Peripheral/src/ch32v30x_rcc.c ****     presc = APBAHBPrescTable[tmp];
 723              		.loc 1 687 5 is_stmt 1
 724              		.loc 1 687 29 is_stmt 0
 725 004c BA96     		add	a3,a3,a4
 726 004e 9822     		lbu	a4,0(a3)
 727              	.LVL62:
 688:../Peripheral/src/ch32v30x_rcc.c ****     RCC_Clocks->PCLK2_Frequency = RCC_Clocks->HCLK_Frequency >> presc;
 728              		.loc 1 688 5 is_stmt 1
 689:../Peripheral/src/ch32v30x_rcc.c ****     tmp = RCC->CFGR0 & CFGR0_ADCPRE_Set_Mask;
 690:../Peripheral/src/ch32v30x_rcc.c ****     tmp = tmp >> 14;
 691:../Peripheral/src/ch32v30x_rcc.c ****     presc = ADCPrescTable[tmp];
 729              		.loc 1 691 26 is_stmt 0
 730 0050 97060000 		lla	a3,ADCPrescTable
 730      93860600 
 688:../Peripheral/src/ch32v30x_rcc.c ****     RCC_Clocks->PCLK2_Frequency = RCC_Clocks->HCLK_Frequency >> presc;
 731              		.loc 1 688 62
 732 0058 B3D7E700 		srl	a5,a5,a4
 688:../Peripheral/src/ch32v30x_rcc.c ****     RCC_Clocks->PCLK2_Frequency = RCC_Clocks->HCLK_Frequency >> presc;
 733              		.loc 1 688 33
 734 005c 5CC5     		sw	a5,12(a0)
 689:../Peripheral/src/ch32v30x_rcc.c ****     tmp = RCC->CFGR0 & CFGR0_ADCPRE_Set_Mask;
 735              		.loc 1 689 5 is_stmt 1
 689:../Peripheral/src/ch32v30x_rcc.c ****     tmp = RCC->CFGR0 & CFGR0_ADCPRE_Set_Mask;
 736              		.loc 1 689 14 is_stmt 0
 737 005e 5842     		lw	a4,4(a2)
 738              	.LVL63:
 690:../Peripheral/src/ch32v30x_rcc.c ****     presc = ADCPrescTable[tmp];
 739              		.loc 1 690 5 is_stmt 1
 690:../Peripheral/src/ch32v30x_rcc.c ****     presc = ADCPrescTable[tmp];
 740              		.loc 1 690 9 is_stmt 0
 741 0060 3983     		srli	a4,a4,14
 742              	.LVL64:
 743 0062 0D8B     		andi	a4,a4,3
 744              	.LVL65:
 745              		.loc 1 691 5 is_stmt 1
 746              		.loc 1 691 26 is_stmt 0
 747 0064 3697     		add	a4,a3,a4
 748              	.LVL66:
 749 0066 1823     		lbu	a4,0(a4)
 750              	.LVL67:
 692:../Peripheral/src/ch32v30x_rcc.c ****     RCC_Clocks->ADCCLK_Frequency = RCC_Clocks->PCLK2_Frequency / presc;
 751              		.loc 1 692 5 is_stmt 1
 752              		.loc 1 692 64 is_stmt 0
 753 0068 B3D7E702 		divu	a5,a5,a4
 754              		.loc 1 692 34
 755 006c 1CC9     		sw	a5,16(a0)
 693:../Peripheral/src/ch32v30x_rcc.c **** }
 756              		.loc 1 693 1
 757 006e 8280     		ret
 758              	.LVL68:
 759              	.L42:
 598:../Peripheral/src/ch32v30x_rcc.c ****             pllsource = RCC->CFGR0 & CFGR0_PLLSRC_Mask;
 760              		.loc 1 598 13 is_stmt 1
 598:../Peripheral/src/ch32v30x_rcc.c ****             pllsource = RCC->CFGR0 & CFGR0_PLLSRC_Mask;
 761              		.loc 1 598 26 is_stmt 0
 762 0070 5C43     		lw	a5,4(a4)
 763              	.LVL69:
 599:../Peripheral/src/ch32v30x_rcc.c **** 
 764              		.loc 1 599 13 is_stmt 1
 599:../Peripheral/src/ch32v30x_rcc.c **** 
 765              		.loc 1 599 28 is_stmt 0
 766 0072 5843     		lw	a4,4(a4)
 599:../Peripheral/src/ch32v30x_rcc.c **** 
 767              		.loc 1 599 23
 768 0074 C166     		li	a3,65536
 601:../Peripheral/src/ch32v30x_rcc.c **** 
 769              		.loc 1 601 32
 770 0076 C983     		srli	a5,a5,18
 771              	.LVL70:
 599:../Peripheral/src/ch32v30x_rcc.c **** 
 772              		.loc 1 599 23
 773 0078 758F     		and	a4,a4,a3
 774              	.LVL71:
 601:../Peripheral/src/ch32v30x_rcc.c **** 
 775              		.loc 1 601 13 is_stmt 1
 603:../Peripheral/src/ch32v30x_rcc.c ****             { /* for other CH32V30x */
 776              		.loc 1 603 43 is_stmt 0
 777 007a B7F6FF1F 		li	a3,536866816
 778 007e 03A6C670 		lw	a2,1804(a3)
 779 0082 9166     		li	a3,16384
 601:../Peripheral/src/ch32v30x_rcc.c **** 
 780              		.loc 1 601 32
 781 0084 BD8B     		andi	a5,a5,15
 603:../Peripheral/src/ch32v30x_rcc.c ****             { /* for other CH32V30x */
 782              		.loc 1 603 43
 783 0086 F18E     		and	a3,a3,a2
 601:../Peripheral/src/ch32v30x_rcc.c **** 
 784              		.loc 1 601 21
 785 0088 8907     		addi	a5,a5,2
 786              	.LVL72:
 603:../Peripheral/src/ch32v30x_rcc.c ****             { /* for other CH32V30x */
 787              		.loc 1 603 13 is_stmt 1
 603:../Peripheral/src/ch32v30x_rcc.c ****             { /* for other CH32V30x */
 788              		.loc 1 603 15 is_stmt 0
 789 008a 95E6     		bne	a3,zero,.L44
 605:../Peripheral/src/ch32v30x_rcc.c ****                     pllmull = 18;
 790              		.loc 1 605 17 is_stmt 1
 605:../Peripheral/src/ch32v30x_rcc.c ****                     pllmull = 18;
 791              		.loc 1 605 19 is_stmt 0
 792 008c C546     		li	a3,17
 578:../Peripheral/src/ch32v30x_rcc.c **** 
 793              		.loc 1 578 13
 794 008e 0146     		li	a2,0
 605:../Peripheral/src/ch32v30x_rcc.c ****                     pllmull = 18;
 795              		.loc 1 605 19
 796 0090 6393D700 		bne	a5,a3,.L45
 606:../Peripheral/src/ch32v30x_rcc.c ****             }
 797              		.loc 1 606 29
 798 0094 C947     		li	a5,18
 799              	.LVL73:
 800              	.L45:
 623:../Peripheral/src/ch32v30x_rcc.c ****             {
 801              		.loc 1 623 13 is_stmt 1
 623:../Peripheral/src/ch32v30x_rcc.c ****             {
 802              		.loc 1 623 15 is_stmt 0
 803 0096 31EF     		bne	a4,zero,.L47
 625:../Peripheral/src/ch32v30x_rcc.c ****                 {
 804              		.loc 1 625 17 is_stmt 1
 625:../Peripheral/src/ch32v30x_rcc.c ****                 {
 805              		.loc 1 625 25 is_stmt 0
 806 0098 37470240 		li	a4,1073889280
 807              	.LVL74:
 808 009c 03270780 		lw	a4,-2048(a4)
 625:../Peripheral/src/ch32v30x_rcc.c ****                 {
 809              		.loc 1 625 37
 810 00a0 418B     		andi	a4,a4,16
 625:../Peripheral/src/ch32v30x_rcc.c ****                 {
 811              		.loc 1 625 19
 812 00a2 39C3     		beq	a4,zero,.L48
 627:../Peripheral/src/ch32v30x_rcc.c ****                 }
 813              		.loc 1 627 21 is_stmt 1
 627:../Peripheral/src/ch32v30x_rcc.c ****                 }
 814              		.loc 1 627 63 is_stmt 0
 815 00a4 37177A00 		li	a4,7999488
 816 00a8 13070720 		addi	a4,a4,512
 817              	.LVL75:
 818              	.L65:
 662:../Peripheral/src/ch32v30x_rcc.c **** 
 819              		.loc 1 662 17 is_stmt 1
 662:../Peripheral/src/ch32v30x_rcc.c **** 
 820              		.loc 1 662 77 is_stmt 0
 821 00ac B387E702 		mul	a5,a5,a4
 822              	.LVL76:
 667:../Peripheral/src/ch32v30x_rcc.c ****                 RCC_Clocks->SYSCLK_Frequency = (RCC_Clocks->SYSCLK_Frequency / 2);
 823              		.loc 1 667 13 is_stmt 1
 667:../Peripheral/src/ch32v30x_rcc.c ****                 RCC_Clocks->SYSCLK_Frequency = (RCC_Clocks->SYSCLK_Frequency / 2);
 824              		.loc 1 667 15 is_stmt 0
 825 00b0 3DD2     		beq	a2,zero,.L66
 668:../Peripheral/src/ch32v30x_rcc.c **** 
 826              		.loc 1 668 17 is_stmt 1
 668:../Peripheral/src/ch32v30x_rcc.c **** 
 827              		.loc 1 668 78 is_stmt 0
 828 00b2 8583     		srli	a5,a5,1
 829 00b4 8DB7     		j	.L66
 830              	.LVL77:
 831              	.L44:
 610:../Peripheral/src/ch32v30x_rcc.c ****                     pllmull = 18;
 832              		.loc 1 610 17 is_stmt 1
 610:../Peripheral/src/ch32v30x_rcc.c ****                     pllmull = 18;
 833              		.loc 1 610 19 is_stmt 0
 834 00b6 8946     		li	a3,2
 835 00b8 638DD700 		beq	a5,a3,.L58
 612:../Peripheral/src/ch32v30x_rcc.c ****                 {
 836              		.loc 1 612 17 is_stmt 1
 612:../Peripheral/src/ch32v30x_rcc.c ****                 {
 837              		.loc 1 612 19 is_stmt 0
 838 00bc BD46     		li	a3,15
 839 00be 638CD700 		beq	a5,a3,.L59
 617:../Peripheral/src/ch32v30x_rcc.c ****                     pllmull = 15;
 840              		.loc 1 617 17 is_stmt 1
 617:../Peripheral/src/ch32v30x_rcc.c ****                     pllmull = 15;
 841              		.loc 1 617 19 is_stmt 0
 842 00c2 C146     		li	a3,16
 843 00c4 638CD700 		beq	a5,a3,.L60
 844              	.LVL78:
 619:../Peripheral/src/ch32v30x_rcc.c ****                     pllmull = 16;
 845              		.loc 1 619 17 is_stmt 1
 619:../Peripheral/src/ch32v30x_rcc.c ****                     pllmull = 16;
 846              		.loc 1 619 19 is_stmt 0
 847 00c8 C546     		li	a3,17
 848 00ca 638CD700 		beq	a5,a3,.L61
 849              	.LVL79:
 850              	.L46:
 606:../Peripheral/src/ch32v30x_rcc.c ****             }
 851              		.loc 1 606 29
 852 00ce 0146     		li	a2,0
 853 00d0 D9B7     		j	.L45
 854              	.LVL80:
 855              	.L58:
 611:../Peripheral/src/ch32v30x_rcc.c ****                 if(pllmull == 15)
 856              		.loc 1 611 29
 857 00d2 C947     		li	a5,18
 858              	.LVL81:
 859 00d4 EDBF     		j	.L46
 860              	.LVL82:
 861              	.L59:
 615:../Peripheral/src/ch32v30x_rcc.c ****                 }
 862              		.loc 1 615 29
 863 00d6 0546     		li	a2,1
 614:../Peripheral/src/ch32v30x_rcc.c ****                     Pll_6_5 = 1;
 864              		.loc 1 614 29
 865 00d8 B547     		li	a5,13
 866              	.LVL83:
 867 00da 75BF     		j	.L45
 868              	.LVL84:
 869              	.L60:
 870 00dc 0146     		li	a2,0
 618:../Peripheral/src/ch32v30x_rcc.c ****                 if(pllmull == 17)
 871              		.loc 1 618 29
 872 00de BD47     		li	a5,15
 873              	.LVL85:
 874 00e0 5DBF     		j	.L45
 875              	.LVL86:
 876              	.L61:
 877 00e2 0146     		li	a2,0
 620:../Peripheral/src/ch32v30x_rcc.c ****             }
 878              		.loc 1 620 29
 879 00e4 C147     		li	a5,16
 880              	.LVL87:
 881 00e6 45BF     		j	.L45
 882              	.LVL88:
 883              	.L48:
 631:../Peripheral/src/ch32v30x_rcc.c ****                 }
 884              		.loc 1 631 21 is_stmt 1
 631:../Peripheral/src/ch32v30x_rcc.c ****                 }
 885              		.loc 1 631 69 is_stmt 0
 886 00e8 37173D00 		li	a4,4001792
 887 00ec 13070790 		addi	a4,a4,-1792
 888 00f0 75BF     		j	.L65
 889              	.LVL89:
 890              	.L47:
 646:../Peripheral/src/ch32v30x_rcc.c ****                     RCC_Clocks->SYSCLK_Frequency = HSE_VALUE/(((RCC->CFGR2 & 0xF0)>>4) + 1);  /* PR
 891              		.loc 1 646 17 is_stmt 1
 646:../Peripheral/src/ch32v30x_rcc.c ****                     RCC_Clocks->SYSCLK_Frequency = HSE_VALUE/(((RCC->CFGR2 & 0xF0)>>4) + 1);  /* PR
 892              		.loc 1 646 23 is_stmt 0
 893 00f2 B7150240 		li	a1,1073876992
 894 00f6 D855     		lw	a4,44(a1)
 895              	.LVL90:
 646:../Peripheral/src/ch32v30x_rcc.c ****                     RCC_Clocks->SYSCLK_Frequency = HSE_VALUE/(((RCC->CFGR2 & 0xF0)>>4) + 1);  /* PR
 896              		.loc 1 646 31
 897 00f8 C166     		li	a3,65536
 898 00fa 758F     		and	a4,a4,a3
 647:../Peripheral/src/ch32v30x_rcc.c **** 
 899              		.loc 1 647 68
 900 00fc D455     		lw	a3,44(a1)
 646:../Peripheral/src/ch32v30x_rcc.c ****                     RCC_Clocks->SYSCLK_Frequency = HSE_VALUE/(((RCC->CFGR2 & 0xF0)>>4) + 1);  /* PR
 901              		.loc 1 646 19
 902 00fe 21CB     		beq	a4,zero,.L50
 647:../Peripheral/src/ch32v30x_rcc.c **** 
 903              		.loc 1 647 21 is_stmt 1
 647:../Peripheral/src/ch32v30x_rcc.c **** 
 904              		.loc 1 647 83 is_stmt 0
 905 0100 9182     		srli	a3,a3,4
 906 0102 BD8A     		andi	a3,a3,15
 647:../Peripheral/src/ch32v30x_rcc.c **** 
 907              		.loc 1 647 61
 908 0104 37177A00 		li	a4,7999488
 647:../Peripheral/src/ch32v30x_rcc.c **** 
 909              		.loc 1 647 88
 910 0108 8506     		addi	a3,a3,1
 647:../Peripheral/src/ch32v30x_rcc.c **** 
 911              		.loc 1 647 61
 912 010a 13070720 		addi	a4,a4,512
 913 010e 3357D702 		divu	a4,a4,a3
 649:../Peripheral/src/ch32v30x_rcc.c **** 
 914              		.loc 1 649 21 is_stmt 1
 649:../Peripheral/src/ch32v30x_rcc.c **** 
 915              		.loc 1 649 46 is_stmt 0
 916 0112 D455     		lw	a3,44(a1)
 649:../Peripheral/src/ch32v30x_rcc.c **** 
 917              		.loc 1 649 62
 918 0114 A182     		srli	a3,a3,8
 649:../Peripheral/src/ch32v30x_rcc.c **** 
 919              		.loc 1 649 30
 920 0116 BD8A     		andi	a3,a3,15
 921              	.LVL91:
 651:../Peripheral/src/ch32v30x_rcc.c ****                     else if(Pll2mull == 1) RCC_Clocks->SYSCLK_Frequency = (RCC_Clocks->SYSCLK_Frequ
 922              		.loc 1 651 21 is_stmt 1
 651:../Peripheral/src/ch32v30x_rcc.c ****                     else if(Pll2mull == 1) RCC_Clocks->SYSCLK_Frequency = (RCC_Clocks->SYSCLK_Frequ
 923              		.loc 1 651 23 is_stmt 0
 924 0118 89EE     		bne	a3,zero,.L51
 651:../Peripheral/src/ch32v30x_rcc.c ****                     else if(Pll2mull == 1) RCC_Clocks->SYSCLK_Frequency = (RCC_Clocks->SYSCLK_Frequ
 925              		.loc 1 651 39 is_stmt 1 discriminator 1
 651:../Peripheral/src/ch32v30x_rcc.c ****                     else if(Pll2mull == 1) RCC_Clocks->SYSCLK_Frequency = (RCC_Clocks->SYSCLK_Frequ
 926              		.loc 1 651 100 is_stmt 0 discriminator 1
 927 011a 9546     		li	a3,5
 928              	.LVL92:
 929              	.L62:
 652:../Peripheral/src/ch32v30x_rcc.c ****                     else if(Pll2mull == 15) RCC_Clocks->SYSCLK_Frequency = RCC_Clocks->SYSCLK_Frequ
 930              		.loc 1 652 105 discriminator 1
 931 011c 3307D702 		mul	a4,a4,a3
 652:../Peripheral/src/ch32v30x_rcc.c ****                     else if(Pll2mull == 15) RCC_Clocks->SYSCLK_Frequency = RCC_Clocks->SYSCLK_Frequ
 932              		.loc 1 652 110 discriminator 1
 933 0120 0583     		srli	a4,a4,1
 934              	.L52:
 656:../Peripheral/src/ch32v30x_rcc.c ****                 }
 935              		.loc 1 656 21 is_stmt 1
 656:../Peripheral/src/ch32v30x_rcc.c ****                 }
 936              		.loc 1 656 86 is_stmt 0
 937 0122 B7160240 		li	a3,1073876992
 938 0126 D456     		lw	a3,44(a3)
 656:../Peripheral/src/ch32v30x_rcc.c ****                 }
 939              		.loc 1 656 94
 940 0128 BD8A     		andi	a3,a3,15
 656:../Peripheral/src/ch32v30x_rcc.c ****                 }
 941              		.loc 1 656 101
 942 012a 8506     		addi	a3,a3,1
 943              	.LVL93:
 944              	.L64:
 659:../Peripheral/src/ch32v30x_rcc.c ****                 }
 945              		.loc 1 659 61
 946 012c 3357D702 		divu	a4,a4,a3
 947 0130 B5BF     		j	.L65
 948              	.LVL94:
 949              	.L51:
 652:../Peripheral/src/ch32v30x_rcc.c ****                     else if(Pll2mull == 15) RCC_Clocks->SYSCLK_Frequency = RCC_Clocks->SYSCLK_Frequ
 950              		.loc 1 652 26 is_stmt 1
 652:../Peripheral/src/ch32v30x_rcc.c ****                     else if(Pll2mull == 15) RCC_Clocks->SYSCLK_Frequency = RCC_Clocks->SYSCLK_Frequ
 951              		.loc 1 652 28 is_stmt 0
 952 0132 8545     		li	a1,1
 953 0134 6394B600 		bne	a3,a1,.L53
 652:../Peripheral/src/ch32v30x_rcc.c ****                     else if(Pll2mull == 15) RCC_Clocks->SYSCLK_Frequency = RCC_Clocks->SYSCLK_Frequ
 954              		.loc 1 652 44 is_stmt 1 discriminator 1
 652:../Peripheral/src/ch32v30x_rcc.c ****                     else if(Pll2mull == 15) RCC_Clocks->SYSCLK_Frequency = RCC_Clocks->SYSCLK_Frequ
 955              		.loc 1 652 105 is_stmt 0 discriminator 1
 956 0138 E546     		li	a3,25
 957              	.LVL95:
 958 013a CDB7     		j	.L62
 959              	.LVL96:
 960              	.L53:
 653:../Peripheral/src/ch32v30x_rcc.c ****                     else  RCC_Clocks->SYSCLK_Frequency = RCC_Clocks->SYSCLK_Frequency * (Pll2mull +
 961              		.loc 1 653 26 is_stmt 1
 653:../Peripheral/src/ch32v30x_rcc.c ****                     else  RCC_Clocks->SYSCLK_Frequency = RCC_Clocks->SYSCLK_Frequency * (Pll2mull +
 962              		.loc 1 653 28 is_stmt 0
 963 013c BD45     		li	a1,15
 964 013e 6396B600 		bne	a3,a1,.L54
 653:../Peripheral/src/ch32v30x_rcc.c ****                     else  RCC_Clocks->SYSCLK_Frequency = RCC_Clocks->SYSCLK_Frequency * (Pll2mull +
 965              		.loc 1 653 45 is_stmt 1 discriminator 1
 653:../Peripheral/src/ch32v30x_rcc.c ****                     else  RCC_Clocks->SYSCLK_Frequency = RCC_Clocks->SYSCLK_Frequency * (Pll2mull +
 966              		.loc 1 653 105 is_stmt 0 discriminator 1
 967 0142 D146     		li	a3,20
 968              	.LVL97:
 969              	.L63:
 654:../Peripheral/src/ch32v30x_rcc.c **** 
 970              		.loc 1 654 87
 971 0144 3387E602 		mul	a4,a3,a4
 972 0148 E9BF     		j	.L52
 973              	.LVL98:
 974              	.L54:
 654:../Peripheral/src/ch32v30x_rcc.c **** 
 975              		.loc 1 654 27 is_stmt 1
 654:../Peripheral/src/ch32v30x_rcc.c **** 
 976              		.loc 1 654 99 is_stmt 0
 977 014a 8906     		addi	a3,a3,2
 978              	.LVL99:
 979 014c E5BF     		j	.L63
 980              	.LVL100:
 981              	.L50:
 659:../Peripheral/src/ch32v30x_rcc.c ****                 }
 982              		.loc 1 659 21 is_stmt 1
 659:../Peripheral/src/ch32v30x_rcc.c ****                 }
 983              		.loc 1 659 75 is_stmt 0
 984 014e BD8A     		andi	a3,a3,15
 659:../Peripheral/src/ch32v30x_rcc.c ****                 }
 985              		.loc 1 659 61
 986 0150 37177A00 		li	a4,7999488
 659:../Peripheral/src/ch32v30x_rcc.c ****                 }
 987              		.loc 1 659 82
 988 0154 8506     		addi	a3,a3,1
 659:../Peripheral/src/ch32v30x_rcc.c ****                 }
 989              		.loc 1 659 61
 990 0156 13070720 		addi	a4,a4,512
 991 015a C9BF     		j	.L64
 992              		.cfi_endproc
 993              	.LFE47:
 995              		.section	.text.RCC_AHBPeriphClockCmd,"ax",@progbits
 996              		.align	1
 997              		.globl	RCC_AHBPeriphClockCmd
 999              	RCC_AHBPeriphClockCmd:
 1000              	.LFB48:
 694:../Peripheral/src/ch32v30x_rcc.c **** 
 695:../Peripheral/src/ch32v30x_rcc.c **** /*********************************************************************
 696:../Peripheral/src/ch32v30x_rcc.c ****  * @fn      RCC_AHBPeriphClockCmd
 697:../Peripheral/src/ch32v30x_rcc.c ****  *
 698:../Peripheral/src/ch32v30x_rcc.c ****  * @brief   Enables or disables the AHB peripheral clock.
 699:../Peripheral/src/ch32v30x_rcc.c ****  *
 700:../Peripheral/src/ch32v30x_rcc.c ****  * @param   RCC_AHBPeriph - specifies the AHB peripheral to gates its clock.
 701:../Peripheral/src/ch32v30x_rcc.c ****  *            RCC_AHBPeriph_DMA1.
 702:../Peripheral/src/ch32v30x_rcc.c ****  *            RCC_AHBPeriph_DMA2.
 703:../Peripheral/src/ch32v30x_rcc.c ****  *            RCC_AHBPeriph_SRAM.
 704:../Peripheral/src/ch32v30x_rcc.c ****  *            RCC_AHBPeriph_CRC.
 705:../Peripheral/src/ch32v30x_rcc.c ****  *            RCC_AHBPeriph_FSMC
 706:../Peripheral/src/ch32v30x_rcc.c ****  *            RCC_AHBPeriph_RNG
 707:../Peripheral/src/ch32v30x_rcc.c ****  *            RCC_AHBPeriph_SDIO
 708:../Peripheral/src/ch32v30x_rcc.c ****  *            RCC_AHBPeriph_USBHS
 709:../Peripheral/src/ch32v30x_rcc.c ****  *            RCC_AHBPeriph_USBFS
 710:../Peripheral/src/ch32v30x_rcc.c ****  *            RCC_AHBPeriph_DVP
 711:../Peripheral/src/ch32v30x_rcc.c ****  *            RCC_AHBPeriph_ETH_MAC
 712:../Peripheral/src/ch32v30x_rcc.c ****  *            RCC_AHBPeriph_ETH_MAC_Tx
 713:../Peripheral/src/ch32v30x_rcc.c ****  *            RCC_AHBPeriph_ETH_MAC_Rx
 714:../Peripheral/src/ch32v30x_rcc.c ****  *          Note-
 715:../Peripheral/src/ch32v30x_rcc.c ****  *          SRAM  clock can be disabled only during sleep mode.
 716:../Peripheral/src/ch32v30x_rcc.c ****  *          NewState: ENABLE or DISABLE.
 717:../Peripheral/src/ch32v30x_rcc.c ****  *
 718:../Peripheral/src/ch32v30x_rcc.c ****  * @return  none
 719:../Peripheral/src/ch32v30x_rcc.c ****  */
 720:../Peripheral/src/ch32v30x_rcc.c **** void RCC_AHBPeriphClockCmd(uint32_t RCC_AHBPeriph, FunctionalState NewState)
 721:../Peripheral/src/ch32v30x_rcc.c **** {
 1001              		.loc 1 721 1 is_stmt 1
 1002              		.cfi_startproc
 1003              	.LVL101:
 722:../Peripheral/src/ch32v30x_rcc.c ****     if(NewState != DISABLE)
 1004              		.loc 1 722 5
 1005              		.loc 1 722 7 is_stmt 0
 1006 0000 99C5     		beq	a1,zero,.L68
 723:../Peripheral/src/ch32v30x_rcc.c ****     {
 724:../Peripheral/src/ch32v30x_rcc.c ****         RCC->AHBPCENR |= RCC_AHBPeriph;
 1007              		.loc 1 724 9 is_stmt 1
 1008              		.loc 1 724 12 is_stmt 0
 1009 0002 37170240 		li	a4,1073876992
 1010 0006 5C4B     		lw	a5,20(a4)
 1011              		.loc 1 724 23
 1012 0008 C98F     		or	a5,a5,a0
 1013 000a 5CCB     		sw	a5,20(a4)
 1014 000c 8280     		ret
 1015              	.L68:
 725:../Peripheral/src/ch32v30x_rcc.c ****     }
 726:../Peripheral/src/ch32v30x_rcc.c ****     else
 727:../Peripheral/src/ch32v30x_rcc.c ****     {
 728:../Peripheral/src/ch32v30x_rcc.c ****         RCC->AHBPCENR &= ~RCC_AHBPeriph;
 1016              		.loc 1 728 9 is_stmt 1
 1017              		.loc 1 728 12 is_stmt 0
 1018 000e B7170240 		li	a5,1073876992
 1019 0012 D84B     		lw	a4,20(a5)
 1020              		.loc 1 728 26
 1021 0014 1345F5FF 		not	a0,a0
 1022              	.LVL102:
 1023              		.loc 1 728 23
 1024 0018 798D     		and	a0,a0,a4
 1025              	.LVL103:
 1026 001a C8CB     		sw	a0,20(a5)
 729:../Peripheral/src/ch32v30x_rcc.c ****     }
 730:../Peripheral/src/ch32v30x_rcc.c **** }
 1027              		.loc 1 730 1
 1028 001c 8280     		ret
 1029              		.cfi_endproc
 1030              	.LFE48:
 1032              		.section	.text.RCC_APB2PeriphClockCmd,"ax",@progbits
 1033              		.align	1
 1034              		.globl	RCC_APB2PeriphClockCmd
 1036              	RCC_APB2PeriphClockCmd:
 1037              	.LFB49:
 731:../Peripheral/src/ch32v30x_rcc.c **** 
 732:../Peripheral/src/ch32v30x_rcc.c **** /*********************************************************************
 733:../Peripheral/src/ch32v30x_rcc.c ****  * @fn      RCC_APB2PeriphClockCmd
 734:../Peripheral/src/ch32v30x_rcc.c ****  *
 735:../Peripheral/src/ch32v30x_rcc.c ****  * @brief   Enables or disables the High Speed APB (APB2) peripheral clock.
 736:../Peripheral/src/ch32v30x_rcc.c ****  *
 737:../Peripheral/src/ch32v30x_rcc.c ****  * @param   RCC_APB2Periph - specifies the APB2 peripheral to gates its clock.
 738:../Peripheral/src/ch32v30x_rcc.c ****  *            RCC_APB2Periph_AFIO.
 739:../Peripheral/src/ch32v30x_rcc.c ****  *            RCC_APB2Periph_GPIOA.
 740:../Peripheral/src/ch32v30x_rcc.c ****  *            RCC_APB2Periph_GPIOB.
 741:../Peripheral/src/ch32v30x_rcc.c ****  *            RCC_APB2Periph_GPIOC.
 742:../Peripheral/src/ch32v30x_rcc.c ****  *            RCC_APB2Periph_GPIOD.
 743:../Peripheral/src/ch32v30x_rcc.c ****  *            RCC_APB2Periph_GPIOE
 744:../Peripheral/src/ch32v30x_rcc.c ****  *            RCC_APB2Periph_ADC1.
 745:../Peripheral/src/ch32v30x_rcc.c ****  *            RCC_APB2Periph_ADC2
 746:../Peripheral/src/ch32v30x_rcc.c ****  *            RCC_APB2Periph_TIM1.
 747:../Peripheral/src/ch32v30x_rcc.c ****  *            RCC_APB2Periph_SPI1.
 748:../Peripheral/src/ch32v30x_rcc.c ****  *            RCC_APB2Periph_TIM8
 749:../Peripheral/src/ch32v30x_rcc.c ****  *            RCC_APB2Periph_USART1.
 750:../Peripheral/src/ch32v30x_rcc.c ****  *            RCC_APB2Periph_TIM9
 751:../Peripheral/src/ch32v30x_rcc.c ****  *            RCC_APB2Periph_TIM10
 752:../Peripheral/src/ch32v30x_rcc.c ****  *          NewState - ENABLE or DISABLE
 753:../Peripheral/src/ch32v30x_rcc.c ****  *
 754:../Peripheral/src/ch32v30x_rcc.c ****  * @return  none
 755:../Peripheral/src/ch32v30x_rcc.c ****  */
 756:../Peripheral/src/ch32v30x_rcc.c **** void RCC_APB2PeriphClockCmd(uint32_t RCC_APB2Periph, FunctionalState NewState)
 757:../Peripheral/src/ch32v30x_rcc.c **** {
 1038              		.loc 1 757 1 is_stmt 1
 1039              		.cfi_startproc
 1040              	.LVL104:
 758:../Peripheral/src/ch32v30x_rcc.c ****     if(NewState != DISABLE)
 1041              		.loc 1 758 5
 1042              		.loc 1 758 7 is_stmt 0
 1043 0000 99C5     		beq	a1,zero,.L71
 759:../Peripheral/src/ch32v30x_rcc.c ****     {
 760:../Peripheral/src/ch32v30x_rcc.c ****         RCC->APB2PCENR |= RCC_APB2Periph;
 1044              		.loc 1 760 9 is_stmt 1
 1045              		.loc 1 760 12 is_stmt 0
 1046 0002 37170240 		li	a4,1073876992
 1047 0006 1C4F     		lw	a5,24(a4)
 1048              		.loc 1 760 24
 1049 0008 C98F     		or	a5,a5,a0
 1050 000a 1CCF     		sw	a5,24(a4)
 1051 000c 8280     		ret
 1052              	.L71:
 761:../Peripheral/src/ch32v30x_rcc.c ****     }
 762:../Peripheral/src/ch32v30x_rcc.c ****     else
 763:../Peripheral/src/ch32v30x_rcc.c ****     {
 764:../Peripheral/src/ch32v30x_rcc.c ****         RCC->APB2PCENR &= ~RCC_APB2Periph;
 1053              		.loc 1 764 9 is_stmt 1
 1054              		.loc 1 764 12 is_stmt 0
 1055 000e B7170240 		li	a5,1073876992
 1056 0012 984F     		lw	a4,24(a5)
 1057              		.loc 1 764 27
 1058 0014 1345F5FF 		not	a0,a0
 1059              	.LVL105:
 1060              		.loc 1 764 24
 1061 0018 798D     		and	a0,a0,a4
 1062              	.LVL106:
 1063 001a 88CF     		sw	a0,24(a5)
 765:../Peripheral/src/ch32v30x_rcc.c ****     }
 766:../Peripheral/src/ch32v30x_rcc.c **** }
 1064              		.loc 1 766 1
 1065 001c 8280     		ret
 1066              		.cfi_endproc
 1067              	.LFE49:
 1069              		.section	.text.RCC_APB1PeriphClockCmd,"ax",@progbits
 1070              		.align	1
 1071              		.globl	RCC_APB1PeriphClockCmd
 1073              	RCC_APB1PeriphClockCmd:
 1074              	.LFB50:
 767:../Peripheral/src/ch32v30x_rcc.c **** 
 768:../Peripheral/src/ch32v30x_rcc.c **** /*********************************************************************
 769:../Peripheral/src/ch32v30x_rcc.c ****  * @fn      RCC_APB1PeriphClockCmd
 770:../Peripheral/src/ch32v30x_rcc.c ****  *
 771:../Peripheral/src/ch32v30x_rcc.c ****  * @brief   Enables or disables the Low Speed APB (APB1) peripheral clock.
 772:../Peripheral/src/ch32v30x_rcc.c ****  *
 773:../Peripheral/src/ch32v30x_rcc.c ****  * @param   RCC_APB1Periph - specifies the APB1 peripheral to gates its clock.
 774:../Peripheral/src/ch32v30x_rcc.c ****  *            RCC_APB1Periph_TIM2.
 775:../Peripheral/src/ch32v30x_rcc.c ****  *            RCC_APB1Periph_TIM3.
 776:../Peripheral/src/ch32v30x_rcc.c ****  *            RCC_APB1Periph_TIM4.
 777:../Peripheral/src/ch32v30x_rcc.c ****  *            RCC_APB1Periph_TIM5
 778:../Peripheral/src/ch32v30x_rcc.c ****  *            RCC_APB1Periph_TIM6
 779:../Peripheral/src/ch32v30x_rcc.c ****  *            RCC_APB1Periph_TIM7
 780:../Peripheral/src/ch32v30x_rcc.c ****  *            RCC_APB1Periph_UART6
 781:../Peripheral/src/ch32v30x_rcc.c ****  *            RCC_APB1Periph_UART7
 782:../Peripheral/src/ch32v30x_rcc.c ****  *            RCC_APB1Periph_UART8
 783:../Peripheral/src/ch32v30x_rcc.c ****  *            RCC_APB1Periph_WWDG.
 784:../Peripheral/src/ch32v30x_rcc.c ****  *            RCC_APB1Periph_SPI2.
 785:../Peripheral/src/ch32v30x_rcc.c ****  *            RCC_APB1Periph_SPI3.
 786:../Peripheral/src/ch32v30x_rcc.c ****  *            RCC_APB1Periph_USART2.
 787:../Peripheral/src/ch32v30x_rcc.c ****  *            RCC_APB1Periph_USART3.
 788:../Peripheral/src/ch32v30x_rcc.c ****  *            RCC_APB1Periph_UART4
 789:../Peripheral/src/ch32v30x_rcc.c ****  *            RCC_APB1Periph_UART5
 790:../Peripheral/src/ch32v30x_rcc.c ****  *            RCC_APB1Periph_I2C1.
 791:../Peripheral/src/ch32v30x_rcc.c ****  *            RCC_APB1Periph_I2C2.
 792:../Peripheral/src/ch32v30x_rcc.c ****  *            RCC_APB1Periph_USB.
 793:../Peripheral/src/ch32v30x_rcc.c ****  *            RCC_APB1Periph_CAN1.
 794:../Peripheral/src/ch32v30x_rcc.c ****  *            RCC_APB1Periph_BKP.
 795:../Peripheral/src/ch32v30x_rcc.c ****  *            RCC_APB1Periph_PWR.
 796:../Peripheral/src/ch32v30x_rcc.c ****  *            RCC_APB1Periph_DAC.
 797:../Peripheral/src/ch32v30x_rcc.c ****  *          NewState - ENABLE or DISABLE.
 798:../Peripheral/src/ch32v30x_rcc.c ****  *
 799:../Peripheral/src/ch32v30x_rcc.c ****  * @return  none
 800:../Peripheral/src/ch32v30x_rcc.c ****  */
 801:../Peripheral/src/ch32v30x_rcc.c **** void RCC_APB1PeriphClockCmd(uint32_t RCC_APB1Periph, FunctionalState NewState)
 802:../Peripheral/src/ch32v30x_rcc.c **** {
 1075              		.loc 1 802 1 is_stmt 1
 1076              		.cfi_startproc
 1077              	.LVL107:
 803:../Peripheral/src/ch32v30x_rcc.c ****     if(NewState != DISABLE)
 1078              		.loc 1 803 5
 1079              		.loc 1 803 7 is_stmt 0
 1080 0000 99C5     		beq	a1,zero,.L74
 804:../Peripheral/src/ch32v30x_rcc.c ****     {
 805:../Peripheral/src/ch32v30x_rcc.c ****         RCC->APB1PCENR |= RCC_APB1Periph;
 1081              		.loc 1 805 9 is_stmt 1
 1082              		.loc 1 805 12 is_stmt 0
 1083 0002 37170240 		li	a4,1073876992
 1084 0006 5C4F     		lw	a5,28(a4)
 1085              		.loc 1 805 24
 1086 0008 C98F     		or	a5,a5,a0
 1087 000a 5CCF     		sw	a5,28(a4)
 1088 000c 8280     		ret
 1089              	.L74:
 806:../Peripheral/src/ch32v30x_rcc.c ****     }
 807:../Peripheral/src/ch32v30x_rcc.c ****     else
 808:../Peripheral/src/ch32v30x_rcc.c ****     {
 809:../Peripheral/src/ch32v30x_rcc.c ****         RCC->APB1PCENR &= ~RCC_APB1Periph;
 1090              		.loc 1 809 9 is_stmt 1
 1091              		.loc 1 809 12 is_stmt 0
 1092 000e B7170240 		li	a5,1073876992
 1093 0012 D84F     		lw	a4,28(a5)
 1094              		.loc 1 809 27
 1095 0014 1345F5FF 		not	a0,a0
 1096              	.LVL108:
 1097              		.loc 1 809 24
 1098 0018 798D     		and	a0,a0,a4
 1099              	.LVL109:
 1100 001a C8CF     		sw	a0,28(a5)
 810:../Peripheral/src/ch32v30x_rcc.c ****     }
 811:../Peripheral/src/ch32v30x_rcc.c **** }
 1101              		.loc 1 811 1
 1102 001c 8280     		ret
 1103              		.cfi_endproc
 1104              	.LFE50:
 1106              		.section	.text.RCC_APB2PeriphResetCmd,"ax",@progbits
 1107              		.align	1
 1108              		.globl	RCC_APB2PeriphResetCmd
 1110              	RCC_APB2PeriphResetCmd:
 1111              	.LFB51:
 812:../Peripheral/src/ch32v30x_rcc.c **** 
 813:../Peripheral/src/ch32v30x_rcc.c **** /*********************************************************************
 814:../Peripheral/src/ch32v30x_rcc.c ****  * @fn      RCC_APB2PeriphResetCmd
 815:../Peripheral/src/ch32v30x_rcc.c ****  *
 816:../Peripheral/src/ch32v30x_rcc.c ****  * @brief   Forces or releases High Speed APB (APB2) peripheral reset.
 817:../Peripheral/src/ch32v30x_rcc.c ****  *
 818:../Peripheral/src/ch32v30x_rcc.c ****  * @param   RCC_APB2Periph - specifies the APB2 peripheral to reset.
 819:../Peripheral/src/ch32v30x_rcc.c ****  *            RCC_APB2Periph_AFIO.
 820:../Peripheral/src/ch32v30x_rcc.c ****  *            RCC_APB2Periph_GPIOA.
 821:../Peripheral/src/ch32v30x_rcc.c ****  *            RCC_APB2Periph_GPIOB.
 822:../Peripheral/src/ch32v30x_rcc.c ****  *            RCC_APB2Periph_GPIOC.
 823:../Peripheral/src/ch32v30x_rcc.c ****  *            RCC_APB2Periph_GPIOD.
 824:../Peripheral/src/ch32v30x_rcc.c ****  *            RCC_APB2Periph_GPIOE
 825:../Peripheral/src/ch32v30x_rcc.c ****  *            RCC_APB2Periph_ADC1.
 826:../Peripheral/src/ch32v30x_rcc.c ****  *            RCC_APB2Periph_ADC2
 827:../Peripheral/src/ch32v30x_rcc.c ****  *            RCC_APB2Periph_TIM1.
 828:../Peripheral/src/ch32v30x_rcc.c ****  *            RCC_APB2Periph_SPI1.
 829:../Peripheral/src/ch32v30x_rcc.c ****  *            RCC_APB2Periph_TIM8
 830:../Peripheral/src/ch32v30x_rcc.c ****  *            RCC_APB2Periph_USART1.
 831:../Peripheral/src/ch32v30x_rcc.c ****  *            RCC_APB2Periph_TIM9
 832:../Peripheral/src/ch32v30x_rcc.c ****  *            RCC_APB2Periph_TIM10
 833:../Peripheral/src/ch32v30x_rcc.c ****  *          NewState - ENABLE or DISABLE
 834:../Peripheral/src/ch32v30x_rcc.c ****  *
 835:../Peripheral/src/ch32v30x_rcc.c ****  * @return  none
 836:../Peripheral/src/ch32v30x_rcc.c ****  */
 837:../Peripheral/src/ch32v30x_rcc.c **** void RCC_APB2PeriphResetCmd(uint32_t RCC_APB2Periph, FunctionalState NewState)
 838:../Peripheral/src/ch32v30x_rcc.c **** {
 1112              		.loc 1 838 1 is_stmt 1
 1113              		.cfi_startproc
 1114              	.LVL110:
 839:../Peripheral/src/ch32v30x_rcc.c ****     if(NewState != DISABLE)
 1115              		.loc 1 839 5
 1116              		.loc 1 839 7 is_stmt 0
 1117 0000 99C5     		beq	a1,zero,.L77
 840:../Peripheral/src/ch32v30x_rcc.c ****     {
 841:../Peripheral/src/ch32v30x_rcc.c ****         RCC->APB2PRSTR |= RCC_APB2Periph;
 1118              		.loc 1 841 9 is_stmt 1
 1119              		.loc 1 841 12 is_stmt 0
 1120 0002 37170240 		li	a4,1073876992
 1121 0006 5C47     		lw	a5,12(a4)
 1122              		.loc 1 841 24
 1123 0008 C98F     		or	a5,a5,a0
 1124 000a 5CC7     		sw	a5,12(a4)
 1125 000c 8280     		ret
 1126              	.L77:
 842:../Peripheral/src/ch32v30x_rcc.c ****     }
 843:../Peripheral/src/ch32v30x_rcc.c ****     else
 844:../Peripheral/src/ch32v30x_rcc.c ****     {
 845:../Peripheral/src/ch32v30x_rcc.c ****         RCC->APB2PRSTR &= ~RCC_APB2Periph;
 1127              		.loc 1 845 9 is_stmt 1
 1128              		.loc 1 845 12 is_stmt 0
 1129 000e B7170240 		li	a5,1073876992
 1130 0012 D847     		lw	a4,12(a5)
 1131              		.loc 1 845 27
 1132 0014 1345F5FF 		not	a0,a0
 1133              	.LVL111:
 1134              		.loc 1 845 24
 1135 0018 798D     		and	a0,a0,a4
 1136              	.LVL112:
 1137 001a C8C7     		sw	a0,12(a5)
 846:../Peripheral/src/ch32v30x_rcc.c ****     }
 847:../Peripheral/src/ch32v30x_rcc.c **** }
 1138              		.loc 1 847 1
 1139 001c 8280     		ret
 1140              		.cfi_endproc
 1141              	.LFE51:
 1143              		.section	.text.RCC_APB1PeriphResetCmd,"ax",@progbits
 1144              		.align	1
 1145              		.globl	RCC_APB1PeriphResetCmd
 1147              	RCC_APB1PeriphResetCmd:
 1148              	.LFB52:
 848:../Peripheral/src/ch32v30x_rcc.c **** 
 849:../Peripheral/src/ch32v30x_rcc.c **** /*********************************************************************
 850:../Peripheral/src/ch32v30x_rcc.c ****  * @fn      RCC_APB1PeriphResetCmd
 851:../Peripheral/src/ch32v30x_rcc.c ****  *
 852:../Peripheral/src/ch32v30x_rcc.c ****  * @brief   Forces or releases Low Speed APB (APB1) peripheral reset.
 853:../Peripheral/src/ch32v30x_rcc.c ****  *
 854:../Peripheral/src/ch32v30x_rcc.c ****  * @param   RCC_APB1Periph - specifies the APB1 peripheral to reset.
 855:../Peripheral/src/ch32v30x_rcc.c ****  *            RCC_APB1Periph_TIM2.
 856:../Peripheral/src/ch32v30x_rcc.c ****  *            RCC_APB1Periph_TIM3.
 857:../Peripheral/src/ch32v30x_rcc.c ****  *            RCC_APB1Periph_TIM4.
 858:../Peripheral/src/ch32v30x_rcc.c ****  *            RCC_APB1Periph_TIM5
 859:../Peripheral/src/ch32v30x_rcc.c ****  *            RCC_APB1Periph_TIM6
 860:../Peripheral/src/ch32v30x_rcc.c ****  *            RCC_APB1Periph_TIM7
 861:../Peripheral/src/ch32v30x_rcc.c ****  *            RCC_APB1Periph_UART6
 862:../Peripheral/src/ch32v30x_rcc.c ****  *            RCC_APB1Periph_UART7
 863:../Peripheral/src/ch32v30x_rcc.c ****  *            RCC_APB1Periph_UART8
 864:../Peripheral/src/ch32v30x_rcc.c ****  *            RCC_APB1Periph_WWDG.
 865:../Peripheral/src/ch32v30x_rcc.c ****  *            RCC_APB1Periph_SPI2.
 866:../Peripheral/src/ch32v30x_rcc.c ****  *            RCC_APB1Periph_SPI3.
 867:../Peripheral/src/ch32v30x_rcc.c ****  *            RCC_APB1Periph_USART2.
 868:../Peripheral/src/ch32v30x_rcc.c ****  *            RCC_APB1Periph_USART3.
 869:../Peripheral/src/ch32v30x_rcc.c ****  *            RCC_APB1Periph_UART4
 870:../Peripheral/src/ch32v30x_rcc.c ****  *            RCC_APB1Periph_UART5
 871:../Peripheral/src/ch32v30x_rcc.c ****  *            RCC_APB1Periph_I2C1.
 872:../Peripheral/src/ch32v30x_rcc.c ****  *            RCC_APB1Periph_I2C2.
 873:../Peripheral/src/ch32v30x_rcc.c ****  *            RCC_APB1Periph_USB.
 874:../Peripheral/src/ch32v30x_rcc.c ****  *            RCC_APB1Periph_CAN1.
 875:../Peripheral/src/ch32v30x_rcc.c ****  *            RCC_APB1Periph_BKP.
 876:../Peripheral/src/ch32v30x_rcc.c ****  *            RCC_APB1Periph_PWR.
 877:../Peripheral/src/ch32v30x_rcc.c ****  *            RCC_APB1Periph_DAC.
 878:../Peripheral/src/ch32v30x_rcc.c ****  *          NewState - ENABLE or DISABLE.
 879:../Peripheral/src/ch32v30x_rcc.c ****  *
 880:../Peripheral/src/ch32v30x_rcc.c ****  * @return  none
 881:../Peripheral/src/ch32v30x_rcc.c ****  */
 882:../Peripheral/src/ch32v30x_rcc.c **** void RCC_APB1PeriphResetCmd(uint32_t RCC_APB1Periph, FunctionalState NewState)
 883:../Peripheral/src/ch32v30x_rcc.c **** {
 1149              		.loc 1 883 1 is_stmt 1
 1150              		.cfi_startproc
 1151              	.LVL113:
 884:../Peripheral/src/ch32v30x_rcc.c ****     if(NewState != DISABLE)
 1152              		.loc 1 884 5
 1153              		.loc 1 884 7 is_stmt 0
 1154 0000 99C5     		beq	a1,zero,.L80
 885:../Peripheral/src/ch32v30x_rcc.c ****     {
 886:../Peripheral/src/ch32v30x_rcc.c ****         RCC->APB1PRSTR |= RCC_APB1Periph;
 1155              		.loc 1 886 9 is_stmt 1
 1156              		.loc 1 886 12 is_stmt 0
 1157 0002 37170240 		li	a4,1073876992
 1158 0006 1C4B     		lw	a5,16(a4)
 1159              		.loc 1 886 24
 1160 0008 C98F     		or	a5,a5,a0
 1161 000a 1CCB     		sw	a5,16(a4)
 1162 000c 8280     		ret
 1163              	.L80:
 887:../Peripheral/src/ch32v30x_rcc.c ****     }
 888:../Peripheral/src/ch32v30x_rcc.c ****     else
 889:../Peripheral/src/ch32v30x_rcc.c ****     {
 890:../Peripheral/src/ch32v30x_rcc.c ****         RCC->APB1PRSTR &= ~RCC_APB1Periph;
 1164              		.loc 1 890 9 is_stmt 1
 1165              		.loc 1 890 12 is_stmt 0
 1166 000e B7170240 		li	a5,1073876992
 1167 0012 984B     		lw	a4,16(a5)
 1168              		.loc 1 890 27
 1169 0014 1345F5FF 		not	a0,a0
 1170              	.LVL114:
 1171              		.loc 1 890 24
 1172 0018 798D     		and	a0,a0,a4
 1173              	.LVL115:
 1174 001a 88CB     		sw	a0,16(a5)
 891:../Peripheral/src/ch32v30x_rcc.c ****     }
 892:../Peripheral/src/ch32v30x_rcc.c **** }
 1175              		.loc 1 892 1
 1176 001c 8280     		ret
 1177              		.cfi_endproc
 1178              	.LFE52:
 1180              		.section	.text.RCC_BackupResetCmd,"ax",@progbits
 1181              		.align	1
 1182              		.globl	RCC_BackupResetCmd
 1184              	RCC_BackupResetCmd:
 1185              	.LFB53:
 893:../Peripheral/src/ch32v30x_rcc.c **** 
 894:../Peripheral/src/ch32v30x_rcc.c **** /*********************************************************************
 895:../Peripheral/src/ch32v30x_rcc.c ****  * @fn      RCC_BackupResetCmd
 896:../Peripheral/src/ch32v30x_rcc.c ****  *
 897:../Peripheral/src/ch32v30x_rcc.c ****  * @brief   Forces or releases the Backup domain reset.
 898:../Peripheral/src/ch32v30x_rcc.c ****  *
 899:../Peripheral/src/ch32v30x_rcc.c ****  * @param   NewState - ENABLE or DISABLE.
 900:../Peripheral/src/ch32v30x_rcc.c ****  *
 901:../Peripheral/src/ch32v30x_rcc.c ****  * @return  none
 902:../Peripheral/src/ch32v30x_rcc.c ****  */
 903:../Peripheral/src/ch32v30x_rcc.c **** void RCC_BackupResetCmd(FunctionalState NewState)
 904:../Peripheral/src/ch32v30x_rcc.c **** {
 1186              		.loc 1 904 1 is_stmt 1
 1187              		.cfi_startproc
 1188              	.LVL116:
 905:../Peripheral/src/ch32v30x_rcc.c ****     if(NewState)
 1189              		.loc 1 905 5
 1190              		.loc 1 905 7 is_stmt 0
 1191 0000 01C9     		beq	a0,zero,.L83
 906:../Peripheral/src/ch32v30x_rcc.c ****     {
 907:../Peripheral/src/ch32v30x_rcc.c ****         RCC->BDCTLR |= (1 << 16);
 1192              		.loc 1 907 9 is_stmt 1
 1193              		.loc 1 907 12 is_stmt 0
 1194 0002 37170240 		li	a4,1073876992
 1195 0006 1C53     		lw	a5,32(a4)
 1196              		.loc 1 907 21
 1197 0008 C166     		li	a3,65536
 1198 000a D58F     		or	a5,a5,a3
 1199 000c 1CD3     		sw	a5,32(a4)
 1200 000e 8280     		ret
 1201              	.L83:
 908:../Peripheral/src/ch32v30x_rcc.c ****     }
 909:../Peripheral/src/ch32v30x_rcc.c ****     else
 910:../Peripheral/src/ch32v30x_rcc.c ****     {
 911:../Peripheral/src/ch32v30x_rcc.c ****         RCC->BDCTLR &= ~(1 << 16);
 1202              		.loc 1 911 9 is_stmt 1
 1203              		.loc 1 911 12 is_stmt 0
 1204 0010 B7160240 		li	a3,1073876992
 1205 0014 9C52     		lw	a5,32(a3)
 1206              		.loc 1 911 21
 1207 0016 4177     		li	a4,-65536
 1208 0018 7D17     		addi	a4,a4,-1
 1209 001a F98F     		and	a5,a5,a4
 1210 001c 9CD2     		sw	a5,32(a3)
 912:../Peripheral/src/ch32v30x_rcc.c ****     }
 913:../Peripheral/src/ch32v30x_rcc.c **** }
 1211              		.loc 1 913 1
 1212 001e 8280     		ret
 1213              		.cfi_endproc
 1214              	.LFE53:
 1216              		.section	.text.RCC_ClockSecuritySystemCmd,"ax",@progbits
 1217              		.align	1
 1218              		.globl	RCC_ClockSecuritySystemCmd
 1220              	RCC_ClockSecuritySystemCmd:
 1221              	.LFB54:
 914:../Peripheral/src/ch32v30x_rcc.c **** 
 915:../Peripheral/src/ch32v30x_rcc.c **** /*********************************************************************
 916:../Peripheral/src/ch32v30x_rcc.c ****  * @fn      RCC_ClockSecuritySystemCmd
 917:../Peripheral/src/ch32v30x_rcc.c ****  *
 918:../Peripheral/src/ch32v30x_rcc.c ****  * @brief   Enables or disables the Clock Security System.
 919:../Peripheral/src/ch32v30x_rcc.c ****  *
 920:../Peripheral/src/ch32v30x_rcc.c ****  * @param   NewState - ENABLE or DISABLE.
 921:../Peripheral/src/ch32v30x_rcc.c ****  *
 922:../Peripheral/src/ch32v30x_rcc.c ****  * @return  none
 923:../Peripheral/src/ch32v30x_rcc.c ****  */
 924:../Peripheral/src/ch32v30x_rcc.c **** void RCC_ClockSecuritySystemCmd(FunctionalState NewState)
 925:../Peripheral/src/ch32v30x_rcc.c **** {
 1222              		.loc 1 925 1 is_stmt 1
 1223              		.cfi_startproc
 1224              	.LVL117:
 926:../Peripheral/src/ch32v30x_rcc.c ****     if(NewState)
 1225              		.loc 1 926 5
 1226              		.loc 1 926 7 is_stmt 0
 1227 0000 09C9     		beq	a0,zero,.L86
 927:../Peripheral/src/ch32v30x_rcc.c ****     {
 928:../Peripheral/src/ch32v30x_rcc.c ****         RCC->CTLR |= (1 << 19);
 1228              		.loc 1 928 9 is_stmt 1
 1229              		.loc 1 928 12 is_stmt 0
 1230 0002 37170240 		li	a4,1073876992
 1231 0006 1C43     		lw	a5,0(a4)
 1232              		.loc 1 928 19
 1233 0008 B7060800 		li	a3,524288
 1234 000c D58F     		or	a5,a5,a3
 1235 000e 1CC3     		sw	a5,0(a4)
 1236 0010 8280     		ret
 1237              	.L86:
 929:../Peripheral/src/ch32v30x_rcc.c ****     }
 930:../Peripheral/src/ch32v30x_rcc.c ****     else
 931:../Peripheral/src/ch32v30x_rcc.c ****     {
 932:../Peripheral/src/ch32v30x_rcc.c ****         RCC->CTLR &= ~(1 << 19);
 1238              		.loc 1 932 9 is_stmt 1
 1239              		.loc 1 932 12 is_stmt 0
 1240 0012 B7160240 		li	a3,1073876992
 1241 0016 9C42     		lw	a5,0(a3)
 1242              		.loc 1 932 19
 1243 0018 3707F8FF 		li	a4,-524288
 1244 001c 7D17     		addi	a4,a4,-1
 1245 001e F98F     		and	a5,a5,a4
 1246 0020 9CC2     		sw	a5,0(a3)
 933:../Peripheral/src/ch32v30x_rcc.c ****     }
 934:../Peripheral/src/ch32v30x_rcc.c **** }
 1247              		.loc 1 934 1
 1248 0022 8280     		ret
 1249              		.cfi_endproc
 1250              	.LFE54:
 1252              		.section	.text.RCC_MCOConfig,"ax",@progbits
 1253              		.align	1
 1254              		.globl	RCC_MCOConfig
 1256              	RCC_MCOConfig:
 1257              	.LFB55:
 935:../Peripheral/src/ch32v30x_rcc.c **** 
 936:../Peripheral/src/ch32v30x_rcc.c **** /*********************************************************************
 937:../Peripheral/src/ch32v30x_rcc.c ****  * @fn      RCC_MCOConfig
 938:../Peripheral/src/ch32v30x_rcc.c ****  *
 939:../Peripheral/src/ch32v30x_rcc.c ****  * @brief   Selects the clock source to output on MCO pin.
 940:../Peripheral/src/ch32v30x_rcc.c ****  *
 941:../Peripheral/src/ch32v30x_rcc.c ****  * @param   RCC_MCO - specifies the clock source to output.
 942:../Peripheral/src/ch32v30x_rcc.c ****  *            RCC_MCO_NoClock - No clock selected.
 943:../Peripheral/src/ch32v30x_rcc.c ****  *            RCC_MCO_SYSCLK - System clock selected.
 944:../Peripheral/src/ch32v30x_rcc.c ****  *            RCC_MCO_HSI - HSI oscillator clock selected.
 945:../Peripheral/src/ch32v30x_rcc.c ****  *            RCC_MCO_HSE - HSE oscillator clock selected.
 946:../Peripheral/src/ch32v30x_rcc.c ****  *            RCC_MCO_PLLCLK_Div2 - PLL clock divided by 2 selected.
 947:../Peripheral/src/ch32v30x_rcc.c ****  *            RCC_MCO_PLL2CLK - PLL2 clock selected
 948:../Peripheral/src/ch32v30x_rcc.c ****  *            RCC_MCO_PLL3CLK_Div2 - PLL3 clock divided by 2 selected
 949:../Peripheral/src/ch32v30x_rcc.c ****  *            RCC_MCO_XT1 - External 3-25 MHz oscillator clock selected
 950:../Peripheral/src/ch32v30x_rcc.c ****  *            RCC_MCO_PLL3CLK - PLL3 clock selected
 951:../Peripheral/src/ch32v30x_rcc.c ****  *
 952:../Peripheral/src/ch32v30x_rcc.c ****  * @return  none
 953:../Peripheral/src/ch32v30x_rcc.c ****  */
 954:../Peripheral/src/ch32v30x_rcc.c **** void RCC_MCOConfig(uint8_t RCC_MCO)
 955:../Peripheral/src/ch32v30x_rcc.c **** {
 1258              		.loc 1 955 1 is_stmt 1
 1259              		.cfi_startproc
 1260              	.LVL118:
 956:../Peripheral/src/ch32v30x_rcc.c ****     *(__IO uint8_t *)CFGR0_BYTE4_ADDRESS = RCC_MCO;
 1261              		.loc 1 956 5
 1262              		.loc 1 956 42 is_stmt 0
 1263 0000 B7170240 		li	a5,1073876992
 1264 0004 E8B3     		sb	a0,7(a5)
 957:../Peripheral/src/ch32v30x_rcc.c **** }
 1265              		.loc 1 957 1
 1266 0006 8280     		ret
 1267              		.cfi_endproc
 1268              	.LFE55:
 1270              		.section	.text.RCC_GetFlagStatus,"ax",@progbits
 1271              		.align	1
 1272              		.globl	RCC_GetFlagStatus
 1274              	RCC_GetFlagStatus:
 1275              	.LFB56:
 958:../Peripheral/src/ch32v30x_rcc.c **** 
 959:../Peripheral/src/ch32v30x_rcc.c **** /*********************************************************************
 960:../Peripheral/src/ch32v30x_rcc.c ****  * @fn      RCC_GetFlagStatus
 961:../Peripheral/src/ch32v30x_rcc.c ****  *
 962:../Peripheral/src/ch32v30x_rcc.c ****  * @brief   Checks whether the specified RCC flag is set or not.
 963:../Peripheral/src/ch32v30x_rcc.c ****  *
 964:../Peripheral/src/ch32v30x_rcc.c ****  * @param   RCC_FLAG - specifies the flag to check.
 965:../Peripheral/src/ch32v30x_rcc.c ****  *            RCC_FLAG_HSIRDY - HSI oscillator clock ready.
 966:../Peripheral/src/ch32v30x_rcc.c ****  *            RCC_FLAG_HSERDY - HSE oscillator clock ready.
 967:../Peripheral/src/ch32v30x_rcc.c ****  *            RCC_FLAG_PLLRDY - PLL clock ready.
 968:../Peripheral/src/ch32v30x_rcc.c ****  *            RCC_FLAG_PLL2RDY - PLL2 clock ready.
 969:../Peripheral/src/ch32v30x_rcc.c ****  *            RCC_FLAG_PLL3RDY - PLL3 clock ready.
 970:../Peripheral/src/ch32v30x_rcc.c ****  *            RCC_FLAG_LSERDY - LSE oscillator clock ready.
 971:../Peripheral/src/ch32v30x_rcc.c ****  *            RCC_FLAG_LSIRDY - LSI oscillator clock ready.
 972:../Peripheral/src/ch32v30x_rcc.c ****  *            RCC_FLAG_PINRST - Pin reset.
 973:../Peripheral/src/ch32v30x_rcc.c ****  *            RCC_FLAG_PORRST - POR/PDR reset.
 974:../Peripheral/src/ch32v30x_rcc.c ****  *            RCC_FLAG_SFTRST - Software reset.
 975:../Peripheral/src/ch32v30x_rcc.c ****  *            RCC_FLAG_IWDGRST - Independent Watchdog reset.
 976:../Peripheral/src/ch32v30x_rcc.c ****  *            RCC_FLAG_WWDGRST - Window Watchdog reset.
 977:../Peripheral/src/ch32v30x_rcc.c ****  *            RCC_FLAG_LPWRRST - Low Power reset.
 978:../Peripheral/src/ch32v30x_rcc.c ****  *
 979:../Peripheral/src/ch32v30x_rcc.c ****  * @return  FlagStatus - SET or RESET.
 980:../Peripheral/src/ch32v30x_rcc.c ****  */
 981:../Peripheral/src/ch32v30x_rcc.c **** FlagStatus RCC_GetFlagStatus(uint8_t RCC_FLAG)
 982:../Peripheral/src/ch32v30x_rcc.c **** {
 1276              		.loc 1 982 1 is_stmt 1
 1277              		.cfi_startproc
 1278              	.LVL119:
 983:../Peripheral/src/ch32v30x_rcc.c ****     uint32_t tmp = 0;
 1279              		.loc 1 983 5
 984:../Peripheral/src/ch32v30x_rcc.c ****     uint32_t statusreg = 0;
 1280              		.loc 1 984 5
 985:../Peripheral/src/ch32v30x_rcc.c **** 
 986:../Peripheral/src/ch32v30x_rcc.c ****     FlagStatus bitstatus = RESET;
 1281              		.loc 1 986 5
 987:../Peripheral/src/ch32v30x_rcc.c ****     tmp = RCC_FLAG >> 5;
 1282              		.loc 1 987 5
 1283              		.loc 1 987 20 is_stmt 0
 1284 0000 93575500 		srli	a5,a0,5
 1285              	.LVL120:
 988:../Peripheral/src/ch32v30x_rcc.c **** 
 989:../Peripheral/src/ch32v30x_rcc.c ****     if(tmp == 1)
 1286              		.loc 1 989 5 is_stmt 1
 1287              		.loc 1 989 7 is_stmt 0
 1288 0004 0547     		li	a4,1
 1289 0006 6399E700 		bne	a5,a4,.L90
 990:../Peripheral/src/ch32v30x_rcc.c ****     {
 991:../Peripheral/src/ch32v30x_rcc.c ****         statusreg = RCC->CTLR;
 1290              		.loc 1 991 9 is_stmt 1
 1291              		.loc 1 991 19 is_stmt 0
 1292 000a B7170240 		li	a5,1073876992
 1293              	.LVL121:
 1294 000e 9C43     		lw	a5,0(a5)
 1295              	.LVL122:
 1296              	.L91:
 992:../Peripheral/src/ch32v30x_rcc.c ****     }
 993:../Peripheral/src/ch32v30x_rcc.c ****     else if(tmp == 2)
 994:../Peripheral/src/ch32v30x_rcc.c ****     {
 995:../Peripheral/src/ch32v30x_rcc.c ****         statusreg = RCC->BDCTLR;
 996:../Peripheral/src/ch32v30x_rcc.c ****     }
 997:../Peripheral/src/ch32v30x_rcc.c ****     else
 998:../Peripheral/src/ch32v30x_rcc.c ****     {
 999:../Peripheral/src/ch32v30x_rcc.c ****         statusreg = RCC->RSTSCKR;
1000:../Peripheral/src/ch32v30x_rcc.c ****     }
1001:../Peripheral/src/ch32v30x_rcc.c **** 
1002:../Peripheral/src/ch32v30x_rcc.c ****     tmp = RCC_FLAG & FLAG_Mask;
 1297              		.loc 1 1002 5 is_stmt 1
1003:../Peripheral/src/ch32v30x_rcc.c **** 
1004:../Peripheral/src/ch32v30x_rcc.c ****     if((statusreg & ((uint32_t)1 << tmp)) != (uint32_t)RESET)
 1298              		.loc 1 1004 5
1005:../Peripheral/src/ch32v30x_rcc.c ****     {
1006:../Peripheral/src/ch32v30x_rcc.c ****         bitstatus = SET;
1007:../Peripheral/src/ch32v30x_rcc.c ****     }
1008:../Peripheral/src/ch32v30x_rcc.c ****     else
1009:../Peripheral/src/ch32v30x_rcc.c ****     {
1010:../Peripheral/src/ch32v30x_rcc.c ****         bitstatus = RESET;
1011:../Peripheral/src/ch32v30x_rcc.c ****     }
1012:../Peripheral/src/ch32v30x_rcc.c **** 
1013:../Peripheral/src/ch32v30x_rcc.c ****     return bitstatus;
 1299              		.loc 1 1013 5
1004:../Peripheral/src/ch32v30x_rcc.c ****     {
 1300              		.loc 1 1004 43 is_stmt 0
 1301 0010 33D5A700 		srl	a0,a5,a0
 1302              	.LVL123:
1014:../Peripheral/src/ch32v30x_rcc.c **** }
 1303              		.loc 1 1014 1
 1304 0014 0589     		andi	a0,a0,1
 1305 0016 8280     		ret
 1306              	.LVL124:
 1307              	.L90:
 993:../Peripheral/src/ch32v30x_rcc.c ****     {
 1308              		.loc 1 993 10 is_stmt 1
 993:../Peripheral/src/ch32v30x_rcc.c ****     {
 1309              		.loc 1 993 12 is_stmt 0
 1310 0018 0947     		li	a4,2
 1311 001a 6396E700 		bne	a5,a4,.L92
 995:../Peripheral/src/ch32v30x_rcc.c ****     }
 1312              		.loc 1 995 9 is_stmt 1
 995:../Peripheral/src/ch32v30x_rcc.c ****     }
 1313              		.loc 1 995 19 is_stmt 0
 1314 001e B7170240 		li	a5,1073876992
 1315              	.LVL125:
 1316 0022 9C53     		lw	a5,32(a5)
 1317              	.LVL126:
 1318 0024 F5B7     		j	.L91
 1319              	.LVL127:
 1320              	.L92:
 999:../Peripheral/src/ch32v30x_rcc.c ****     }
 1321              		.loc 1 999 9 is_stmt 1
 999:../Peripheral/src/ch32v30x_rcc.c ****     }
 1322              		.loc 1 999 19 is_stmt 0
 1323 0026 B7170240 		li	a5,1073876992
 1324              	.LVL128:
 1325 002a DC53     		lw	a5,36(a5)
 1326              	.LVL129:
 1327 002c D5B7     		j	.L91
 1328              		.cfi_endproc
 1329              	.LFE56:
 1331              		.section	.text.RCC_WaitForHSEStartUp,"ax",@progbits
 1332              		.align	1
 1333              		.globl	RCC_WaitForHSEStartUp
 1335              	RCC_WaitForHSEStartUp:
 1336              	.LFB31:
 147:../Peripheral/src/ch32v30x_rcc.c ****     __IO uint32_t StartUpCounter = 0;
 1337              		.loc 1 147 1 is_stmt 1
 1338              		.cfi_startproc
 1339 0000 17030000 		call	t0,__riscv_save_1
 1339      E7020300 
 1340              		.cfi_offset 8, -8
 1341              		.cfi_offset 1, -4
 1342              		.cfi_def_cfa_offset 16
 148:../Peripheral/src/ch32v30x_rcc.c **** 
 1343              		.loc 1 148 5
 147:../Peripheral/src/ch32v30x_rcc.c ****     __IO uint32_t StartUpCounter = 0;
 1344              		.loc 1 147 1 is_stmt 0
 1345 0008 4111     		addi	sp,sp,-16
 1346              		.cfi_def_cfa_offset 32
 148:../Peripheral/src/ch32v30x_rcc.c **** 
 1347              		.loc 1 148 19
 1348 000a 02C6     		sw	zero,12(sp)
 150:../Peripheral/src/ch32v30x_rcc.c ****     FlagStatus  HSEStatus = RESET;
 1349              		.loc 1 150 5 is_stmt 1
 1350              	.LVL130:
 151:../Peripheral/src/ch32v30x_rcc.c **** 
 1351              		.loc 1 151 5
 157:../Peripheral/src/ch32v30x_rcc.c **** 
 1352              		.loc 1 157 53 is_stmt 0
 1353 000c 0564     		li	s0,4096
 1354              	.LVL131:
 1355              	.L95:
 153:../Peripheral/src/ch32v30x_rcc.c ****     {
 1356              		.loc 1 153 5 is_stmt 1 discriminator 2
 155:../Peripheral/src/ch32v30x_rcc.c ****         StartUpCounter++;
 1357              		.loc 1 155 9 discriminator 2
 155:../Peripheral/src/ch32v30x_rcc.c ****         StartUpCounter++;
 1358              		.loc 1 155 21 is_stmt 0 discriminator 2
 1359 000e 13051003 		li	a0,49
 1360 0012 97000000 		call	RCC_GetFlagStatus
 1360      E7800000 
 1361              	.LVL132:
 156:../Peripheral/src/ch32v30x_rcc.c ****     } while((StartUpCounter != HSE_STARTUP_TIMEOUT) && (HSEStatus == RESET));
 1362              		.loc 1 156 9 is_stmt 1 discriminator 2
 156:../Peripheral/src/ch32v30x_rcc.c ****     } while((StartUpCounter != HSE_STARTUP_TIMEOUT) && (HSEStatus == RESET));
 1363              		.loc 1 156 23 is_stmt 0 discriminator 2
 1364 001a B247     		lw	a5,12(sp)
 1365 001c 8507     		addi	a5,a5,1
 1366 001e 3EC6     		sw	a5,12(sp)
 157:../Peripheral/src/ch32v30x_rcc.c **** 
 1367              		.loc 1 157 53 is_stmt 1 discriminator 2
 157:../Peripheral/src/ch32v30x_rcc.c **** 
 1368              		.loc 1 157 29 is_stmt 0 discriminator 2
 1369 0020 B247     		lw	a5,12(sp)
 157:../Peripheral/src/ch32v30x_rcc.c **** 
 1370              		.loc 1 157 53 discriminator 2
 1371 0022 63838700 		beq	a5,s0,.L94
 157:../Peripheral/src/ch32v30x_rcc.c **** 
 1372              		.loc 1 157 53 discriminator 1
 1373 0026 65D5     		beq	a0,zero,.L95
 1374              	.L94:
 159:../Peripheral/src/ch32v30x_rcc.c ****     {
 1375              		.loc 1 159 5 is_stmt 1
 159:../Peripheral/src/ch32v30x_rcc.c ****     {
 1376              		.loc 1 159 8 is_stmt 0
 1377 0028 13051003 		li	a0,49
 1378              	.LVL133:
 1379 002c 97000000 		call	RCC_GetFlagStatus
 1379      E7800000 
 1380              	.LVL134:
 168:../Peripheral/src/ch32v30x_rcc.c **** }
 1381              		.loc 1 168 5 is_stmt 1
 169:../Peripheral/src/ch32v30x_rcc.c **** 
 1382              		.loc 1 169 1 is_stmt 0
 1383 0034 3335A000 		snez	a0,a0
 1384              	.LVL135:
 1385 0038 4101     		addi	sp,sp,16
 1386              		.cfi_def_cfa_offset 0
 1387 003a 17030000 		tail	__riscv_restore_1
 1387      67000300 
 1388              		.cfi_restore 8
 1389              		.cfi_restore 1
 1390              		.cfi_def_cfa_offset -16
 1391              		.cfi_endproc
 1392              	.LFE31:
 1394              		.section	.text.RCC_ClearFlag,"ax",@progbits
 1395              		.align	1
 1396              		.globl	RCC_ClearFlag
 1398              	RCC_ClearFlag:
 1399              	.LFB57:
1015:../Peripheral/src/ch32v30x_rcc.c **** 
1016:../Peripheral/src/ch32v30x_rcc.c **** /*********************************************************************
1017:../Peripheral/src/ch32v30x_rcc.c ****  * @fn      RCC_ClearFlag
1018:../Peripheral/src/ch32v30x_rcc.c ****  *
1019:../Peripheral/src/ch32v30x_rcc.c ****  * @brief   Clears the RCC reset flags.
1020:../Peripheral/src/ch32v30x_rcc.c ****  *          Note-   
1021:../Peripheral/src/ch32v30x_rcc.c ****  *          The reset flags are: RCC_FLAG_PINRST, RCC_FLAG_PORRST, RCC_FLAG_SFTRST,
1022:../Peripheral/src/ch32v30x_rcc.c ****  *          RCC_FLAG_IWDGRST, RCC_FLAG_WWDGRST, RCC_FLAG_LPWRRST
1023:../Peripheral/src/ch32v30x_rcc.c ****  * @return  none
1024:../Peripheral/src/ch32v30x_rcc.c ****  */
1025:../Peripheral/src/ch32v30x_rcc.c **** void RCC_ClearFlag(void)
1026:../Peripheral/src/ch32v30x_rcc.c **** {
 1400              		.loc 1 1026 1 is_stmt 1
 1401              		.cfi_startproc
1027:../Peripheral/src/ch32v30x_rcc.c ****     RCC->RSTSCKR |= RSTSCKR_RMVF_Set;
 1402              		.loc 1 1027 5
 1403              		.loc 1 1027 8 is_stmt 0
 1404 0000 37170240 		li	a4,1073876992
 1405 0004 5C53     		lw	a5,36(a4)
 1406              		.loc 1 1027 18
 1407 0006 B7060001 		li	a3,16777216
 1408 000a D58F     		or	a5,a5,a3
 1409 000c 5CD3     		sw	a5,36(a4)
1028:../Peripheral/src/ch32v30x_rcc.c **** }
 1410              		.loc 1 1028 1
 1411 000e 8280     		ret
 1412              		.cfi_endproc
 1413              	.LFE57:
 1415              		.section	.text.RCC_GetITStatus,"ax",@progbits
 1416              		.align	1
 1417              		.globl	RCC_GetITStatus
 1419              	RCC_GetITStatus:
 1420              	.LFB58:
1029:../Peripheral/src/ch32v30x_rcc.c **** 
1030:../Peripheral/src/ch32v30x_rcc.c **** /*********************************************************************
1031:../Peripheral/src/ch32v30x_rcc.c ****  * @fn      RCC_GetITStatus
1032:../Peripheral/src/ch32v30x_rcc.c ****  *
1033:../Peripheral/src/ch32v30x_rcc.c ****  * @brief   Checks whether the specified RCC interrupt has occurred or not.
1034:../Peripheral/src/ch32v30x_rcc.c ****  *
1035:../Peripheral/src/ch32v30x_rcc.c ****  * @param   RCC_IT - specifies the RCC interrupt source to check.
1036:../Peripheral/src/ch32v30x_rcc.c ****  *            RCC_IT_LSIRDY - LSI ready interrupt.
1037:../Peripheral/src/ch32v30x_rcc.c ****  *            RCC_IT_LSERDY - LSE ready interrupt.
1038:../Peripheral/src/ch32v30x_rcc.c ****  *            RCC_IT_HSIRDY - HSI ready interrupt.
1039:../Peripheral/src/ch32v30x_rcc.c ****  *            RCC_IT_HSERDY - HSE ready interrupt.
1040:../Peripheral/src/ch32v30x_rcc.c ****  *            RCC_IT_PLLRDY - PLL ready interrupt.
1041:../Peripheral/src/ch32v30x_rcc.c ****  *            RCC_IT_PLL2RDY - PLL2 ready interrupt.
1042:../Peripheral/src/ch32v30x_rcc.c ****  *            RCC_IT_PLL3RDY - PLL3 ready interrupt.
1043:../Peripheral/src/ch32v30x_rcc.c ****  *            RCC_IT_CSS - Clock Security System interrupt.
1044:../Peripheral/src/ch32v30x_rcc.c ****  *
1045:../Peripheral/src/ch32v30x_rcc.c ****  * @return  ITStatus - SET or RESET.
1046:../Peripheral/src/ch32v30x_rcc.c ****  */
1047:../Peripheral/src/ch32v30x_rcc.c **** 
1048:../Peripheral/src/ch32v30x_rcc.c **** ITStatus RCC_GetITStatus(uint8_t RCC_IT)
1049:../Peripheral/src/ch32v30x_rcc.c **** {
 1421              		.loc 1 1049 1 is_stmt 1
 1422              		.cfi_startproc
 1423              	.LVL136:
1050:../Peripheral/src/ch32v30x_rcc.c ****     ITStatus bitstatus = RESET;
 1424              		.loc 1 1050 5
1051:../Peripheral/src/ch32v30x_rcc.c **** 
1052:../Peripheral/src/ch32v30x_rcc.c ****     if((RCC->INTR & RCC_IT) != (uint32_t)RESET)
 1425              		.loc 1 1052 5
 1426              		.loc 1 1052 12 is_stmt 0
 1427 0000 B7170240 		li	a5,1073876992
 1428 0004 9C47     		lw	a5,8(a5)
 1429              	.LVL137:
1053:../Peripheral/src/ch32v30x_rcc.c ****     {
1054:../Peripheral/src/ch32v30x_rcc.c ****         bitstatus = SET;
1055:../Peripheral/src/ch32v30x_rcc.c ****     }
1056:../Peripheral/src/ch32v30x_rcc.c ****     else
1057:../Peripheral/src/ch32v30x_rcc.c ****     {
1058:../Peripheral/src/ch32v30x_rcc.c ****         bitstatus = RESET;
1059:../Peripheral/src/ch32v30x_rcc.c ****     }
1060:../Peripheral/src/ch32v30x_rcc.c **** 
1061:../Peripheral/src/ch32v30x_rcc.c ****     return bitstatus;
 1430              		.loc 1 1061 5 is_stmt 1
1052:../Peripheral/src/ch32v30x_rcc.c ****     {
 1431              		.loc 1 1052 19 is_stmt 0
 1432 0006 7D8D     		and	a0,a0,a5
 1433              	.LVL138:
1062:../Peripheral/src/ch32v30x_rcc.c **** }
 1434              		.loc 1 1062 1
 1435 0008 3335A000 		snez	a0,a0
 1436 000c 8280     		ret
 1437              		.cfi_endproc
 1438              	.LFE58:
 1440              		.section	.text.RCC_ClearITPendingBit,"ax",@progbits
 1441              		.align	1
 1442              		.globl	RCC_ClearITPendingBit
 1444              	RCC_ClearITPendingBit:
 1445              	.LFB59:
1063:../Peripheral/src/ch32v30x_rcc.c **** 
1064:../Peripheral/src/ch32v30x_rcc.c **** /*********************************************************************
1065:../Peripheral/src/ch32v30x_rcc.c ****  * @fn      RCC_ClearITPendingBit
1066:../Peripheral/src/ch32v30x_rcc.c ****  *
1067:../Peripheral/src/ch32v30x_rcc.c ****  * @brief   Clears the RCC's interrupt pending bits.
1068:../Peripheral/src/ch32v30x_rcc.c ****  *
1069:../Peripheral/src/ch32v30x_rcc.c ****  * @param   RCC_IT - specifies the interrupt pending bit to clear.
1070:../Peripheral/src/ch32v30x_rcc.c ****  *            RCC_IT_LSIRDY - LSI ready interrupt.
1071:../Peripheral/src/ch32v30x_rcc.c ****  *            RCC_IT_LSERDY - LSE ready interrupt.
1072:../Peripheral/src/ch32v30x_rcc.c ****  *            RCC_IT_HSIRDY - HSI ready interrupt.
1073:../Peripheral/src/ch32v30x_rcc.c ****  *            RCC_IT_HSERDY - HSE ready interrupt.
1074:../Peripheral/src/ch32v30x_rcc.c ****  *            RCC_IT_PLLRDY - PLL ready interrupt.
1075:../Peripheral/src/ch32v30x_rcc.c ****  *            RCC_IT_PLL2RDY - PLL2 ready interrupt.
1076:../Peripheral/src/ch32v30x_rcc.c ****  *            RCC_IT_PLL3RDY - PLL3 ready interrupt.
1077:../Peripheral/src/ch32v30x_rcc.c ****  *            RCC_IT_CSS - Clock Security System interrupt.
1078:../Peripheral/src/ch32v30x_rcc.c ****  *
1079:../Peripheral/src/ch32v30x_rcc.c ****  * @return  none
1080:../Peripheral/src/ch32v30x_rcc.c ****  */
1081:../Peripheral/src/ch32v30x_rcc.c **** void RCC_ClearITPendingBit(uint8_t RCC_IT)
1082:../Peripheral/src/ch32v30x_rcc.c **** {
 1446              		.loc 1 1082 1 is_stmt 1
 1447              		.cfi_startproc
 1448              	.LVL139:
1083:../Peripheral/src/ch32v30x_rcc.c ****     *(__IO uint8_t *)INTR_BYTE3_ADDRESS = RCC_IT;
 1449              		.loc 1 1083 5
 1450              		.loc 1 1083 41 is_stmt 0
 1451 0000 B7170240 		li	a5,1073876992
 1452 0004 A8A7     		sb	a0,10(a5)
1084:../Peripheral/src/ch32v30x_rcc.c **** }
 1453              		.loc 1 1084 1
 1454 0006 8280     		ret
 1455              		.cfi_endproc
 1456              	.LFE59:
 1458              		.section	.text.RCC_PREDIV1Config,"ax",@progbits
 1459              		.align	1
 1460              		.globl	RCC_PREDIV1Config
 1462              	RCC_PREDIV1Config:
 1463              	.LFB60:
1085:../Peripheral/src/ch32v30x_rcc.c **** 
1086:../Peripheral/src/ch32v30x_rcc.c **** /*********************************************************************
1087:../Peripheral/src/ch32v30x_rcc.c ****  * @fn      RCC_PREDIV1Config
1088:../Peripheral/src/ch32v30x_rcc.c ****  *
1089:../Peripheral/src/ch32v30x_rcc.c ****  * @brief   Configures the PREDIV1 division factor.
1090:../Peripheral/src/ch32v30x_rcc.c ****  *
1091:../Peripheral/src/ch32v30x_rcc.c ****  * @param   RCC_PREDIV1_Source - specifies the PREDIV1 clock source.
1092:../Peripheral/src/ch32v30x_rcc.c ****  *            RCC_PREDIV1_Source_HSE - HSE selected as PREDIV1 clock
1093:../Peripheral/src/ch32v30x_rcc.c ****  *            RCC_PREDIV1_Source_PLL2 - PLL2 selected as PREDIV1 clock
1094:../Peripheral/src/ch32v30x_rcc.c ****  *          RCC_PREDIV1_Div - specifies the PREDIV1 clock division factor.
1095:../Peripheral/src/ch32v30x_rcc.c ****  *            This parameter can be RCC_PREDIV1_Divx where x[1,16]
1096:../Peripheral/src/ch32v30x_rcc.c ****  *         Note- 
1097:../Peripheral/src/ch32v30x_rcc.c ****  *         - This function must be used only when the PLL is disabled.
1098:../Peripheral/src/ch32v30x_rcc.c ****  *
1099:../Peripheral/src/ch32v30x_rcc.c ****  * @return  none
1100:../Peripheral/src/ch32v30x_rcc.c ****  */
1101:../Peripheral/src/ch32v30x_rcc.c **** void RCC_PREDIV1Config(uint32_t RCC_PREDIV1_Source, uint32_t RCC_PREDIV1_Div)
1102:../Peripheral/src/ch32v30x_rcc.c **** {
 1464              		.loc 1 1102 1 is_stmt 1
 1465              		.cfi_startproc
 1466              	.LVL140:
1103:../Peripheral/src/ch32v30x_rcc.c ****     uint32_t tmpreg = 0;
 1467              		.loc 1 1103 5
1104:../Peripheral/src/ch32v30x_rcc.c **** 
1105:../Peripheral/src/ch32v30x_rcc.c ****     tmpreg = RCC->CFGR2;
 1468              		.loc 1 1105 5
 1469              		.loc 1 1105 12 is_stmt 0
 1470 0000 B7160240 		li	a3,1073876992
 1471 0004 DC56     		lw	a5,44(a3)
 1472              	.LVL141:
1106:../Peripheral/src/ch32v30x_rcc.c ****     tmpreg &= ~(CFGR2_PREDIV1 | CFGR2_PREDIV1SRC);
 1473              		.loc 1 1106 5 is_stmt 1
1107:../Peripheral/src/ch32v30x_rcc.c ****     tmpreg |= RCC_PREDIV1_Source | RCC_PREDIV1_Div;
 1474              		.loc 1 1107 5
1106:../Peripheral/src/ch32v30x_rcc.c ****     tmpreg &= ~(CFGR2_PREDIV1 | CFGR2_PREDIV1SRC);
 1475              		.loc 1 1106 12 is_stmt 0
 1476 0006 4177     		li	a4,-65536
 1477 0008 4117     		addi	a4,a4,-16
 1478 000a F98F     		and	a5,a5,a4
 1479              	.LVL142:
 1480 000c CD8F     		or	a5,a5,a1
 1481              		.loc 1 1107 12
 1482 000e 5D8D     		or	a0,a0,a5
 1483              	.LVL143:
1108:../Peripheral/src/ch32v30x_rcc.c ****     RCC->CFGR2 = tmpreg;
 1484              		.loc 1 1108 5 is_stmt 1
 1485              		.loc 1 1108 16 is_stmt 0
 1486 0010 C8D6     		sw	a0,44(a3)
1109:../Peripheral/src/ch32v30x_rcc.c **** }
 1487              		.loc 1 1109 1
 1488 0012 8280     		ret
 1489              		.cfi_endproc
 1490              	.LFE60:
 1492              		.section	.text.RCC_PREDIV2Config,"ax",@progbits
 1493              		.align	1
 1494              		.globl	RCC_PREDIV2Config
 1496              	RCC_PREDIV2Config:
 1497              	.LFB61:
1110:../Peripheral/src/ch32v30x_rcc.c **** 
1111:../Peripheral/src/ch32v30x_rcc.c **** /*********************************************************************
1112:../Peripheral/src/ch32v30x_rcc.c ****  * @fn      RCC_PREDIV2Config
1113:../Peripheral/src/ch32v30x_rcc.c ****  *
1114:../Peripheral/src/ch32v30x_rcc.c ****  * @brief   Configures the PREDIV2 division factor.
1115:../Peripheral/src/ch32v30x_rcc.c ****  *
1116:../Peripheral/src/ch32v30x_rcc.c ****  * @param   RCC_PREDIV2_Div - specifies the PREDIV2 clock division factor.
1117:../Peripheral/src/ch32v30x_rcc.c ****  *          This parameter can be RCC_PREDIV2_Divx where x:[1,16]
1118:../Peripheral/src/ch32v30x_rcc.c ****  *          Note- 
1119:../Peripheral/src/ch32v30x_rcc.c ****  *          - This function must be used only when both PLL2 and PLL3 are disabled.
1120:../Peripheral/src/ch32v30x_rcc.c ****  *
1121:../Peripheral/src/ch32v30x_rcc.c ****  * @return  none
1122:../Peripheral/src/ch32v30x_rcc.c ****  */
1123:../Peripheral/src/ch32v30x_rcc.c **** void RCC_PREDIV2Config(uint32_t RCC_PREDIV2_Div)
1124:../Peripheral/src/ch32v30x_rcc.c **** {
 1498              		.loc 1 1124 1 is_stmt 1
 1499              		.cfi_startproc
 1500              	.LVL144:
1125:../Peripheral/src/ch32v30x_rcc.c ****     uint32_t tmpreg = 0;
 1501              		.loc 1 1125 5
1126:../Peripheral/src/ch32v30x_rcc.c **** 
1127:../Peripheral/src/ch32v30x_rcc.c ****     tmpreg = RCC->CFGR2;
 1502              		.loc 1 1127 5
 1503              		.loc 1 1127 12 is_stmt 0
 1504 0000 37170240 		li	a4,1073876992
 1505 0004 5C57     		lw	a5,44(a4)
 1506              	.LVL145:
1128:../Peripheral/src/ch32v30x_rcc.c ****     tmpreg &= ~CFGR2_PREDIV2;
 1507              		.loc 1 1128 5 is_stmt 1
 1508              		.loc 1 1128 12 is_stmt 0
 1509 0006 93F7F7F0 		andi	a5,a5,-241
 1510              	.LVL146:
1129:../Peripheral/src/ch32v30x_rcc.c ****     tmpreg |= RCC_PREDIV2_Div;
 1511              		.loc 1 1129 5 is_stmt 1
 1512              		.loc 1 1129 12 is_stmt 0
 1513 000a C98F     		or	a5,a5,a0
 1514              	.LVL147:
1130:../Peripheral/src/ch32v30x_rcc.c ****     RCC->CFGR2 = tmpreg;
 1515              		.loc 1 1130 5 is_stmt 1
 1516              		.loc 1 1130 16 is_stmt 0
 1517 000c 5CD7     		sw	a5,44(a4)
1131:../Peripheral/src/ch32v30x_rcc.c **** }
 1518              		.loc 1 1131 1
 1519 000e 8280     		ret
 1520              		.cfi_endproc
 1521              	.LFE61:
 1523              		.section	.text.RCC_PLL2Config,"ax",@progbits
 1524              		.align	1
 1525              		.globl	RCC_PLL2Config
 1527              	RCC_PLL2Config:
 1528              	.LFB62:
1132:../Peripheral/src/ch32v30x_rcc.c **** 
1133:../Peripheral/src/ch32v30x_rcc.c **** /*********************************************************************
1134:../Peripheral/src/ch32v30x_rcc.c ****  * @fn      RCC_PLL2Config
1135:../Peripheral/src/ch32v30x_rcc.c ****  *
1136:../Peripheral/src/ch32v30x_rcc.c ****  * @brief   Configures the PLL2 multiplication factor.
1137:../Peripheral/src/ch32v30x_rcc.c ****  *
1138:../Peripheral/src/ch32v30x_rcc.c ****  * @param   RCC_PLL2Mul - specifies the PLL2 multiplication factor.
1139:../Peripheral/src/ch32v30x_rcc.c ****  *            This parameter can be RCC_PLL2Mul_x where x:{[4,16], 2.5, 12.5, 20}
1140:../Peripheral/src/ch32v30x_rcc.c ****  *          Note-
1141:../Peripheral/src/ch32v30x_rcc.c ****  *          - This function must be used only when the PLL2 is disabled.
1142:../Peripheral/src/ch32v30x_rcc.c ****  *
1143:../Peripheral/src/ch32v30x_rcc.c ****  * @return  none
1144:../Peripheral/src/ch32v30x_rcc.c ****  */
1145:../Peripheral/src/ch32v30x_rcc.c **** void RCC_PLL2Config(uint32_t RCC_PLL2Mul)
1146:../Peripheral/src/ch32v30x_rcc.c **** {
 1529              		.loc 1 1146 1 is_stmt 1
 1530              		.cfi_startproc
 1531              	.LVL148:
1147:../Peripheral/src/ch32v30x_rcc.c ****     uint32_t tmpreg = 0;
 1532              		.loc 1 1147 5
1148:../Peripheral/src/ch32v30x_rcc.c **** 
1149:../Peripheral/src/ch32v30x_rcc.c ****     tmpreg = RCC->CFGR2;
 1533              		.loc 1 1149 5
 1534              		.loc 1 1149 12 is_stmt 0
 1535 0000 B7160240 		li	a3,1073876992
 1536 0004 DC56     		lw	a5,44(a3)
 1537              	.LVL149:
1150:../Peripheral/src/ch32v30x_rcc.c ****     tmpreg &= ~CFGR2_PLL2MUL;
 1538              		.loc 1 1150 5 is_stmt 1
 1539              		.loc 1 1150 12 is_stmt 0
 1540 0006 7D77     		li	a4,-4096
 1541 0008 1307F70F 		addi	a4,a4,255
 1542 000c F98F     		and	a5,a5,a4
 1543              	.LVL150:
1151:../Peripheral/src/ch32v30x_rcc.c ****     tmpreg |= RCC_PLL2Mul;
 1544              		.loc 1 1151 5 is_stmt 1
 1545              		.loc 1 1151 12 is_stmt 0
 1546 000e C98F     		or	a5,a5,a0
 1547              	.LVL151:
1152:../Peripheral/src/ch32v30x_rcc.c ****     RCC->CFGR2 = tmpreg;
 1548              		.loc 1 1152 5 is_stmt 1
 1549              		.loc 1 1152 16 is_stmt 0
 1550 0010 DCD6     		sw	a5,44(a3)
1153:../Peripheral/src/ch32v30x_rcc.c **** }
 1551              		.loc 1 1153 1
 1552 0012 8280     		ret
 1553              		.cfi_endproc
 1554              	.LFE62:
 1556              		.section	.text.RCC_PLL2Cmd,"ax",@progbits
 1557              		.align	1
 1558              		.globl	RCC_PLL2Cmd
 1560              	RCC_PLL2Cmd:
 1561              	.LFB63:
1154:../Peripheral/src/ch32v30x_rcc.c **** 
1155:../Peripheral/src/ch32v30x_rcc.c **** /*********************************************************************
1156:../Peripheral/src/ch32v30x_rcc.c ****  * @fn      RCC_PLL2Cmd
1157:../Peripheral/src/ch32v30x_rcc.c ****  *
1158:../Peripheral/src/ch32v30x_rcc.c ****  * @brief   Enables or disables the PLL2.
1159:../Peripheral/src/ch32v30x_rcc.c ****  *
1160:../Peripheral/src/ch32v30x_rcc.c ****  * @param   NewState - new state of the PLL2. This parameter can be
1161:../Peripheral/src/ch32v30x_rcc.c ****  *          ENABLE or DISABLE.
1162:../Peripheral/src/ch32v30x_rcc.c ****  *          Note- 
1163:../Peripheral/src/ch32v30x_rcc.c ****  *          - The PLL2 can not be disabled if it is used indirectly as system clock
1164:../Peripheral/src/ch32v30x_rcc.c ****  *          (i.e. it is used as PLL clock entry that is used as System clock).
1165:../Peripheral/src/ch32v30x_rcc.c ****  *
1166:../Peripheral/src/ch32v30x_rcc.c ****  * @return  none
1167:../Peripheral/src/ch32v30x_rcc.c ****  */
1168:../Peripheral/src/ch32v30x_rcc.c **** void RCC_PLL2Cmd(FunctionalState NewState)
1169:../Peripheral/src/ch32v30x_rcc.c **** {
 1562              		.loc 1 1169 1 is_stmt 1
 1563              		.cfi_startproc
 1564              	.LVL152:
1170:../Peripheral/src/ch32v30x_rcc.c ****     if(NewState)
 1565              		.loc 1 1170 5
 1566              		.loc 1 1170 7 is_stmt 0
 1567 0000 09C9     		beq	a0,zero,.L106
1171:../Peripheral/src/ch32v30x_rcc.c ****     {
1172:../Peripheral/src/ch32v30x_rcc.c ****         RCC->CTLR |= (1 << 26);
 1568              		.loc 1 1172 9 is_stmt 1
 1569              		.loc 1 1172 12 is_stmt 0
 1570 0002 37170240 		li	a4,1073876992
 1571 0006 1C43     		lw	a5,0(a4)
 1572              		.loc 1 1172 19
 1573 0008 B7060004 		li	a3,67108864
 1574 000c D58F     		or	a5,a5,a3
 1575 000e 1CC3     		sw	a5,0(a4)
 1576 0010 8280     		ret
 1577              	.L106:
1173:../Peripheral/src/ch32v30x_rcc.c ****     }
1174:../Peripheral/src/ch32v30x_rcc.c ****     else
1175:../Peripheral/src/ch32v30x_rcc.c ****     {
1176:../Peripheral/src/ch32v30x_rcc.c ****         RCC->CTLR &= ~(1 << 26);
 1578              		.loc 1 1176 9 is_stmt 1
 1579              		.loc 1 1176 12 is_stmt 0
 1580 0012 B7160240 		li	a3,1073876992
 1581 0016 9C42     		lw	a5,0(a3)
 1582              		.loc 1 1176 19
 1583 0018 370700FC 		li	a4,-67108864
 1584 001c 7D17     		addi	a4,a4,-1
 1585 001e F98F     		and	a5,a5,a4
 1586 0020 9CC2     		sw	a5,0(a3)
1177:../Peripheral/src/ch32v30x_rcc.c ****     }
1178:../Peripheral/src/ch32v30x_rcc.c **** }
 1587              		.loc 1 1178 1
 1588 0022 8280     		ret
 1589              		.cfi_endproc
 1590              	.LFE63:
 1592              		.section	.text.RCC_PLL3Config,"ax",@progbits
 1593              		.align	1
 1594              		.globl	RCC_PLL3Config
 1596              	RCC_PLL3Config:
 1597              	.LFB64:
1179:../Peripheral/src/ch32v30x_rcc.c **** 
1180:../Peripheral/src/ch32v30x_rcc.c **** /*********************************************************************
1181:../Peripheral/src/ch32v30x_rcc.c ****  * @fn      RCC_PLL3Config
1182:../Peripheral/src/ch32v30x_rcc.c ****  *
1183:../Peripheral/src/ch32v30x_rcc.c ****  * @brief   Configures the PLL3 multiplication factor.
1184:../Peripheral/src/ch32v30x_rcc.c ****  *
1185:../Peripheral/src/ch32v30x_rcc.c ****  * @param   RCC_PLL3Mul - specifies the PLL3 multiplication factor.
1186:../Peripheral/src/ch32v30x_rcc.c ****  *            This parameter can be RCC_PLL3Mul_x where x:{[4,16], 2.5, 12.5, 20}
1187:../Peripheral/src/ch32v30x_rcc.c ****  *          Note- 
1188:../Peripheral/src/ch32v30x_rcc.c ****  *          - This function must be used only when the PLL3 is disabled.
1189:../Peripheral/src/ch32v30x_rcc.c ****  *
1190:../Peripheral/src/ch32v30x_rcc.c ****  * @return  none
1191:../Peripheral/src/ch32v30x_rcc.c ****  */
1192:../Peripheral/src/ch32v30x_rcc.c **** void RCC_PLL3Config(uint32_t RCC_PLL3Mul)
1193:../Peripheral/src/ch32v30x_rcc.c **** {
 1598              		.loc 1 1193 1 is_stmt 1
 1599              		.cfi_startproc
 1600              	.LVL153:
1194:../Peripheral/src/ch32v30x_rcc.c ****     uint32_t tmpreg = 0;
 1601              		.loc 1 1194 5
1195:../Peripheral/src/ch32v30x_rcc.c **** 
1196:../Peripheral/src/ch32v30x_rcc.c ****     tmpreg = RCC->CFGR2;
 1602              		.loc 1 1196 5
 1603              		.loc 1 1196 12 is_stmt 0
 1604 0000 B7160240 		li	a3,1073876992
 1605 0004 DC56     		lw	a5,44(a3)
 1606              	.LVL154:
1197:../Peripheral/src/ch32v30x_rcc.c ****     tmpreg &= ~CFGR2_PLL3MUL;
 1607              		.loc 1 1197 5 is_stmt 1
 1608              		.loc 1 1197 12 is_stmt 0
 1609 0006 4577     		li	a4,-61440
 1610 0008 7D17     		addi	a4,a4,-1
 1611 000a F98F     		and	a5,a5,a4
 1612              	.LVL155:
1198:../Peripheral/src/ch32v30x_rcc.c ****     tmpreg |= RCC_PLL3Mul;
 1613              		.loc 1 1198 5 is_stmt 1
 1614              		.loc 1 1198 12 is_stmt 0
 1615 000c C98F     		or	a5,a5,a0
 1616              	.LVL156:
1199:../Peripheral/src/ch32v30x_rcc.c ****     RCC->CFGR2 = tmpreg;
 1617              		.loc 1 1199 5 is_stmt 1
 1618              		.loc 1 1199 16 is_stmt 0
 1619 000e DCD6     		sw	a5,44(a3)
1200:../Peripheral/src/ch32v30x_rcc.c **** }
 1620              		.loc 1 1200 1
 1621 0010 8280     		ret
 1622              		.cfi_endproc
 1623              	.LFE64:
 1625              		.section	.text.RCC_PLL3Cmd,"ax",@progbits
 1626              		.align	1
 1627              		.globl	RCC_PLL3Cmd
 1629              	RCC_PLL3Cmd:
 1630              	.LFB65:
1201:../Peripheral/src/ch32v30x_rcc.c **** 
1202:../Peripheral/src/ch32v30x_rcc.c **** /*********************************************************************
1203:../Peripheral/src/ch32v30x_rcc.c ****  * @fn      RCC_PLL3Cmd
1204:../Peripheral/src/ch32v30x_rcc.c ****  *
1205:../Peripheral/src/ch32v30x_rcc.c ****  * @brief   Enables or disables the PLL3.
1206:../Peripheral/src/ch32v30x_rcc.c ****  *
1207:../Peripheral/src/ch32v30x_rcc.c ****  * @param   NewState - new state of the PLL2. This parameter can be
1208:../Peripheral/src/ch32v30x_rcc.c ****  *        ENABLE or DISABLE.
1209:../Peripheral/src/ch32v30x_rcc.c ****  *
1210:../Peripheral/src/ch32v30x_rcc.c ****  * @return  none
1211:../Peripheral/src/ch32v30x_rcc.c ****  */
1212:../Peripheral/src/ch32v30x_rcc.c **** void RCC_PLL3Cmd(FunctionalState NewState)
1213:../Peripheral/src/ch32v30x_rcc.c **** {
 1631              		.loc 1 1213 1 is_stmt 1
 1632              		.cfi_startproc
 1633              	.LVL157:
1214:../Peripheral/src/ch32v30x_rcc.c ****     if(NewState)
 1634              		.loc 1 1214 5
 1635              		.loc 1 1214 7 is_stmt 0
 1636 0000 09C9     		beq	a0,zero,.L110
1215:../Peripheral/src/ch32v30x_rcc.c ****     {
1216:../Peripheral/src/ch32v30x_rcc.c ****         RCC->CTLR |= (1 << 28);
 1637              		.loc 1 1216 9 is_stmt 1
 1638              		.loc 1 1216 12 is_stmt 0
 1639 0002 37170240 		li	a4,1073876992
 1640 0006 1C43     		lw	a5,0(a4)
 1641              		.loc 1 1216 19
 1642 0008 B7060010 		li	a3,268435456
 1643 000c D58F     		or	a5,a5,a3
 1644 000e 1CC3     		sw	a5,0(a4)
 1645 0010 8280     		ret
 1646              	.L110:
1217:../Peripheral/src/ch32v30x_rcc.c ****     }
1218:../Peripheral/src/ch32v30x_rcc.c ****     else
1219:../Peripheral/src/ch32v30x_rcc.c ****     {
1220:../Peripheral/src/ch32v30x_rcc.c ****         RCC->CTLR &= ~(1 << 28);
 1647              		.loc 1 1220 9 is_stmt 1
 1648              		.loc 1 1220 12 is_stmt 0
 1649 0012 B7160240 		li	a3,1073876992
 1650 0016 9C42     		lw	a5,0(a3)
 1651              		.loc 1 1220 19
 1652 0018 370700F0 		li	a4,-268435456
 1653 001c 7D17     		addi	a4,a4,-1
 1654 001e F98F     		and	a5,a5,a4
 1655 0020 9CC2     		sw	a5,0(a3)
1221:../Peripheral/src/ch32v30x_rcc.c ****     }
1222:../Peripheral/src/ch32v30x_rcc.c **** }
 1656              		.loc 1 1222 1
 1657 0022 8280     		ret
 1658              		.cfi_endproc
 1659              	.LFE65:
 1661              		.section	.text.RCC_USBFSCLKConfig,"ax",@progbits
 1662              		.align	1
 1663              		.globl	RCC_USBFSCLKConfig
 1665              	RCC_USBFSCLKConfig:
 1666              	.LFB66:
1223:../Peripheral/src/ch32v30x_rcc.c **** 
1224:../Peripheral/src/ch32v30x_rcc.c **** /*********************************************************************
1225:../Peripheral/src/ch32v30x_rcc.c ****  * @fn      RCC_USBFSCLKConfig
1226:../Peripheral/src/ch32v30x_rcc.c ****  *
1227:../Peripheral/src/ch32v30x_rcc.c ****  * @brief   Configures the USB OTG FS clock (USBFSCLK).
1228:../Peripheral/src/ch32v30x_rcc.c ****  *
1229:../Peripheral/src/ch32v30x_rcc.c ****  * @param   RCC_USBFSCLKSource - specifies the USB OTG FS clock source.
1230:../Peripheral/src/ch32v30x_rcc.c ****  *            RCC_USBFSCLKSource_PLLCLK_Div1 - PLL clock divided by 1
1231:../Peripheral/src/ch32v30x_rcc.c ****  *        selected as USB OTG FS clock source
1232:../Peripheral/src/ch32v30x_rcc.c ****  *            RCC_USBFSCLKSource_PLLCLK_Div2 - PLL clock divided by 2
1233:../Peripheral/src/ch32v30x_rcc.c ****  *        selected as USB OTG FS clock source
1234:../Peripheral/src/ch32v30x_rcc.c ****  *            RCC_USBFSCLKSource_PLLCLK_Div3 - PLL clock divided by 3
1235:../Peripheral/src/ch32v30x_rcc.c ****  *        selected as USB OTG FS clock source
1236:../Peripheral/src/ch32v30x_rcc.c ****  *
1237:../Peripheral/src/ch32v30x_rcc.c ****  * @return  none
1238:../Peripheral/src/ch32v30x_rcc.c ****  */
1239:../Peripheral/src/ch32v30x_rcc.c **** void RCC_USBFSCLKConfig(uint32_t RCC_USBFSCLKSource)
1240:../Peripheral/src/ch32v30x_rcc.c **** {
 1667              		.loc 1 1240 1 is_stmt 1
 1668              		.cfi_startproc
 1669              	.LVL158:
1241:../Peripheral/src/ch32v30x_rcc.c ****     RCC->CFGR0 &= ~(3 << 22);
 1670              		.loc 1 1241 5
 1671              		.loc 1 1241 8 is_stmt 0
 1672 0000 B7170240 		li	a5,1073876992
 1673 0004 D843     		lw	a4,4(a5)
 1674              		.loc 1 1241 16
 1675 0006 B70640FF 		li	a3,-12582912
 1676 000a FD16     		addi	a3,a3,-1
 1677 000c 758F     		and	a4,a4,a3
 1678 000e D8C3     		sw	a4,4(a5)
1242:../Peripheral/src/ch32v30x_rcc.c ****     RCC->CFGR0 |= RCC_USBFSCLKSource << 22;
 1679              		.loc 1 1242 5 is_stmt 1
 1680              		.loc 1 1242 8 is_stmt 0
 1681 0010 D843     		lw	a4,4(a5)
 1682              		.loc 1 1242 38
 1683 0012 5A05     		slli	a0,a0,22
 1684              	.LVL159:
 1685              		.loc 1 1242 16
 1686 0014 598D     		or	a0,a0,a4
 1687 0016 C8C3     		sw	a0,4(a5)
1243:../Peripheral/src/ch32v30x_rcc.c **** }
 1688              		.loc 1 1243 1
 1689 0018 8280     		ret
 1690              		.cfi_endproc
 1691              	.LFE66:
 1693              		.section	.text.RCC_I2S2CLKConfig,"ax",@progbits
 1694              		.align	1
 1695              		.globl	RCC_I2S2CLKConfig
 1697              	RCC_I2S2CLKConfig:
 1698              	.LFB67:
1244:../Peripheral/src/ch32v30x_rcc.c **** 
1245:../Peripheral/src/ch32v30x_rcc.c **** /*********************************************************************
1246:../Peripheral/src/ch32v30x_rcc.c ****  * @fn      RCC_I2S2CLKConfig
1247:../Peripheral/src/ch32v30x_rcc.c ****  *
1248:../Peripheral/src/ch32v30x_rcc.c ****  * @brief   Configures the I2S2 clock source(I2S2CLK).
1249:../Peripheral/src/ch32v30x_rcc.c ****  *
1250:../Peripheral/src/ch32v30x_rcc.c ****  * @param   RCC_I2S2CLKSource - specifies the I2S2 clock source.
1251:../Peripheral/src/ch32v30x_rcc.c ****  *          RCC_I2S2CLKSource_SYSCLK - system clock selected as I2S2 clock entry
1252:../Peripheral/src/ch32v30x_rcc.c ****  *          RCC_I2S2CLKSource_PLL3_VCO - PLL3 VCO clock selected as I2S2 clock entry
1253:../Peripheral/src/ch32v30x_rcc.c ****  *          Note-
1254:../Peripheral/src/ch32v30x_rcc.c ****  *          - This function must be called before enabling I2S2 APB clock.
1255:../Peripheral/src/ch32v30x_rcc.c ****  * @return  none
1256:../Peripheral/src/ch32v30x_rcc.c ****  */
1257:../Peripheral/src/ch32v30x_rcc.c **** void RCC_I2S2CLKConfig(uint32_t RCC_I2S2CLKSource)
1258:../Peripheral/src/ch32v30x_rcc.c **** {
 1699              		.loc 1 1258 1 is_stmt 1
 1700              		.cfi_startproc
 1701              	.LVL160:
1259:../Peripheral/src/ch32v30x_rcc.c ****     RCC->CFGR2 &= ~(1 << 17);
 1702              		.loc 1 1259 5
 1703              		.loc 1 1259 8 is_stmt 0
 1704 0000 B7170240 		li	a5,1073876992
 1705 0004 D857     		lw	a4,44(a5)
 1706              		.loc 1 1259 16
 1707 0006 8176     		li	a3,-131072
 1708 0008 FD16     		addi	a3,a3,-1
 1709 000a 758F     		and	a4,a4,a3
 1710 000c D8D7     		sw	a4,44(a5)
1260:../Peripheral/src/ch32v30x_rcc.c ****     RCC->CFGR2 |= RCC_I2S2CLKSource << 17;
 1711              		.loc 1 1260 5 is_stmt 1
 1712              		.loc 1 1260 8 is_stmt 0
 1713 000e D857     		lw	a4,44(a5)
 1714              		.loc 1 1260 37
 1715 0010 4605     		slli	a0,a0,17
 1716              	.LVL161:
 1717              		.loc 1 1260 16
 1718 0012 598D     		or	a0,a0,a4
 1719 0014 C8D7     		sw	a0,44(a5)
1261:../Peripheral/src/ch32v30x_rcc.c **** }
 1720              		.loc 1 1261 1
 1721 0016 8280     		ret
 1722              		.cfi_endproc
 1723              	.LFE67:
 1725              		.section	.text.RCC_I2S3CLKConfig,"ax",@progbits
 1726              		.align	1
 1727              		.globl	RCC_I2S3CLKConfig
 1729              	RCC_I2S3CLKConfig:
 1730              	.LFB68:
1262:../Peripheral/src/ch32v30x_rcc.c **** 
1263:../Peripheral/src/ch32v30x_rcc.c **** /*********************************************************************
1264:../Peripheral/src/ch32v30x_rcc.c ****  * @fn      RCC_I2S3CLKConfig
1265:../Peripheral/src/ch32v30x_rcc.c ****  *
1266:../Peripheral/src/ch32v30x_rcc.c ****  * @brief   Configures the I2S3 clock source(I2S2CLK).
1267:../Peripheral/src/ch32v30x_rcc.c ****  *
1268:../Peripheral/src/ch32v30x_rcc.c ****  * @param   RCC_I2S3CLKSource - specifies the I2S3 clock source.
1269:../Peripheral/src/ch32v30x_rcc.c ****  *          RCC_I2S3CLKSource_SYSCLK - system clock selected as I2S3 clock entry
1270:../Peripheral/src/ch32v30x_rcc.c ****  *          RCC_I2S3CLKSource_PLL3_VCO - PLL3 VCO clock selected as I2S3 clock entry
1271:../Peripheral/src/ch32v30x_rcc.c ****  *          Note-
1272:../Peripheral/src/ch32v30x_rcc.c ****  *         - This function must be called before enabling I2S3 APB clock.
1273:../Peripheral/src/ch32v30x_rcc.c ****  * @return  none
1274:../Peripheral/src/ch32v30x_rcc.c ****  */
1275:../Peripheral/src/ch32v30x_rcc.c **** void RCC_I2S3CLKConfig(uint32_t RCC_I2S3CLKSource)
1276:../Peripheral/src/ch32v30x_rcc.c **** {
 1731              		.loc 1 1276 1 is_stmt 1
 1732              		.cfi_startproc
 1733              	.LVL162:
1277:../Peripheral/src/ch32v30x_rcc.c ****     RCC->CFGR2 &= ~(1 << 18);
 1734              		.loc 1 1277 5
 1735              		.loc 1 1277 8 is_stmt 0
 1736 0000 B7170240 		li	a5,1073876992
 1737 0004 D857     		lw	a4,44(a5)
 1738              		.loc 1 1277 16
 1739 0006 B706FCFF 		li	a3,-262144
 1740 000a FD16     		addi	a3,a3,-1
 1741 000c 758F     		and	a4,a4,a3
 1742 000e D8D7     		sw	a4,44(a5)
1278:../Peripheral/src/ch32v30x_rcc.c ****     RCC->CFGR2 |= RCC_I2S3CLKSource << 18;
 1743              		.loc 1 1278 5 is_stmt 1
 1744              		.loc 1 1278 8 is_stmt 0
 1745 0010 D857     		lw	a4,44(a5)
 1746              		.loc 1 1278 37
 1747 0012 4A05     		slli	a0,a0,18
 1748              	.LVL163:
 1749              		.loc 1 1278 16
 1750 0014 598D     		or	a0,a0,a4
 1751 0016 C8D7     		sw	a0,44(a5)
1279:../Peripheral/src/ch32v30x_rcc.c **** }
 1752              		.loc 1 1279 1
 1753 0018 8280     		ret
 1754              		.cfi_endproc
 1755              	.LFE68:
 1757              		.section	.text.RCC_AHBPeriphResetCmd,"ax",@progbits
 1758              		.align	1
 1759              		.globl	RCC_AHBPeriphResetCmd
 1761              	RCC_AHBPeriphResetCmd:
 1762              	.LFB69:
1280:../Peripheral/src/ch32v30x_rcc.c **** 
1281:../Peripheral/src/ch32v30x_rcc.c **** /*********************************************************************
1282:../Peripheral/src/ch32v30x_rcc.c ****  * @fn      RCC_AHBPeriphResetCmd
1283:../Peripheral/src/ch32v30x_rcc.c ****  *
1284:../Peripheral/src/ch32v30x_rcc.c ****  * @brief   Forces or releases AHB peripheral reset.
1285:../Peripheral/src/ch32v30x_rcc.c ****  *
1286:../Peripheral/src/ch32v30x_rcc.c ****  * @param   RCC_AHBPeriph - specifies the AHB peripheral to reset.
1287:../Peripheral/src/ch32v30x_rcc.c ****  *            RCC_AHBPeriph_USBFS
1288:../Peripheral/src/ch32v30x_rcc.c ****  *            RCC_AHBPeriph_ETH_MAC
1289:../Peripheral/src/ch32v30x_rcc.c ****  *          NewState - ENABLE or DISABLE.
1290:../Peripheral/src/ch32v30x_rcc.c ****  *
1291:../Peripheral/src/ch32v30x_rcc.c ****  * @return  none
1292:../Peripheral/src/ch32v30x_rcc.c ****  */
1293:../Peripheral/src/ch32v30x_rcc.c **** void RCC_AHBPeriphResetCmd(uint32_t RCC_AHBPeriph, FunctionalState NewState)
1294:../Peripheral/src/ch32v30x_rcc.c **** {
 1763              		.loc 1 1294 1 is_stmt 1
 1764              		.cfi_startproc
 1765              	.LVL164:
1295:../Peripheral/src/ch32v30x_rcc.c ****     if(NewState != DISABLE)
 1766              		.loc 1 1295 5
 1767              		.loc 1 1295 7 is_stmt 0
 1768 0000 99C5     		beq	a1,zero,.L116
1296:../Peripheral/src/ch32v30x_rcc.c ****     {
1297:../Peripheral/src/ch32v30x_rcc.c ****         RCC->AHBRSTR |= RCC_AHBPeriph;
 1769              		.loc 1 1297 9 is_stmt 1
 1770              		.loc 1 1297 12 is_stmt 0
 1771 0002 37170240 		li	a4,1073876992
 1772 0006 1C57     		lw	a5,40(a4)
 1773              		.loc 1 1297 22
 1774 0008 C98F     		or	a5,a5,a0
 1775 000a 1CD7     		sw	a5,40(a4)
 1776 000c 8280     		ret
 1777              	.L116:
1298:../Peripheral/src/ch32v30x_rcc.c ****     }
1299:../Peripheral/src/ch32v30x_rcc.c ****     else
1300:../Peripheral/src/ch32v30x_rcc.c ****     {
1301:../Peripheral/src/ch32v30x_rcc.c ****         RCC->AHBRSTR &= ~RCC_AHBPeriph;
 1778              		.loc 1 1301 9 is_stmt 1
 1779              		.loc 1 1301 12 is_stmt 0
 1780 000e B7170240 		li	a5,1073876992
 1781 0012 9857     		lw	a4,40(a5)
 1782              		.loc 1 1301 25
 1783 0014 1345F5FF 		not	a0,a0
 1784              	.LVL165:
 1785              		.loc 1 1301 22
 1786 0018 798D     		and	a0,a0,a4
 1787              	.LVL166:
 1788 001a 88D7     		sw	a0,40(a5)
1302:../Peripheral/src/ch32v30x_rcc.c ****     }
1303:../Peripheral/src/ch32v30x_rcc.c **** }
 1789              		.loc 1 1303 1
 1790 001c 8280     		ret
 1791              		.cfi_endproc
 1792              	.LFE69:
 1794              		.section	.text.RCC_ADCCLKADJcmd,"ax",@progbits
 1795              		.align	1
 1796              		.globl	RCC_ADCCLKADJcmd
 1798              	RCC_ADCCLKADJcmd:
 1799              	.LFB70:
1304:../Peripheral/src/ch32v30x_rcc.c **** 
1305:../Peripheral/src/ch32v30x_rcc.c **** /*********************************************************************
1306:../Peripheral/src/ch32v30x_rcc.c ****  * @fn      RCC_ADCCLKADJcmd
1307:../Peripheral/src/ch32v30x_rcc.c ****  *
1308:../Peripheral/src/ch32v30x_rcc.c ****  * @brief   Enable ADC clock duty cycle adjustment.
1309:../Peripheral/src/ch32v30x_rcc.c ****  *
1310:../Peripheral/src/ch32v30x_rcc.c ****  * @param   NewState - ENABLE or DISABLE.
1311:../Peripheral/src/ch32v30x_rcc.c ****  *
1312:../Peripheral/src/ch32v30x_rcc.c ****  * @return  none
1313:../Peripheral/src/ch32v30x_rcc.c ****  */
1314:../Peripheral/src/ch32v30x_rcc.c **** void RCC_ADCCLKADJcmd(FunctionalState NewState)
1315:../Peripheral/src/ch32v30x_rcc.c **** {
 1800              		.loc 1 1315 1 is_stmt 1
 1801              		.cfi_startproc
 1802              	.LVL167:
1316:../Peripheral/src/ch32v30x_rcc.c ****     if(NewState != DISABLE)
 1803              		.loc 1 1316 5
1317:../Peripheral/src/ch32v30x_rcc.c ****     {
1318:../Peripheral/src/ch32v30x_rcc.c ****         RCC->CFGR0 |= (1 << 31);
 1804              		.loc 1 1318 12 is_stmt 0
 1805 0000 37170240 		li	a4,1073876992
 1806 0004 5C43     		lw	a5,4(a4)
1316:../Peripheral/src/ch32v30x_rcc.c ****     if(NewState != DISABLE)
 1807              		.loc 1 1316 7
 1808 0006 11C5     		beq	a0,zero,.L119
 1809              		.loc 1 1318 9 is_stmt 1
 1810              		.loc 1 1318 20 is_stmt 0
 1811 0008 B7060080 		li	a3,-2147483648
 1812 000c D58F     		or	a5,a5,a3
 1813              	.L121:
1319:../Peripheral/src/ch32v30x_rcc.c ****     }
1320:../Peripheral/src/ch32v30x_rcc.c ****     else
1321:../Peripheral/src/ch32v30x_rcc.c ****     {
1322:../Peripheral/src/ch32v30x_rcc.c ****         RCC->CFGR0 &= ~(1 << 31);
 1814              		.loc 1 1322 20
 1815 000e 5CC3     		sw	a5,4(a4)
1323:../Peripheral/src/ch32v30x_rcc.c ****     }
1324:../Peripheral/src/ch32v30x_rcc.c **** }
 1816              		.loc 1 1324 1
 1817 0010 8280     		ret
 1818              	.L119:
1322:../Peripheral/src/ch32v30x_rcc.c ****     }
 1819              		.loc 1 1322 9 is_stmt 1
1322:../Peripheral/src/ch32v30x_rcc.c ****     }
 1820              		.loc 1 1322 20 is_stmt 0
 1821 0012 8607     		slli	a5,a5,1
 1822 0014 8583     		srli	a5,a5,1
 1823 0016 E5BF     		j	.L121
 1824              		.cfi_endproc
 1825              	.LFE70:
 1827              		.section	.text.RCC_RNGCLKConfig,"ax",@progbits
 1828              		.align	1
 1829              		.globl	RCC_RNGCLKConfig
 1831              	RCC_RNGCLKConfig:
 1832              	.LFB71:
1325:../Peripheral/src/ch32v30x_rcc.c **** 
1326:../Peripheral/src/ch32v30x_rcc.c **** /*********************************************************************
1327:../Peripheral/src/ch32v30x_rcc.c ****  * @fn      RCC_RNGCLKConfig
1328:../Peripheral/src/ch32v30x_rcc.c ****  *
1329:../Peripheral/src/ch32v30x_rcc.c ****  * @brief   Configures the RNG clock source.
1330:../Peripheral/src/ch32v30x_rcc.c ****  *
1331:../Peripheral/src/ch32v30x_rcc.c ****  * @param   RCC_RNGCLKSource - specifies the RNG clock source.
1332:../Peripheral/src/ch32v30x_rcc.c ****  *            RCC_RNGCLKSource_SYSCLK - system clock selected as RNG clock entry
1333:../Peripheral/src/ch32v30x_rcc.c ****  *            RCC_RNGCLKSource_PLL3_VCO - PLL3 VCO clock selected as RNG clock entry
1334:../Peripheral/src/ch32v30x_rcc.c ****  *
1335:../Peripheral/src/ch32v30x_rcc.c ****  * @return  none
1336:../Peripheral/src/ch32v30x_rcc.c ****  */
1337:../Peripheral/src/ch32v30x_rcc.c **** void RCC_RNGCLKConfig(uint32_t RCC_RNGCLKSource)
1338:../Peripheral/src/ch32v30x_rcc.c **** {
 1833              		.loc 1 1338 1 is_stmt 1
 1834              		.cfi_startproc
 1835              	.LVL168:
1339:../Peripheral/src/ch32v30x_rcc.c ****     RCC->CFGR2 &= ~(1 << 19);
 1836              		.loc 1 1339 5
 1837              		.loc 1 1339 8 is_stmt 0
 1838 0000 B7170240 		li	a5,1073876992
 1839 0004 D857     		lw	a4,44(a5)
 1840              		.loc 1 1339 16
 1841 0006 B706F8FF 		li	a3,-524288
 1842 000a FD16     		addi	a3,a3,-1
 1843 000c 758F     		and	a4,a4,a3
 1844 000e D8D7     		sw	a4,44(a5)
1340:../Peripheral/src/ch32v30x_rcc.c ****     RCC->CFGR2 |= RCC_RNGCLKSource << 19;
 1845              		.loc 1 1340 5 is_stmt 1
 1846              		.loc 1 1340 8 is_stmt 0
 1847 0010 D857     		lw	a4,44(a5)
 1848              		.loc 1 1340 36
 1849 0012 4E05     		slli	a0,a0,19
 1850              	.LVL169:
 1851              		.loc 1 1340 16
 1852 0014 598D     		or	a0,a0,a4
 1853 0016 C8D7     		sw	a0,44(a5)
1341:../Peripheral/src/ch32v30x_rcc.c **** }
 1854              		.loc 1 1341 1
 1855 0018 8280     		ret
 1856              		.cfi_endproc
 1857              	.LFE71:
 1859              		.section	.text.RCC_ETH1GCLKConfig,"ax",@progbits
 1860              		.align	1
 1861              		.globl	RCC_ETH1GCLKConfig
 1863              	RCC_ETH1GCLKConfig:
 1864              	.LFB72:
1342:../Peripheral/src/ch32v30x_rcc.c **** 
1343:../Peripheral/src/ch32v30x_rcc.c **** /*********************************************************************
1344:../Peripheral/src/ch32v30x_rcc.c ****  * @fn      RCC_ETH1GCLKConfig
1345:../Peripheral/src/ch32v30x_rcc.c ****  *
1346:../Peripheral/src/ch32v30x_rcc.c ****  * @brief   Configures the ETH1G clock source.
1347:../Peripheral/src/ch32v30x_rcc.c ****  *
1348:../Peripheral/src/ch32v30x_rcc.c ****  * @param   RCC_RNGCLKSource - specifies the ETH1G clock source.
1349:../Peripheral/src/ch32v30x_rcc.c ****  *            RCC_ETH1GCLKSource_PLL2_VCO - system clock selected as ETH1G clock entry
1350:../Peripheral/src/ch32v30x_rcc.c ****  *            RCC_ETH1GCLKSource_PLL3_VCO - PLL3 VCO clock selected as ETH1G clock entry
1351:../Peripheral/src/ch32v30x_rcc.c ****  *            RCC_ETH1GCLKSource_PB1_IN -  GPIO PB1 input clock selected as ETH1G clock entry
1352:../Peripheral/src/ch32v30x_rcc.c ****  *
1353:../Peripheral/src/ch32v30x_rcc.c ****  * @return  none
1354:../Peripheral/src/ch32v30x_rcc.c ****  */
1355:../Peripheral/src/ch32v30x_rcc.c **** void RCC_ETH1GCLKConfig(uint32_t RCC_ETH1GCLKSource)
1356:../Peripheral/src/ch32v30x_rcc.c **** {
 1865              		.loc 1 1356 1 is_stmt 1
 1866              		.cfi_startproc
 1867              	.LVL170:
1357:../Peripheral/src/ch32v30x_rcc.c ****     RCC->CFGR2 &= ~(3 << 20);
 1868              		.loc 1 1357 5
 1869              		.loc 1 1357 8 is_stmt 0
 1870 0000 B7170240 		li	a5,1073876992
 1871 0004 D857     		lw	a4,44(a5)
 1872              		.loc 1 1357 16
 1873 0006 B706D0FF 		li	a3,-3145728
 1874 000a FD16     		addi	a3,a3,-1
 1875 000c 758F     		and	a4,a4,a3
 1876 000e D8D7     		sw	a4,44(a5)
1358:../Peripheral/src/ch32v30x_rcc.c ****     RCC->CFGR2 |= RCC_ETH1GCLKSource << 20;
 1877              		.loc 1 1358 5 is_stmt 1
 1878              		.loc 1 1358 8 is_stmt 0
 1879 0010 D857     		lw	a4,44(a5)
 1880              		.loc 1 1358 38
 1881 0012 5205     		slli	a0,a0,20
 1882              	.LVL171:
 1883              		.loc 1 1358 16
 1884 0014 598D     		or	a0,a0,a4
 1885 0016 C8D7     		sw	a0,44(a5)
1359:../Peripheral/src/ch32v30x_rcc.c **** }
 1886              		.loc 1 1359 1
 1887 0018 8280     		ret
 1888              		.cfi_endproc
 1889              	.LFE72:
 1891              		.section	.text.RCC_ETH1G_125Mcmd,"ax",@progbits
 1892              		.align	1
 1893              		.globl	RCC_ETH1G_125Mcmd
 1895              	RCC_ETH1G_125Mcmd:
 1896              	.LFB73:
1360:../Peripheral/src/ch32v30x_rcc.c **** 
1361:../Peripheral/src/ch32v30x_rcc.c **** /*********************************************************************
1362:../Peripheral/src/ch32v30x_rcc.c ****  * @fn      RCC_ETH1G_125Mcmd
1363:../Peripheral/src/ch32v30x_rcc.c ****  *
1364:../Peripheral/src/ch32v30x_rcc.c ****  * @brief   Enable ETH1G 125M.
1365:../Peripheral/src/ch32v30x_rcc.c ****  *
1366:../Peripheral/src/ch32v30x_rcc.c ****  * @param   NewState - ENABLE or DISABLE.
1367:../Peripheral/src/ch32v30x_rcc.c ****  *
1368:../Peripheral/src/ch32v30x_rcc.c ****  * @return  none
1369:../Peripheral/src/ch32v30x_rcc.c ****  */
1370:../Peripheral/src/ch32v30x_rcc.c **** void RCC_ETH1G_125Mcmd(FunctionalState NewState)
1371:../Peripheral/src/ch32v30x_rcc.c **** {
 1897              		.loc 1 1371 1 is_stmt 1
 1898              		.cfi_startproc
 1899              	.LVL172:
1372:../Peripheral/src/ch32v30x_rcc.c ****     if(NewState != DISABLE)
 1900              		.loc 1 1372 5
 1901              		.loc 1 1372 7 is_stmt 0
 1902 0000 09C9     		beq	a0,zero,.L125
1373:../Peripheral/src/ch32v30x_rcc.c ****     {
1374:../Peripheral/src/ch32v30x_rcc.c ****         RCC->CFGR2 |= (1 << 22);
 1903              		.loc 1 1374 9 is_stmt 1
 1904              		.loc 1 1374 12 is_stmt 0
 1905 0002 37170240 		li	a4,1073876992
 1906 0006 5C57     		lw	a5,44(a4)
 1907              		.loc 1 1374 20
 1908 0008 B7064000 		li	a3,4194304
 1909 000c D58F     		or	a5,a5,a3
 1910 000e 5CD7     		sw	a5,44(a4)
 1911 0010 8280     		ret
 1912              	.L125:
1375:../Peripheral/src/ch32v30x_rcc.c ****     }
1376:../Peripheral/src/ch32v30x_rcc.c ****     else
1377:../Peripheral/src/ch32v30x_rcc.c ****     {
1378:../Peripheral/src/ch32v30x_rcc.c ****         RCC->CFGR2 &= ~(1 << 22);
 1913              		.loc 1 1378 9 is_stmt 1
 1914              		.loc 1 1378 12 is_stmt 0
 1915 0012 B7160240 		li	a3,1073876992
 1916 0016 DC56     		lw	a5,44(a3)
 1917              		.loc 1 1378 20
 1918 0018 3707C0FF 		li	a4,-4194304
 1919 001c 7D17     		addi	a4,a4,-1
 1920 001e F98F     		and	a5,a5,a4
 1921 0020 DCD6     		sw	a5,44(a3)
1379:../Peripheral/src/ch32v30x_rcc.c ****     }
1380:../Peripheral/src/ch32v30x_rcc.c **** }
 1922              		.loc 1 1380 1
 1923 0022 8280     		ret
 1924              		.cfi_endproc
 1925              	.LFE73:
 1927              		.section	.text.RCC_USBHSConfig,"ax",@progbits
 1928              		.align	1
 1929              		.globl	RCC_USBHSConfig
 1931              	RCC_USBHSConfig:
 1932              	.LFB74:
1381:../Peripheral/src/ch32v30x_rcc.c **** 
1382:../Peripheral/src/ch32v30x_rcc.c **** /*********************************************************************
1383:../Peripheral/src/ch32v30x_rcc.c ****  * @fn      RCC_USBHSConfig
1384:../Peripheral/src/ch32v30x_rcc.c ****  *
1385:../Peripheral/src/ch32v30x_rcc.c ****  * @brief   Configures the USBHS clock.
1386:../Peripheral/src/ch32v30x_rcc.c ****  *
1387:../Peripheral/src/ch32v30x_rcc.c ****  * @param   RCC_USBHS - defines the USBHS clock divider.
1388:../Peripheral/src/ch32v30x_rcc.c ****  *            RCC_USBPLL_Div1 - USBHS clock = USBPLL.
1389:../Peripheral/src/ch32v30x_rcc.c ****  *            RCC_USBPLL_Div2 - USBHS clock = USBPLL/2.
1390:../Peripheral/src/ch32v30x_rcc.c ****  *            RCC_USBPLL_Div3 - USBHS clock = USBPLL/3.
1391:../Peripheral/src/ch32v30x_rcc.c ****  *            RCC_USBPLL_Div4 - USBHS clock = USBPLL/4.
1392:../Peripheral/src/ch32v30x_rcc.c ****  *            RCC_USBPLL_Div5 - USBHS clock = USBPLL/5.
1393:../Peripheral/src/ch32v30x_rcc.c ****  *            RCC_USBPLL_Div6 - USBHS clock = USBPLL/6.
1394:../Peripheral/src/ch32v30x_rcc.c ****  *            RCC_USBPLL_Div7 - USBHS clock = USBPLL/7.
1395:../Peripheral/src/ch32v30x_rcc.c ****  *            RCC_USBPLL_Div8 - USBHS clock = USBPLL/8.
1396:../Peripheral/src/ch32v30x_rcc.c ****  *
1397:../Peripheral/src/ch32v30x_rcc.c ****  * @return  none
1398:../Peripheral/src/ch32v30x_rcc.c ****  */
1399:../Peripheral/src/ch32v30x_rcc.c **** void RCC_USBHSConfig(uint32_t RCC_USBHS)
1400:../Peripheral/src/ch32v30x_rcc.c **** {
 1933              		.loc 1 1400 1 is_stmt 1
 1934              		.cfi_startproc
 1935              	.LVL173:
1401:../Peripheral/src/ch32v30x_rcc.c ****     RCC->CFGR2 &= ~(7 << 24);
 1936              		.loc 1 1401 5
 1937              		.loc 1 1401 8 is_stmt 0
 1938 0000 B7170240 		li	a5,1073876992
 1939 0004 D857     		lw	a4,44(a5)
 1940              		.loc 1 1401 16
 1941 0006 B70600F9 		li	a3,-117440512
 1942 000a FD16     		addi	a3,a3,-1
 1943 000c 758F     		and	a4,a4,a3
 1944 000e D8D7     		sw	a4,44(a5)
1402:../Peripheral/src/ch32v30x_rcc.c ****     RCC->CFGR2 |= RCC_USBHS << 24;
 1945              		.loc 1 1402 5 is_stmt 1
 1946              		.loc 1 1402 8 is_stmt 0
 1947 0010 D857     		lw	a4,44(a5)
 1948              		.loc 1 1402 29
 1949 0012 6205     		slli	a0,a0,24
 1950              	.LVL174:
 1951              		.loc 1 1402 16
 1952 0014 598D     		or	a0,a0,a4
 1953 0016 C8D7     		sw	a0,44(a5)
1403:../Peripheral/src/ch32v30x_rcc.c **** }
 1954              		.loc 1 1403 1
 1955 0018 8280     		ret
 1956              		.cfi_endproc
 1957              	.LFE74:
 1959              		.section	.text.RCC_USBHSPLLCLKConfig,"ax",@progbits
 1960              		.align	1
 1961              		.globl	RCC_USBHSPLLCLKConfig
 1963              	RCC_USBHSPLLCLKConfig:
 1964              	.LFB75:
1404:../Peripheral/src/ch32v30x_rcc.c **** 
1405:../Peripheral/src/ch32v30x_rcc.c **** /*********************************************************************
1406:../Peripheral/src/ch32v30x_rcc.c ****  * @fn      RCC_USBHSPLLCLKConfig
1407:../Peripheral/src/ch32v30x_rcc.c ****  *
1408:../Peripheral/src/ch32v30x_rcc.c ****  * @brief   Configures the USBHSPLL clock source.
1409:../Peripheral/src/ch32v30x_rcc.c ****  *
1410:../Peripheral/src/ch32v30x_rcc.c ****  * @param   RCC_HSBHSPLLCLKSource - specifies the USBHSPLL clock source.
1411:../Peripheral/src/ch32v30x_rcc.c ****  *            RCC_HSBHSPLLCLKSource_HSE - HSE clock selected as USBHSPLL clock entry
1412:../Peripheral/src/ch32v30x_rcc.c ****  *            RCC_HSBHSPLLCLKSource_HSI - HSI clock selected as USBHSPLL clock entry
1413:../Peripheral/src/ch32v30x_rcc.c ****  *
1414:../Peripheral/src/ch32v30x_rcc.c ****  * @return  none
1415:../Peripheral/src/ch32v30x_rcc.c ****  */
1416:../Peripheral/src/ch32v30x_rcc.c **** void RCC_USBHSPLLCLKConfig(uint32_t RCC_USBHSPLLCLKSource)
1417:../Peripheral/src/ch32v30x_rcc.c **** {
 1965              		.loc 1 1417 1 is_stmt 1
 1966              		.cfi_startproc
 1967              	.LVL175:
1418:../Peripheral/src/ch32v30x_rcc.c ****     RCC->CFGR2 &= ~(1 << 27);
 1968              		.loc 1 1418 5
 1969              		.loc 1 1418 8 is_stmt 0
 1970 0000 B7170240 		li	a5,1073876992
 1971 0004 D857     		lw	a4,44(a5)
 1972              		.loc 1 1418 16
 1973 0006 B70600F8 		li	a3,-134217728
 1974 000a FD16     		addi	a3,a3,-1
 1975 000c 758F     		and	a4,a4,a3
 1976 000e D8D7     		sw	a4,44(a5)
1419:../Peripheral/src/ch32v30x_rcc.c ****     RCC->CFGR2 |= RCC_USBHSPLLCLKSource << 27;
 1977              		.loc 1 1419 5 is_stmt 1
 1978              		.loc 1 1419 8 is_stmt 0
 1979 0010 D857     		lw	a4,44(a5)
 1980              		.loc 1 1419 41
 1981 0012 6E05     		slli	a0,a0,27
 1982              	.LVL176:
 1983              		.loc 1 1419 16
 1984 0014 598D     		or	a0,a0,a4
 1985 0016 C8D7     		sw	a0,44(a5)
1420:../Peripheral/src/ch32v30x_rcc.c **** }
 1986              		.loc 1 1420 1
 1987 0018 8280     		ret
 1988              		.cfi_endproc
 1989              	.LFE75:
 1991              		.section	.text.RCC_USBHSPLLCKREFCLKConfig,"ax",@progbits
 1992              		.align	1
 1993              		.globl	RCC_USBHSPLLCKREFCLKConfig
 1995              	RCC_USBHSPLLCKREFCLKConfig:
 1996              	.LFB76:
1421:../Peripheral/src/ch32v30x_rcc.c **** 
1422:../Peripheral/src/ch32v30x_rcc.c **** /*********************************************************************
1423:../Peripheral/src/ch32v30x_rcc.c ****  * @fn      RCC_USBHSPLLCKREFCLKConfig
1424:../Peripheral/src/ch32v30x_rcc.c ****  *
1425:../Peripheral/src/ch32v30x_rcc.c ****  * @brief   Configures the USBHSPLL reference clock.
1426:../Peripheral/src/ch32v30x_rcc.c ****  *
1427:../Peripheral/src/ch32v30x_rcc.c ****  * @param   RCC_USBHSPLLCKREFCLKSource - Select reference clock.
1428:../Peripheral/src/ch32v30x_rcc.c ****  *            RCC_USBHSPLLCKREFCLK_3M - reference clock 3Mhz.
1429:../Peripheral/src/ch32v30x_rcc.c ****  *            RCC_USBHSPLLCKREFCLK_4M - reference clock 4Mhz.
1430:../Peripheral/src/ch32v30x_rcc.c ****  *            RCC_USBHSPLLCKREFCLK_8M - reference clock 8Mhz.
1431:../Peripheral/src/ch32v30x_rcc.c ****  *            RCC_USBHSPLLCKREFCLK_5M - reference clock 5Mhz.
1432:../Peripheral/src/ch32v30x_rcc.c ****  *
1433:../Peripheral/src/ch32v30x_rcc.c ****  * @return  none
1434:../Peripheral/src/ch32v30x_rcc.c ****  */
1435:../Peripheral/src/ch32v30x_rcc.c **** void RCC_USBHSPLLCKREFCLKConfig(uint32_t RCC_USBHSPLLCKREFCLKSource)
1436:../Peripheral/src/ch32v30x_rcc.c **** {
 1997              		.loc 1 1436 1 is_stmt 1
 1998              		.cfi_startproc
 1999              	.LVL177:
1437:../Peripheral/src/ch32v30x_rcc.c ****     RCC->CFGR2 &= ~(3 << 28);
 2000              		.loc 1 1437 5
 2001              		.loc 1 1437 8 is_stmt 0
 2002 0000 B7170240 		li	a5,1073876992
 2003 0004 D857     		lw	a4,44(a5)
 2004              		.loc 1 1437 16
 2005 0006 B70600D0 		li	a3,-805306368
 2006 000a FD16     		addi	a3,a3,-1
 2007 000c 758F     		and	a4,a4,a3
 2008 000e D8D7     		sw	a4,44(a5)
1438:../Peripheral/src/ch32v30x_rcc.c ****     RCC->CFGR2 |= RCC_USBHSPLLCKREFCLKSource << 28;
 2009              		.loc 1 1438 5 is_stmt 1
 2010              		.loc 1 1438 8 is_stmt 0
 2011 0010 D857     		lw	a4,44(a5)
 2012              		.loc 1 1438 46
 2013 0012 7205     		slli	a0,a0,28
 2014              	.LVL178:
 2015              		.loc 1 1438 16
 2016 0014 598D     		or	a0,a0,a4
 2017 0016 C8D7     		sw	a0,44(a5)
1439:../Peripheral/src/ch32v30x_rcc.c **** }
 2018              		.loc 1 1439 1
 2019 0018 8280     		ret
 2020              		.cfi_endproc
 2021              	.LFE76:
 2023              		.section	.text.RCC_USBHSPHYPLLALIVEcmd,"ax",@progbits
 2024              		.align	1
 2025              		.globl	RCC_USBHSPHYPLLALIVEcmd
 2027              	RCC_USBHSPHYPLLALIVEcmd:
 2028              	.LFB77:
1440:../Peripheral/src/ch32v30x_rcc.c **** 
1441:../Peripheral/src/ch32v30x_rcc.c **** /*********************************************************************
1442:../Peripheral/src/ch32v30x_rcc.c ****  * @fn      RCC_USBHSPHYPLLALIVEcmd
1443:../Peripheral/src/ch32v30x_rcc.c ****  *
1444:../Peripheral/src/ch32v30x_rcc.c ****  * @brief   Enable USBHS PHY control.
1445:../Peripheral/src/ch32v30x_rcc.c ****  *
1446:../Peripheral/src/ch32v30x_rcc.c ****  * @param   NewState - ENABLE or DISABLE.
1447:../Peripheral/src/ch32v30x_rcc.c ****  *
1448:../Peripheral/src/ch32v30x_rcc.c ****  * @return  none
1449:../Peripheral/src/ch32v30x_rcc.c ****  */
1450:../Peripheral/src/ch32v30x_rcc.c **** void RCC_USBHSPHYPLLALIVEcmd(FunctionalState NewState)
1451:../Peripheral/src/ch32v30x_rcc.c **** {
 2029              		.loc 1 1451 1 is_stmt 1
 2030              		.cfi_startproc
 2031              	.LVL179:
1452:../Peripheral/src/ch32v30x_rcc.c ****     if(NewState != DISABLE)
 2032              		.loc 1 1452 5
 2033              		.loc 1 1452 7 is_stmt 0
 2034 0000 09C9     		beq	a0,zero,.L131
1453:../Peripheral/src/ch32v30x_rcc.c ****     {
1454:../Peripheral/src/ch32v30x_rcc.c ****         RCC->CFGR2 |= (1 << 30);
 2035              		.loc 1 1454 9 is_stmt 1
 2036              		.loc 1 1454 12 is_stmt 0
 2037 0002 37170240 		li	a4,1073876992
 2038 0006 5C57     		lw	a5,44(a4)
 2039              		.loc 1 1454 20
 2040 0008 B7060040 		li	a3,1073741824
 2041 000c D58F     		or	a5,a5,a3
 2042 000e 5CD7     		sw	a5,44(a4)
 2043 0010 8280     		ret
 2044              	.L131:
1455:../Peripheral/src/ch32v30x_rcc.c ****     }
1456:../Peripheral/src/ch32v30x_rcc.c ****     else
1457:../Peripheral/src/ch32v30x_rcc.c ****     {
1458:../Peripheral/src/ch32v30x_rcc.c ****         RCC->CFGR2 &= ~(1 << 30);
 2045              		.loc 1 1458 9 is_stmt 1
 2046              		.loc 1 1458 12 is_stmt 0
 2047 0012 B7160240 		li	a3,1073876992
 2048 0016 DC56     		lw	a5,44(a3)
 2049              		.loc 1 1458 20
 2050 0018 370700C0 		li	a4,-1073741824
 2051 001c 7D17     		addi	a4,a4,-1
 2052 001e F98F     		and	a5,a5,a4
 2053 0020 DCD6     		sw	a5,44(a3)
1459:../Peripheral/src/ch32v30x_rcc.c ****     }
1460:../Peripheral/src/ch32v30x_rcc.c **** }
 2054              		.loc 1 1460 1
 2055 0022 8280     		ret
 2056              		.cfi_endproc
 2057              	.LFE77:
 2059              		.section	.text.RCC_USBCLK48MConfig,"ax",@progbits
 2060              		.align	1
 2061              		.globl	RCC_USBCLK48MConfig
 2063              	RCC_USBCLK48MConfig:
 2064              	.LFB78:
1461:../Peripheral/src/ch32v30x_rcc.c **** 
1462:../Peripheral/src/ch32v30x_rcc.c **** /*********************************************************************
1463:../Peripheral/src/ch32v30x_rcc.c ****  * @fn      RCC_USBCLK48MConfig
1464:../Peripheral/src/ch32v30x_rcc.c ****  *
1465:../Peripheral/src/ch32v30x_rcc.c ****  * @brief   Configures the USB clock 48MHz source.
1466:../Peripheral/src/ch32v30x_rcc.c ****  *
1467:../Peripheral/src/ch32v30x_rcc.c ****  * @param   RCC_USBCLK48MSource - specifies the USB clock 48MHz source.
1468:../Peripheral/src/ch32v30x_rcc.c ****  *            RCC_USBCLK48MCLKSource_PLLCLK - PLLCLK clock selected as USB clock 48MHz clock entry
1469:../Peripheral/src/ch32v30x_rcc.c ****  *            RCC_USBCLK48MCLKSource_USBPHY - USBPHY clock selected as USB clock 48MHz clock entry
1470:../Peripheral/src/ch32v30x_rcc.c ****  *
1471:../Peripheral/src/ch32v30x_rcc.c ****  * @return  none
1472:../Peripheral/src/ch32v30x_rcc.c ****  */
1473:../Peripheral/src/ch32v30x_rcc.c **** void RCC_USBCLK48MConfig(uint32_t RCC_USBCLK48MSource)
1474:../Peripheral/src/ch32v30x_rcc.c **** {
 2065              		.loc 1 1474 1 is_stmt 1
 2066              		.cfi_startproc
 2067              	.LVL180:
1475:../Peripheral/src/ch32v30x_rcc.c ****     RCC->CFGR2 &= ~(1 << 31);
 2068              		.loc 1 1475 5
 2069              		.loc 1 1475 8 is_stmt 0
 2070 0000 37170240 		li	a4,1073876992
 2071 0004 5C57     		lw	a5,44(a4)
1476:../Peripheral/src/ch32v30x_rcc.c ****     RCC->CFGR2 |= RCC_USBCLK48MSource << 31;
 2072              		.loc 1 1476 39
 2073 0006 7E05     		slli	a0,a0,31
 2074              	.LVL181:
1475:../Peripheral/src/ch32v30x_rcc.c ****     RCC->CFGR2 &= ~(1 << 31);
 2075              		.loc 1 1475 16
 2076 0008 8607     		slli	a5,a5,1
 2077 000a 8583     		srli	a5,a5,1
 2078 000c 5CD7     		sw	a5,44(a4)
 2079              		.loc 1 1476 5 is_stmt 1
 2080              		.loc 1 1476 8 is_stmt 0
 2081 000e 5C57     		lw	a5,44(a4)
 2082              		.loc 1 1476 16
 2083 0010 5D8D     		or	a0,a0,a5
 2084 0012 48D7     		sw	a0,44(a4)
1477:../Peripheral/src/ch32v30x_rcc.c **** }
 2085              		.loc 1 1477 1
 2086 0014 8280     		ret
 2087              		.cfi_endproc
 2088              	.LFE78:
 2090              		.section	.sdata.ADCPrescTable,"aw"
 2091              		.align	2
 2094              	ADCPrescTable:
 2095 0000 02040608 		.ascii	"\002\004\006\b"
 2096              		.section	.data.APBAHBPrescTable,"aw"
 2097              		.align	2
 2100              	APBAHBPrescTable:
 2101 0000 00       		.string	""
 2102 0001 00       		.string	""
 2103 0002 00       		.string	""
 2104 0003 00       		.string	""
 2105 0004 01020304 		.ascii	"\001\002\003\004\001\002\003\004\006\007\b\t"
 2105      01020304 
 2105      06070809 
 2106              		.text
 2107              	.Letext0:
 2108              		.file 2 "d:\\software\\mounriver_studio\\toolchain\\risc-v embedded gcc12\\riscv-none-elf\\include
 2109              		.file 3 "d:\\software\\mounriver_studio\\toolchain\\risc-v embedded gcc12\\riscv-none-elf\\include
 2110              		.file 4 "C:\\Users\\localhost\\Documents\\turbomoskal-repo\\qqexpert\\firmware\\MasterController\\
 2111              		.file 5 "C:\\Users\\localhost\\Documents\\turbomoskal-repo\\qqexpert\\firmware\\MasterController\\
 2112              		.file 6 "C:\\Users\\localhost\\Documents\\turbomoskal-repo\\qqexpert\\firmware\\MasterController\\
DEFINED SYMBOLS
                            *ABS*:0000000000000000 ch32v30x_rcc.c
C:\Users\LOCALH~1\AppData\Local\Temp\ccZQPmnq.s:14     .text.RCC_DeInit:0000000000000000 RCC_DeInit
C:\Users\LOCALH~1\AppData\Local\Temp\ccZQPmnq.s:18     .text.RCC_DeInit:0000000000000000 .L0 
C:\Users\LOCALH~1\AppData\Local\Temp\ccZQPmnq.s:19     .text.RCC_DeInit:0000000000000000 .L0 
C:\Users\LOCALH~1\AppData\Local\Temp\ccZQPmnq.s:20     .text.RCC_DeInit:0000000000000000 .L0 
C:\Users\LOCALH~1\AppData\Local\Temp\ccZQPmnq.s:21     .text.RCC_DeInit:0000000000000000 $x
C:\Users\LOCALH~1\AppData\Local\Temp\ccZQPmnq.s:21     .text.RCC_DeInit:0000000000000000 .L0 
C:\Users\LOCALH~1\AppData\Local\Temp\ccZQPmnq.s:24     .text.RCC_DeInit:0000000000000006 .L0 
C:\Users\LOCALH~1\AppData\Local\Temp\ccZQPmnq.s:26     .text.RCC_DeInit:000000000000000a .L0 
C:\Users\LOCALH~1\AppData\Local\Temp\ccZQPmnq.s:29     .text.RCC_DeInit:0000000000000010 .L0 
C:\Users\LOCALH~1\AppData\Local\Temp\ccZQPmnq.s:30     .text.RCC_DeInit:0000000000000010 .L0 
C:\Users\LOCALH~1\AppData\Local\Temp\ccZQPmnq.s:32     .text.RCC_DeInit:0000000000000012 .L0 
C:\Users\LOCALH~1\AppData\Local\Temp\ccZQPmnq.s:35     .text.RCC_DeInit:0000000000000016 .L0 
C:\Users\LOCALH~1\AppData\Local\Temp\ccZQPmnq.s:36     .text.RCC_DeInit:0000000000000016 .L0 
C:\Users\LOCALH~1\AppData\Local\Temp\ccZQPmnq.s:38     .text.RCC_DeInit:0000000000000018 .L0 
C:\Users\LOCALH~1\AppData\Local\Temp\ccZQPmnq.s:43     .text.RCC_DeInit:0000000000000022 .L0 
C:\Users\LOCALH~1\AppData\Local\Temp\ccZQPmnq.s:44     .text.RCC_DeInit:0000000000000022 .L0 
C:\Users\LOCALH~1\AppData\Local\Temp\ccZQPmnq.s:46     .text.RCC_DeInit:0000000000000024 .L0 
C:\Users\LOCALH~1\AppData\Local\Temp\ccZQPmnq.s:51     .text.RCC_DeInit:000000000000002e .L0 
C:\Users\LOCALH~1\AppData\Local\Temp\ccZQPmnq.s:52     .text.RCC_DeInit:000000000000002e .L0 
C:\Users\LOCALH~1\AppData\Local\Temp\ccZQPmnq.s:54     .text.RCC_DeInit:0000000000000030 .L0 
C:\Users\LOCALH~1\AppData\Local\Temp\ccZQPmnq.s:59     .text.RCC_DeInit:000000000000003a .L0 
C:\Users\LOCALH~1\AppData\Local\Temp\ccZQPmnq.s:60     .text.RCC_DeInit:000000000000003a .L0 
C:\Users\LOCALH~1\AppData\Local\Temp\ccZQPmnq.s:62     .text.RCC_DeInit:000000000000003c .L0 
C:\Users\LOCALH~1\AppData\Local\Temp\ccZQPmnq.s:67     .text.RCC_DeInit:0000000000000046 .L0 
C:\Users\LOCALH~1\AppData\Local\Temp\ccZQPmnq.s:68     .text.RCC_DeInit:0000000000000046 .L0 
C:\Users\LOCALH~1\AppData\Local\Temp\ccZQPmnq.s:71     .text.RCC_DeInit:000000000000004c .L0 
C:\Users\LOCALH~1\AppData\Local\Temp\ccZQPmnq.s:72     .text.RCC_DeInit:000000000000004c .L0 
C:\Users\LOCALH~1\AppData\Local\Temp\ccZQPmnq.s:74     .text.RCC_DeInit:0000000000000050 .L0 
C:\Users\LOCALH~1\AppData\Local\Temp\ccZQPmnq.s:75     .text.RCC_DeInit:0000000000000052 .L0 
C:\Users\LOCALH~1\AppData\Local\Temp\ccZQPmnq.s:82     .text.RCC_HSEConfig:0000000000000000 RCC_HSEConfig
C:\Users\LOCALH~1\AppData\Local\Temp\ccZQPmnq.s:85     .text.RCC_HSEConfig:0000000000000000 .L0 
C:\Users\LOCALH~1\AppData\Local\Temp\ccZQPmnq.s:87     .text.RCC_HSEConfig:0000000000000000 .L0 
C:\Users\LOCALH~1\AppData\Local\Temp\ccZQPmnq.s:88     .text.RCC_HSEConfig:0000000000000000 .L0 
C:\Users\LOCALH~1\AppData\Local\Temp\ccZQPmnq.s:89     .text.RCC_HSEConfig:0000000000000000 $x
C:\Users\LOCALH~1\AppData\Local\Temp\ccZQPmnq.s:89     .text.RCC_HSEConfig:0000000000000000 .L0 
C:\Users\LOCALH~1\AppData\Local\Temp\ccZQPmnq.s:92     .text.RCC_HSEConfig:0000000000000006 .L0 
C:\Users\LOCALH~1\AppData\Local\Temp\ccZQPmnq.s:97     .text.RCC_HSEConfig:000000000000000e .L0 
C:\Users\LOCALH~1\AppData\Local\Temp\ccZQPmnq.s:98     .text.RCC_HSEConfig:000000000000000e .L0 
C:\Users\LOCALH~1\AppData\Local\Temp\ccZQPmnq.s:100    .text.RCC_HSEConfig:0000000000000010 .L0 
C:\Users\LOCALH~1\AppData\Local\Temp\ccZQPmnq.s:105    .text.RCC_HSEConfig:000000000000001a .L0 
C:\Users\LOCALH~1\AppData\Local\Temp\ccZQPmnq.s:112    .text.RCC_HSEConfig:000000000000002a .L0 
C:\Users\LOCALH~1\AppData\Local\Temp\ccZQPmnq.s:113    .text.RCC_HSEConfig:000000000000002a .L0 
C:\Users\LOCALH~1\AppData\Local\Temp\ccZQPmnq.s:115    .text.RCC_HSEConfig:000000000000002c .L0 
C:\Users\LOCALH~1\AppData\Local\Temp\ccZQPmnq.s:118    .text.RCC_HSEConfig:000000000000002e .L0 
C:\Users\LOCALH~1\AppData\Local\Temp\ccZQPmnq.s:120    .text.RCC_HSEConfig:0000000000000030 .L0 
C:\Users\LOCALH~1\AppData\Local\Temp\ccZQPmnq.s:121    .text.RCC_HSEConfig:0000000000000030 .L0 
C:\Users\LOCALH~1\AppData\Local\Temp\ccZQPmnq.s:124    .text.RCC_HSEConfig:0000000000000032 .L0 
C:\Users\LOCALH~1\AppData\Local\Temp\ccZQPmnq.s:125    .text.RCC_HSEConfig:0000000000000032 .L0 
C:\Users\LOCALH~1\AppData\Local\Temp\ccZQPmnq.s:127    .text.RCC_HSEConfig:0000000000000034 .L0 
C:\Users\LOCALH~1\AppData\Local\Temp\ccZQPmnq.s:130    .text.RCC_HSEConfig:000000000000003c .L0 
C:\Users\LOCALH~1\AppData\Local\Temp\ccZQPmnq.s:137    .text.RCC_AdjustHSICalibrationValue:0000000000000000 RCC_AdjustHSICalibrationValue
C:\Users\LOCALH~1\AppData\Local\Temp\ccZQPmnq.s:140    .text.RCC_AdjustHSICalibrationValue:0000000000000000 .L0 
C:\Users\LOCALH~1\AppData\Local\Temp\ccZQPmnq.s:142    .text.RCC_AdjustHSICalibrationValue:0000000000000000 .L0 
C:\Users\LOCALH~1\AppData\Local\Temp\ccZQPmnq.s:143    .text.RCC_AdjustHSICalibrationValue:0000000000000000 .L0 
C:\Users\LOCALH~1\AppData\Local\Temp\ccZQPmnq.s:144    .text.RCC_AdjustHSICalibrationValue:0000000000000000 .L0 
C:\Users\LOCALH~1\AppData\Local\Temp\ccZQPmnq.s:145    .text.RCC_AdjustHSICalibrationValue:0000000000000000 $x
C:\Users\LOCALH~1\AppData\Local\Temp\ccZQPmnq.s:145    .text.RCC_AdjustHSICalibrationValue:0000000000000000 .L0 
C:\Users\LOCALH~1\AppData\Local\Temp\ccZQPmnq.s:149    .text.RCC_AdjustHSICalibrationValue:0000000000000006 .L0 
C:\Users\LOCALH~1\AppData\Local\Temp\ccZQPmnq.s:150    .text.RCC_AdjustHSICalibrationValue:0000000000000006 .L0 
C:\Users\LOCALH~1\AppData\Local\Temp\ccZQPmnq.s:153    .text.RCC_AdjustHSICalibrationValue:0000000000000008 .L0 
C:\Users\LOCALH~1\AppData\Local\Temp\ccZQPmnq.s:156    .text.RCC_AdjustHSICalibrationValue:000000000000000c .L0 
C:\Users\LOCALH~1\AppData\Local\Temp\ccZQPmnq.s:157    .text.RCC_AdjustHSICalibrationValue:000000000000000c .L0 
C:\Users\LOCALH~1\AppData\Local\Temp\ccZQPmnq.s:160    .text.RCC_AdjustHSICalibrationValue:000000000000000e .L0 
C:\Users\LOCALH~1\AppData\Local\Temp\ccZQPmnq.s:161    .text.RCC_AdjustHSICalibrationValue:000000000000000e .L0 
C:\Users\LOCALH~1\AppData\Local\Temp\ccZQPmnq.s:163    .text.RCC_AdjustHSICalibrationValue:0000000000000010 .L0 
C:\Users\LOCALH~1\AppData\Local\Temp\ccZQPmnq.s:164    .text.RCC_AdjustHSICalibrationValue:0000000000000012 .L0 
C:\Users\LOCALH~1\AppData\Local\Temp\ccZQPmnq.s:171    .text.RCC_HSICmd:0000000000000000 RCC_HSICmd
C:\Users\LOCALH~1\AppData\Local\Temp\ccZQPmnq.s:174    .text.RCC_HSICmd:0000000000000000 .L0 
C:\Users\LOCALH~1\AppData\Local\Temp\ccZQPmnq.s:176    .text.RCC_HSICmd:0000000000000000 .L0 
C:\Users\LOCALH~1\AppData\Local\Temp\ccZQPmnq.s:177    .text.RCC_HSICmd:0000000000000000 .L0 
C:\Users\LOCALH~1\AppData\Local\Temp\ccZQPmnq.s:178    .text.RCC_HSICmd:0000000000000000 $x
C:\Users\LOCALH~1\AppData\Local\Temp\ccZQPmnq.s:178    .text.RCC_HSICmd:0000000000000000 .L0 
C:\Users\LOCALH~1\AppData\Local\Temp\ccZQPmnq.s:181    .text.RCC_HSICmd:0000000000000006 .L0 
C:\Users\LOCALH~1\AppData\Local\Temp\ccZQPmnq.s:183    .text.RCC_HSICmd:0000000000000008 .L0 
C:\Users\LOCALH~1\AppData\Local\Temp\ccZQPmnq.s:184    .text.RCC_HSICmd:0000000000000008 .L0 
C:\Users\LOCALH~1\AppData\Local\Temp\ccZQPmnq.s:187    .text.RCC_HSICmd:000000000000000c .L0 
C:\Users\LOCALH~1\AppData\Local\Temp\ccZQPmnq.s:189    .text.RCC_HSICmd:000000000000000e .L0 
C:\Users\LOCALH~1\AppData\Local\Temp\ccZQPmnq.s:192    .text.RCC_HSICmd:0000000000000010 .L0 
C:\Users\LOCALH~1\AppData\Local\Temp\ccZQPmnq.s:193    .text.RCC_HSICmd:0000000000000010 .L0 
C:\Users\LOCALH~1\AppData\Local\Temp\ccZQPmnq.s:195    .text.RCC_HSICmd:0000000000000014 .L0 
C:\Users\LOCALH~1\AppData\Local\Temp\ccZQPmnq.s:202    .text.RCC_PLLConfig:0000000000000000 RCC_PLLConfig
C:\Users\LOCALH~1\AppData\Local\Temp\ccZQPmnq.s:205    .text.RCC_PLLConfig:0000000000000000 .L0 
C:\Users\LOCALH~1\AppData\Local\Temp\ccZQPmnq.s:207    .text.RCC_PLLConfig:0000000000000000 .L0 
C:\Users\LOCALH~1\AppData\Local\Temp\ccZQPmnq.s:208    .text.RCC_PLLConfig:0000000000000000 .L0 
C:\Users\LOCALH~1\AppData\Local\Temp\ccZQPmnq.s:209    .text.RCC_PLLConfig:0000000000000000 .L0 
C:\Users\LOCALH~1\AppData\Local\Temp\ccZQPmnq.s:210    .text.RCC_PLLConfig:0000000000000000 $x
C:\Users\LOCALH~1\AppData\Local\Temp\ccZQPmnq.s:210    .text.RCC_PLLConfig:0000000000000000 .L0 
C:\Users\LOCALH~1\AppData\Local\Temp\ccZQPmnq.s:213    .text.RCC_PLLConfig:0000000000000008 .L0 
C:\Users\LOCALH~1\AppData\Local\Temp\ccZQPmnq.s:215    .text.RCC_PLLConfig:000000000000000c .L0 
C:\Users\LOCALH~1\AppData\Local\Temp\ccZQPmnq.s:217    .text.RCC_PLLConfig:000000000000000e .L0 
C:\Users\LOCALH~1\AppData\Local\Temp\ccZQPmnq.s:220    .text.RCC_PLLConfig:0000000000000010 .L0 
C:\Users\LOCALH~1\AppData\Local\Temp\ccZQPmnq.s:221    .text.RCC_PLLConfig:0000000000000010 .L0 
C:\Users\LOCALH~1\AppData\Local\Temp\ccZQPmnq.s:223    .text.RCC_PLLConfig:0000000000000012 .L0 
C:\Users\LOCALH~1\AppData\Local\Temp\ccZQPmnq.s:225    .text.RCC_PLLConfig:0000000000000014 .L0 
C:\Users\LOCALH~1\AppData\Local\Temp\ccZQPmnq.s:226    .text.RCC_PLLConfig:0000000000000014 .L0 
C:\Users\LOCALH~1\AppData\Local\Temp\ccZQPmnq.s:229    .text.RCC_PLLConfig:0000000000000018 .L0 
C:\Users\LOCALH~1\AppData\Local\Temp\ccZQPmnq.s:233    .text.RCC_PLLConfig:000000000000001c .L0 
C:\Users\LOCALH~1\AppData\Local\Temp\ccZQPmnq.s:234    .text.RCC_PLLConfig:000000000000001c .L0 
C:\Users\LOCALH~1\AppData\Local\Temp\ccZQPmnq.s:237    .text.RCC_PLLConfig:000000000000001e .L0 
C:\Users\LOCALH~1\AppData\Local\Temp\ccZQPmnq.s:240    .text.RCC_PLLConfig:0000000000000020 .L0 
C:\Users\LOCALH~1\AppData\Local\Temp\ccZQPmnq.s:241    .text.RCC_PLLConfig:0000000000000020 .L0 
C:\Users\LOCALH~1\AppData\Local\Temp\ccZQPmnq.s:244    .text.RCC_PLLConfig:0000000000000026 .L0 
C:\Users\LOCALH~1\AppData\Local\Temp\ccZQPmnq.s:248    .text.RCC_PLLConfig:0000000000000028 .L0 
C:\Users\LOCALH~1\AppData\Local\Temp\ccZQPmnq.s:249    .text.RCC_PLLConfig:0000000000000028 .L0 
C:\Users\LOCALH~1\AppData\Local\Temp\ccZQPmnq.s:251    .text.RCC_PLLConfig:000000000000002e .L0 
C:\Users\LOCALH~1\AppData\Local\Temp\ccZQPmnq.s:258    .text.RCC_PLLCmd:0000000000000000 RCC_PLLCmd
C:\Users\LOCALH~1\AppData\Local\Temp\ccZQPmnq.s:261    .text.RCC_PLLCmd:0000000000000000 .L0 
C:\Users\LOCALH~1\AppData\Local\Temp\ccZQPmnq.s:263    .text.RCC_PLLCmd:0000000000000000 .L0 
C:\Users\LOCALH~1\AppData\Local\Temp\ccZQPmnq.s:264    .text.RCC_PLLCmd:0000000000000000 .L0 
C:\Users\LOCALH~1\AppData\Local\Temp\ccZQPmnq.s:265    .text.RCC_PLLCmd:0000000000000000 $x
C:\Users\LOCALH~1\AppData\Local\Temp\ccZQPmnq.s:265    .text.RCC_PLLCmd:0000000000000000 .L0 
C:\Users\LOCALH~1\AppData\Local\Temp\ccZQPmnq.s:267    .text.RCC_PLLCmd:0000000000000002 .L0 
C:\Users\LOCALH~1\AppData\Local\Temp\ccZQPmnq.s:268    .text.RCC_PLLCmd:0000000000000002 .L0 
C:\Users\LOCALH~1\AppData\Local\Temp\ccZQPmnq.s:271    .text.RCC_PLLCmd:0000000000000008 .L0 
C:\Users\LOCALH~1\AppData\Local\Temp\ccZQPmnq.s:277    .text.RCC_PLLCmd:0000000000000012 .L0 
C:\Users\LOCALH~1\AppData\Local\Temp\ccZQPmnq.s:278    .text.RCC_PLLCmd:0000000000000012 .L0 
C:\Users\LOCALH~1\AppData\Local\Temp\ccZQPmnq.s:281    .text.RCC_PLLCmd:0000000000000018 .L0 
C:\Users\LOCALH~1\AppData\Local\Temp\ccZQPmnq.s:286    .text.RCC_PLLCmd:0000000000000022 .L0 
C:\Users\LOCALH~1\AppData\Local\Temp\ccZQPmnq.s:287    .text.RCC_PLLCmd:0000000000000024 .L0 
C:\Users\LOCALH~1\AppData\Local\Temp\ccZQPmnq.s:294    .text.RCC_SYSCLKConfig:0000000000000000 RCC_SYSCLKConfig
C:\Users\LOCALH~1\AppData\Local\Temp\ccZQPmnq.s:297    .text.RCC_SYSCLKConfig:0000000000000000 .L0 
C:\Users\LOCALH~1\AppData\Local\Temp\ccZQPmnq.s:299    .text.RCC_SYSCLKConfig:0000000000000000 .L0 
C:\Users\LOCALH~1\AppData\Local\Temp\ccZQPmnq.s:300    .text.RCC_SYSCLKConfig:0000000000000000 .L0 
C:\Users\LOCALH~1\AppData\Local\Temp\ccZQPmnq.s:301    .text.RCC_SYSCLKConfig:0000000000000000 .L0 
C:\Users\LOCALH~1\AppData\Local\Temp\ccZQPmnq.s:302    .text.RCC_SYSCLKConfig:0000000000000000 $x
C:\Users\LOCALH~1\AppData\Local\Temp\ccZQPmnq.s:302    .text.RCC_SYSCLKConfig:0000000000000000 .L0 
C:\Users\LOCALH~1\AppData\Local\Temp\ccZQPmnq.s:306    .text.RCC_SYSCLKConfig:0000000000000006 .L0 
C:\Users\LOCALH~1\AppData\Local\Temp\ccZQPmnq.s:307    .text.RCC_SYSCLKConfig:0000000000000006 .L0 
C:\Users\LOCALH~1\AppData\Local\Temp\ccZQPmnq.s:310    .text.RCC_SYSCLKConfig:0000000000000008 .L0 
C:\Users\LOCALH~1\AppData\Local\Temp\ccZQPmnq.s:311    .text.RCC_SYSCLKConfig:0000000000000008 .L0 
C:\Users\LOCALH~1\AppData\Local\Temp\ccZQPmnq.s:314    .text.RCC_SYSCLKConfig:000000000000000a .L0 
C:\Users\LOCALH~1\AppData\Local\Temp\ccZQPmnq.s:315    .text.RCC_SYSCLKConfig:000000000000000a .L0 
C:\Users\LOCALH~1\AppData\Local\Temp\ccZQPmnq.s:317    .text.RCC_SYSCLKConfig:000000000000000c .L0 
C:\Users\LOCALH~1\AppData\Local\Temp\ccZQPmnq.s:318    .text.RCC_SYSCLKConfig:000000000000000e .L0 
C:\Users\LOCALH~1\AppData\Local\Temp\ccZQPmnq.s:325    .text.RCC_GetSYSCLKSource:0000000000000000 RCC_GetSYSCLKSource
C:\Users\LOCALH~1\AppData\Local\Temp\ccZQPmnq.s:328    .text.RCC_GetSYSCLKSource:0000000000000000 .L0 
C:\Users\LOCALH~1\AppData\Local\Temp\ccZQPmnq.s:329    .text.RCC_GetSYSCLKSource:0000000000000000 .L0 
C:\Users\LOCALH~1\AppData\Local\Temp\ccZQPmnq.s:330    .text.RCC_GetSYSCLKSource:0000000000000000 .L0 
C:\Users\LOCALH~1\AppData\Local\Temp\ccZQPmnq.s:331    .text.RCC_GetSYSCLKSource:0000000000000000 $x
C:\Users\LOCALH~1\AppData\Local\Temp\ccZQPmnq.s:331    .text.RCC_GetSYSCLKSource:0000000000000000 .L0 
C:\Users\LOCALH~1\AppData\Local\Temp\ccZQPmnq.s:334    .text.RCC_GetSYSCLKSource:0000000000000006 .L0 
C:\Users\LOCALH~1\AppData\Local\Temp\ccZQPmnq.s:336    .text.RCC_GetSYSCLKSource:000000000000000a .L0 
C:\Users\LOCALH~1\AppData\Local\Temp\ccZQPmnq.s:343    .text.RCC_HCLKConfig:0000000000000000 RCC_HCLKConfig
C:\Users\LOCALH~1\AppData\Local\Temp\ccZQPmnq.s:346    .text.RCC_HCLKConfig:0000000000000000 .L0 
C:\Users\LOCALH~1\AppData\Local\Temp\ccZQPmnq.s:348    .text.RCC_HCLKConfig:0000000000000000 .L0 
C:\Users\LOCALH~1\AppData\Local\Temp\ccZQPmnq.s:349    .text.RCC_HCLKConfig:0000000000000000 .L0 
C:\Users\LOCALH~1\AppData\Local\Temp\ccZQPmnq.s:350    .text.RCC_HCLKConfig:0000000000000000 .L0 
C:\Users\LOCALH~1\AppData\Local\Temp\ccZQPmnq.s:351    .text.RCC_HCLKConfig:0000000000000000 $x
C:\Users\LOCALH~1\AppData\Local\Temp\ccZQPmnq.s:351    .text.RCC_HCLKConfig:0000000000000000 .L0 
C:\Users\LOCALH~1\AppData\Local\Temp\ccZQPmnq.s:355    .text.RCC_HCLKConfig:0000000000000006 .L0 
C:\Users\LOCALH~1\AppData\Local\Temp\ccZQPmnq.s:356    .text.RCC_HCLKConfig:0000000000000006 .L0 
C:\Users\LOCALH~1\AppData\Local\Temp\ccZQPmnq.s:359    .text.RCC_HCLKConfig:000000000000000a .L0 
C:\Users\LOCALH~1\AppData\Local\Temp\ccZQPmnq.s:360    .text.RCC_HCLKConfig:000000000000000a .L0 
C:\Users\LOCALH~1\AppData\Local\Temp\ccZQPmnq.s:363    .text.RCC_HCLKConfig:000000000000000c .L0 
C:\Users\LOCALH~1\AppData\Local\Temp\ccZQPmnq.s:364    .text.RCC_HCLKConfig:000000000000000c .L0 
C:\Users\LOCALH~1\AppData\Local\Temp\ccZQPmnq.s:366    .text.RCC_HCLKConfig:000000000000000e .L0 
C:\Users\LOCALH~1\AppData\Local\Temp\ccZQPmnq.s:367    .text.RCC_HCLKConfig:0000000000000010 .L0 
C:\Users\LOCALH~1\AppData\Local\Temp\ccZQPmnq.s:374    .text.RCC_PCLK1Config:0000000000000000 RCC_PCLK1Config
C:\Users\LOCALH~1\AppData\Local\Temp\ccZQPmnq.s:377    .text.RCC_PCLK1Config:0000000000000000 .L0 
C:\Users\LOCALH~1\AppData\Local\Temp\ccZQPmnq.s:379    .text.RCC_PCLK1Config:0000000000000000 .L0 
C:\Users\LOCALH~1\AppData\Local\Temp\ccZQPmnq.s:380    .text.RCC_PCLK1Config:0000000000000000 .L0 
C:\Users\LOCALH~1\AppData\Local\Temp\ccZQPmnq.s:381    .text.RCC_PCLK1Config:0000000000000000 .L0 
C:\Users\LOCALH~1\AppData\Local\Temp\ccZQPmnq.s:382    .text.RCC_PCLK1Config:0000000000000000 $x
C:\Users\LOCALH~1\AppData\Local\Temp\ccZQPmnq.s:382    .text.RCC_PCLK1Config:0000000000000000 .L0 
C:\Users\LOCALH~1\AppData\Local\Temp\ccZQPmnq.s:386    .text.RCC_PCLK1Config:0000000000000006 .L0 
C:\Users\LOCALH~1\AppData\Local\Temp\ccZQPmnq.s:387    .text.RCC_PCLK1Config:0000000000000006 .L0 
C:\Users\LOCALH~1\AppData\Local\Temp\ccZQPmnq.s:390    .text.RCC_PCLK1Config:000000000000000a .L0 
C:\Users\LOCALH~1\AppData\Local\Temp\ccZQPmnq.s:391    .text.RCC_PCLK1Config:000000000000000a .L0 
C:\Users\LOCALH~1\AppData\Local\Temp\ccZQPmnq.s:394    .text.RCC_PCLK1Config:000000000000000c .L0 
C:\Users\LOCALH~1\AppData\Local\Temp\ccZQPmnq.s:395    .text.RCC_PCLK1Config:000000000000000c .L0 
C:\Users\LOCALH~1\AppData\Local\Temp\ccZQPmnq.s:397    .text.RCC_PCLK1Config:000000000000000e .L0 
C:\Users\LOCALH~1\AppData\Local\Temp\ccZQPmnq.s:398    .text.RCC_PCLK1Config:0000000000000010 .L0 
C:\Users\LOCALH~1\AppData\Local\Temp\ccZQPmnq.s:405    .text.RCC_PCLK2Config:0000000000000000 RCC_PCLK2Config
C:\Users\LOCALH~1\AppData\Local\Temp\ccZQPmnq.s:408    .text.RCC_PCLK2Config:0000000000000000 .L0 
C:\Users\LOCALH~1\AppData\Local\Temp\ccZQPmnq.s:410    .text.RCC_PCLK2Config:0000000000000000 .L0 
C:\Users\LOCALH~1\AppData\Local\Temp\ccZQPmnq.s:411    .text.RCC_PCLK2Config:0000000000000000 .L0 
C:\Users\LOCALH~1\AppData\Local\Temp\ccZQPmnq.s:412    .text.RCC_PCLK2Config:0000000000000000 .L0 
C:\Users\LOCALH~1\AppData\Local\Temp\ccZQPmnq.s:413    .text.RCC_PCLK2Config:0000000000000000 $x
C:\Users\LOCALH~1\AppData\Local\Temp\ccZQPmnq.s:413    .text.RCC_PCLK2Config:0000000000000000 .L0 
C:\Users\LOCALH~1\AppData\Local\Temp\ccZQPmnq.s:417    .text.RCC_PCLK2Config:0000000000000006 .L0 
C:\Users\LOCALH~1\AppData\Local\Temp\ccZQPmnq.s:418    .text.RCC_PCLK2Config:0000000000000006 .L0 
C:\Users\LOCALH~1\AppData\Local\Temp\ccZQPmnq.s:423    .text.RCC_PCLK2Config:000000000000000e .L0 
C:\Users\LOCALH~1\AppData\Local\Temp\ccZQPmnq.s:424    .text.RCC_PCLK2Config:000000000000000e .L0 
C:\Users\LOCALH~1\AppData\Local\Temp\ccZQPmnq.s:427    .text.RCC_PCLK2Config:0000000000000010 .L0 
C:\Users\LOCALH~1\AppData\Local\Temp\ccZQPmnq.s:430    .text.RCC_PCLK2Config:0000000000000012 .L0 
C:\Users\LOCALH~1\AppData\Local\Temp\ccZQPmnq.s:431    .text.RCC_PCLK2Config:0000000000000012 .L0 
C:\Users\LOCALH~1\AppData\Local\Temp\ccZQPmnq.s:433    .text.RCC_PCLK2Config:0000000000000014 .L0 
C:\Users\LOCALH~1\AppData\Local\Temp\ccZQPmnq.s:434    .text.RCC_PCLK2Config:0000000000000016 .L0 
C:\Users\LOCALH~1\AppData\Local\Temp\ccZQPmnq.s:441    .text.RCC_ITConfig:0000000000000000 RCC_ITConfig
C:\Users\LOCALH~1\AppData\Local\Temp\ccZQPmnq.s:444    .text.RCC_ITConfig:0000000000000000 .L0 
C:\Users\LOCALH~1\AppData\Local\Temp\ccZQPmnq.s:446    .text.RCC_ITConfig:0000000000000000 .L0 
C:\Users\LOCALH~1\AppData\Local\Temp\ccZQPmnq.s:447    .text.RCC_ITConfig:0000000000000000 .L0 
C:\Users\LOCALH~1\AppData\Local\Temp\ccZQPmnq.s:448    .text.RCC_ITConfig:0000000000000000 $x
C:\Users\LOCALH~1\AppData\Local\Temp\ccZQPmnq.s:448    .text.RCC_ITConfig:0000000000000000 .L0 
C:\Users\LOCALH~1\AppData\Local\Temp\ccZQPmnq.s:451    .text.RCC_ITConfig:0000000000000006 .L0 
C:\Users\LOCALH~1\AppData\Local\Temp\ccZQPmnq.s:453    .text.RCC_ITConfig:0000000000000008 .L0 
C:\Users\LOCALH~1\AppData\Local\Temp\ccZQPmnq.s:454    .text.RCC_ITConfig:0000000000000008 .L0 
C:\Users\LOCALH~1\AppData\Local\Temp\ccZQPmnq.s:458    .text.RCC_ITConfig:000000000000000a .L0 
C:\Users\LOCALH~1\AppData\Local\Temp\ccZQPmnq.s:460    .text.RCC_ITConfig:000000000000000c .L0 
C:\Users\LOCALH~1\AppData\Local\Temp\ccZQPmnq.s:464    .text.RCC_ITConfig:000000000000000e .L0 
C:\Users\LOCALH~1\AppData\Local\Temp\ccZQPmnq.s:465    .text.RCC_ITConfig:000000000000000e .L0 
C:\Users\LOCALH~1\AppData\Local\Temp\ccZQPmnq.s:468    .text.RCC_ITConfig:0000000000000012 .L0 
C:\Users\LOCALH~1\AppData\Local\Temp\ccZQPmnq.s:470    .text.RCC_ITConfig:0000000000000016 .L0 
C:\Users\LOCALH~1\AppData\Local\Temp\ccZQPmnq.s:477    .text.RCC_ADCCLKConfig:0000000000000000 RCC_ADCCLKConfig
C:\Users\LOCALH~1\AppData\Local\Temp\ccZQPmnq.s:480    .text.RCC_ADCCLKConfig:0000000000000000 .L0 
C:\Users\LOCALH~1\AppData\Local\Temp\ccZQPmnq.s:482    .text.RCC_ADCCLKConfig:0000000000000000 .L0 
C:\Users\LOCALH~1\AppData\Local\Temp\ccZQPmnq.s:483    .text.RCC_ADCCLKConfig:0000000000000000 .L0 
C:\Users\LOCALH~1\AppData\Local\Temp\ccZQPmnq.s:484    .text.RCC_ADCCLKConfig:0000000000000000 .L0 
C:\Users\LOCALH~1\AppData\Local\Temp\ccZQPmnq.s:485    .text.RCC_ADCCLKConfig:0000000000000000 $x
C:\Users\LOCALH~1\AppData\Local\Temp\ccZQPmnq.s:485    .text.RCC_ADCCLKConfig:0000000000000000 .L0 
C:\Users\LOCALH~1\AppData\Local\Temp\ccZQPmnq.s:489    .text.RCC_ADCCLKConfig:0000000000000006 .L0 
C:\Users\LOCALH~1\AppData\Local\Temp\ccZQPmnq.s:490    .text.RCC_ADCCLKConfig:0000000000000006 .L0 
C:\Users\LOCALH~1\AppData\Local\Temp\ccZQPmnq.s:495    .text.RCC_ADCCLKConfig:000000000000000c .L0 
C:\Users\LOCALH~1\AppData\Local\Temp\ccZQPmnq.s:496    .text.RCC_ADCCLKConfig:000000000000000c .L0 
C:\Users\LOCALH~1\AppData\Local\Temp\ccZQPmnq.s:499    .text.RCC_ADCCLKConfig:000000000000000e .L0 
C:\Users\LOCALH~1\AppData\Local\Temp\ccZQPmnq.s:500    .text.RCC_ADCCLKConfig:000000000000000e .L0 
C:\Users\LOCALH~1\AppData\Local\Temp\ccZQPmnq.s:502    .text.RCC_ADCCLKConfig:0000000000000010 .L0 
C:\Users\LOCALH~1\AppData\Local\Temp\ccZQPmnq.s:503    .text.RCC_ADCCLKConfig:0000000000000012 .L0 
C:\Users\LOCALH~1\AppData\Local\Temp\ccZQPmnq.s:510    .text.RCC_LSEConfig:0000000000000000 RCC_LSEConfig
C:\Users\LOCALH~1\AppData\Local\Temp\ccZQPmnq.s:513    .text.RCC_LSEConfig:0000000000000000 .L0 
C:\Users\LOCALH~1\AppData\Local\Temp\ccZQPmnq.s:515    .text.RCC_LSEConfig:0000000000000000 .L0 
C:\Users\LOCALH~1\AppData\Local\Temp\ccZQPmnq.s:516    .text.RCC_LSEConfig:0000000000000000 .L0 
C:\Users\LOCALH~1\AppData\Local\Temp\ccZQPmnq.s:517    .text.RCC_LSEConfig:0000000000000000 $x
C:\Users\LOCALH~1\AppData\Local\Temp\ccZQPmnq.s:517    .text.RCC_LSEConfig:0000000000000000 .L0 
C:\Users\LOCALH~1\AppData\Local\Temp\ccZQPmnq.s:520    .text.RCC_LSEConfig:0000000000000008 .L0 
C:\Users\LOCALH~1\AppData\Local\Temp\ccZQPmnq.s:521    .text.RCC_LSEConfig:0000000000000008 .L0 
C:\Users\LOCALH~1\AppData\Local\Temp\ccZQPmnq.s:523    .text.RCC_LSEConfig:000000000000000c .L0 
C:\Users\LOCALH~1\AppData\Local\Temp\ccZQPmnq.s:530    .text.RCC_LSEConfig:000000000000001a .L0 
C:\Users\LOCALH~1\AppData\Local\Temp\ccZQPmnq.s:531    .text.RCC_LSEConfig:000000000000001a .L0 
C:\Users\LOCALH~1\AppData\Local\Temp\ccZQPmnq.s:533    .text.RCC_LSEConfig:000000000000001e .L0 
C:\Users\LOCALH~1\AppData\Local\Temp\ccZQPmnq.s:536    .text.RCC_LSEConfig:0000000000000020 .L0 
C:\Users\LOCALH~1\AppData\Local\Temp\ccZQPmnq.s:537    .text.RCC_LSEConfig:0000000000000020 .L0 
C:\Users\LOCALH~1\AppData\Local\Temp\ccZQPmnq.s:540    .text.RCC_LSEConfig:0000000000000026 .L0 
C:\Users\LOCALH~1\AppData\Local\Temp\ccZQPmnq.s:541    .text.RCC_LSEConfig:0000000000000026 .L0 
C:\Users\LOCALH~1\AppData\Local\Temp\ccZQPmnq.s:542    .text.RCC_LSEConfig:0000000000000028 .L0 
C:\Users\LOCALH~1\AppData\Local\Temp\ccZQPmnq.s:549    .text.RCC_LSICmd:0000000000000000 RCC_LSICmd
C:\Users\LOCALH~1\AppData\Local\Temp\ccZQPmnq.s:552    .text.RCC_LSICmd:0000000000000000 .L0 
C:\Users\LOCALH~1\AppData\Local\Temp\ccZQPmnq.s:554    .text.RCC_LSICmd:0000000000000000 .L0 
C:\Users\LOCALH~1\AppData\Local\Temp\ccZQPmnq.s:555    .text.RCC_LSICmd:0000000000000000 .L0 
C:\Users\LOCALH~1\AppData\Local\Temp\ccZQPmnq.s:556    .text.RCC_LSICmd:0000000000000000 $x
C:\Users\LOCALH~1\AppData\Local\Temp\ccZQPmnq.s:556    .text.RCC_LSICmd:0000000000000000 .L0 
C:\Users\LOCALH~1\AppData\Local\Temp\ccZQPmnq.s:559    .text.RCC_LSICmd:0000000000000006 .L0 
C:\Users\LOCALH~1\AppData\Local\Temp\ccZQPmnq.s:561    .text.RCC_LSICmd:0000000000000008 .L0 
C:\Users\LOCALH~1\AppData\Local\Temp\ccZQPmnq.s:562    .text.RCC_LSICmd:0000000000000008 .L0 
C:\Users\LOCALH~1\AppData\Local\Temp\ccZQPmnq.s:565    .text.RCC_LSICmd:000000000000000c .L0 
C:\Users\LOCALH~1\AppData\Local\Temp\ccZQPmnq.s:567    .text.RCC_LSICmd:000000000000000e .L0 
C:\Users\LOCALH~1\AppData\Local\Temp\ccZQPmnq.s:570    .text.RCC_LSICmd:0000000000000010 .L0 
C:\Users\LOCALH~1\AppData\Local\Temp\ccZQPmnq.s:571    .text.RCC_LSICmd:0000000000000010 .L0 
C:\Users\LOCALH~1\AppData\Local\Temp\ccZQPmnq.s:573    .text.RCC_LSICmd:0000000000000014 .L0 
C:\Users\LOCALH~1\AppData\Local\Temp\ccZQPmnq.s:580    .text.RCC_RTCCLKConfig:0000000000000000 RCC_RTCCLKConfig
C:\Users\LOCALH~1\AppData\Local\Temp\ccZQPmnq.s:583    .text.RCC_RTCCLKConfig:0000000000000000 .L0 
C:\Users\LOCALH~1\AppData\Local\Temp\ccZQPmnq.s:585    .text.RCC_RTCCLKConfig:0000000000000000 .L0 
C:\Users\LOCALH~1\AppData\Local\Temp\ccZQPmnq.s:586    .text.RCC_RTCCLKConfig:0000000000000000 .L0 
C:\Users\LOCALH~1\AppData\Local\Temp\ccZQPmnq.s:587    .text.RCC_RTCCLKConfig:0000000000000000 $x
C:\Users\LOCALH~1\AppData\Local\Temp\ccZQPmnq.s:587    .text.RCC_RTCCLKConfig:0000000000000000 .L0 
C:\Users\LOCALH~1\AppData\Local\Temp\ccZQPmnq.s:590    .text.RCC_RTCCLKConfig:0000000000000006 .L0 
C:\Users\LOCALH~1\AppData\Local\Temp\ccZQPmnq.s:593    .text.RCC_RTCCLKConfig:000000000000000a .L0 
C:\Users\LOCALH~1\AppData\Local\Temp\ccZQPmnq.s:594    .text.RCC_RTCCLKConfig:000000000000000c .L0 
C:\Users\LOCALH~1\AppData\Local\Temp\ccZQPmnq.s:601    .text.RCC_RTCCLKCmd:0000000000000000 RCC_RTCCLKCmd
C:\Users\LOCALH~1\AppData\Local\Temp\ccZQPmnq.s:604    .text.RCC_RTCCLKCmd:0000000000000000 .L0 
C:\Users\LOCALH~1\AppData\Local\Temp\ccZQPmnq.s:606    .text.RCC_RTCCLKCmd:0000000000000000 .L0 
C:\Users\LOCALH~1\AppData\Local\Temp\ccZQPmnq.s:607    .text.RCC_RTCCLKCmd:0000000000000000 .L0 
C:\Users\LOCALH~1\AppData\Local\Temp\ccZQPmnq.s:608    .text.RCC_RTCCLKCmd:0000000000000000 $x
C:\Users\LOCALH~1\AppData\Local\Temp\ccZQPmnq.s:608    .text.RCC_RTCCLKCmd:0000000000000000 .L0 
C:\Users\LOCALH~1\AppData\Local\Temp\ccZQPmnq.s:610    .text.RCC_RTCCLKCmd:0000000000000002 .L0 
C:\Users\LOCALH~1\AppData\Local\Temp\ccZQPmnq.s:611    .text.RCC_RTCCLKCmd:0000000000000002 .L0 
C:\Users\LOCALH~1\AppData\Local\Temp\ccZQPmnq.s:614    .text.RCC_RTCCLKCmd:0000000000000008 .L0 
C:\Users\LOCALH~1\AppData\Local\Temp\ccZQPmnq.s:620    .text.RCC_RTCCLKCmd:0000000000000010 .L0 
C:\Users\LOCALH~1\AppData\Local\Temp\ccZQPmnq.s:621    .text.RCC_RTCCLKCmd:0000000000000010 .L0 
C:\Users\LOCALH~1\AppData\Local\Temp\ccZQPmnq.s:624    .text.RCC_RTCCLKCmd:0000000000000016 .L0 
C:\Users\LOCALH~1\AppData\Local\Temp\ccZQPmnq.s:629    .text.RCC_RTCCLKCmd:000000000000001e .L0 
C:\Users\LOCALH~1\AppData\Local\Temp\ccZQPmnq.s:630    .text.RCC_RTCCLKCmd:0000000000000020 .L0 
C:\Users\LOCALH~1\AppData\Local\Temp\ccZQPmnq.s:637    .text.RCC_GetClocksFreq:0000000000000000 RCC_GetClocksFreq
C:\Users\LOCALH~1\AppData\Local\Temp\ccZQPmnq.s:640    .text.RCC_GetClocksFreq:0000000000000000 .L0 
C:\Users\LOCALH~1\AppData\Local\Temp\ccZQPmnq.s:642    .text.RCC_GetClocksFreq:0000000000000000 .L0 
C:\Users\LOCALH~1\AppData\Local\Temp\ccZQPmnq.s:643    .text.RCC_GetClocksFreq:0000000000000000 .L0 
C:\Users\LOCALH~1\AppData\Local\Temp\ccZQPmnq.s:644    .text.RCC_GetClocksFreq:0000000000000000 .L0 
C:\Users\LOCALH~1\AppData\Local\Temp\ccZQPmnq.s:645    .text.RCC_GetClocksFreq:0000000000000000 .L0 
C:\Users\LOCALH~1\AppData\Local\Temp\ccZQPmnq.s:646    .text.RCC_GetClocksFreq:0000000000000000 .L0 
C:\Users\LOCALH~1\AppData\Local\Temp\ccZQPmnq.s:647    .text.RCC_GetClocksFreq:0000000000000000 $x
C:\Users\LOCALH~1\AppData\Local\Temp\ccZQPmnq.s:647    .text.RCC_GetClocksFreq:0000000000000000 .L0 
C:\Users\LOCALH~1\AppData\Local\Temp\ccZQPmnq.s:651    .text.RCC_GetClocksFreq:0000000000000006 .L0 
C:\Users\LOCALH~1\AppData\Local\Temp\ccZQPmnq.s:653    .text.RCC_GetClocksFreq:0000000000000008 .L0 
C:\Users\LOCALH~1\AppData\Local\Temp\ccZQPmnq.s:656    .text.RCC_GetClocksFreq:000000000000000a .L0 
C:\Users\LOCALH~1\AppData\Local\Temp\ccZQPmnq.s:658    .text.RCC_GetClocksFreq:000000000000000e .L0 
C:\Users\LOCALH~1\AppData\Local\Temp\ccZQPmnq.s:659    .text.RCC_GetClocksFreq:000000000000000e .L0 
C:\Users\LOCALH~1\AppData\Local\Temp\ccZQPmnq.s:665    .text.RCC_GetClocksFreq:0000000000000016 .L0 
C:\Users\LOCALH~1\AppData\Local\Temp\ccZQPmnq.s:667    .text.RCC_GetClocksFreq:0000000000000018 .L0 
C:\Users\LOCALH~1\AppData\Local\Temp\ccZQPmnq.s:668    .text.RCC_GetClocksFreq:0000000000000018 .L0 
C:\Users\LOCALH~1\AppData\Local\Temp\ccZQPmnq.s:672    .text.RCC_GetClocksFreq:000000000000001e .L0 
C:\Users\LOCALH~1\AppData\Local\Temp\ccZQPmnq.s:2100   .data.APBAHBPrescTable:0000000000000000 APBAHBPrescTable
C:\Users\LOCALH~1\AppData\Local\Temp\ccZQPmnq.s:673    .text.RCC_GetClocksFreq:000000000000001e .L0 
C:\Users\LOCALH~1\AppData\Local\Temp\ccZQPmnq.s:675    .text.RCC_GetClocksFreq:0000000000000026 .L0 
C:\Users\LOCALH~1\AppData\Local\Temp\ccZQPmnq.s:680    .text.RCC_GetClocksFreq:000000000000002a .L0 
C:\Users\LOCALH~1\AppData\Local\Temp\ccZQPmnq.s:681    .text.RCC_GetClocksFreq:000000000000002a .L0 
C:\Users\LOCALH~1\AppData\Local\Temp\ccZQPmnq.s:686    .text.RCC_GetClocksFreq:000000000000002e .L0 
C:\Users\LOCALH~1\AppData\Local\Temp\ccZQPmnq.s:687    .text.RCC_GetClocksFreq:000000000000002e .L0 
C:\Users\LOCALH~1\AppData\Local\Temp\ccZQPmnq.s:690    .text.RCC_GetClocksFreq:0000000000000034 .L0 
C:\Users\LOCALH~1\AppData\Local\Temp\ccZQPmnq.s:692    .text.RCC_GetClocksFreq:0000000000000036 .L0 
C:\Users\LOCALH~1\AppData\Local\Temp\ccZQPmnq.s:693    .text.RCC_GetClocksFreq:0000000000000036 .L0 
C:\Users\LOCALH~1\AppData\Local\Temp\ccZQPmnq.s:696    .text.RCC_GetClocksFreq:0000000000000038 .L0 
C:\Users\LOCALH~1\AppData\Local\Temp\ccZQPmnq.s:697    .text.RCC_GetClocksFreq:0000000000000038 .L0 
C:\Users\LOCALH~1\AppData\Local\Temp\ccZQPmnq.s:702    .text.RCC_GetClocksFreq:000000000000003c .L0 
C:\Users\LOCALH~1\AppData\Local\Temp\ccZQPmnq.s:703    .text.RCC_GetClocksFreq:000000000000003c .L0 
C:\Users\LOCALH~1\AppData\Local\Temp\ccZQPmnq.s:708    .text.RCC_GetClocksFreq:0000000000000040 .L0 
C:\Users\LOCALH~1\AppData\Local\Temp\ccZQPmnq.s:709    .text.RCC_GetClocksFreq:0000000000000040 .L0 
C:\Users\LOCALH~1\AppData\Local\Temp\ccZQPmnq.s:712    .text.RCC_GetClocksFreq:0000000000000044 .L0 
C:\Users\LOCALH~1\AppData\Local\Temp\ccZQPmnq.s:714    .text.RCC_GetClocksFreq:0000000000000046 .L0 
C:\Users\LOCALH~1\AppData\Local\Temp\ccZQPmnq.s:715    .text.RCC_GetClocksFreq:0000000000000046 .L0 
C:\Users\LOCALH~1\AppData\Local\Temp\ccZQPmnq.s:718    .text.RCC_GetClocksFreq:0000000000000048 .L0 
C:\Users\LOCALH~1\AppData\Local\Temp\ccZQPmnq.s:719    .text.RCC_GetClocksFreq:0000000000000048 .L0 
C:\Users\LOCALH~1\AppData\Local\Temp\ccZQPmnq.s:724    .text.RCC_GetClocksFreq:000000000000004c .L0 
C:\Users\LOCALH~1\AppData\Local\Temp\ccZQPmnq.s:725    .text.RCC_GetClocksFreq:000000000000004c .L0 
C:\Users\LOCALH~1\AppData\Local\Temp\ccZQPmnq.s:729    .text.RCC_GetClocksFreq:0000000000000050 .L0 
C:\Users\LOCALH~1\AppData\Local\Temp\ccZQPmnq.s:2094   .sdata.ADCPrescTable:0000000000000000 ADCPrescTable
C:\Users\LOCALH~1\AppData\Local\Temp\ccZQPmnq.s:730    .text.RCC_GetClocksFreq:0000000000000050 .L0 
C:\Users\LOCALH~1\AppData\Local\Temp\ccZQPmnq.s:732    .text.RCC_GetClocksFreq:0000000000000058 .L0 
C:\Users\LOCALH~1\AppData\Local\Temp\ccZQPmnq.s:734    .text.RCC_GetClocksFreq:000000000000005c .L0 
C:\Users\LOCALH~1\AppData\Local\Temp\ccZQPmnq.s:736    .text.RCC_GetClocksFreq:000000000000005e .L0 
C:\Users\LOCALH~1\AppData\Local\Temp\ccZQPmnq.s:737    .text.RCC_GetClocksFreq:000000000000005e .L0 
C:\Users\LOCALH~1\AppData\Local\Temp\ccZQPmnq.s:740    .text.RCC_GetClocksFreq:0000000000000060 .L0 
C:\Users\LOCALH~1\AppData\Local\Temp\ccZQPmnq.s:741    .text.RCC_GetClocksFreq:0000000000000060 .L0 
C:\Users\LOCALH~1\AppData\Local\Temp\ccZQPmnq.s:746    .text.RCC_GetClocksFreq:0000000000000064 .L0 
C:\Users\LOCALH~1\AppData\Local\Temp\ccZQPmnq.s:747    .text.RCC_GetClocksFreq:0000000000000064 .L0 
C:\Users\LOCALH~1\AppData\Local\Temp\ccZQPmnq.s:752    .text.RCC_GetClocksFreq:0000000000000068 .L0 
C:\Users\LOCALH~1\AppData\Local\Temp\ccZQPmnq.s:753    .text.RCC_GetClocksFreq:0000000000000068 .L0 
C:\Users\LOCALH~1\AppData\Local\Temp\ccZQPmnq.s:755    .text.RCC_GetClocksFreq:000000000000006c .L0 
C:\Users\LOCALH~1\AppData\Local\Temp\ccZQPmnq.s:757    .text.RCC_GetClocksFreq:000000000000006e .L0 
C:\Users\LOCALH~1\AppData\Local\Temp\ccZQPmnq.s:761    .text.RCC_GetClocksFreq:0000000000000070 .L0 
C:\Users\LOCALH~1\AppData\Local\Temp\ccZQPmnq.s:762    .text.RCC_GetClocksFreq:0000000000000070 .L0 
C:\Users\LOCALH~1\AppData\Local\Temp\ccZQPmnq.s:765    .text.RCC_GetClocksFreq:0000000000000072 .L0 
C:\Users\LOCALH~1\AppData\Local\Temp\ccZQPmnq.s:766    .text.RCC_GetClocksFreq:0000000000000072 .L0 
C:\Users\LOCALH~1\AppData\Local\Temp\ccZQPmnq.s:768    .text.RCC_GetClocksFreq:0000000000000074 .L0 
C:\Users\LOCALH~1\AppData\Local\Temp\ccZQPmnq.s:770    .text.RCC_GetClocksFreq:0000000000000076 .L0 
C:\Users\LOCALH~1\AppData\Local\Temp\ccZQPmnq.s:773    .text.RCC_GetClocksFreq:0000000000000078 .L0 
C:\Users\LOCALH~1\AppData\Local\Temp\ccZQPmnq.s:776    .text.RCC_GetClocksFreq:000000000000007a .L0 
C:\Users\LOCALH~1\AppData\Local\Temp\ccZQPmnq.s:777    .text.RCC_GetClocksFreq:000000000000007a .L0 
C:\Users\LOCALH~1\AppData\Local\Temp\ccZQPmnq.s:781    .text.RCC_GetClocksFreq:0000000000000084 .L0 
C:\Users\LOCALH~1\AppData\Local\Temp\ccZQPmnq.s:783    .text.RCC_GetClocksFreq:0000000000000086 .L0 
C:\Users\LOCALH~1\AppData\Local\Temp\ccZQPmnq.s:785    .text.RCC_GetClocksFreq:0000000000000088 .L0 
C:\Users\LOCALH~1\AppData\Local\Temp\ccZQPmnq.s:788    .text.RCC_GetClocksFreq:000000000000008a .L0 
C:\Users\LOCALH~1\AppData\Local\Temp\ccZQPmnq.s:789    .text.RCC_GetClocksFreq:000000000000008a .L0 
C:\Users\LOCALH~1\AppData\Local\Temp\ccZQPmnq.s:791    .text.RCC_GetClocksFreq:000000000000008c .L0 
C:\Users\LOCALH~1\AppData\Local\Temp\ccZQPmnq.s:792    .text.RCC_GetClocksFreq:000000000000008c .L0 
C:\Users\LOCALH~1\AppData\Local\Temp\ccZQPmnq.s:794    .text.RCC_GetClocksFreq:000000000000008e .L0 
C:\Users\LOCALH~1\AppData\Local\Temp\ccZQPmnq.s:796    .text.RCC_GetClocksFreq:0000000000000090 .L0 
C:\Users\LOCALH~1\AppData\Local\Temp\ccZQPmnq.s:798    .text.RCC_GetClocksFreq:0000000000000094 .L0 
C:\Users\LOCALH~1\AppData\Local\Temp\ccZQPmnq.s:802    .text.RCC_GetClocksFreq:0000000000000096 .L0 
C:\Users\LOCALH~1\AppData\Local\Temp\ccZQPmnq.s:803    .text.RCC_GetClocksFreq:0000000000000096 .L0 
C:\Users\LOCALH~1\AppData\Local\Temp\ccZQPmnq.s:805    .text.RCC_GetClocksFreq:0000000000000098 .L0 
C:\Users\LOCALH~1\AppData\Local\Temp\ccZQPmnq.s:806    .text.RCC_GetClocksFreq:0000000000000098 .L0 
C:\Users\LOCALH~1\AppData\Local\Temp\ccZQPmnq.s:810    .text.RCC_GetClocksFreq:00000000000000a0 .L0 
C:\Users\LOCALH~1\AppData\Local\Temp\ccZQPmnq.s:812    .text.RCC_GetClocksFreq:00000000000000a2 .L0 
C:\Users\LOCALH~1\AppData\Local\Temp\ccZQPmnq.s:814    .text.RCC_GetClocksFreq:00000000000000a4 .L0 
C:\Users\LOCALH~1\AppData\Local\Temp\ccZQPmnq.s:815    .text.RCC_GetClocksFreq:00000000000000a4 .L0 
C:\Users\LOCALH~1\AppData\Local\Temp\ccZQPmnq.s:820    .text.RCC_GetClocksFreq:00000000000000ac .L0 
C:\Users\LOCALH~1\AppData\Local\Temp\ccZQPmnq.s:821    .text.RCC_GetClocksFreq:00000000000000ac .L0 
C:\Users\LOCALH~1\AppData\Local\Temp\ccZQPmnq.s:824    .text.RCC_GetClocksFreq:00000000000000b0 .L0 
C:\Users\LOCALH~1\AppData\Local\Temp\ccZQPmnq.s:825    .text.RCC_GetClocksFreq:00000000000000b0 .L0 
C:\Users\LOCALH~1\AppData\Local\Temp\ccZQPmnq.s:827    .text.RCC_GetClocksFreq:00000000000000b2 .L0 
C:\Users\LOCALH~1\AppData\Local\Temp\ccZQPmnq.s:828    .text.RCC_GetClocksFreq:00000000000000b2 .L0 
C:\Users\LOCALH~1\AppData\Local\Temp\ccZQPmnq.s:833    .text.RCC_GetClocksFreq:00000000000000b6 .L0 
C:\Users\LOCALH~1\AppData\Local\Temp\ccZQPmnq.s:834    .text.RCC_GetClocksFreq:00000000000000b6 .L0 
C:\Users\LOCALH~1\AppData\Local\Temp\ccZQPmnq.s:837    .text.RCC_GetClocksFreq:00000000000000bc .L0 
C:\Users\LOCALH~1\AppData\Local\Temp\ccZQPmnq.s:838    .text.RCC_GetClocksFreq:00000000000000bc .L0 
C:\Users\LOCALH~1\AppData\Local\Temp\ccZQPmnq.s:841    .text.RCC_GetClocksFreq:00000000000000c2 .L0 
C:\Users\LOCALH~1\AppData\Local\Temp\ccZQPmnq.s:842    .text.RCC_GetClocksFreq:00000000000000c2 .L0 
C:\Users\LOCALH~1\AppData\Local\Temp\ccZQPmnq.s:846    .text.RCC_GetClocksFreq:00000000000000c8 .L0 
C:\Users\LOCALH~1\AppData\Local\Temp\ccZQPmnq.s:847    .text.RCC_GetClocksFreq:00000000000000c8 .L0 
C:\Users\LOCALH~1\AppData\Local\Temp\ccZQPmnq.s:852    .text.RCC_GetClocksFreq:00000000000000ce .L0 
C:\Users\LOCALH~1\AppData\Local\Temp\ccZQPmnq.s:857    .text.RCC_GetClocksFreq:00000000000000d2 .L0 
C:\Users\LOCALH~1\AppData\Local\Temp\ccZQPmnq.s:863    .text.RCC_GetClocksFreq:00000000000000d6 .L0 
C:\Users\LOCALH~1\AppData\Local\Temp\ccZQPmnq.s:865    .text.RCC_GetClocksFreq:00000000000000d8 .L0 
C:\Users\LOCALH~1\AppData\Local\Temp\ccZQPmnq.s:872    .text.RCC_GetClocksFreq:00000000000000de .L0 
C:\Users\LOCALH~1\AppData\Local\Temp\ccZQPmnq.s:879    .text.RCC_GetClocksFreq:00000000000000e4 .L0 
C:\Users\LOCALH~1\AppData\Local\Temp\ccZQPmnq.s:885    .text.RCC_GetClocksFreq:00000000000000e8 .L0 
C:\Users\LOCALH~1\AppData\Local\Temp\ccZQPmnq.s:886    .text.RCC_GetClocksFreq:00000000000000e8 .L0 
C:\Users\LOCALH~1\AppData\Local\Temp\ccZQPmnq.s:892    .text.RCC_GetClocksFreq:00000000000000f2 .L0 
C:\Users\LOCALH~1\AppData\Local\Temp\ccZQPmnq.s:893    .text.RCC_GetClocksFreq:00000000000000f2 .L0 
C:\Users\LOCALH~1\AppData\Local\Temp\ccZQPmnq.s:897    .text.RCC_GetClocksFreq:00000000000000f8 .L0 
C:\Users\LOCALH~1\AppData\Local\Temp\ccZQPmnq.s:900    .text.RCC_GetClocksFreq:00000000000000fc .L0 
C:\Users\LOCALH~1\AppData\Local\Temp\ccZQPmnq.s:902    .text.RCC_GetClocksFreq:00000000000000fe .L0 
C:\Users\LOCALH~1\AppData\Local\Temp\ccZQPmnq.s:904    .text.RCC_GetClocksFreq:0000000000000100 .L0 
C:\Users\LOCALH~1\AppData\Local\Temp\ccZQPmnq.s:905    .text.RCC_GetClocksFreq:0000000000000100 .L0 
C:\Users\LOCALH~1\AppData\Local\Temp\ccZQPmnq.s:908    .text.RCC_GetClocksFreq:0000000000000104 .L0 
C:\Users\LOCALH~1\AppData\Local\Temp\ccZQPmnq.s:910    .text.RCC_GetClocksFreq:0000000000000108 .L0 
C:\Users\LOCALH~1\AppData\Local\Temp\ccZQPmnq.s:912    .text.RCC_GetClocksFreq:000000000000010a .L0 
C:\Users\LOCALH~1\AppData\Local\Temp\ccZQPmnq.s:915    .text.RCC_GetClocksFreq:0000000000000112 .L0 
C:\Users\LOCALH~1\AppData\Local\Temp\ccZQPmnq.s:916    .text.RCC_GetClocksFreq:0000000000000112 .L0 
C:\Users\LOCALH~1\AppData\Local\Temp\ccZQPmnq.s:918    .text.RCC_GetClocksFreq:0000000000000114 .L0 
C:\Users\LOCALH~1\AppData\Local\Temp\ccZQPmnq.s:920    .text.RCC_GetClocksFreq:0000000000000116 .L0 
C:\Users\LOCALH~1\AppData\Local\Temp\ccZQPmnq.s:923    .text.RCC_GetClocksFreq:0000000000000118 .L0 
C:\Users\LOCALH~1\AppData\Local\Temp\ccZQPmnq.s:924    .text.RCC_GetClocksFreq:0000000000000118 .L0 
C:\Users\LOCALH~1\AppData\Local\Temp\ccZQPmnq.s:926    .text.RCC_GetClocksFreq:000000000000011a .L0 
C:\Users\LOCALH~1\AppData\Local\Temp\ccZQPmnq.s:927    .text.RCC_GetClocksFreq:000000000000011a .L0 
C:\Users\LOCALH~1\AppData\Local\Temp\ccZQPmnq.s:931    .text.RCC_GetClocksFreq:000000000000011c .L0 
C:\Users\LOCALH~1\AppData\Local\Temp\ccZQPmnq.s:933    .text.RCC_GetClocksFreq:0000000000000120 .L0 
C:\Users\LOCALH~1\AppData\Local\Temp\ccZQPmnq.s:936    .text.RCC_GetClocksFreq:0000000000000122 .L0 
C:\Users\LOCALH~1\AppData\Local\Temp\ccZQPmnq.s:937    .text.RCC_GetClocksFreq:0000000000000122 .L0 
C:\Users\LOCALH~1\AppData\Local\Temp\ccZQPmnq.s:940    .text.RCC_GetClocksFreq:0000000000000128 .L0 
C:\Users\LOCALH~1\AppData\Local\Temp\ccZQPmnq.s:942    .text.RCC_GetClocksFreq:000000000000012a .L0 
C:\Users\LOCALH~1\AppData\Local\Temp\ccZQPmnq.s:946    .text.RCC_GetClocksFreq:000000000000012c .L0 
C:\Users\LOCALH~1\AppData\Local\Temp\ccZQPmnq.s:951    .text.RCC_GetClocksFreq:0000000000000132 .L0 
C:\Users\LOCALH~1\AppData\Local\Temp\ccZQPmnq.s:952    .text.RCC_GetClocksFreq:0000000000000132 .L0 
C:\Users\LOCALH~1\AppData\Local\Temp\ccZQPmnq.s:955    .text.RCC_GetClocksFreq:0000000000000138 .L0 
C:\Users\LOCALH~1\AppData\Local\Temp\ccZQPmnq.s:956    .text.RCC_GetClocksFreq:0000000000000138 .L0 
C:\Users\LOCALH~1\AppData\Local\Temp\ccZQPmnq.s:962    .text.RCC_GetClocksFreq:000000000000013c .L0 
C:\Users\LOCALH~1\AppData\Local\Temp\ccZQPmnq.s:963    .text.RCC_GetClocksFreq:000000000000013c .L0 
C:\Users\LOCALH~1\AppData\Local\Temp\ccZQPmnq.s:966    .text.RCC_GetClocksFreq:0000000000000142 .L0 
C:\Users\LOCALH~1\AppData\Local\Temp\ccZQPmnq.s:967    .text.RCC_GetClocksFreq:0000000000000142 .L0 
C:\Users\LOCALH~1\AppData\Local\Temp\ccZQPmnq.s:971    .text.RCC_GetClocksFreq:0000000000000144 .L0 
C:\Users\LOCALH~1\AppData\Local\Temp\ccZQPmnq.s:976    .text.RCC_GetClocksFreq:000000000000014a .L0 
C:\Users\LOCALH~1\AppData\Local\Temp\ccZQPmnq.s:977    .text.RCC_GetClocksFreq:000000000000014a .L0 
C:\Users\LOCALH~1\AppData\Local\Temp\ccZQPmnq.s:983    .text.RCC_GetClocksFreq:000000000000014e .L0 
C:\Users\LOCALH~1\AppData\Local\Temp\ccZQPmnq.s:984    .text.RCC_GetClocksFreq:000000000000014e .L0 
C:\Users\LOCALH~1\AppData\Local\Temp\ccZQPmnq.s:986    .text.RCC_GetClocksFreq:0000000000000150 .L0 
C:\Users\LOCALH~1\AppData\Local\Temp\ccZQPmnq.s:988    .text.RCC_GetClocksFreq:0000000000000154 .L0 
C:\Users\LOCALH~1\AppData\Local\Temp\ccZQPmnq.s:990    .text.RCC_GetClocksFreq:0000000000000156 .L0 
C:\Users\LOCALH~1\AppData\Local\Temp\ccZQPmnq.s:992    .text.RCC_GetClocksFreq:000000000000015c .L0 
C:\Users\LOCALH~1\AppData\Local\Temp\ccZQPmnq.s:999    .text.RCC_AHBPeriphClockCmd:0000000000000000 RCC_AHBPeriphClockCmd
C:\Users\LOCALH~1\AppData\Local\Temp\ccZQPmnq.s:1002   .text.RCC_AHBPeriphClockCmd:0000000000000000 .L0 
C:\Users\LOCALH~1\AppData\Local\Temp\ccZQPmnq.s:1004   .text.RCC_AHBPeriphClockCmd:0000000000000000 .L0 
C:\Users\LOCALH~1\AppData\Local\Temp\ccZQPmnq.s:1005   .text.RCC_AHBPeriphClockCmd:0000000000000000 .L0 
C:\Users\LOCALH~1\AppData\Local\Temp\ccZQPmnq.s:1006   .text.RCC_AHBPeriphClockCmd:0000000000000000 $x
C:\Users\LOCALH~1\AppData\Local\Temp\ccZQPmnq.s:1006   .text.RCC_AHBPeriphClockCmd:0000000000000000 .L0 
C:\Users\LOCALH~1\AppData\Local\Temp\ccZQPmnq.s:1008   .text.RCC_AHBPeriphClockCmd:0000000000000002 .L0 
C:\Users\LOCALH~1\AppData\Local\Temp\ccZQPmnq.s:1009   .text.RCC_AHBPeriphClockCmd:0000000000000002 .L0 
C:\Users\LOCALH~1\AppData\Local\Temp\ccZQPmnq.s:1012   .text.RCC_AHBPeriphClockCmd:0000000000000008 .L0 
C:\Users\LOCALH~1\AppData\Local\Temp\ccZQPmnq.s:1017   .text.RCC_AHBPeriphClockCmd:000000000000000e .L0 
C:\Users\LOCALH~1\AppData\Local\Temp\ccZQPmnq.s:1018   .text.RCC_AHBPeriphClockCmd:000000000000000e .L0 
C:\Users\LOCALH~1\AppData\Local\Temp\ccZQPmnq.s:1021   .text.RCC_AHBPeriphClockCmd:0000000000000014 .L0 
C:\Users\LOCALH~1\AppData\Local\Temp\ccZQPmnq.s:1024   .text.RCC_AHBPeriphClockCmd:0000000000000018 .L0 
C:\Users\LOCALH~1\AppData\Local\Temp\ccZQPmnq.s:1028   .text.RCC_AHBPeriphClockCmd:000000000000001c .L0 
C:\Users\LOCALH~1\AppData\Local\Temp\ccZQPmnq.s:1029   .text.RCC_AHBPeriphClockCmd:000000000000001e .L0 
C:\Users\LOCALH~1\AppData\Local\Temp\ccZQPmnq.s:1036   .text.RCC_APB2PeriphClockCmd:0000000000000000 RCC_APB2PeriphClockCmd
C:\Users\LOCALH~1\AppData\Local\Temp\ccZQPmnq.s:1039   .text.RCC_APB2PeriphClockCmd:0000000000000000 .L0 
C:\Users\LOCALH~1\AppData\Local\Temp\ccZQPmnq.s:1041   .text.RCC_APB2PeriphClockCmd:0000000000000000 .L0 
C:\Users\LOCALH~1\AppData\Local\Temp\ccZQPmnq.s:1042   .text.RCC_APB2PeriphClockCmd:0000000000000000 .L0 
C:\Users\LOCALH~1\AppData\Local\Temp\ccZQPmnq.s:1043   .text.RCC_APB2PeriphClockCmd:0000000000000000 $x
C:\Users\LOCALH~1\AppData\Local\Temp\ccZQPmnq.s:1043   .text.RCC_APB2PeriphClockCmd:0000000000000000 .L0 
C:\Users\LOCALH~1\AppData\Local\Temp\ccZQPmnq.s:1045   .text.RCC_APB2PeriphClockCmd:0000000000000002 .L0 
C:\Users\LOCALH~1\AppData\Local\Temp\ccZQPmnq.s:1046   .text.RCC_APB2PeriphClockCmd:0000000000000002 .L0 
C:\Users\LOCALH~1\AppData\Local\Temp\ccZQPmnq.s:1049   .text.RCC_APB2PeriphClockCmd:0000000000000008 .L0 
C:\Users\LOCALH~1\AppData\Local\Temp\ccZQPmnq.s:1054   .text.RCC_APB2PeriphClockCmd:000000000000000e .L0 
C:\Users\LOCALH~1\AppData\Local\Temp\ccZQPmnq.s:1055   .text.RCC_APB2PeriphClockCmd:000000000000000e .L0 
C:\Users\LOCALH~1\AppData\Local\Temp\ccZQPmnq.s:1058   .text.RCC_APB2PeriphClockCmd:0000000000000014 .L0 
C:\Users\LOCALH~1\AppData\Local\Temp\ccZQPmnq.s:1061   .text.RCC_APB2PeriphClockCmd:0000000000000018 .L0 
C:\Users\LOCALH~1\AppData\Local\Temp\ccZQPmnq.s:1065   .text.RCC_APB2PeriphClockCmd:000000000000001c .L0 
C:\Users\LOCALH~1\AppData\Local\Temp\ccZQPmnq.s:1066   .text.RCC_APB2PeriphClockCmd:000000000000001e .L0 
C:\Users\LOCALH~1\AppData\Local\Temp\ccZQPmnq.s:1073   .text.RCC_APB1PeriphClockCmd:0000000000000000 RCC_APB1PeriphClockCmd
C:\Users\LOCALH~1\AppData\Local\Temp\ccZQPmnq.s:1076   .text.RCC_APB1PeriphClockCmd:0000000000000000 .L0 
C:\Users\LOCALH~1\AppData\Local\Temp\ccZQPmnq.s:1078   .text.RCC_APB1PeriphClockCmd:0000000000000000 .L0 
C:\Users\LOCALH~1\AppData\Local\Temp\ccZQPmnq.s:1079   .text.RCC_APB1PeriphClockCmd:0000000000000000 .L0 
C:\Users\LOCALH~1\AppData\Local\Temp\ccZQPmnq.s:1080   .text.RCC_APB1PeriphClockCmd:0000000000000000 $x
C:\Users\LOCALH~1\AppData\Local\Temp\ccZQPmnq.s:1080   .text.RCC_APB1PeriphClockCmd:0000000000000000 .L0 
C:\Users\LOCALH~1\AppData\Local\Temp\ccZQPmnq.s:1082   .text.RCC_APB1PeriphClockCmd:0000000000000002 .L0 
C:\Users\LOCALH~1\AppData\Local\Temp\ccZQPmnq.s:1083   .text.RCC_APB1PeriphClockCmd:0000000000000002 .L0 
C:\Users\LOCALH~1\AppData\Local\Temp\ccZQPmnq.s:1086   .text.RCC_APB1PeriphClockCmd:0000000000000008 .L0 
C:\Users\LOCALH~1\AppData\Local\Temp\ccZQPmnq.s:1091   .text.RCC_APB1PeriphClockCmd:000000000000000e .L0 
C:\Users\LOCALH~1\AppData\Local\Temp\ccZQPmnq.s:1092   .text.RCC_APB1PeriphClockCmd:000000000000000e .L0 
C:\Users\LOCALH~1\AppData\Local\Temp\ccZQPmnq.s:1095   .text.RCC_APB1PeriphClockCmd:0000000000000014 .L0 
C:\Users\LOCALH~1\AppData\Local\Temp\ccZQPmnq.s:1098   .text.RCC_APB1PeriphClockCmd:0000000000000018 .L0 
C:\Users\LOCALH~1\AppData\Local\Temp\ccZQPmnq.s:1102   .text.RCC_APB1PeriphClockCmd:000000000000001c .L0 
C:\Users\LOCALH~1\AppData\Local\Temp\ccZQPmnq.s:1103   .text.RCC_APB1PeriphClockCmd:000000000000001e .L0 
C:\Users\LOCALH~1\AppData\Local\Temp\ccZQPmnq.s:1110   .text.RCC_APB2PeriphResetCmd:0000000000000000 RCC_APB2PeriphResetCmd
C:\Users\LOCALH~1\AppData\Local\Temp\ccZQPmnq.s:1113   .text.RCC_APB2PeriphResetCmd:0000000000000000 .L0 
C:\Users\LOCALH~1\AppData\Local\Temp\ccZQPmnq.s:1115   .text.RCC_APB2PeriphResetCmd:0000000000000000 .L0 
C:\Users\LOCALH~1\AppData\Local\Temp\ccZQPmnq.s:1116   .text.RCC_APB2PeriphResetCmd:0000000000000000 .L0 
C:\Users\LOCALH~1\AppData\Local\Temp\ccZQPmnq.s:1117   .text.RCC_APB2PeriphResetCmd:0000000000000000 $x
C:\Users\LOCALH~1\AppData\Local\Temp\ccZQPmnq.s:1117   .text.RCC_APB2PeriphResetCmd:0000000000000000 .L0 
C:\Users\LOCALH~1\AppData\Local\Temp\ccZQPmnq.s:1119   .text.RCC_APB2PeriphResetCmd:0000000000000002 .L0 
C:\Users\LOCALH~1\AppData\Local\Temp\ccZQPmnq.s:1120   .text.RCC_APB2PeriphResetCmd:0000000000000002 .L0 
C:\Users\LOCALH~1\AppData\Local\Temp\ccZQPmnq.s:1123   .text.RCC_APB2PeriphResetCmd:0000000000000008 .L0 
C:\Users\LOCALH~1\AppData\Local\Temp\ccZQPmnq.s:1128   .text.RCC_APB2PeriphResetCmd:000000000000000e .L0 
C:\Users\LOCALH~1\AppData\Local\Temp\ccZQPmnq.s:1129   .text.RCC_APB2PeriphResetCmd:000000000000000e .L0 
C:\Users\LOCALH~1\AppData\Local\Temp\ccZQPmnq.s:1132   .text.RCC_APB2PeriphResetCmd:0000000000000014 .L0 
C:\Users\LOCALH~1\AppData\Local\Temp\ccZQPmnq.s:1135   .text.RCC_APB2PeriphResetCmd:0000000000000018 .L0 
C:\Users\LOCALH~1\AppData\Local\Temp\ccZQPmnq.s:1139   .text.RCC_APB2PeriphResetCmd:000000000000001c .L0 
C:\Users\LOCALH~1\AppData\Local\Temp\ccZQPmnq.s:1140   .text.RCC_APB2PeriphResetCmd:000000000000001e .L0 
C:\Users\LOCALH~1\AppData\Local\Temp\ccZQPmnq.s:1147   .text.RCC_APB1PeriphResetCmd:0000000000000000 RCC_APB1PeriphResetCmd
C:\Users\LOCALH~1\AppData\Local\Temp\ccZQPmnq.s:1150   .text.RCC_APB1PeriphResetCmd:0000000000000000 .L0 
C:\Users\LOCALH~1\AppData\Local\Temp\ccZQPmnq.s:1152   .text.RCC_APB1PeriphResetCmd:0000000000000000 .L0 
C:\Users\LOCALH~1\AppData\Local\Temp\ccZQPmnq.s:1153   .text.RCC_APB1PeriphResetCmd:0000000000000000 .L0 
C:\Users\LOCALH~1\AppData\Local\Temp\ccZQPmnq.s:1154   .text.RCC_APB1PeriphResetCmd:0000000000000000 $x
C:\Users\LOCALH~1\AppData\Local\Temp\ccZQPmnq.s:1154   .text.RCC_APB1PeriphResetCmd:0000000000000000 .L0 
C:\Users\LOCALH~1\AppData\Local\Temp\ccZQPmnq.s:1156   .text.RCC_APB1PeriphResetCmd:0000000000000002 .L0 
C:\Users\LOCALH~1\AppData\Local\Temp\ccZQPmnq.s:1157   .text.RCC_APB1PeriphResetCmd:0000000000000002 .L0 
C:\Users\LOCALH~1\AppData\Local\Temp\ccZQPmnq.s:1160   .text.RCC_APB1PeriphResetCmd:0000000000000008 .L0 
C:\Users\LOCALH~1\AppData\Local\Temp\ccZQPmnq.s:1165   .text.RCC_APB1PeriphResetCmd:000000000000000e .L0 
C:\Users\LOCALH~1\AppData\Local\Temp\ccZQPmnq.s:1166   .text.RCC_APB1PeriphResetCmd:000000000000000e .L0 
C:\Users\LOCALH~1\AppData\Local\Temp\ccZQPmnq.s:1169   .text.RCC_APB1PeriphResetCmd:0000000000000014 .L0 
C:\Users\LOCALH~1\AppData\Local\Temp\ccZQPmnq.s:1172   .text.RCC_APB1PeriphResetCmd:0000000000000018 .L0 
C:\Users\LOCALH~1\AppData\Local\Temp\ccZQPmnq.s:1176   .text.RCC_APB1PeriphResetCmd:000000000000001c .L0 
C:\Users\LOCALH~1\AppData\Local\Temp\ccZQPmnq.s:1177   .text.RCC_APB1PeriphResetCmd:000000000000001e .L0 
C:\Users\LOCALH~1\AppData\Local\Temp\ccZQPmnq.s:1184   .text.RCC_BackupResetCmd:0000000000000000 RCC_BackupResetCmd
C:\Users\LOCALH~1\AppData\Local\Temp\ccZQPmnq.s:1187   .text.RCC_BackupResetCmd:0000000000000000 .L0 
C:\Users\LOCALH~1\AppData\Local\Temp\ccZQPmnq.s:1189   .text.RCC_BackupResetCmd:0000000000000000 .L0 
C:\Users\LOCALH~1\AppData\Local\Temp\ccZQPmnq.s:1190   .text.RCC_BackupResetCmd:0000000000000000 .L0 
C:\Users\LOCALH~1\AppData\Local\Temp\ccZQPmnq.s:1191   .text.RCC_BackupResetCmd:0000000000000000 $x
C:\Users\LOCALH~1\AppData\Local\Temp\ccZQPmnq.s:1191   .text.RCC_BackupResetCmd:0000000000000000 .L0 
C:\Users\LOCALH~1\AppData\Local\Temp\ccZQPmnq.s:1193   .text.RCC_BackupResetCmd:0000000000000002 .L0 
C:\Users\LOCALH~1\AppData\Local\Temp\ccZQPmnq.s:1194   .text.RCC_BackupResetCmd:0000000000000002 .L0 
C:\Users\LOCALH~1\AppData\Local\Temp\ccZQPmnq.s:1197   .text.RCC_BackupResetCmd:0000000000000008 .L0 
C:\Users\LOCALH~1\AppData\Local\Temp\ccZQPmnq.s:1203   .text.RCC_BackupResetCmd:0000000000000010 .L0 
C:\Users\LOCALH~1\AppData\Local\Temp\ccZQPmnq.s:1204   .text.RCC_BackupResetCmd:0000000000000010 .L0 
C:\Users\LOCALH~1\AppData\Local\Temp\ccZQPmnq.s:1207   .text.RCC_BackupResetCmd:0000000000000016 .L0 
C:\Users\LOCALH~1\AppData\Local\Temp\ccZQPmnq.s:1212   .text.RCC_BackupResetCmd:000000000000001e .L0 
C:\Users\LOCALH~1\AppData\Local\Temp\ccZQPmnq.s:1213   .text.RCC_BackupResetCmd:0000000000000020 .L0 
C:\Users\LOCALH~1\AppData\Local\Temp\ccZQPmnq.s:1220   .text.RCC_ClockSecuritySystemCmd:0000000000000000 RCC_ClockSecuritySystemCmd
C:\Users\LOCALH~1\AppData\Local\Temp\ccZQPmnq.s:1223   .text.RCC_ClockSecuritySystemCmd:0000000000000000 .L0 
C:\Users\LOCALH~1\AppData\Local\Temp\ccZQPmnq.s:1225   .text.RCC_ClockSecuritySystemCmd:0000000000000000 .L0 
C:\Users\LOCALH~1\AppData\Local\Temp\ccZQPmnq.s:1226   .text.RCC_ClockSecuritySystemCmd:0000000000000000 .L0 
C:\Users\LOCALH~1\AppData\Local\Temp\ccZQPmnq.s:1227   .text.RCC_ClockSecuritySystemCmd:0000000000000000 $x
C:\Users\LOCALH~1\AppData\Local\Temp\ccZQPmnq.s:1227   .text.RCC_ClockSecuritySystemCmd:0000000000000000 .L0 
C:\Users\LOCALH~1\AppData\Local\Temp\ccZQPmnq.s:1229   .text.RCC_ClockSecuritySystemCmd:0000000000000002 .L0 
C:\Users\LOCALH~1\AppData\Local\Temp\ccZQPmnq.s:1230   .text.RCC_ClockSecuritySystemCmd:0000000000000002 .L0 
C:\Users\LOCALH~1\AppData\Local\Temp\ccZQPmnq.s:1233   .text.RCC_ClockSecuritySystemCmd:0000000000000008 .L0 
C:\Users\LOCALH~1\AppData\Local\Temp\ccZQPmnq.s:1239   .text.RCC_ClockSecuritySystemCmd:0000000000000012 .L0 
C:\Users\LOCALH~1\AppData\Local\Temp\ccZQPmnq.s:1240   .text.RCC_ClockSecuritySystemCmd:0000000000000012 .L0 
C:\Users\LOCALH~1\AppData\Local\Temp\ccZQPmnq.s:1243   .text.RCC_ClockSecuritySystemCmd:0000000000000018 .L0 
C:\Users\LOCALH~1\AppData\Local\Temp\ccZQPmnq.s:1248   .text.RCC_ClockSecuritySystemCmd:0000000000000022 .L0 
C:\Users\LOCALH~1\AppData\Local\Temp\ccZQPmnq.s:1249   .text.RCC_ClockSecuritySystemCmd:0000000000000024 .L0 
C:\Users\LOCALH~1\AppData\Local\Temp\ccZQPmnq.s:1256   .text.RCC_MCOConfig:0000000000000000 RCC_MCOConfig
C:\Users\LOCALH~1\AppData\Local\Temp\ccZQPmnq.s:1259   .text.RCC_MCOConfig:0000000000000000 .L0 
C:\Users\LOCALH~1\AppData\Local\Temp\ccZQPmnq.s:1261   .text.RCC_MCOConfig:0000000000000000 .L0 
C:\Users\LOCALH~1\AppData\Local\Temp\ccZQPmnq.s:1262   .text.RCC_MCOConfig:0000000000000000 .L0 
C:\Users\LOCALH~1\AppData\Local\Temp\ccZQPmnq.s:1263   .text.RCC_MCOConfig:0000000000000000 $x
C:\Users\LOCALH~1\AppData\Local\Temp\ccZQPmnq.s:1263   .text.RCC_MCOConfig:0000000000000000 .L0 
C:\Users\LOCALH~1\AppData\Local\Temp\ccZQPmnq.s:1266   .text.RCC_MCOConfig:0000000000000006 .L0 
C:\Users\LOCALH~1\AppData\Local\Temp\ccZQPmnq.s:1267   .text.RCC_MCOConfig:0000000000000008 .L0 
C:\Users\LOCALH~1\AppData\Local\Temp\ccZQPmnq.s:1274   .text.RCC_GetFlagStatus:0000000000000000 RCC_GetFlagStatus
C:\Users\LOCALH~1\AppData\Local\Temp\ccZQPmnq.s:1277   .text.RCC_GetFlagStatus:0000000000000000 .L0 
C:\Users\LOCALH~1\AppData\Local\Temp\ccZQPmnq.s:1279   .text.RCC_GetFlagStatus:0000000000000000 .L0 
C:\Users\LOCALH~1\AppData\Local\Temp\ccZQPmnq.s:1280   .text.RCC_GetFlagStatus:0000000000000000 .L0 
C:\Users\LOCALH~1\AppData\Local\Temp\ccZQPmnq.s:1281   .text.RCC_GetFlagStatus:0000000000000000 .L0 
C:\Users\LOCALH~1\AppData\Local\Temp\ccZQPmnq.s:1282   .text.RCC_GetFlagStatus:0000000000000000 .L0 
C:\Users\LOCALH~1\AppData\Local\Temp\ccZQPmnq.s:1283   .text.RCC_GetFlagStatus:0000000000000000 .L0 
C:\Users\LOCALH~1\AppData\Local\Temp\ccZQPmnq.s:1284   .text.RCC_GetFlagStatus:0000000000000000 $x
C:\Users\LOCALH~1\AppData\Local\Temp\ccZQPmnq.s:1284   .text.RCC_GetFlagStatus:0000000000000000 .L0 
C:\Users\LOCALH~1\AppData\Local\Temp\ccZQPmnq.s:1287   .text.RCC_GetFlagStatus:0000000000000004 .L0 
C:\Users\LOCALH~1\AppData\Local\Temp\ccZQPmnq.s:1288   .text.RCC_GetFlagStatus:0000000000000004 .L0 
C:\Users\LOCALH~1\AppData\Local\Temp\ccZQPmnq.s:1291   .text.RCC_GetFlagStatus:000000000000000a .L0 
C:\Users\LOCALH~1\AppData\Local\Temp\ccZQPmnq.s:1292   .text.RCC_GetFlagStatus:000000000000000a .L0 
C:\Users\LOCALH~1\AppData\Local\Temp\ccZQPmnq.s:1298   .text.RCC_GetFlagStatus:0000000000000010 .L0 
C:\Users\LOCALH~1\AppData\Local\Temp\ccZQPmnq.s:1299   .text.RCC_GetFlagStatus:0000000000000010 .L0 
C:\Users\LOCALH~1\AppData\Local\Temp\ccZQPmnq.s:1300   .text.RCC_GetFlagStatus:0000000000000010 .L0 
C:\Users\LOCALH~1\AppData\Local\Temp\ccZQPmnq.s:1301   .text.RCC_GetFlagStatus:0000000000000010 .L0 
C:\Users\LOCALH~1\AppData\Local\Temp\ccZQPmnq.s:1304   .text.RCC_GetFlagStatus:0000000000000014 .L0 
C:\Users\LOCALH~1\AppData\Local\Temp\ccZQPmnq.s:1309   .text.RCC_GetFlagStatus:0000000000000018 .L0 
C:\Users\LOCALH~1\AppData\Local\Temp\ccZQPmnq.s:1310   .text.RCC_GetFlagStatus:0000000000000018 .L0 
C:\Users\LOCALH~1\AppData\Local\Temp\ccZQPmnq.s:1313   .text.RCC_GetFlagStatus:000000000000001e .L0 
C:\Users\LOCALH~1\AppData\Local\Temp\ccZQPmnq.s:1314   .text.RCC_GetFlagStatus:000000000000001e .L0 
C:\Users\LOCALH~1\AppData\Local\Temp\ccZQPmnq.s:1322   .text.RCC_GetFlagStatus:0000000000000026 .L0 
C:\Users\LOCALH~1\AppData\Local\Temp\ccZQPmnq.s:1323   .text.RCC_GetFlagStatus:0000000000000026 .L0 
C:\Users\LOCALH~1\AppData\Local\Temp\ccZQPmnq.s:1328   .text.RCC_GetFlagStatus:000000000000002e .L0 
C:\Users\LOCALH~1\AppData\Local\Temp\ccZQPmnq.s:1335   .text.RCC_WaitForHSEStartUp:0000000000000000 RCC_WaitForHSEStartUp
C:\Users\LOCALH~1\AppData\Local\Temp\ccZQPmnq.s:1338   .text.RCC_WaitForHSEStartUp:0000000000000000 .L0 
C:\Users\LOCALH~1\AppData\Local\Temp\ccZQPmnq.s:1339   .text.RCC_WaitForHSEStartUp:0000000000000000 $x
C:\Users\LOCALH~1\AppData\Local\Temp\ccZQPmnq.s:1339   .text.RCC_WaitForHSEStartUp:0000000000000000 .L0 
C:\Users\LOCALH~1\AppData\Local\Temp\ccZQPmnq.s:1340   .text.RCC_WaitForHSEStartUp:0000000000000008 .L0 
C:\Users\LOCALH~1\AppData\Local\Temp\ccZQPmnq.s:1341   .text.RCC_WaitForHSEStartUp:0000000000000008 .L0 
C:\Users\LOCALH~1\AppData\Local\Temp\ccZQPmnq.s:1342   .text.RCC_WaitForHSEStartUp:0000000000000008 .L0 
C:\Users\LOCALH~1\AppData\Local\Temp\ccZQPmnq.s:1344   .text.RCC_WaitForHSEStartUp:0000000000000008 .L0 
C:\Users\LOCALH~1\AppData\Local\Temp\ccZQPmnq.s:1345   .text.RCC_WaitForHSEStartUp:0000000000000008 .L0 
C:\Users\LOCALH~1\AppData\Local\Temp\ccZQPmnq.s:1346   .text.RCC_WaitForHSEStartUp:000000000000000a .L0 
C:\Users\LOCALH~1\AppData\Local\Temp\ccZQPmnq.s:1348   .text.RCC_WaitForHSEStartUp:000000000000000a .L0 
C:\Users\LOCALH~1\AppData\Local\Temp\ccZQPmnq.s:1351   .text.RCC_WaitForHSEStartUp:000000000000000c .L0 
C:\Users\LOCALH~1\AppData\Local\Temp\ccZQPmnq.s:1352   .text.RCC_WaitForHSEStartUp:000000000000000c .L0 
C:\Users\LOCALH~1\AppData\Local\Temp\ccZQPmnq.s:1353   .text.RCC_WaitForHSEStartUp:000000000000000c .L0 
C:\Users\LOCALH~1\AppData\Local\Temp\ccZQPmnq.s:1357   .text.RCC_WaitForHSEStartUp:000000000000000e .L0 
C:\Users\LOCALH~1\AppData\Local\Temp\ccZQPmnq.s:1358   .text.RCC_WaitForHSEStartUp:000000000000000e .L0 
C:\Users\LOCALH~1\AppData\Local\Temp\ccZQPmnq.s:1359   .text.RCC_WaitForHSEStartUp:000000000000000e .L0 
C:\Users\LOCALH~1\AppData\Local\Temp\ccZQPmnq.s:1363   .text.RCC_WaitForHSEStartUp:000000000000001a .L0 
C:\Users\LOCALH~1\AppData\Local\Temp\ccZQPmnq.s:1364   .text.RCC_WaitForHSEStartUp:000000000000001a .L0 
C:\Users\LOCALH~1\AppData\Local\Temp\ccZQPmnq.s:1368   .text.RCC_WaitForHSEStartUp:0000000000000020 .L0 
C:\Users\LOCALH~1\AppData\Local\Temp\ccZQPmnq.s:1369   .text.RCC_WaitForHSEStartUp:0000000000000020 .L0 
C:\Users\LOCALH~1\AppData\Local\Temp\ccZQPmnq.s:1371   .text.RCC_WaitForHSEStartUp:0000000000000022 .L0 
C:\Users\LOCALH~1\AppData\Local\Temp\ccZQPmnq.s:1373   .text.RCC_WaitForHSEStartUp:0000000000000026 .L0 
C:\Users\LOCALH~1\AppData\Local\Temp\ccZQPmnq.s:1376   .text.RCC_WaitForHSEStartUp:0000000000000028 .L0 
C:\Users\LOCALH~1\AppData\Local\Temp\ccZQPmnq.s:1377   .text.RCC_WaitForHSEStartUp:0000000000000028 .L0 
C:\Users\LOCALH~1\AppData\Local\Temp\ccZQPmnq.s:1382   .text.RCC_WaitForHSEStartUp:0000000000000034 .L0 
C:\Users\LOCALH~1\AppData\Local\Temp\ccZQPmnq.s:1383   .text.RCC_WaitForHSEStartUp:0000000000000034 .L0 
C:\Users\LOCALH~1\AppData\Local\Temp\ccZQPmnq.s:1386   .text.RCC_WaitForHSEStartUp:000000000000003a .L0 
C:\Users\LOCALH~1\AppData\Local\Temp\ccZQPmnq.s:1388   .text.RCC_WaitForHSEStartUp:0000000000000042 .L0 
C:\Users\LOCALH~1\AppData\Local\Temp\ccZQPmnq.s:1389   .text.RCC_WaitForHSEStartUp:0000000000000042 .L0 
C:\Users\LOCALH~1\AppData\Local\Temp\ccZQPmnq.s:1390   .text.RCC_WaitForHSEStartUp:0000000000000042 .L0 
C:\Users\LOCALH~1\AppData\Local\Temp\ccZQPmnq.s:1391   .text.RCC_WaitForHSEStartUp:0000000000000042 .L0 
C:\Users\LOCALH~1\AppData\Local\Temp\ccZQPmnq.s:1398   .text.RCC_ClearFlag:0000000000000000 RCC_ClearFlag
C:\Users\LOCALH~1\AppData\Local\Temp\ccZQPmnq.s:1401   .text.RCC_ClearFlag:0000000000000000 .L0 
C:\Users\LOCALH~1\AppData\Local\Temp\ccZQPmnq.s:1402   .text.RCC_ClearFlag:0000000000000000 .L0 
C:\Users\LOCALH~1\AppData\Local\Temp\ccZQPmnq.s:1403   .text.RCC_ClearFlag:0000000000000000 .L0 
C:\Users\LOCALH~1\AppData\Local\Temp\ccZQPmnq.s:1404   .text.RCC_ClearFlag:0000000000000000 $x
C:\Users\LOCALH~1\AppData\Local\Temp\ccZQPmnq.s:1404   .text.RCC_ClearFlag:0000000000000000 .L0 
C:\Users\LOCALH~1\AppData\Local\Temp\ccZQPmnq.s:1407   .text.RCC_ClearFlag:0000000000000006 .L0 
C:\Users\LOCALH~1\AppData\Local\Temp\ccZQPmnq.s:1411   .text.RCC_ClearFlag:000000000000000e .L0 
C:\Users\LOCALH~1\AppData\Local\Temp\ccZQPmnq.s:1412   .text.RCC_ClearFlag:0000000000000010 .L0 
C:\Users\LOCALH~1\AppData\Local\Temp\ccZQPmnq.s:1419   .text.RCC_GetITStatus:0000000000000000 RCC_GetITStatus
C:\Users\LOCALH~1\AppData\Local\Temp\ccZQPmnq.s:1422   .text.RCC_GetITStatus:0000000000000000 .L0 
C:\Users\LOCALH~1\AppData\Local\Temp\ccZQPmnq.s:1424   .text.RCC_GetITStatus:0000000000000000 .L0 
C:\Users\LOCALH~1\AppData\Local\Temp\ccZQPmnq.s:1425   .text.RCC_GetITStatus:0000000000000000 .L0 
C:\Users\LOCALH~1\AppData\Local\Temp\ccZQPmnq.s:1426   .text.RCC_GetITStatus:0000000000000000 .L0 
C:\Users\LOCALH~1\AppData\Local\Temp\ccZQPmnq.s:1427   .text.RCC_GetITStatus:0000000000000000 $x
C:\Users\LOCALH~1\AppData\Local\Temp\ccZQPmnq.s:1427   .text.RCC_GetITStatus:0000000000000000 .L0 
C:\Users\LOCALH~1\AppData\Local\Temp\ccZQPmnq.s:1431   .text.RCC_GetITStatus:0000000000000006 .L0 
C:\Users\LOCALH~1\AppData\Local\Temp\ccZQPmnq.s:1432   .text.RCC_GetITStatus:0000000000000006 .L0 
C:\Users\LOCALH~1\AppData\Local\Temp\ccZQPmnq.s:1435   .text.RCC_GetITStatus:0000000000000008 .L0 
C:\Users\LOCALH~1\AppData\Local\Temp\ccZQPmnq.s:1437   .text.RCC_GetITStatus:000000000000000e .L0 
C:\Users\LOCALH~1\AppData\Local\Temp\ccZQPmnq.s:1444   .text.RCC_ClearITPendingBit:0000000000000000 RCC_ClearITPendingBit
C:\Users\LOCALH~1\AppData\Local\Temp\ccZQPmnq.s:1447   .text.RCC_ClearITPendingBit:0000000000000000 .L0 
C:\Users\LOCALH~1\AppData\Local\Temp\ccZQPmnq.s:1449   .text.RCC_ClearITPendingBit:0000000000000000 .L0 
C:\Users\LOCALH~1\AppData\Local\Temp\ccZQPmnq.s:1450   .text.RCC_ClearITPendingBit:0000000000000000 .L0 
C:\Users\LOCALH~1\AppData\Local\Temp\ccZQPmnq.s:1451   .text.RCC_ClearITPendingBit:0000000000000000 $x
C:\Users\LOCALH~1\AppData\Local\Temp\ccZQPmnq.s:1451   .text.RCC_ClearITPendingBit:0000000000000000 .L0 
C:\Users\LOCALH~1\AppData\Local\Temp\ccZQPmnq.s:1454   .text.RCC_ClearITPendingBit:0000000000000006 .L0 
C:\Users\LOCALH~1\AppData\Local\Temp\ccZQPmnq.s:1455   .text.RCC_ClearITPendingBit:0000000000000008 .L0 
C:\Users\LOCALH~1\AppData\Local\Temp\ccZQPmnq.s:1462   .text.RCC_PREDIV1Config:0000000000000000 RCC_PREDIV1Config
C:\Users\LOCALH~1\AppData\Local\Temp\ccZQPmnq.s:1465   .text.RCC_PREDIV1Config:0000000000000000 .L0 
C:\Users\LOCALH~1\AppData\Local\Temp\ccZQPmnq.s:1467   .text.RCC_PREDIV1Config:0000000000000000 .L0 
C:\Users\LOCALH~1\AppData\Local\Temp\ccZQPmnq.s:1468   .text.RCC_PREDIV1Config:0000000000000000 .L0 
C:\Users\LOCALH~1\AppData\Local\Temp\ccZQPmnq.s:1469   .text.RCC_PREDIV1Config:0000000000000000 .L0 
C:\Users\LOCALH~1\AppData\Local\Temp\ccZQPmnq.s:1470   .text.RCC_PREDIV1Config:0000000000000000 $x
C:\Users\LOCALH~1\AppData\Local\Temp\ccZQPmnq.s:1470   .text.RCC_PREDIV1Config:0000000000000000 .L0 
C:\Users\LOCALH~1\AppData\Local\Temp\ccZQPmnq.s:1474   .text.RCC_PREDIV1Config:0000000000000006 .L0 
C:\Users\LOCALH~1\AppData\Local\Temp\ccZQPmnq.s:1475   .text.RCC_PREDIV1Config:0000000000000006 .L0 
C:\Users\LOCALH~1\AppData\Local\Temp\ccZQPmnq.s:1476   .text.RCC_PREDIV1Config:0000000000000006 .L0 
C:\Users\LOCALH~1\AppData\Local\Temp\ccZQPmnq.s:1482   .text.RCC_PREDIV1Config:000000000000000e .L0 
C:\Users\LOCALH~1\AppData\Local\Temp\ccZQPmnq.s:1485   .text.RCC_PREDIV1Config:0000000000000010 .L0 
C:\Users\LOCALH~1\AppData\Local\Temp\ccZQPmnq.s:1486   .text.RCC_PREDIV1Config:0000000000000010 .L0 
C:\Users\LOCALH~1\AppData\Local\Temp\ccZQPmnq.s:1488   .text.RCC_PREDIV1Config:0000000000000012 .L0 
C:\Users\LOCALH~1\AppData\Local\Temp\ccZQPmnq.s:1489   .text.RCC_PREDIV1Config:0000000000000014 .L0 
C:\Users\LOCALH~1\AppData\Local\Temp\ccZQPmnq.s:1496   .text.RCC_PREDIV2Config:0000000000000000 RCC_PREDIV2Config
C:\Users\LOCALH~1\AppData\Local\Temp\ccZQPmnq.s:1499   .text.RCC_PREDIV2Config:0000000000000000 .L0 
C:\Users\LOCALH~1\AppData\Local\Temp\ccZQPmnq.s:1501   .text.RCC_PREDIV2Config:0000000000000000 .L0 
C:\Users\LOCALH~1\AppData\Local\Temp\ccZQPmnq.s:1502   .text.RCC_PREDIV2Config:0000000000000000 .L0 
C:\Users\LOCALH~1\AppData\Local\Temp\ccZQPmnq.s:1503   .text.RCC_PREDIV2Config:0000000000000000 .L0 
C:\Users\LOCALH~1\AppData\Local\Temp\ccZQPmnq.s:1504   .text.RCC_PREDIV2Config:0000000000000000 $x
C:\Users\LOCALH~1\AppData\Local\Temp\ccZQPmnq.s:1504   .text.RCC_PREDIV2Config:0000000000000000 .L0 
C:\Users\LOCALH~1\AppData\Local\Temp\ccZQPmnq.s:1508   .text.RCC_PREDIV2Config:0000000000000006 .L0 
C:\Users\LOCALH~1\AppData\Local\Temp\ccZQPmnq.s:1509   .text.RCC_PREDIV2Config:0000000000000006 .L0 
C:\Users\LOCALH~1\AppData\Local\Temp\ccZQPmnq.s:1512   .text.RCC_PREDIV2Config:000000000000000a .L0 
C:\Users\LOCALH~1\AppData\Local\Temp\ccZQPmnq.s:1513   .text.RCC_PREDIV2Config:000000000000000a .L0 
C:\Users\LOCALH~1\AppData\Local\Temp\ccZQPmnq.s:1516   .text.RCC_PREDIV2Config:000000000000000c .L0 
C:\Users\LOCALH~1\AppData\Local\Temp\ccZQPmnq.s:1517   .text.RCC_PREDIV2Config:000000000000000c .L0 
C:\Users\LOCALH~1\AppData\Local\Temp\ccZQPmnq.s:1519   .text.RCC_PREDIV2Config:000000000000000e .L0 
C:\Users\LOCALH~1\AppData\Local\Temp\ccZQPmnq.s:1520   .text.RCC_PREDIV2Config:0000000000000010 .L0 
C:\Users\LOCALH~1\AppData\Local\Temp\ccZQPmnq.s:1527   .text.RCC_PLL2Config:0000000000000000 RCC_PLL2Config
C:\Users\LOCALH~1\AppData\Local\Temp\ccZQPmnq.s:1530   .text.RCC_PLL2Config:0000000000000000 .L0 
C:\Users\LOCALH~1\AppData\Local\Temp\ccZQPmnq.s:1532   .text.RCC_PLL2Config:0000000000000000 .L0 
C:\Users\LOCALH~1\AppData\Local\Temp\ccZQPmnq.s:1533   .text.RCC_PLL2Config:0000000000000000 .L0 
C:\Users\LOCALH~1\AppData\Local\Temp\ccZQPmnq.s:1534   .text.RCC_PLL2Config:0000000000000000 .L0 
C:\Users\LOCALH~1\AppData\Local\Temp\ccZQPmnq.s:1535   .text.RCC_PLL2Config:0000000000000000 $x
C:\Users\LOCALH~1\AppData\Local\Temp\ccZQPmnq.s:1535   .text.RCC_PLL2Config:0000000000000000 .L0 
C:\Users\LOCALH~1\AppData\Local\Temp\ccZQPmnq.s:1539   .text.RCC_PLL2Config:0000000000000006 .L0 
C:\Users\LOCALH~1\AppData\Local\Temp\ccZQPmnq.s:1540   .text.RCC_PLL2Config:0000000000000006 .L0 
C:\Users\LOCALH~1\AppData\Local\Temp\ccZQPmnq.s:1545   .text.RCC_PLL2Config:000000000000000e .L0 
C:\Users\LOCALH~1\AppData\Local\Temp\ccZQPmnq.s:1546   .text.RCC_PLL2Config:000000000000000e .L0 
C:\Users\LOCALH~1\AppData\Local\Temp\ccZQPmnq.s:1549   .text.RCC_PLL2Config:0000000000000010 .L0 
C:\Users\LOCALH~1\AppData\Local\Temp\ccZQPmnq.s:1550   .text.RCC_PLL2Config:0000000000000010 .L0 
C:\Users\LOCALH~1\AppData\Local\Temp\ccZQPmnq.s:1552   .text.RCC_PLL2Config:0000000000000012 .L0 
C:\Users\LOCALH~1\AppData\Local\Temp\ccZQPmnq.s:1553   .text.RCC_PLL2Config:0000000000000014 .L0 
C:\Users\LOCALH~1\AppData\Local\Temp\ccZQPmnq.s:1560   .text.RCC_PLL2Cmd:0000000000000000 RCC_PLL2Cmd
C:\Users\LOCALH~1\AppData\Local\Temp\ccZQPmnq.s:1563   .text.RCC_PLL2Cmd:0000000000000000 .L0 
C:\Users\LOCALH~1\AppData\Local\Temp\ccZQPmnq.s:1565   .text.RCC_PLL2Cmd:0000000000000000 .L0 
C:\Users\LOCALH~1\AppData\Local\Temp\ccZQPmnq.s:1566   .text.RCC_PLL2Cmd:0000000000000000 .L0 
C:\Users\LOCALH~1\AppData\Local\Temp\ccZQPmnq.s:1567   .text.RCC_PLL2Cmd:0000000000000000 $x
C:\Users\LOCALH~1\AppData\Local\Temp\ccZQPmnq.s:1567   .text.RCC_PLL2Cmd:0000000000000000 .L0 
C:\Users\LOCALH~1\AppData\Local\Temp\ccZQPmnq.s:1569   .text.RCC_PLL2Cmd:0000000000000002 .L0 
C:\Users\LOCALH~1\AppData\Local\Temp\ccZQPmnq.s:1570   .text.RCC_PLL2Cmd:0000000000000002 .L0 
C:\Users\LOCALH~1\AppData\Local\Temp\ccZQPmnq.s:1573   .text.RCC_PLL2Cmd:0000000000000008 .L0 
C:\Users\LOCALH~1\AppData\Local\Temp\ccZQPmnq.s:1579   .text.RCC_PLL2Cmd:0000000000000012 .L0 
C:\Users\LOCALH~1\AppData\Local\Temp\ccZQPmnq.s:1580   .text.RCC_PLL2Cmd:0000000000000012 .L0 
C:\Users\LOCALH~1\AppData\Local\Temp\ccZQPmnq.s:1583   .text.RCC_PLL2Cmd:0000000000000018 .L0 
C:\Users\LOCALH~1\AppData\Local\Temp\ccZQPmnq.s:1588   .text.RCC_PLL2Cmd:0000000000000022 .L0 
C:\Users\LOCALH~1\AppData\Local\Temp\ccZQPmnq.s:1589   .text.RCC_PLL2Cmd:0000000000000024 .L0 
C:\Users\LOCALH~1\AppData\Local\Temp\ccZQPmnq.s:1596   .text.RCC_PLL3Config:0000000000000000 RCC_PLL3Config
C:\Users\LOCALH~1\AppData\Local\Temp\ccZQPmnq.s:1599   .text.RCC_PLL3Config:0000000000000000 .L0 
C:\Users\LOCALH~1\AppData\Local\Temp\ccZQPmnq.s:1601   .text.RCC_PLL3Config:0000000000000000 .L0 
C:\Users\LOCALH~1\AppData\Local\Temp\ccZQPmnq.s:1602   .text.RCC_PLL3Config:0000000000000000 .L0 
C:\Users\LOCALH~1\AppData\Local\Temp\ccZQPmnq.s:1603   .text.RCC_PLL3Config:0000000000000000 .L0 
C:\Users\LOCALH~1\AppData\Local\Temp\ccZQPmnq.s:1604   .text.RCC_PLL3Config:0000000000000000 $x
C:\Users\LOCALH~1\AppData\Local\Temp\ccZQPmnq.s:1604   .text.RCC_PLL3Config:0000000000000000 .L0 
C:\Users\LOCALH~1\AppData\Local\Temp\ccZQPmnq.s:1608   .text.RCC_PLL3Config:0000000000000006 .L0 
C:\Users\LOCALH~1\AppData\Local\Temp\ccZQPmnq.s:1609   .text.RCC_PLL3Config:0000000000000006 .L0 
C:\Users\LOCALH~1\AppData\Local\Temp\ccZQPmnq.s:1614   .text.RCC_PLL3Config:000000000000000c .L0 
C:\Users\LOCALH~1\AppData\Local\Temp\ccZQPmnq.s:1615   .text.RCC_PLL3Config:000000000000000c .L0 
C:\Users\LOCALH~1\AppData\Local\Temp\ccZQPmnq.s:1618   .text.RCC_PLL3Config:000000000000000e .L0 
C:\Users\LOCALH~1\AppData\Local\Temp\ccZQPmnq.s:1619   .text.RCC_PLL3Config:000000000000000e .L0 
C:\Users\LOCALH~1\AppData\Local\Temp\ccZQPmnq.s:1621   .text.RCC_PLL3Config:0000000000000010 .L0 
C:\Users\LOCALH~1\AppData\Local\Temp\ccZQPmnq.s:1622   .text.RCC_PLL3Config:0000000000000012 .L0 
C:\Users\LOCALH~1\AppData\Local\Temp\ccZQPmnq.s:1629   .text.RCC_PLL3Cmd:0000000000000000 RCC_PLL3Cmd
C:\Users\LOCALH~1\AppData\Local\Temp\ccZQPmnq.s:1632   .text.RCC_PLL3Cmd:0000000000000000 .L0 
C:\Users\LOCALH~1\AppData\Local\Temp\ccZQPmnq.s:1634   .text.RCC_PLL3Cmd:0000000000000000 .L0 
C:\Users\LOCALH~1\AppData\Local\Temp\ccZQPmnq.s:1635   .text.RCC_PLL3Cmd:0000000000000000 .L0 
C:\Users\LOCALH~1\AppData\Local\Temp\ccZQPmnq.s:1636   .text.RCC_PLL3Cmd:0000000000000000 $x
C:\Users\LOCALH~1\AppData\Local\Temp\ccZQPmnq.s:1636   .text.RCC_PLL3Cmd:0000000000000000 .L0 
C:\Users\LOCALH~1\AppData\Local\Temp\ccZQPmnq.s:1638   .text.RCC_PLL3Cmd:0000000000000002 .L0 
C:\Users\LOCALH~1\AppData\Local\Temp\ccZQPmnq.s:1639   .text.RCC_PLL3Cmd:0000000000000002 .L0 
C:\Users\LOCALH~1\AppData\Local\Temp\ccZQPmnq.s:1642   .text.RCC_PLL3Cmd:0000000000000008 .L0 
C:\Users\LOCALH~1\AppData\Local\Temp\ccZQPmnq.s:1648   .text.RCC_PLL3Cmd:0000000000000012 .L0 
C:\Users\LOCALH~1\AppData\Local\Temp\ccZQPmnq.s:1649   .text.RCC_PLL3Cmd:0000000000000012 .L0 
C:\Users\LOCALH~1\AppData\Local\Temp\ccZQPmnq.s:1652   .text.RCC_PLL3Cmd:0000000000000018 .L0 
C:\Users\LOCALH~1\AppData\Local\Temp\ccZQPmnq.s:1657   .text.RCC_PLL3Cmd:0000000000000022 .L0 
C:\Users\LOCALH~1\AppData\Local\Temp\ccZQPmnq.s:1658   .text.RCC_PLL3Cmd:0000000000000024 .L0 
C:\Users\LOCALH~1\AppData\Local\Temp\ccZQPmnq.s:1665   .text.RCC_USBFSCLKConfig:0000000000000000 RCC_USBFSCLKConfig
C:\Users\LOCALH~1\AppData\Local\Temp\ccZQPmnq.s:1668   .text.RCC_USBFSCLKConfig:0000000000000000 .L0 
C:\Users\LOCALH~1\AppData\Local\Temp\ccZQPmnq.s:1670   .text.RCC_USBFSCLKConfig:0000000000000000 .L0 
C:\Users\LOCALH~1\AppData\Local\Temp\ccZQPmnq.s:1671   .text.RCC_USBFSCLKConfig:0000000000000000 .L0 
C:\Users\LOCALH~1\AppData\Local\Temp\ccZQPmnq.s:1672   .text.RCC_USBFSCLKConfig:0000000000000000 $x
C:\Users\LOCALH~1\AppData\Local\Temp\ccZQPmnq.s:1672   .text.RCC_USBFSCLKConfig:0000000000000000 .L0 
C:\Users\LOCALH~1\AppData\Local\Temp\ccZQPmnq.s:1675   .text.RCC_USBFSCLKConfig:0000000000000006 .L0 
C:\Users\LOCALH~1\AppData\Local\Temp\ccZQPmnq.s:1680   .text.RCC_USBFSCLKConfig:0000000000000010 .L0 
C:\Users\LOCALH~1\AppData\Local\Temp\ccZQPmnq.s:1681   .text.RCC_USBFSCLKConfig:0000000000000010 .L0 
C:\Users\LOCALH~1\AppData\Local\Temp\ccZQPmnq.s:1683   .text.RCC_USBFSCLKConfig:0000000000000012 .L0 
C:\Users\LOCALH~1\AppData\Local\Temp\ccZQPmnq.s:1686   .text.RCC_USBFSCLKConfig:0000000000000014 .L0 
C:\Users\LOCALH~1\AppData\Local\Temp\ccZQPmnq.s:1689   .text.RCC_USBFSCLKConfig:0000000000000018 .L0 
C:\Users\LOCALH~1\AppData\Local\Temp\ccZQPmnq.s:1690   .text.RCC_USBFSCLKConfig:000000000000001a .L0 
C:\Users\LOCALH~1\AppData\Local\Temp\ccZQPmnq.s:1697   .text.RCC_I2S2CLKConfig:0000000000000000 RCC_I2S2CLKConfig
C:\Users\LOCALH~1\AppData\Local\Temp\ccZQPmnq.s:1700   .text.RCC_I2S2CLKConfig:0000000000000000 .L0 
C:\Users\LOCALH~1\AppData\Local\Temp\ccZQPmnq.s:1702   .text.RCC_I2S2CLKConfig:0000000000000000 .L0 
C:\Users\LOCALH~1\AppData\Local\Temp\ccZQPmnq.s:1703   .text.RCC_I2S2CLKConfig:0000000000000000 .L0 
C:\Users\LOCALH~1\AppData\Local\Temp\ccZQPmnq.s:1704   .text.RCC_I2S2CLKConfig:0000000000000000 $x
C:\Users\LOCALH~1\AppData\Local\Temp\ccZQPmnq.s:1704   .text.RCC_I2S2CLKConfig:0000000000000000 .L0 
C:\Users\LOCALH~1\AppData\Local\Temp\ccZQPmnq.s:1707   .text.RCC_I2S2CLKConfig:0000000000000006 .L0 
C:\Users\LOCALH~1\AppData\Local\Temp\ccZQPmnq.s:1712   .text.RCC_I2S2CLKConfig:000000000000000e .L0 
C:\Users\LOCALH~1\AppData\Local\Temp\ccZQPmnq.s:1713   .text.RCC_I2S2CLKConfig:000000000000000e .L0 
C:\Users\LOCALH~1\AppData\Local\Temp\ccZQPmnq.s:1715   .text.RCC_I2S2CLKConfig:0000000000000010 .L0 
C:\Users\LOCALH~1\AppData\Local\Temp\ccZQPmnq.s:1718   .text.RCC_I2S2CLKConfig:0000000000000012 .L0 
C:\Users\LOCALH~1\AppData\Local\Temp\ccZQPmnq.s:1721   .text.RCC_I2S2CLKConfig:0000000000000016 .L0 
C:\Users\LOCALH~1\AppData\Local\Temp\ccZQPmnq.s:1722   .text.RCC_I2S2CLKConfig:0000000000000018 .L0 
C:\Users\LOCALH~1\AppData\Local\Temp\ccZQPmnq.s:1729   .text.RCC_I2S3CLKConfig:0000000000000000 RCC_I2S3CLKConfig
C:\Users\LOCALH~1\AppData\Local\Temp\ccZQPmnq.s:1732   .text.RCC_I2S3CLKConfig:0000000000000000 .L0 
C:\Users\LOCALH~1\AppData\Local\Temp\ccZQPmnq.s:1734   .text.RCC_I2S3CLKConfig:0000000000000000 .L0 
C:\Users\LOCALH~1\AppData\Local\Temp\ccZQPmnq.s:1735   .text.RCC_I2S3CLKConfig:0000000000000000 .L0 
C:\Users\LOCALH~1\AppData\Local\Temp\ccZQPmnq.s:1736   .text.RCC_I2S3CLKConfig:0000000000000000 $x
C:\Users\LOCALH~1\AppData\Local\Temp\ccZQPmnq.s:1736   .text.RCC_I2S3CLKConfig:0000000000000000 .L0 
C:\Users\LOCALH~1\AppData\Local\Temp\ccZQPmnq.s:1739   .text.RCC_I2S3CLKConfig:0000000000000006 .L0 
C:\Users\LOCALH~1\AppData\Local\Temp\ccZQPmnq.s:1744   .text.RCC_I2S3CLKConfig:0000000000000010 .L0 
C:\Users\LOCALH~1\AppData\Local\Temp\ccZQPmnq.s:1745   .text.RCC_I2S3CLKConfig:0000000000000010 .L0 
C:\Users\LOCALH~1\AppData\Local\Temp\ccZQPmnq.s:1747   .text.RCC_I2S3CLKConfig:0000000000000012 .L0 
C:\Users\LOCALH~1\AppData\Local\Temp\ccZQPmnq.s:1750   .text.RCC_I2S3CLKConfig:0000000000000014 .L0 
C:\Users\LOCALH~1\AppData\Local\Temp\ccZQPmnq.s:1753   .text.RCC_I2S3CLKConfig:0000000000000018 .L0 
C:\Users\LOCALH~1\AppData\Local\Temp\ccZQPmnq.s:1754   .text.RCC_I2S3CLKConfig:000000000000001a .L0 
C:\Users\LOCALH~1\AppData\Local\Temp\ccZQPmnq.s:1761   .text.RCC_AHBPeriphResetCmd:0000000000000000 RCC_AHBPeriphResetCmd
C:\Users\LOCALH~1\AppData\Local\Temp\ccZQPmnq.s:1764   .text.RCC_AHBPeriphResetCmd:0000000000000000 .L0 
C:\Users\LOCALH~1\AppData\Local\Temp\ccZQPmnq.s:1766   .text.RCC_AHBPeriphResetCmd:0000000000000000 .L0 
C:\Users\LOCALH~1\AppData\Local\Temp\ccZQPmnq.s:1767   .text.RCC_AHBPeriphResetCmd:0000000000000000 .L0 
C:\Users\LOCALH~1\AppData\Local\Temp\ccZQPmnq.s:1768   .text.RCC_AHBPeriphResetCmd:0000000000000000 $x
C:\Users\LOCALH~1\AppData\Local\Temp\ccZQPmnq.s:1768   .text.RCC_AHBPeriphResetCmd:0000000000000000 .L0 
C:\Users\LOCALH~1\AppData\Local\Temp\ccZQPmnq.s:1770   .text.RCC_AHBPeriphResetCmd:0000000000000002 .L0 
C:\Users\LOCALH~1\AppData\Local\Temp\ccZQPmnq.s:1771   .text.RCC_AHBPeriphResetCmd:0000000000000002 .L0 
C:\Users\LOCALH~1\AppData\Local\Temp\ccZQPmnq.s:1774   .text.RCC_AHBPeriphResetCmd:0000000000000008 .L0 
C:\Users\LOCALH~1\AppData\Local\Temp\ccZQPmnq.s:1779   .text.RCC_AHBPeriphResetCmd:000000000000000e .L0 
C:\Users\LOCALH~1\AppData\Local\Temp\ccZQPmnq.s:1780   .text.RCC_AHBPeriphResetCmd:000000000000000e .L0 
C:\Users\LOCALH~1\AppData\Local\Temp\ccZQPmnq.s:1783   .text.RCC_AHBPeriphResetCmd:0000000000000014 .L0 
C:\Users\LOCALH~1\AppData\Local\Temp\ccZQPmnq.s:1786   .text.RCC_AHBPeriphResetCmd:0000000000000018 .L0 
C:\Users\LOCALH~1\AppData\Local\Temp\ccZQPmnq.s:1790   .text.RCC_AHBPeriphResetCmd:000000000000001c .L0 
C:\Users\LOCALH~1\AppData\Local\Temp\ccZQPmnq.s:1791   .text.RCC_AHBPeriphResetCmd:000000000000001e .L0 
C:\Users\LOCALH~1\AppData\Local\Temp\ccZQPmnq.s:1798   .text.RCC_ADCCLKADJcmd:0000000000000000 RCC_ADCCLKADJcmd
C:\Users\LOCALH~1\AppData\Local\Temp\ccZQPmnq.s:1801   .text.RCC_ADCCLKADJcmd:0000000000000000 .L0 
C:\Users\LOCALH~1\AppData\Local\Temp\ccZQPmnq.s:1803   .text.RCC_ADCCLKADJcmd:0000000000000000 .L0 
C:\Users\LOCALH~1\AppData\Local\Temp\ccZQPmnq.s:1804   .text.RCC_ADCCLKADJcmd:0000000000000000 .L0 
C:\Users\LOCALH~1\AppData\Local\Temp\ccZQPmnq.s:1805   .text.RCC_ADCCLKADJcmd:0000000000000000 $x
C:\Users\LOCALH~1\AppData\Local\Temp\ccZQPmnq.s:1805   .text.RCC_ADCCLKADJcmd:0000000000000000 .L0 
C:\Users\LOCALH~1\AppData\Local\Temp\ccZQPmnq.s:1808   .text.RCC_ADCCLKADJcmd:0000000000000006 .L0 
C:\Users\LOCALH~1\AppData\Local\Temp\ccZQPmnq.s:1810   .text.RCC_ADCCLKADJcmd:0000000000000008 .L0 
C:\Users\LOCALH~1\AppData\Local\Temp\ccZQPmnq.s:1811   .text.RCC_ADCCLKADJcmd:0000000000000008 .L0 
C:\Users\LOCALH~1\AppData\Local\Temp\ccZQPmnq.s:1815   .text.RCC_ADCCLKADJcmd:000000000000000e .L0 
C:\Users\LOCALH~1\AppData\Local\Temp\ccZQPmnq.s:1817   .text.RCC_ADCCLKADJcmd:0000000000000010 .L0 
C:\Users\LOCALH~1\AppData\Local\Temp\ccZQPmnq.s:1820   .text.RCC_ADCCLKADJcmd:0000000000000012 .L0 
C:\Users\LOCALH~1\AppData\Local\Temp\ccZQPmnq.s:1821   .text.RCC_ADCCLKADJcmd:0000000000000012 .L0 
C:\Users\LOCALH~1\AppData\Local\Temp\ccZQPmnq.s:1824   .text.RCC_ADCCLKADJcmd:0000000000000018 .L0 
C:\Users\LOCALH~1\AppData\Local\Temp\ccZQPmnq.s:1831   .text.RCC_RNGCLKConfig:0000000000000000 RCC_RNGCLKConfig
C:\Users\LOCALH~1\AppData\Local\Temp\ccZQPmnq.s:1834   .text.RCC_RNGCLKConfig:0000000000000000 .L0 
C:\Users\LOCALH~1\AppData\Local\Temp\ccZQPmnq.s:1836   .text.RCC_RNGCLKConfig:0000000000000000 .L0 
C:\Users\LOCALH~1\AppData\Local\Temp\ccZQPmnq.s:1837   .text.RCC_RNGCLKConfig:0000000000000000 .L0 
C:\Users\LOCALH~1\AppData\Local\Temp\ccZQPmnq.s:1838   .text.RCC_RNGCLKConfig:0000000000000000 $x
C:\Users\LOCALH~1\AppData\Local\Temp\ccZQPmnq.s:1838   .text.RCC_RNGCLKConfig:0000000000000000 .L0 
C:\Users\LOCALH~1\AppData\Local\Temp\ccZQPmnq.s:1841   .text.RCC_RNGCLKConfig:0000000000000006 .L0 
C:\Users\LOCALH~1\AppData\Local\Temp\ccZQPmnq.s:1846   .text.RCC_RNGCLKConfig:0000000000000010 .L0 
C:\Users\LOCALH~1\AppData\Local\Temp\ccZQPmnq.s:1847   .text.RCC_RNGCLKConfig:0000000000000010 .L0 
C:\Users\LOCALH~1\AppData\Local\Temp\ccZQPmnq.s:1849   .text.RCC_RNGCLKConfig:0000000000000012 .L0 
C:\Users\LOCALH~1\AppData\Local\Temp\ccZQPmnq.s:1852   .text.RCC_RNGCLKConfig:0000000000000014 .L0 
C:\Users\LOCALH~1\AppData\Local\Temp\ccZQPmnq.s:1855   .text.RCC_RNGCLKConfig:0000000000000018 .L0 
C:\Users\LOCALH~1\AppData\Local\Temp\ccZQPmnq.s:1856   .text.RCC_RNGCLKConfig:000000000000001a .L0 
C:\Users\LOCALH~1\AppData\Local\Temp\ccZQPmnq.s:1863   .text.RCC_ETH1GCLKConfig:0000000000000000 RCC_ETH1GCLKConfig
C:\Users\LOCALH~1\AppData\Local\Temp\ccZQPmnq.s:1866   .text.RCC_ETH1GCLKConfig:0000000000000000 .L0 
C:\Users\LOCALH~1\AppData\Local\Temp\ccZQPmnq.s:1868   .text.RCC_ETH1GCLKConfig:0000000000000000 .L0 
C:\Users\LOCALH~1\AppData\Local\Temp\ccZQPmnq.s:1869   .text.RCC_ETH1GCLKConfig:0000000000000000 .L0 
C:\Users\LOCALH~1\AppData\Local\Temp\ccZQPmnq.s:1870   .text.RCC_ETH1GCLKConfig:0000000000000000 $x
C:\Users\LOCALH~1\AppData\Local\Temp\ccZQPmnq.s:1870   .text.RCC_ETH1GCLKConfig:0000000000000000 .L0 
C:\Users\LOCALH~1\AppData\Local\Temp\ccZQPmnq.s:1873   .text.RCC_ETH1GCLKConfig:0000000000000006 .L0 
C:\Users\LOCALH~1\AppData\Local\Temp\ccZQPmnq.s:1878   .text.RCC_ETH1GCLKConfig:0000000000000010 .L0 
C:\Users\LOCALH~1\AppData\Local\Temp\ccZQPmnq.s:1879   .text.RCC_ETH1GCLKConfig:0000000000000010 .L0 
C:\Users\LOCALH~1\AppData\Local\Temp\ccZQPmnq.s:1881   .text.RCC_ETH1GCLKConfig:0000000000000012 .L0 
C:\Users\LOCALH~1\AppData\Local\Temp\ccZQPmnq.s:1884   .text.RCC_ETH1GCLKConfig:0000000000000014 .L0 
C:\Users\LOCALH~1\AppData\Local\Temp\ccZQPmnq.s:1887   .text.RCC_ETH1GCLKConfig:0000000000000018 .L0 
C:\Users\LOCALH~1\AppData\Local\Temp\ccZQPmnq.s:1888   .text.RCC_ETH1GCLKConfig:000000000000001a .L0 
C:\Users\LOCALH~1\AppData\Local\Temp\ccZQPmnq.s:1895   .text.RCC_ETH1G_125Mcmd:0000000000000000 RCC_ETH1G_125Mcmd
C:\Users\LOCALH~1\AppData\Local\Temp\ccZQPmnq.s:1898   .text.RCC_ETH1G_125Mcmd:0000000000000000 .L0 
C:\Users\LOCALH~1\AppData\Local\Temp\ccZQPmnq.s:1900   .text.RCC_ETH1G_125Mcmd:0000000000000000 .L0 
C:\Users\LOCALH~1\AppData\Local\Temp\ccZQPmnq.s:1901   .text.RCC_ETH1G_125Mcmd:0000000000000000 .L0 
C:\Users\LOCALH~1\AppData\Local\Temp\ccZQPmnq.s:1902   .text.RCC_ETH1G_125Mcmd:0000000000000000 $x
C:\Users\LOCALH~1\AppData\Local\Temp\ccZQPmnq.s:1902   .text.RCC_ETH1G_125Mcmd:0000000000000000 .L0 
C:\Users\LOCALH~1\AppData\Local\Temp\ccZQPmnq.s:1904   .text.RCC_ETH1G_125Mcmd:0000000000000002 .L0 
C:\Users\LOCALH~1\AppData\Local\Temp\ccZQPmnq.s:1905   .text.RCC_ETH1G_125Mcmd:0000000000000002 .L0 
C:\Users\LOCALH~1\AppData\Local\Temp\ccZQPmnq.s:1908   .text.RCC_ETH1G_125Mcmd:0000000000000008 .L0 
C:\Users\LOCALH~1\AppData\Local\Temp\ccZQPmnq.s:1914   .text.RCC_ETH1G_125Mcmd:0000000000000012 .L0 
C:\Users\LOCALH~1\AppData\Local\Temp\ccZQPmnq.s:1915   .text.RCC_ETH1G_125Mcmd:0000000000000012 .L0 
C:\Users\LOCALH~1\AppData\Local\Temp\ccZQPmnq.s:1918   .text.RCC_ETH1G_125Mcmd:0000000000000018 .L0 
C:\Users\LOCALH~1\AppData\Local\Temp\ccZQPmnq.s:1923   .text.RCC_ETH1G_125Mcmd:0000000000000022 .L0 
C:\Users\LOCALH~1\AppData\Local\Temp\ccZQPmnq.s:1924   .text.RCC_ETH1G_125Mcmd:0000000000000024 .L0 
C:\Users\LOCALH~1\AppData\Local\Temp\ccZQPmnq.s:1931   .text.RCC_USBHSConfig:0000000000000000 RCC_USBHSConfig
C:\Users\LOCALH~1\AppData\Local\Temp\ccZQPmnq.s:1934   .text.RCC_USBHSConfig:0000000000000000 .L0 
C:\Users\LOCALH~1\AppData\Local\Temp\ccZQPmnq.s:1936   .text.RCC_USBHSConfig:0000000000000000 .L0 
C:\Users\LOCALH~1\AppData\Local\Temp\ccZQPmnq.s:1937   .text.RCC_USBHSConfig:0000000000000000 .L0 
C:\Users\LOCALH~1\AppData\Local\Temp\ccZQPmnq.s:1938   .text.RCC_USBHSConfig:0000000000000000 $x
C:\Users\LOCALH~1\AppData\Local\Temp\ccZQPmnq.s:1938   .text.RCC_USBHSConfig:0000000000000000 .L0 
C:\Users\LOCALH~1\AppData\Local\Temp\ccZQPmnq.s:1941   .text.RCC_USBHSConfig:0000000000000006 .L0 
C:\Users\LOCALH~1\AppData\Local\Temp\ccZQPmnq.s:1946   .text.RCC_USBHSConfig:0000000000000010 .L0 
C:\Users\LOCALH~1\AppData\Local\Temp\ccZQPmnq.s:1947   .text.RCC_USBHSConfig:0000000000000010 .L0 
C:\Users\LOCALH~1\AppData\Local\Temp\ccZQPmnq.s:1949   .text.RCC_USBHSConfig:0000000000000012 .L0 
C:\Users\LOCALH~1\AppData\Local\Temp\ccZQPmnq.s:1952   .text.RCC_USBHSConfig:0000000000000014 .L0 
C:\Users\LOCALH~1\AppData\Local\Temp\ccZQPmnq.s:1955   .text.RCC_USBHSConfig:0000000000000018 .L0 
C:\Users\LOCALH~1\AppData\Local\Temp\ccZQPmnq.s:1956   .text.RCC_USBHSConfig:000000000000001a .L0 
C:\Users\LOCALH~1\AppData\Local\Temp\ccZQPmnq.s:1963   .text.RCC_USBHSPLLCLKConfig:0000000000000000 RCC_USBHSPLLCLKConfig
C:\Users\LOCALH~1\AppData\Local\Temp\ccZQPmnq.s:1966   .text.RCC_USBHSPLLCLKConfig:0000000000000000 .L0 
C:\Users\LOCALH~1\AppData\Local\Temp\ccZQPmnq.s:1968   .text.RCC_USBHSPLLCLKConfig:0000000000000000 .L0 
C:\Users\LOCALH~1\AppData\Local\Temp\ccZQPmnq.s:1969   .text.RCC_USBHSPLLCLKConfig:0000000000000000 .L0 
C:\Users\LOCALH~1\AppData\Local\Temp\ccZQPmnq.s:1970   .text.RCC_USBHSPLLCLKConfig:0000000000000000 $x
C:\Users\LOCALH~1\AppData\Local\Temp\ccZQPmnq.s:1970   .text.RCC_USBHSPLLCLKConfig:0000000000000000 .L0 
C:\Users\LOCALH~1\AppData\Local\Temp\ccZQPmnq.s:1973   .text.RCC_USBHSPLLCLKConfig:0000000000000006 .L0 
C:\Users\LOCALH~1\AppData\Local\Temp\ccZQPmnq.s:1978   .text.RCC_USBHSPLLCLKConfig:0000000000000010 .L0 
C:\Users\LOCALH~1\AppData\Local\Temp\ccZQPmnq.s:1979   .text.RCC_USBHSPLLCLKConfig:0000000000000010 .L0 
C:\Users\LOCALH~1\AppData\Local\Temp\ccZQPmnq.s:1981   .text.RCC_USBHSPLLCLKConfig:0000000000000012 .L0 
C:\Users\LOCALH~1\AppData\Local\Temp\ccZQPmnq.s:1984   .text.RCC_USBHSPLLCLKConfig:0000000000000014 .L0 
C:\Users\LOCALH~1\AppData\Local\Temp\ccZQPmnq.s:1987   .text.RCC_USBHSPLLCLKConfig:0000000000000018 .L0 
C:\Users\LOCALH~1\AppData\Local\Temp\ccZQPmnq.s:1988   .text.RCC_USBHSPLLCLKConfig:000000000000001a .L0 
C:\Users\LOCALH~1\AppData\Local\Temp\ccZQPmnq.s:1995   .text.RCC_USBHSPLLCKREFCLKConfig:0000000000000000 RCC_USBHSPLLCKREFCLKConfig
C:\Users\LOCALH~1\AppData\Local\Temp\ccZQPmnq.s:1998   .text.RCC_USBHSPLLCKREFCLKConfig:0000000000000000 .L0 
C:\Users\LOCALH~1\AppData\Local\Temp\ccZQPmnq.s:2000   .text.RCC_USBHSPLLCKREFCLKConfig:0000000000000000 .L0 
C:\Users\LOCALH~1\AppData\Local\Temp\ccZQPmnq.s:2001   .text.RCC_USBHSPLLCKREFCLKConfig:0000000000000000 .L0 
C:\Users\LOCALH~1\AppData\Local\Temp\ccZQPmnq.s:2002   .text.RCC_USBHSPLLCKREFCLKConfig:0000000000000000 $x
C:\Users\LOCALH~1\AppData\Local\Temp\ccZQPmnq.s:2002   .text.RCC_USBHSPLLCKREFCLKConfig:0000000000000000 .L0 
C:\Users\LOCALH~1\AppData\Local\Temp\ccZQPmnq.s:2005   .text.RCC_USBHSPLLCKREFCLKConfig:0000000000000006 .L0 
C:\Users\LOCALH~1\AppData\Local\Temp\ccZQPmnq.s:2010   .text.RCC_USBHSPLLCKREFCLKConfig:0000000000000010 .L0 
C:\Users\LOCALH~1\AppData\Local\Temp\ccZQPmnq.s:2011   .text.RCC_USBHSPLLCKREFCLKConfig:0000000000000010 .L0 
C:\Users\LOCALH~1\AppData\Local\Temp\ccZQPmnq.s:2013   .text.RCC_USBHSPLLCKREFCLKConfig:0000000000000012 .L0 
C:\Users\LOCALH~1\AppData\Local\Temp\ccZQPmnq.s:2016   .text.RCC_USBHSPLLCKREFCLKConfig:0000000000000014 .L0 
C:\Users\LOCALH~1\AppData\Local\Temp\ccZQPmnq.s:2019   .text.RCC_USBHSPLLCKREFCLKConfig:0000000000000018 .L0 
C:\Users\LOCALH~1\AppData\Local\Temp\ccZQPmnq.s:2020   .text.RCC_USBHSPLLCKREFCLKConfig:000000000000001a .L0 
C:\Users\LOCALH~1\AppData\Local\Temp\ccZQPmnq.s:2027   .text.RCC_USBHSPHYPLLALIVEcmd:0000000000000000 RCC_USBHSPHYPLLALIVEcmd
C:\Users\LOCALH~1\AppData\Local\Temp\ccZQPmnq.s:2030   .text.RCC_USBHSPHYPLLALIVEcmd:0000000000000000 .L0 
C:\Users\LOCALH~1\AppData\Local\Temp\ccZQPmnq.s:2032   .text.RCC_USBHSPHYPLLALIVEcmd:0000000000000000 .L0 
C:\Users\LOCALH~1\AppData\Local\Temp\ccZQPmnq.s:2033   .text.RCC_USBHSPHYPLLALIVEcmd:0000000000000000 .L0 
C:\Users\LOCALH~1\AppData\Local\Temp\ccZQPmnq.s:2034   .text.RCC_USBHSPHYPLLALIVEcmd:0000000000000000 $x
C:\Users\LOCALH~1\AppData\Local\Temp\ccZQPmnq.s:2034   .text.RCC_USBHSPHYPLLALIVEcmd:0000000000000000 .L0 
C:\Users\LOCALH~1\AppData\Local\Temp\ccZQPmnq.s:2036   .text.RCC_USBHSPHYPLLALIVEcmd:0000000000000002 .L0 
C:\Users\LOCALH~1\AppData\Local\Temp\ccZQPmnq.s:2037   .text.RCC_USBHSPHYPLLALIVEcmd:0000000000000002 .L0 
C:\Users\LOCALH~1\AppData\Local\Temp\ccZQPmnq.s:2040   .text.RCC_USBHSPHYPLLALIVEcmd:0000000000000008 .L0 
C:\Users\LOCALH~1\AppData\Local\Temp\ccZQPmnq.s:2046   .text.RCC_USBHSPHYPLLALIVEcmd:0000000000000012 .L0 
C:\Users\LOCALH~1\AppData\Local\Temp\ccZQPmnq.s:2047   .text.RCC_USBHSPHYPLLALIVEcmd:0000000000000012 .L0 
C:\Users\LOCALH~1\AppData\Local\Temp\ccZQPmnq.s:2050   .text.RCC_USBHSPHYPLLALIVEcmd:0000000000000018 .L0 
C:\Users\LOCALH~1\AppData\Local\Temp\ccZQPmnq.s:2055   .text.RCC_USBHSPHYPLLALIVEcmd:0000000000000022 .L0 
C:\Users\LOCALH~1\AppData\Local\Temp\ccZQPmnq.s:2056   .text.RCC_USBHSPHYPLLALIVEcmd:0000000000000024 .L0 
C:\Users\LOCALH~1\AppData\Local\Temp\ccZQPmnq.s:2063   .text.RCC_USBCLK48MConfig:0000000000000000 RCC_USBCLK48MConfig
C:\Users\LOCALH~1\AppData\Local\Temp\ccZQPmnq.s:2066   .text.RCC_USBCLK48MConfig:0000000000000000 .L0 
C:\Users\LOCALH~1\AppData\Local\Temp\ccZQPmnq.s:2068   .text.RCC_USBCLK48MConfig:0000000000000000 .L0 
C:\Users\LOCALH~1\AppData\Local\Temp\ccZQPmnq.s:2069   .text.RCC_USBCLK48MConfig:0000000000000000 .L0 
C:\Users\LOCALH~1\AppData\Local\Temp\ccZQPmnq.s:2070   .text.RCC_USBCLK48MConfig:0000000000000000 $x
C:\Users\LOCALH~1\AppData\Local\Temp\ccZQPmnq.s:2070   .text.RCC_USBCLK48MConfig:0000000000000000 .L0 
C:\Users\LOCALH~1\AppData\Local\Temp\ccZQPmnq.s:2073   .text.RCC_USBCLK48MConfig:0000000000000006 .L0 
C:\Users\LOCALH~1\AppData\Local\Temp\ccZQPmnq.s:2076   .text.RCC_USBCLK48MConfig:0000000000000008 .L0 
C:\Users\LOCALH~1\AppData\Local\Temp\ccZQPmnq.s:2080   .text.RCC_USBCLK48MConfig:000000000000000e .L0 
C:\Users\LOCALH~1\AppData\Local\Temp\ccZQPmnq.s:2081   .text.RCC_USBCLK48MConfig:000000000000000e .L0 
C:\Users\LOCALH~1\AppData\Local\Temp\ccZQPmnq.s:2083   .text.RCC_USBCLK48MConfig:0000000000000010 .L0 
C:\Users\LOCALH~1\AppData\Local\Temp\ccZQPmnq.s:2086   .text.RCC_USBCLK48MConfig:0000000000000014 .L0 
C:\Users\LOCALH~1\AppData\Local\Temp\ccZQPmnq.s:2087   .text.RCC_USBCLK48MConfig:0000000000000016 .L0 
C:\Users\LOCALH~1\AppData\Local\Temp\ccZQPmnq.s:5756   .debug_line_str:0000000000000076 .L0 
C:\Users\LOCALH~1\AppData\Local\Temp\ccZQPmnq.s:5756   .debug_line_str:00000000000000cb .L0 
C:\Users\LOCALH~1\AppData\Local\Temp\ccZQPmnq.s:5756   .debug_line_str:00000000000000dd .L0 
C:\Users\LOCALH~1\AppData\Local\Temp\ccZQPmnq.s:5756   .debug_line_str:0000000000000139 .L0 
C:\Users\LOCALH~1\AppData\Local\Temp\ccZQPmnq.s:5756   .debug_line_str:0000000000000191 .L0 
C:\Users\LOCALH~1\AppData\Local\Temp\ccZQPmnq.s:5756   .debug_line_str:00000000000001e7 .L0 
C:\Users\LOCALH~1\AppData\Local\Temp\ccZQPmnq.s:5756   .debug_line_str:0000000000000247 .L0 
C:\Users\LOCALH~1\AppData\Local\Temp\ccZQPmnq.s:5756   .debug_line_str:0000000000000256 .L0 
C:\Users\LOCALH~1\AppData\Local\Temp\ccZQPmnq.s:5756   .debug_line_str:0000000000000265 .L0 
C:\Users\LOCALH~1\AppData\Local\Temp\ccZQPmnq.s:5756   .debug_line_str:0000000000000276 .L0 
C:\Users\LOCALH~1\AppData\Local\Temp\ccZQPmnq.s:5756   .debug_line_str:0000000000000280 .L0 
C:\Users\LOCALH~1\AppData\Local\Temp\ccZQPmnq.s:5756   .debug_line_str:000000000000028d .L0 
C:\Users\LOCALH~1\AppData\Local\Temp\ccZQPmnq.s:5756   .debug_line_str:0000000000000298 .L0 
C:\Users\LOCALH~1\AppData\Local\Temp\ccZQPmnq.s:78     .text.RCC_DeInit:0000000000000052 .L0 
C:\Users\LOCALH~1\AppData\Local\Temp\ccZQPmnq.s:133    .text.RCC_HSEConfig:000000000000003c .L0 
C:\Users\LOCALH~1\AppData\Local\Temp\ccZQPmnq.s:167    .text.RCC_AdjustHSICalibrationValue:0000000000000012 .L0 
C:\Users\LOCALH~1\AppData\Local\Temp\ccZQPmnq.s:198    .text.RCC_HSICmd:0000000000000014 .L0 
C:\Users\LOCALH~1\AppData\Local\Temp\ccZQPmnq.s:254    .text.RCC_PLLConfig:000000000000002e .L0 
C:\Users\LOCALH~1\AppData\Local\Temp\ccZQPmnq.s:290    .text.RCC_PLLCmd:0000000000000024 .L0 
C:\Users\LOCALH~1\AppData\Local\Temp\ccZQPmnq.s:321    .text.RCC_SYSCLKConfig:000000000000000e .L0 
C:\Users\LOCALH~1\AppData\Local\Temp\ccZQPmnq.s:339    .text.RCC_GetSYSCLKSource:000000000000000a .L0 
C:\Users\LOCALH~1\AppData\Local\Temp\ccZQPmnq.s:370    .text.RCC_HCLKConfig:0000000000000010 .L0 
C:\Users\LOCALH~1\AppData\Local\Temp\ccZQPmnq.s:401    .text.RCC_PCLK1Config:0000000000000010 .L0 
C:\Users\LOCALH~1\AppData\Local\Temp\ccZQPmnq.s:437    .text.RCC_PCLK2Config:0000000000000016 .L0 
C:\Users\LOCALH~1\AppData\Local\Temp\ccZQPmnq.s:473    .text.RCC_ITConfig:0000000000000016 .L0 
C:\Users\LOCALH~1\AppData\Local\Temp\ccZQPmnq.s:506    .text.RCC_ADCCLKConfig:0000000000000012 .L0 
C:\Users\LOCALH~1\AppData\Local\Temp\ccZQPmnq.s:545    .text.RCC_LSEConfig:0000000000000028 .L0 
C:\Users\LOCALH~1\AppData\Local\Temp\ccZQPmnq.s:576    .text.RCC_LSICmd:0000000000000014 .L0 
C:\Users\LOCALH~1\AppData\Local\Temp\ccZQPmnq.s:597    .text.RCC_RTCCLKConfig:000000000000000c .L0 
C:\Users\LOCALH~1\AppData\Local\Temp\ccZQPmnq.s:633    .text.RCC_RTCCLKCmd:0000000000000020 .L0 
C:\Users\LOCALH~1\AppData\Local\Temp\ccZQPmnq.s:995    .text.RCC_GetClocksFreq:000000000000015c .L0 
C:\Users\LOCALH~1\AppData\Local\Temp\ccZQPmnq.s:1032   .text.RCC_AHBPeriphClockCmd:000000000000001e .L0 
C:\Users\LOCALH~1\AppData\Local\Temp\ccZQPmnq.s:1069   .text.RCC_APB2PeriphClockCmd:000000000000001e .L0 
C:\Users\LOCALH~1\AppData\Local\Temp\ccZQPmnq.s:1106   .text.RCC_APB1PeriphClockCmd:000000000000001e .L0 
C:\Users\LOCALH~1\AppData\Local\Temp\ccZQPmnq.s:1143   .text.RCC_APB2PeriphResetCmd:000000000000001e .L0 
C:\Users\LOCALH~1\AppData\Local\Temp\ccZQPmnq.s:1180   .text.RCC_APB1PeriphResetCmd:000000000000001e .L0 
C:\Users\LOCALH~1\AppData\Local\Temp\ccZQPmnq.s:1216   .text.RCC_BackupResetCmd:0000000000000020 .L0 
C:\Users\LOCALH~1\AppData\Local\Temp\ccZQPmnq.s:1252   .text.RCC_ClockSecuritySystemCmd:0000000000000024 .L0 
C:\Users\LOCALH~1\AppData\Local\Temp\ccZQPmnq.s:1270   .text.RCC_MCOConfig:0000000000000008 .L0 
C:\Users\LOCALH~1\AppData\Local\Temp\ccZQPmnq.s:1331   .text.RCC_GetFlagStatus:000000000000002e .L0 
C:\Users\LOCALH~1\AppData\Local\Temp\ccZQPmnq.s:1394   .text.RCC_WaitForHSEStartUp:0000000000000042 .L0 
C:\Users\LOCALH~1\AppData\Local\Temp\ccZQPmnq.s:1415   .text.RCC_ClearFlag:0000000000000010 .L0 
C:\Users\LOCALH~1\AppData\Local\Temp\ccZQPmnq.s:1440   .text.RCC_GetITStatus:000000000000000e .L0 
C:\Users\LOCALH~1\AppData\Local\Temp\ccZQPmnq.s:1458   .text.RCC_ClearITPendingBit:0000000000000008 .L0 
C:\Users\LOCALH~1\AppData\Local\Temp\ccZQPmnq.s:1492   .text.RCC_PREDIV1Config:0000000000000014 .L0 
C:\Users\LOCALH~1\AppData\Local\Temp\ccZQPmnq.s:1523   .text.RCC_PREDIV2Config:0000000000000010 .L0 
C:\Users\LOCALH~1\AppData\Local\Temp\ccZQPmnq.s:1556   .text.RCC_PLL2Config:0000000000000014 .L0 
C:\Users\LOCALH~1\AppData\Local\Temp\ccZQPmnq.s:1592   .text.RCC_PLL2Cmd:0000000000000024 .L0 
C:\Users\LOCALH~1\AppData\Local\Temp\ccZQPmnq.s:1625   .text.RCC_PLL3Config:0000000000000012 .L0 
C:\Users\LOCALH~1\AppData\Local\Temp\ccZQPmnq.s:1661   .text.RCC_PLL3Cmd:0000000000000024 .L0 
C:\Users\LOCALH~1\AppData\Local\Temp\ccZQPmnq.s:1693   .text.RCC_USBFSCLKConfig:000000000000001a .L0 
C:\Users\LOCALH~1\AppData\Local\Temp\ccZQPmnq.s:1725   .text.RCC_I2S2CLKConfig:0000000000000018 .L0 
C:\Users\LOCALH~1\AppData\Local\Temp\ccZQPmnq.s:1757   .text.RCC_I2S3CLKConfig:000000000000001a .L0 
C:\Users\LOCALH~1\AppData\Local\Temp\ccZQPmnq.s:1794   .text.RCC_AHBPeriphResetCmd:000000000000001e .L0 
C:\Users\LOCALH~1\AppData\Local\Temp\ccZQPmnq.s:1827   .text.RCC_ADCCLKADJcmd:0000000000000018 .L0 
C:\Users\LOCALH~1\AppData\Local\Temp\ccZQPmnq.s:1859   .text.RCC_RNGCLKConfig:000000000000001a .L0 
C:\Users\LOCALH~1\AppData\Local\Temp\ccZQPmnq.s:1891   .text.RCC_ETH1GCLKConfig:000000000000001a .L0 
C:\Users\LOCALH~1\AppData\Local\Temp\ccZQPmnq.s:1927   .text.RCC_ETH1G_125Mcmd:0000000000000024 .L0 
C:\Users\LOCALH~1\AppData\Local\Temp\ccZQPmnq.s:1959   .text.RCC_USBHSConfig:000000000000001a .L0 
C:\Users\LOCALH~1\AppData\Local\Temp\ccZQPmnq.s:1991   .text.RCC_USBHSPLLCLKConfig:000000000000001a .L0 
C:\Users\LOCALH~1\AppData\Local\Temp\ccZQPmnq.s:2023   .text.RCC_USBHSPLLCKREFCLKConfig:000000000000001a .L0 
C:\Users\LOCALH~1\AppData\Local\Temp\ccZQPmnq.s:2059   .text.RCC_USBHSPHYPLLALIVEcmd:0000000000000024 .L0 
C:\Users\LOCALH~1\AppData\Local\Temp\ccZQPmnq.s:2090   .text.RCC_USBCLK48MConfig:0000000000000016 .L0 
                     .debug_frame:0000000000000000 .L0 
C:\Users\LOCALH~1\AppData\Local\Temp\ccZQPmnq.s:110    .text.RCC_HSEConfig:000000000000002a .L3
C:\Users\LOCALH~1\AppData\Local\Temp\ccZQPmnq.s:122    .text.RCC_HSEConfig:0000000000000032 .L4
C:\Users\LOCALH~1\AppData\Local\Temp\ccZQPmnq.s:116    .text.RCC_HSEConfig:000000000000002e .L6
C:\Users\LOCALH~1\AppData\Local\Temp\ccZQPmnq.s:190    .text.RCC_HSICmd:0000000000000010 .L9
C:\Users\LOCALH~1\AppData\Local\Temp\ccZQPmnq.s:185    .text.RCC_HSICmd:000000000000000c .L11
C:\Users\LOCALH~1\AppData\Local\Temp\ccZQPmnq.s:246    .text.RCC_PLLConfig:0000000000000028 .L13
C:\Users\LOCALH~1\AppData\Local\Temp\ccZQPmnq.s:227    .text.RCC_PLLConfig:0000000000000018 .L15
C:\Users\LOCALH~1\AppData\Local\Temp\ccZQPmnq.s:275    .text.RCC_PLLCmd:0000000000000012 .L17
C:\Users\LOCALH~1\AppData\Local\Temp\ccZQPmnq.s:462    .text.RCC_ITConfig:000000000000000e .L25
C:\Users\LOCALH~1\AppData\Local\Temp\ccZQPmnq.s:456    .text.RCC_ITConfig:000000000000000a .L27
C:\Users\LOCALH~1\AppData\Local\Temp\ccZQPmnq.s:528    .text.RCC_LSEConfig:000000000000001a .L30
C:\Users\LOCALH~1\AppData\Local\Temp\ccZQPmnq.s:534    .text.RCC_LSEConfig:0000000000000020 .L31
C:\Users\LOCALH~1\AppData\Local\Temp\ccZQPmnq.s:568    .text.RCC_LSICmd:0000000000000010 .L34
C:\Users\LOCALH~1\AppData\Local\Temp\ccZQPmnq.s:563    .text.RCC_LSICmd:000000000000000c .L36
C:\Users\LOCALH~1\AppData\Local\Temp\ccZQPmnq.s:618    .text.RCC_RTCCLKCmd:0000000000000010 .L39
C:\Users\LOCALH~1\AppData\Local\Temp\ccZQPmnq.s:673    .text.RCC_GetClocksFreq:000000000000001e .L0 
C:\Users\LOCALH~1\AppData\Local\Temp\ccZQPmnq.s:730    .text.RCC_GetClocksFreq:0000000000000050 .L0 
C:\Users\LOCALH~1\AppData\Local\Temp\ccZQPmnq.s:759    .text.RCC_GetClocksFreq:0000000000000070 .L42
C:\Users\LOCALH~1\AppData\Local\Temp\ccZQPmnq.s:831    .text.RCC_GetClocksFreq:00000000000000b6 .L44
C:\Users\LOCALH~1\AppData\Local\Temp\ccZQPmnq.s:800    .text.RCC_GetClocksFreq:0000000000000096 .L45
C:\Users\LOCALH~1\AppData\Local\Temp\ccZQPmnq.s:890    .text.RCC_GetClocksFreq:00000000000000f2 .L47
C:\Users\LOCALH~1\AppData\Local\Temp\ccZQPmnq.s:883    .text.RCC_GetClocksFreq:00000000000000e8 .L48
C:\Users\LOCALH~1\AppData\Local\Temp\ccZQPmnq.s:663    .text.RCC_GetClocksFreq:0000000000000016 .L66
C:\Users\LOCALH~1\AppData\Local\Temp\ccZQPmnq.s:855    .text.RCC_GetClocksFreq:00000000000000d2 .L58
C:\Users\LOCALH~1\AppData\Local\Temp\ccZQPmnq.s:861    .text.RCC_GetClocksFreq:00000000000000d6 .L59
C:\Users\LOCALH~1\AppData\Local\Temp\ccZQPmnq.s:869    .text.RCC_GetClocksFreq:00000000000000dc .L60
C:\Users\LOCALH~1\AppData\Local\Temp\ccZQPmnq.s:876    .text.RCC_GetClocksFreq:00000000000000e2 .L61
C:\Users\LOCALH~1\AppData\Local\Temp\ccZQPmnq.s:850    .text.RCC_GetClocksFreq:00000000000000ce .L46
C:\Users\LOCALH~1\AppData\Local\Temp\ccZQPmnq.s:818    .text.RCC_GetClocksFreq:00000000000000ac .L65
C:\Users\LOCALH~1\AppData\Local\Temp\ccZQPmnq.s:981    .text.RCC_GetClocksFreq:000000000000014e .L50
C:\Users\LOCALH~1\AppData\Local\Temp\ccZQPmnq.s:949    .text.RCC_GetClocksFreq:0000000000000132 .L51
C:\Users\LOCALH~1\AppData\Local\Temp\ccZQPmnq.s:960    .text.RCC_GetClocksFreq:000000000000013c .L53
C:\Users\LOCALH~1\AppData\Local\Temp\ccZQPmnq.s:929    .text.RCC_GetClocksFreq:000000000000011c .L62
C:\Users\LOCALH~1\AppData\Local\Temp\ccZQPmnq.s:974    .text.RCC_GetClocksFreq:000000000000014a .L54
C:\Users\LOCALH~1\AppData\Local\Temp\ccZQPmnq.s:934    .text.RCC_GetClocksFreq:0000000000000122 .L52
C:\Users\LOCALH~1\AppData\Local\Temp\ccZQPmnq.s:969    .text.RCC_GetClocksFreq:0000000000000144 .L63
C:\Users\LOCALH~1\AppData\Local\Temp\ccZQPmnq.s:944    .text.RCC_GetClocksFreq:000000000000012c .L64
C:\Users\LOCALH~1\AppData\Local\Temp\ccZQPmnq.s:1015   .text.RCC_AHBPeriphClockCmd:000000000000000e .L68
C:\Users\LOCALH~1\AppData\Local\Temp\ccZQPmnq.s:1052   .text.RCC_APB2PeriphClockCmd:000000000000000e .L71
C:\Users\LOCALH~1\AppData\Local\Temp\ccZQPmnq.s:1089   .text.RCC_APB1PeriphClockCmd:000000000000000e .L74
C:\Users\LOCALH~1\AppData\Local\Temp\ccZQPmnq.s:1126   .text.RCC_APB2PeriphResetCmd:000000000000000e .L77
C:\Users\LOCALH~1\AppData\Local\Temp\ccZQPmnq.s:1163   .text.RCC_APB1PeriphResetCmd:000000000000000e .L80
C:\Users\LOCALH~1\AppData\Local\Temp\ccZQPmnq.s:1201   .text.RCC_BackupResetCmd:0000000000000010 .L83
C:\Users\LOCALH~1\AppData\Local\Temp\ccZQPmnq.s:1237   .text.RCC_ClockSecuritySystemCmd:0000000000000012 .L86
C:\Users\LOCALH~1\AppData\Local\Temp\ccZQPmnq.s:1307   .text.RCC_GetFlagStatus:0000000000000018 .L90
C:\Users\LOCALH~1\AppData\Local\Temp\ccZQPmnq.s:1320   .text.RCC_GetFlagStatus:0000000000000026 .L92
C:\Users\LOCALH~1\AppData\Local\Temp\ccZQPmnq.s:1296   .text.RCC_GetFlagStatus:0000000000000010 .L91
C:\Users\LOCALH~1\AppData\Local\Temp\ccZQPmnq.s:1374   .text.RCC_WaitForHSEStartUp:0000000000000028 .L94
C:\Users\LOCALH~1\AppData\Local\Temp\ccZQPmnq.s:1355   .text.RCC_WaitForHSEStartUp:000000000000000e .L95
C:\Users\LOCALH~1\AppData\Local\Temp\ccZQPmnq.s:1577   .text.RCC_PLL2Cmd:0000000000000012 .L106
C:\Users\LOCALH~1\AppData\Local\Temp\ccZQPmnq.s:1646   .text.RCC_PLL3Cmd:0000000000000012 .L110
C:\Users\LOCALH~1\AppData\Local\Temp\ccZQPmnq.s:1777   .text.RCC_AHBPeriphResetCmd:000000000000000e .L116
C:\Users\LOCALH~1\AppData\Local\Temp\ccZQPmnq.s:1818   .text.RCC_ADCCLKADJcmd:0000000000000012 .L119
C:\Users\LOCALH~1\AppData\Local\Temp\ccZQPmnq.s:1813   .text.RCC_ADCCLKADJcmd:000000000000000e .L121
C:\Users\LOCALH~1\AppData\Local\Temp\ccZQPmnq.s:1912   .text.RCC_ETH1G_125Mcmd:0000000000000012 .L125
C:\Users\LOCALH~1\AppData\Local\Temp\ccZQPmnq.s:2044   .text.RCC_USBHSPHYPLLALIVEcmd:0000000000000012 .L131
C:\Users\LOCALH~1\AppData\Local\Temp\ccZQPmnq.s:3451   .debug_abbrev:0000000000000000 .Ldebug_abbrev0
C:\Users\LOCALH~1\AppData\Local\Temp\ccZQPmnq.s:5509   .debug_str:0000000000000156 .LASF145
C:\Users\LOCALH~1\AppData\Local\Temp\ccZQPmnq.s:5754   .debug_line_str:0000000000000055 .LASF0
C:\Users\LOCALH~1\AppData\Local\Temp\ccZQPmnq.s:5752   .debug_line_str:0000000000000000 .LASF1
C:\Users\LOCALH~1\AppData\Local\Temp\ccZQPmnq.s:5305   .debug_rnglists:000000000000000c .LLRL45
C:\Users\LOCALH~1\AppData\Local\Temp\ccZQPmnq.s:5459   .debug_line:0000000000000000 .Ldebug_line0
C:\Users\LOCALH~1\AppData\Local\Temp\ccZQPmnq.s:5577   .debug_str:0000000000000426 .LASF2
C:\Users\LOCALH~1\AppData\Local\Temp\ccZQPmnq.s:5515   .debug_str:0000000000000278 .LASF3
C:\Users\LOCALH~1\AppData\Local\Temp\ccZQPmnq.s:5481   .debug_str:0000000000000091 .LASF6
C:\Users\LOCALH~1\AppData\Local\Temp\ccZQPmnq.s:5651   .debug_str:0000000000000651 .LASF4
C:\Users\LOCALH~1\AppData\Local\Temp\ccZQPmnq.s:5657   .debug_str:000000000000067a .LASF5
C:\Users\LOCALH~1\AppData\Local\Temp\ccZQPmnq.s:5691   .debug_str:000000000000076c .LASF7
C:\Users\LOCALH~1\AppData\Local\Temp\ccZQPmnq.s:5601   .debug_str:00000000000004cc .LASF8
C:\Users\LOCALH~1\AppData\Local\Temp\ccZQPmnq.s:5525   .debug_str:00000000000002ad .LASF9
C:\Users\LOCALH~1\AppData\Local\Temp\ccZQPmnq.s:5557   .debug_str:0000000000000390 .LASF10
C:\Users\LOCALH~1\AppData\Local\Temp\ccZQPmnq.s:5583   .debug_str:0000000000000457 .LASF11
C:\Users\LOCALH~1\AppData\Local\Temp\ccZQPmnq.s:5539   .debug_str:00000000000002fd .LASF12
C:\Users\LOCALH~1\AppData\Local\Temp\ccZQPmnq.s:5499   .debug_str:0000000000000108 .LASF13
C:\Users\LOCALH~1\AppData\Local\Temp\ccZQPmnq.s:5727   .debug_str:0000000000000843 .LASF14
C:\Users\LOCALH~1\AppData\Local\Temp\ccZQPmnq.s:5543   .debug_str:000000000000031d .LASF15
C:\Users\LOCALH~1\AppData\Local\Temp\ccZQPmnq.s:5715   .debug_str:0000000000000805 .LASF16
C:\Users\LOCALH~1\AppData\Local\Temp\ccZQPmnq.s:5721   .debug_str:0000000000000828 .LASF17
C:\Users\LOCALH~1\AppData\Local\Temp\ccZQPmnq.s:5685   .debug_str:000000000000074f .LASF18
C:\Users\LOCALH~1\AppData\Local\Temp\ccZQPmnq.s:5559   .debug_str:000000000000039b .LASF19
C:\Users\LOCALH~1\AppData\Local\Temp\ccZQPmnq.s:5495   .debug_str:00000000000000ea .LASF20
C:\Users\LOCALH~1\AppData\Local\Temp\ccZQPmnq.s:5527   .debug_str:00000000000002b6 .LASF21
C:\Users\LOCALH~1\AppData\Local\Temp\ccZQPmnq.s:5629   .debug_str:00000000000005b4 .LASF22
C:\Users\LOCALH~1\AppData\Local\Temp\ccZQPmnq.s:5647   .debug_str:000000000000063d .LASF23
C:\Users\LOCALH~1\AppData\Local\Temp\ccZQPmnq.s:5477   .debug_str:000000000000006f .LASF24
C:\Users\LOCALH~1\AppData\Local\Temp\ccZQPmnq.s:5573   .debug_str:000000000000040e .LASF25
C:\Users\LOCALH~1\AppData\Local\Temp\ccZQPmnq.s:5487   .debug_str:00000000000000b8 .LASF26
C:\Users\LOCALH~1\AppData\Local\Temp\ccZQPmnq.s:5701   .debug_str:00000000000007af .LASF27
C:\Users\LOCALH~1\AppData\Local\Temp\ccZQPmnq.s:5625   .debug_str:0000000000000598 .LASF28
C:\Users\LOCALH~1\AppData\Local\Temp\ccZQPmnq.s:5747   .debug_str:00000000000008cc .LASF29
C:\Users\LOCALH~1\AppData\Local\Temp\ccZQPmnq.s:5633   .debug_str:00000000000005cc .LASF30
C:\Users\LOCALH~1\AppData\Local\Temp\ccZQPmnq.s:5471   .debug_str:000000000000004c .LASF31
C:\Users\LOCALH~1\AppData\Local\Temp\ccZQPmnq.s:5599   .debug_str:00000000000004c2 .LASF32
C:\Users\LOCALH~1\AppData\Local\Temp\ccZQPmnq.s:5739   .debug_str:0000000000000894 .LASF33
C:\Users\LOCALH~1\AppData\Local\Temp\ccZQPmnq.s:5703   .debug_str:00000000000007b5 .LASF34
C:\Users\LOCALH~1\AppData\Local\Temp\ccZQPmnq.s:5493   .debug_str:00000000000000e2 .LASF35
C:\Users\LOCALH~1\AppData\Local\Temp\ccZQPmnq.s:5631   .debug_str:00000000000005c4 .LASF36
C:\Users\LOCALH~1\AppData\Local\Temp\ccZQPmnq.s:5725   .debug_str:000000000000083d .LASF37
C:\Users\LOCALH~1\AppData\Local\Temp\ccZQPmnq.s:5589   .debug_str:0000000000000485 .LASF38
C:\Users\LOCALH~1\AppData\Local\Temp\ccZQPmnq.s:5597   .debug_str:00000000000004b8 .LASF39
C:\Users\LOCALH~1\AppData\Local\Temp\ccZQPmnq.s:5641   .debug_str:0000000000000616 .LASF40
C:\Users\LOCALH~1\AppData\Local\Temp\ccZQPmnq.s:5613   .debug_str:0000000000000525 .LASF41
C:\Users\LOCALH~1\AppData\Local\Temp\ccZQPmnq.s:5713   .debug_str:00000000000007f7 .LASF42
C:\Users\LOCALH~1\AppData\Local\Temp\ccZQPmnq.s:5615   .debug_str:0000000000000530 .LASF43
C:\Users\LOCALH~1\AppData\Local\Temp\ccZQPmnq.s:5689   .debug_str:0000000000000767 .LASF44
C:\Users\LOCALH~1\AppData\Local\Temp\ccZQPmnq.s:5587   .debug_str:0000000000000474 .LASF45
C:\Users\LOCALH~1\AppData\Local\Temp\ccZQPmnq.s:5569   .debug_str:00000000000003e9 .LASF46
C:\Users\LOCALH~1\AppData\Local\Temp\ccZQPmnq.s:5675   .debug_str:00000000000006f4 .LASF47
C:\Users\LOCALH~1\AppData\Local\Temp\ccZQPmnq.s:5523   .debug_str:000000000000029d .LASF48
C:\Users\LOCALH~1\AppData\Local\Temp\ccZQPmnq.s:5555   .debug_str:000000000000037f .LASF49
C:\Users\LOCALH~1\AppData\Local\Temp\ccZQPmnq.s:5731   .debug_str:0000000000000859 .LASF50
C:\Users\LOCALH~1\AppData\Local\Temp\ccZQPmnq.s:5681   .debug_str:0000000000000720 .LASF51
C:\Users\LOCALH~1\AppData\Local\Temp\ccZQPmnq.s:5673   .debug_str:00000000000006e6 .LASF52
C:\Users\LOCALH~1\AppData\Local\Temp\ccZQPmnq.s:5467   .debug_str:0000000000000022 .LASF53
C:\Users\LOCALH~1\AppData\Local\Temp\ccZQPmnq.s:2064   .text.RCC_USBCLK48MConfig:0000000000000000 .LFB78
C:\Users\LOCALH~1\AppData\Local\Temp\ccZQPmnq.s:2088   .text.RCC_USBCLK48MConfig:0000000000000016 .LFE78
C:\Users\LOCALH~1\AppData\Local\Temp\ccZQPmnq.s:5677   .debug_str:0000000000000704 .LASF55
C:\Users\LOCALH~1\AppData\Local\Temp\ccZQPmnq.s:4052   .debug_loclists:000000000000000c .LLST44
C:\Users\LOCALH~1\AppData\Local\Temp\ccZQPmnq.s:5623   .debug_str:0000000000000580 .LASF54
C:\Users\LOCALH~1\AppData\Local\Temp\ccZQPmnq.s:2028   .text.RCC_USBHSPHYPLLALIVEcmd:0000000000000000 .LFB77
C:\Users\LOCALH~1\AppData\Local\Temp\ccZQPmnq.s:2057   .text.RCC_USBHSPHYPLLALIVEcmd:0000000000000024 .LFE77
C:\Users\LOCALH~1\AppData\Local\Temp\ccZQPmnq.s:5609   .debug_str:000000000000050e .LASF56
C:\Users\LOCALH~1\AppData\Local\Temp\ccZQPmnq.s:5619   .debug_str:0000000000000557 .LASF57
C:\Users\LOCALH~1\AppData\Local\Temp\ccZQPmnq.s:1996   .text.RCC_USBHSPLLCKREFCLKConfig:0000000000000000 .LFB76
C:\Users\LOCALH~1\AppData\Local\Temp\ccZQPmnq.s:2021   .text.RCC_USBHSPLLCKREFCLKConfig:000000000000001a .LFE76
C:\Users\LOCALH~1\AppData\Local\Temp\ccZQPmnq.s:5551   .debug_str:0000000000000351 .LASF58
C:\Users\LOCALH~1\AppData\Local\Temp\ccZQPmnq.s:4067   .debug_loclists:0000000000000026 .LLST43
C:\Users\LOCALH~1\AppData\Local\Temp\ccZQPmnq.s:5469   .debug_str:0000000000000036 .LASF59
C:\Users\LOCALH~1\AppData\Local\Temp\ccZQPmnq.s:1964   .text.RCC_USBHSPLLCLKConfig:0000000000000000 .LFB75
C:\Users\LOCALH~1\AppData\Local\Temp\ccZQPmnq.s:1989   .text.RCC_USBHSPLLCLKConfig:000000000000001a .LFE75
C:\Users\LOCALH~1\AppData\Local\Temp\ccZQPmnq.s:5603   .debug_str:00000000000004df .LASF60
C:\Users\LOCALH~1\AppData\Local\Temp\ccZQPmnq.s:4082   .debug_loclists:0000000000000040 .LLST42
C:\Users\LOCALH~1\AppData\Local\Temp\ccZQPmnq.s:5473   .debug_str:0000000000000055 .LASF61
C:\Users\LOCALH~1\AppData\Local\Temp\ccZQPmnq.s:1932   .text.RCC_USBHSConfig:0000000000000000 .LFB74
C:\Users\LOCALH~1\AppData\Local\Temp\ccZQPmnq.s:1957   .text.RCC_USBHSConfig:000000000000001a .LFE74
C:\Users\LOCALH~1\AppData\Local\Temp\ccZQPmnq.s:5521   .debug_str:0000000000000293 .LASF62
C:\Users\LOCALH~1\AppData\Local\Temp\ccZQPmnq.s:4097   .debug_loclists:000000000000005a .LLST41
C:\Users\LOCALH~1\AppData\Local\Temp\ccZQPmnq.s:5535   .debug_str:00000000000002dc .LASF63
C:\Users\LOCALH~1\AppData\Local\Temp\ccZQPmnq.s:1896   .text.RCC_ETH1G_125Mcmd:0000000000000000 .LFB73
C:\Users\LOCALH~1\AppData\Local\Temp\ccZQPmnq.s:1925   .text.RCC_ETH1G_125Mcmd:0000000000000024 .LFE73
C:\Users\LOCALH~1\AppData\Local\Temp\ccZQPmnq.s:5511   .debug_str:0000000000000257 .LASF64
C:\Users\LOCALH~1\AppData\Local\Temp\ccZQPmnq.s:1864   .text.RCC_ETH1GCLKConfig:0000000000000000 .LFB72
C:\Users\LOCALH~1\AppData\Local\Temp\ccZQPmnq.s:1889   .text.RCC_ETH1GCLKConfig:000000000000001a .LFE72
C:\Users\LOCALH~1\AppData\Local\Temp\ccZQPmnq.s:5717   .debug_str:000000000000080e .LASF65
C:\Users\LOCALH~1\AppData\Local\Temp\ccZQPmnq.s:4112   .debug_loclists:0000000000000074 .LLST40
C:\Users\LOCALH~1\AppData\Local\Temp\ccZQPmnq.s:5485   .debug_str:00000000000000a7 .LASF66
C:\Users\LOCALH~1\AppData\Local\Temp\ccZQPmnq.s:1832   .text.RCC_RNGCLKConfig:0000000000000000 .LFB71
C:\Users\LOCALH~1\AppData\Local\Temp\ccZQPmnq.s:1857   .text.RCC_RNGCLKConfig:000000000000001a .LFE71
C:\Users\LOCALH~1\AppData\Local\Temp\ccZQPmnq.s:5695   .debug_str:0000000000000782 .LASF67
C:\Users\LOCALH~1\AppData\Local\Temp\ccZQPmnq.s:4127   .debug_loclists:000000000000008e .LLST39
C:\Users\LOCALH~1\AppData\Local\Temp\ccZQPmnq.s:5501   .debug_str:000000000000011f .LASF68
C:\Users\LOCALH~1\AppData\Local\Temp\ccZQPmnq.s:1799   .text.RCC_ADCCLKADJcmd:0000000000000000 .LFB70
C:\Users\LOCALH~1\AppData\Local\Temp\ccZQPmnq.s:1825   .text.RCC_ADCCLKADJcmd:0000000000000018 .LFE70
C:\Users\LOCALH~1\AppData\Local\Temp\ccZQPmnq.s:5571   .debug_str:00000000000003f8 .LASF69
C:\Users\LOCALH~1\AppData\Local\Temp\ccZQPmnq.s:1762   .text.RCC_AHBPeriphResetCmd:0000000000000000 .LFB69
C:\Users\LOCALH~1\AppData\Local\Temp\ccZQPmnq.s:1792   .text.RCC_AHBPeriphResetCmd:000000000000001e .LFE69
C:\Users\LOCALH~1\AppData\Local\Temp\ccZQPmnq.s:5621   .debug_str:0000000000000572 .LASF70
C:\Users\LOCALH~1\AppData\Local\Temp\ccZQPmnq.s:4142   .debug_loclists:00000000000000a8 .LLST38
C:\Users\LOCALH~1\AppData\Local\Temp\ccZQPmnq.s:5733   .debug_str:000000000000086b .LASF71
C:\Users\LOCALH~1\AppData\Local\Temp\ccZQPmnq.s:1730   .text.RCC_I2S3CLKConfig:0000000000000000 .LFB68
C:\Users\LOCALH~1\AppData\Local\Temp\ccZQPmnq.s:1755   .text.RCC_I2S3CLKConfig:000000000000001a .LFE68
C:\Users\LOCALH~1\AppData\Local\Temp\ccZQPmnq.s:5743   .debug_str:00000000000008b0 .LASF72
C:\Users\LOCALH~1\AppData\Local\Temp\ccZQPmnq.s:4165   .debug_loclists:00000000000000d0 .LLST37
C:\Users\LOCALH~1\AppData\Local\Temp\ccZQPmnq.s:5541   .debug_str:000000000000030b .LASF73
C:\Users\LOCALH~1\AppData\Local\Temp\ccZQPmnq.s:1698   .text.RCC_I2S2CLKConfig:0000000000000000 .LFB67
C:\Users\LOCALH~1\AppData\Local\Temp\ccZQPmnq.s:1723   .text.RCC_I2S2CLKConfig:0000000000000018 .LFE67
C:\Users\LOCALH~1\AppData\Local\Temp\ccZQPmnq.s:5741   .debug_str:000000000000089e .LASF74
C:\Users\LOCALH~1\AppData\Local\Temp\ccZQPmnq.s:4180   .debug_loclists:00000000000000ea .LLST36
C:\Users\LOCALH~1\AppData\Local\Temp\ccZQPmnq.s:5639   .debug_str:0000000000000603 .LASF75
C:\Users\LOCALH~1\AppData\Local\Temp\ccZQPmnq.s:1666   .text.RCC_USBFSCLKConfig:0000000000000000 .LFB66
C:\Users\LOCALH~1\AppData\Local\Temp\ccZQPmnq.s:1691   .text.RCC_USBFSCLKConfig:000000000000001a .LFE66
C:\Users\LOCALH~1\AppData\Local\Temp\ccZQPmnq.s:5581   .debug_str:0000000000000444 .LASF76
C:\Users\LOCALH~1\AppData\Local\Temp\ccZQPmnq.s:4195   .debug_loclists:0000000000000104 .LLST35
C:\Users\LOCALH~1\AppData\Local\Temp\ccZQPmnq.s:5661   .debug_str:000000000000068f .LASF77
C:\Users\LOCALH~1\AppData\Local\Temp\ccZQPmnq.s:1630   .text.RCC_PLL3Cmd:0000000000000000 .LFB65
C:\Users\LOCALH~1\AppData\Local\Temp\ccZQPmnq.s:1659   .text.RCC_PLL3Cmd:0000000000000024 .LFE65
C:\Users\LOCALH~1\AppData\Local\Temp\ccZQPmnq.s:5607   .debug_str:00000000000004ff .LASF78
C:\Users\LOCALH~1\AppData\Local\Temp\ccZQPmnq.s:1597   .text.RCC_PLL3Config:0000000000000000 .LFB64
C:\Users\LOCALH~1\AppData\Local\Temp\ccZQPmnq.s:1623   .text.RCC_PLL3Config:0000000000000012 .LFE64
C:\Users\LOCALH~1\AppData\Local\Temp\ccZQPmnq.s:5737   .debug_str:0000000000000888 .LASF79
C:\Users\LOCALH~1\AppData\Local\Temp\ccZQPmnq.s:5519   .debug_str:000000000000028c .LASF80
C:\Users\LOCALH~1\AppData\Local\Temp\ccZQPmnq.s:4210   .debug_loclists:000000000000011e .LLST34
C:\Users\LOCALH~1\AppData\Local\Temp\ccZQPmnq.s:5697   .debug_str:0000000000000793 .LASF81
C:\Users\LOCALH~1\AppData\Local\Temp\ccZQPmnq.s:1561   .text.RCC_PLL2Cmd:0000000000000000 .LFB63
C:\Users\LOCALH~1\AppData\Local\Temp\ccZQPmnq.s:1590   .text.RCC_PLL2Cmd:0000000000000024 .LFE63
C:\Users\LOCALH~1\AppData\Local\Temp\ccZQPmnq.s:5705   .debug_str:00000000000007bc .LASF82
C:\Users\LOCALH~1\AppData\Local\Temp\ccZQPmnq.s:1528   .text.RCC_PLL2Config:0000000000000000 .LFB62
C:\Users\LOCALH~1\AppData\Local\Temp\ccZQPmnq.s:1554   .text.RCC_PLL2Config:0000000000000014 .LFE62
C:\Users\LOCALH~1\AppData\Local\Temp\ccZQPmnq.s:5483   .debug_str:000000000000009b .LASF83
C:\Users\LOCALH~1\AppData\Local\Temp\ccZQPmnq.s:4223   .debug_loclists:0000000000000136 .LLST33
C:\Users\LOCALH~1\AppData\Local\Temp\ccZQPmnq.s:5505   .debug_str:0000000000000139 .LASF84
C:\Users\LOCALH~1\AppData\Local\Temp\ccZQPmnq.s:1497   .text.RCC_PREDIV2Config:0000000000000000 .LFB61
C:\Users\LOCALH~1\AppData\Local\Temp\ccZQPmnq.s:1521   .text.RCC_PREDIV2Config:0000000000000010 .LFE61
C:\Users\LOCALH~1\AppData\Local\Temp\ccZQPmnq.s:5749   .debug_str:00000000000008d6 .LASF85
C:\Users\LOCALH~1\AppData\Local\Temp\ccZQPmnq.s:4236   .debug_loclists:000000000000014e .LLST32
C:\Users\LOCALH~1\AppData\Local\Temp\ccZQPmnq.s:5643   .debug_str:0000000000000620 .LASF86
C:\Users\LOCALH~1\AppData\Local\Temp\ccZQPmnq.s:1463   .text.RCC_PREDIV1Config:0000000000000000 .LFB60
C:\Users\LOCALH~1\AppData\Local\Temp\ccZQPmnq.s:1490   .text.RCC_PREDIV1Config:0000000000000014 .LFE60
C:\Users\LOCALH~1\AppData\Local\Temp\ccZQPmnq.s:5665   .debug_str:00000000000006aa .LASF87
C:\Users\LOCALH~1\AppData\Local\Temp\ccZQPmnq.s:4249   .debug_loclists:0000000000000166 .LLST30
C:\Users\LOCALH~1\AppData\Local\Temp\ccZQPmnq.s:5595   .debug_str:00000000000004a8 .LASF88
C:\Users\LOCALH~1\AppData\Local\Temp\ccZQPmnq.s:4264   .debug_loclists:0000000000000180 .LLST31
C:\Users\LOCALH~1\AppData\Local\Temp\ccZQPmnq.s:5497   .debug_str:00000000000000f2 .LASF89
C:\Users\LOCALH~1\AppData\Local\Temp\ccZQPmnq.s:1445   .text.RCC_ClearITPendingBit:0000000000000000 .LFB59
C:\Users\LOCALH~1\AppData\Local\Temp\ccZQPmnq.s:1456   .text.RCC_ClearITPendingBit:0000000000000008 .LFE59
C:\Users\LOCALH~1\AppData\Local\Temp\ccZQPmnq.s:5533   .debug_str:00000000000002d5 .LASF90
C:\Users\LOCALH~1\AppData\Local\Temp\ccZQPmnq.s:5699   .debug_str:000000000000079f .LASF92
C:\Users\LOCALH~1\AppData\Local\Temp\ccZQPmnq.s:1420   .text.RCC_GetITStatus:0000000000000000 .LFB58
C:\Users\LOCALH~1\AppData\Local\Temp\ccZQPmnq.s:1438   .text.RCC_GetITStatus:000000000000000e .LFE58
C:\Users\LOCALH~1\AppData\Local\Temp\ccZQPmnq.s:4287   .debug_loclists:00000000000001aa .LLST28
C:\Users\LOCALH~1\AppData\Local\Temp\ccZQPmnq.s:5567   .debug_str:00000000000003df .LASF91
C:\Users\LOCALH~1\AppData\Local\Temp\ccZQPmnq.s:4302   .debug_loclists:00000000000001c4 .LLST29
C:\Users\LOCALH~1\AppData\Local\Temp\ccZQPmnq.s:5513   .debug_str:000000000000026a .LASF143
C:\Users\LOCALH~1\AppData\Local\Temp\ccZQPmnq.s:1399   .text.RCC_ClearFlag:0000000000000000 .LFB57
C:\Users\LOCALH~1\AppData\Local\Temp\ccZQPmnq.s:1413   .text.RCC_ClearFlag:0000000000000010 .LFE57
C:\Users\LOCALH~1\AppData\Local\Temp\ccZQPmnq.s:5707   .debug_str:00000000000007cb .LASF93
C:\Users\LOCALH~1\AppData\Local\Temp\ccZQPmnq.s:1275   .text.RCC_GetFlagStatus:0000000000000000 .LFB56
C:\Users\LOCALH~1\AppData\Local\Temp\ccZQPmnq.s:1329   .text.RCC_GetFlagStatus:000000000000002e .LFE56
C:\Users\LOCALH~1\AppData\Local\Temp\ccZQPmnq.s:5547   .debug_str:0000000000000334 .LASF94
C:\Users\LOCALH~1\AppData\Local\Temp\ccZQPmnq.s:4347   .debug_loclists:0000000000000202 .LLST22
C:\Users\LOCALH~1\AppData\Local\Temp\ccZQPmnq.s:4367   .debug_loclists:0000000000000227 .LLST23
C:\Users\LOCALH~1\AppData\Local\Temp\ccZQPmnq.s:5475   .debug_str:0000000000000065 .LASF95
C:\Users\LOCALH~1\AppData\Local\Temp\ccZQPmnq.s:4466   .debug_loclists:00000000000002bf .LLST24
C:\Users\LOCALH~1\AppData\Local\Temp\ccZQPmnq.s:4501   .debug_loclists:0000000000000305 .LLST25
C:\Users\LOCALH~1\AppData\Local\Temp\ccZQPmnq.s:5489   .debug_str:00000000000000bd .LASF96
C:\Users\LOCALH~1\AppData\Local\Temp\ccZQPmnq.s:1257   .text.RCC_MCOConfig:0000000000000000 .LFB55
C:\Users\LOCALH~1\AppData\Local\Temp\ccZQPmnq.s:1268   .text.RCC_MCOConfig:0000000000000008 .LFE55
C:\Users\LOCALH~1\AppData\Local\Temp\ccZQPmnq.s:5679   .debug_str:0000000000000718 .LASF97
C:\Users\LOCALH~1\AppData\Local\Temp\ccZQPmnq.s:5617   .debug_str:000000000000053c .LASF98
C:\Users\LOCALH~1\AppData\Local\Temp\ccZQPmnq.s:1221   .text.RCC_ClockSecuritySystemCmd:0000000000000000 .LFB54
C:\Users\LOCALH~1\AppData\Local\Temp\ccZQPmnq.s:1250   .text.RCC_ClockSecuritySystemCmd:0000000000000024 .LFE54
C:\Users\LOCALH~1\AppData\Local\Temp\ccZQPmnq.s:5553   .debug_str:000000000000036c .LASF99
C:\Users\LOCALH~1\AppData\Local\Temp\ccZQPmnq.s:1185   .text.RCC_BackupResetCmd:0000000000000000 .LFB53
C:\Users\LOCALH~1\AppData\Local\Temp\ccZQPmnq.s:1214   .text.RCC_BackupResetCmd:0000000000000020 .LFE53
C:\Users\LOCALH~1\AppData\Local\Temp\ccZQPmnq.s:5491   .debug_str:00000000000000cb .LASF100
C:\Users\LOCALH~1\AppData\Local\Temp\ccZQPmnq.s:1148   .text.RCC_APB1PeriphResetCmd:0000000000000000 .LFB52
C:\Users\LOCALH~1\AppData\Local\Temp\ccZQPmnq.s:1178   .text.RCC_APB1PeriphResetCmd:000000000000001e .LFE52
C:\Users\LOCALH~1\AppData\Local\Temp\ccZQPmnq.s:5575   .debug_str:0000000000000417 .LASF101
C:\Users\LOCALH~1\AppData\Local\Temp\ccZQPmnq.s:4550   .debug_loclists:000000000000034d .LLST21
C:\Users\LOCALH~1\AppData\Local\Temp\ccZQPmnq.s:5635   .debug_str:00000000000005d6 .LASF102
C:\Users\LOCALH~1\AppData\Local\Temp\ccZQPmnq.s:1111   .text.RCC_APB2PeriphResetCmd:0000000000000000 .LFB51
C:\Users\LOCALH~1\AppData\Local\Temp\ccZQPmnq.s:1141   .text.RCC_APB2PeriphResetCmd:000000000000001e .LFE51
C:\Users\LOCALH~1\AppData\Local\Temp\ccZQPmnq.s:5711   .debug_str:00000000000007e8 .LASF103
C:\Users\LOCALH~1\AppData\Local\Temp\ccZQPmnq.s:4573   .debug_loclists:0000000000000375 .LLST20
C:\Users\LOCALH~1\AppData\Local\Temp\ccZQPmnq.s:5627   .debug_str:000000000000059d .LASF104
C:\Users\LOCALH~1\AppData\Local\Temp\ccZQPmnq.s:1074   .text.RCC_APB1PeriphClockCmd:0000000000000000 .LFB50
C:\Users\LOCALH~1\AppData\Local\Temp\ccZQPmnq.s:1104   .text.RCC_APB1PeriphClockCmd:000000000000001e .LFE50
C:\Users\LOCALH~1\AppData\Local\Temp\ccZQPmnq.s:4596   .debug_loclists:000000000000039d .LLST19
C:\Users\LOCALH~1\AppData\Local\Temp\ccZQPmnq.s:5479   .debug_str:000000000000007a .LASF105
C:\Users\LOCALH~1\AppData\Local\Temp\ccZQPmnq.s:1037   .text.RCC_APB2PeriphClockCmd:0000000000000000 .LFB49
C:\Users\LOCALH~1\AppData\Local\Temp\ccZQPmnq.s:1067   .text.RCC_APB2PeriphClockCmd:000000000000001e .LFE49
C:\Users\LOCALH~1\AppData\Local\Temp\ccZQPmnq.s:4619   .debug_loclists:00000000000003c5 .LLST18
C:\Users\LOCALH~1\AppData\Local\Temp\ccZQPmnq.s:5637   .debug_str:00000000000005ed .LASF106
C:\Users\LOCALH~1\AppData\Local\Temp\ccZQPmnq.s:1000   .text.RCC_AHBPeriphClockCmd:0000000000000000 .LFB48
C:\Users\LOCALH~1\AppData\Local\Temp\ccZQPmnq.s:1030   .text.RCC_AHBPeriphClockCmd:000000000000001e .LFE48
C:\Users\LOCALH~1\AppData\Local\Temp\ccZQPmnq.s:4642   .debug_loclists:00000000000003ed .LLST17
C:\Users\LOCALH~1\AppData\Local\Temp\ccZQPmnq.s:5687   .debug_str:0000000000000755 .LASF107
C:\Users\LOCALH~1\AppData\Local\Temp\ccZQPmnq.s:638    .text.RCC_GetClocksFreq:0000000000000000 .LFB47
C:\Users\LOCALH~1\AppData\Local\Temp\ccZQPmnq.s:993    .text.RCC_GetClocksFreq:000000000000015c .LFE47
C:\Users\LOCALH~1\AppData\Local\Temp\ccZQPmnq.s:5507   .debug_str:000000000000014b .LASF108
C:\Users\LOCALH~1\AppData\Local\Temp\ccZQPmnq.s:4665   .debug_loclists:0000000000000415 .LLST11
C:\Users\LOCALH~1\AppData\Local\Temp\ccZQPmnq.s:5517   .debug_str:0000000000000284 .LASF109
C:\Users\LOCALH~1\AppData\Local\Temp\ccZQPmnq.s:4752   .debug_loclists:00000000000004b6 .LLST12
C:\Users\LOCALH~1\AppData\Local\Temp\ccZQPmnq.s:5745   .debug_str:00000000000008c2 .LASF110
C:\Users\LOCALH~1\AppData\Local\Temp\ccZQPmnq.s:4812   .debug_loclists:000000000000052d .LLST13
C:\Users\LOCALH~1\AppData\Local\Temp\ccZQPmnq.s:5591   .debug_str:0000000000000491 .LASF111
C:\Users\LOCALH~1\AppData\Local\Temp\ccZQPmnq.s:4841   .debug_loclists:0000000000000567 .LLST14
C:\Users\LOCALH~1\AppData\Local\Temp\ccZQPmnq.s:5529   .debug_str:00000000000002bd .LASF112
C:\Users\LOCALH~1\AppData\Local\Temp\ccZQPmnq.s:4875   .debug_loclists:00000000000005ac .LLST15
C:\Users\LOCALH~1\AppData\Local\Temp\ccZQPmnq.s:5503   .debug_str:0000000000000130 .LASF113
C:\Users\LOCALH~1\AppData\Local\Temp\ccZQPmnq.s:4911   .debug_loclists:00000000000005f3 .LLST16
C:\Users\LOCALH~1\AppData\Local\Temp\ccZQPmnq.s:5611   .debug_str:0000000000000517 .LASF114
C:\Users\LOCALH~1\AppData\Local\Temp\ccZQPmnq.s:602    .text.RCC_RTCCLKCmd:0000000000000000 .LFB46
C:\Users\LOCALH~1\AppData\Local\Temp\ccZQPmnq.s:631    .text.RCC_RTCCLKCmd:0000000000000020 .LFE46
C:\Users\LOCALH~1\AppData\Local\Temp\ccZQPmnq.s:5579   .debug_str:0000000000000433 .LASF115
C:\Users\LOCALH~1\AppData\Local\Temp\ccZQPmnq.s:581    .text.RCC_RTCCLKConfig:0000000000000000 .LFB45
C:\Users\LOCALH~1\AppData\Local\Temp\ccZQPmnq.s:595    .text.RCC_RTCCLKConfig:000000000000000c .LFE45
C:\Users\LOCALH~1\AppData\Local\Temp\ccZQPmnq.s:5593   .debug_str:0000000000000497 .LASF116
C:\Users\LOCALH~1\AppData\Local\Temp\ccZQPmnq.s:5645   .debug_str:0000000000000632 .LASF117
C:\Users\LOCALH~1\AppData\Local\Temp\ccZQPmnq.s:550    .text.RCC_LSICmd:0000000000000000 .LFB44
C:\Users\LOCALH~1\AppData\Local\Temp\ccZQPmnq.s:574    .text.RCC_LSICmd:0000000000000014 .LFE44
C:\Users\LOCALH~1\AppData\Local\Temp\ccZQPmnq.s:5545   .debug_str:0000000000000326 .LASF118
C:\Users\LOCALH~1\AppData\Local\Temp\ccZQPmnq.s:511    .text.RCC_LSEConfig:0000000000000000 .LFB43
C:\Users\LOCALH~1\AppData\Local\Temp\ccZQPmnq.s:543    .text.RCC_LSEConfig:0000000000000028 .LFE43
C:\Users\LOCALH~1\AppData\Local\Temp\ccZQPmnq.s:5465   .debug_str:000000000000001a .LASF119
C:\Users\LOCALH~1\AppData\Local\Temp\ccZQPmnq.s:5653   .debug_str:000000000000065f .LASF120
C:\Users\LOCALH~1\AppData\Local\Temp\ccZQPmnq.s:478    .text.RCC_ADCCLKConfig:0000000000000000 .LFB42
C:\Users\LOCALH~1\AppData\Local\Temp\ccZQPmnq.s:504    .text.RCC_ADCCLKConfig:0000000000000012 .LFE42
C:\Users\LOCALH~1\AppData\Local\Temp\ccZQPmnq.s:5655   .debug_str:0000000000000670 .LASF121
C:\Users\LOCALH~1\AppData\Local\Temp\ccZQPmnq.s:4964   .debug_loclists:000000000000065d .LLST10
C:\Users\LOCALH~1\AppData\Local\Temp\ccZQPmnq.s:5723   .debug_str:0000000000000830 .LASF122
C:\Users\LOCALH~1\AppData\Local\Temp\ccZQPmnq.s:442    .text.RCC_ITConfig:0000000000000000 .LFB41
C:\Users\LOCALH~1\AppData\Local\Temp\ccZQPmnq.s:471    .text.RCC_ITConfig:0000000000000016 .LFE41
C:\Users\LOCALH~1\AppData\Local\Temp\ccZQPmnq.s:4977   .debug_loclists:0000000000000675 .LLST9
C:\Users\LOCALH~1\AppData\Local\Temp\ccZQPmnq.s:5667   .debug_str:00000000000006bd .LASF123
C:\Users\LOCALH~1\AppData\Local\Temp\ccZQPmnq.s:406    .text.RCC_PCLK2Config:0000000000000000 .LFB40
C:\Users\LOCALH~1\AppData\Local\Temp\ccZQPmnq.s:435    .text.RCC_PCLK2Config:0000000000000016 .LFE40
C:\Users\LOCALH~1\AppData\Local\Temp\ccZQPmnq.s:5463   .debug_str:0000000000000011 .LASF124
C:\Users\LOCALH~1\AppData\Local\Temp\ccZQPmnq.s:5005   .debug_loclists:00000000000006a8 .LLST7
C:\Users\LOCALH~1\AppData\Local\Temp\ccZQPmnq.s:5020   .debug_loclists:00000000000006c2 .LLST8
C:\Users\LOCALH~1\AppData\Local\Temp\ccZQPmnq.s:5531   .debug_str:00000000000002c5 .LASF125
C:\Users\LOCALH~1\AppData\Local\Temp\ccZQPmnq.s:375    .text.RCC_PCLK1Config:0000000000000000 .LFB39
C:\Users\LOCALH~1\AppData\Local\Temp\ccZQPmnq.s:399    .text.RCC_PCLK1Config:0000000000000010 .LFE39
C:\Users\LOCALH~1\AppData\Local\Temp\ccZQPmnq.s:5038   .debug_loclists:00000000000006e5 .LLST6
C:\Users\LOCALH~1\AppData\Local\Temp\ccZQPmnq.s:5537   .debug_str:00000000000002ee .LASF126
C:\Users\LOCALH~1\AppData\Local\Temp\ccZQPmnq.s:344    .text.RCC_HCLKConfig:0000000000000000 .LFB38
C:\Users\LOCALH~1\AppData\Local\Temp\ccZQPmnq.s:368    .text.RCC_HCLKConfig:0000000000000010 .LFE38
C:\Users\LOCALH~1\AppData\Local\Temp\ccZQPmnq.s:5585   .debug_str:0000000000000469 .LASF127
C:\Users\LOCALH~1\AppData\Local\Temp\ccZQPmnq.s:5051   .debug_loclists:00000000000006fd .LLST5
C:\Users\LOCALH~1\AppData\Local\Temp\ccZQPmnq.s:5563   .debug_str:00000000000003b5 .LASF146
C:\Users\LOCALH~1\AppData\Local\Temp\ccZQPmnq.s:326    .text.RCC_GetSYSCLKSource:0000000000000000 .LFB37
C:\Users\LOCALH~1\AppData\Local\Temp\ccZQPmnq.s:337    .text.RCC_GetSYSCLKSource:000000000000000a .LFE37
C:\Users\LOCALH~1\AppData\Local\Temp\ccZQPmnq.s:5461   .debug_str:0000000000000000 .LASF128
C:\Users\LOCALH~1\AppData\Local\Temp\ccZQPmnq.s:295    .text.RCC_SYSCLKConfig:0000000000000000 .LFB36
C:\Users\LOCALH~1\AppData\Local\Temp\ccZQPmnq.s:319    .text.RCC_SYSCLKConfig:000000000000000e .LFE36
C:\Users\LOCALH~1\AppData\Local\Temp\ccZQPmnq.s:5669   .debug_str:00000000000006cd .LASF129
C:\Users\LOCALH~1\AppData\Local\Temp\ccZQPmnq.s:5064   .debug_loclists:0000000000000715 .LLST4
C:\Users\LOCALH~1\AppData\Local\Temp\ccZQPmnq.s:5659   .debug_str:0000000000000684 .LASF130
C:\Users\LOCALH~1\AppData\Local\Temp\ccZQPmnq.s:259    .text.RCC_PLLCmd:0000000000000000 .LFB35
C:\Users\LOCALH~1\AppData\Local\Temp\ccZQPmnq.s:288    .text.RCC_PLLCmd:0000000000000024 .LFE35
C:\Users\LOCALH~1\AppData\Local\Temp\ccZQPmnq.s:5729   .debug_str:000000000000084b .LASF131
C:\Users\LOCALH~1\AppData\Local\Temp\ccZQPmnq.s:203    .text.RCC_PLLConfig:0000000000000000 .LFB34
C:\Users\LOCALH~1\AppData\Local\Temp\ccZQPmnq.s:252    .text.RCC_PLLConfig:000000000000002e .LFE34
C:\Users\LOCALH~1\AppData\Local\Temp\ccZQPmnq.s:5561   .debug_str:00000000000003a7 .LASF132
C:\Users\LOCALH~1\AppData\Local\Temp\ccZQPmnq.s:5077   .debug_loclists:000000000000072d .LLST2
C:\Users\LOCALH~1\AppData\Local\Temp\ccZQPmnq.s:5735   .debug_str:000000000000087d .LASF133
C:\Users\LOCALH~1\AppData\Local\Temp\ccZQPmnq.s:5097   .debug_loclists:0000000000000752 .LLST3
C:\Users\LOCALH~1\AppData\Local\Temp\ccZQPmnq.s:5709   .debug_str:00000000000007dd .LASF134
C:\Users\LOCALH~1\AppData\Local\Temp\ccZQPmnq.s:172    .text.RCC_HSICmd:0000000000000000 .LFB33
C:\Users\LOCALH~1\AppData\Local\Temp\ccZQPmnq.s:196    .text.RCC_HSICmd:0000000000000014 .LFE33
C:\Users\LOCALH~1\AppData\Local\Temp\ccZQPmnq.s:5683   .debug_str:0000000000000731 .LASF135
C:\Users\LOCALH~1\AppData\Local\Temp\ccZQPmnq.s:138    .text.RCC_AdjustHSICalibrationValue:0000000000000000 .LFB32
C:\Users\LOCALH~1\AppData\Local\Temp\ccZQPmnq.s:165    .text.RCC_AdjustHSICalibrationValue:0000000000000012 .LFE32
C:\Users\LOCALH~1\AppData\Local\Temp\ccZQPmnq.s:5549   .debug_str:000000000000033d .LASF136
C:\Users\LOCALH~1\AppData\Local\Temp\ccZQPmnq.s:5120   .debug_loclists:0000000000000780 .LLST0
C:\Users\LOCALH~1\AppData\Local\Temp\ccZQPmnq.s:5135   .debug_loclists:000000000000079a .LLST1
C:\Users\LOCALH~1\AppData\Local\Temp\ccZQPmnq.s:5565   .debug_str:00000000000003c9 .LASF137
C:\Users\LOCALH~1\AppData\Local\Temp\ccZQPmnq.s:1336   .text.RCC_WaitForHSEStartUp:0000000000000000 .LFB31
C:\Users\LOCALH~1\AppData\Local\Temp\ccZQPmnq.s:1392   .text.RCC_WaitForHSEStartUp:0000000000000042 .LFE31
C:\Users\LOCALH~1\AppData\Local\Temp\ccZQPmnq.s:5663   .debug_str:000000000000069b .LASF138
C:\Users\LOCALH~1\AppData\Local\Temp\ccZQPmnq.s:5719   .debug_str:0000000000000821 .LASF139
C:\Users\LOCALH~1\AppData\Local\Temp\ccZQPmnq.s:5153   .debug_loclists:00000000000007bd .LLST26
C:\Users\LOCALH~1\AppData\Local\Temp\ccZQPmnq.s:5605   .debug_str:00000000000004f5 .LASF140
C:\Users\LOCALH~1\AppData\Local\Temp\ccZQPmnq.s:5173   .debug_loclists:00000000000007dc .LLST27
C:\Users\LOCALH~1\AppData\Local\Temp\ccZQPmnq.s:1361   .text.RCC_WaitForHSEStartUp:000000000000001a .LVL132
C:\Users\LOCALH~1\AppData\Local\Temp\ccZQPmnq.s:1380   .text.RCC_WaitForHSEStartUp:0000000000000034 .LVL134
C:\Users\LOCALH~1\AppData\Local\Temp\ccZQPmnq.s:5649   .debug_str:0000000000000643 .LASF141
C:\Users\LOCALH~1\AppData\Local\Temp\ccZQPmnq.s:83     .text.RCC_HSEConfig:0000000000000000 .LFB30
C:\Users\LOCALH~1\AppData\Local\Temp\ccZQPmnq.s:131    .text.RCC_HSEConfig:000000000000003c .LFE30
C:\Users\LOCALH~1\AppData\Local\Temp\ccZQPmnq.s:5671   .debug_str:00000000000006de .LASF142
C:\Users\LOCALH~1\AppData\Local\Temp\ccZQPmnq.s:5693   .debug_str:0000000000000777 .LASF144
C:\Users\LOCALH~1\AppData\Local\Temp\ccZQPmnq.s:15     .text.RCC_DeInit:0000000000000000 .LFB29
C:\Users\LOCALH~1\AppData\Local\Temp\ccZQPmnq.s:76     .text.RCC_DeInit:0000000000000052 .LFE29
C:\Users\LOCALH~1\AppData\Local\Temp\ccZQPmnq.s:2067   .text.RCC_USBCLK48MConfig:0000000000000000 .LVL180
C:\Users\LOCALH~1\AppData\Local\Temp\ccZQPmnq.s:2074   .text.RCC_USBCLK48MConfig:0000000000000008 .LVL181
C:\Users\LOCALH~1\AppData\Local\Temp\ccZQPmnq.s:1999   .text.RCC_USBHSPLLCKREFCLKConfig:0000000000000000 .LVL177
C:\Users\LOCALH~1\AppData\Local\Temp\ccZQPmnq.s:2014   .text.RCC_USBHSPLLCKREFCLKConfig:0000000000000014 .LVL178
C:\Users\LOCALH~1\AppData\Local\Temp\ccZQPmnq.s:1967   .text.RCC_USBHSPLLCLKConfig:0000000000000000 .LVL175
C:\Users\LOCALH~1\AppData\Local\Temp\ccZQPmnq.s:1982   .text.RCC_USBHSPLLCLKConfig:0000000000000014 .LVL176
C:\Users\LOCALH~1\AppData\Local\Temp\ccZQPmnq.s:1935   .text.RCC_USBHSConfig:0000000000000000 .LVL173
C:\Users\LOCALH~1\AppData\Local\Temp\ccZQPmnq.s:1950   .text.RCC_USBHSConfig:0000000000000014 .LVL174
C:\Users\LOCALH~1\AppData\Local\Temp\ccZQPmnq.s:1867   .text.RCC_ETH1GCLKConfig:0000000000000000 .LVL170
C:\Users\LOCALH~1\AppData\Local\Temp\ccZQPmnq.s:1882   .text.RCC_ETH1GCLKConfig:0000000000000014 .LVL171
C:\Users\LOCALH~1\AppData\Local\Temp\ccZQPmnq.s:1835   .text.RCC_RNGCLKConfig:0000000000000000 .LVL168
C:\Users\LOCALH~1\AppData\Local\Temp\ccZQPmnq.s:1850   .text.RCC_RNGCLKConfig:0000000000000014 .LVL169
C:\Users\LOCALH~1\AppData\Local\Temp\ccZQPmnq.s:1765   .text.RCC_AHBPeriphResetCmd:0000000000000000 .LVL164
C:\Users\LOCALH~1\AppData\Local\Temp\ccZQPmnq.s:1784   .text.RCC_AHBPeriphResetCmd:0000000000000018 .LVL165
C:\Users\LOCALH~1\AppData\Local\Temp\ccZQPmnq.s:1787   .text.RCC_AHBPeriphResetCmd:000000000000001a .LVL166
C:\Users\LOCALH~1\AppData\Local\Temp\ccZQPmnq.s:1733   .text.RCC_I2S3CLKConfig:0000000000000000 .LVL162
C:\Users\LOCALH~1\AppData\Local\Temp\ccZQPmnq.s:1748   .text.RCC_I2S3CLKConfig:0000000000000014 .LVL163
C:\Users\LOCALH~1\AppData\Local\Temp\ccZQPmnq.s:1701   .text.RCC_I2S2CLKConfig:0000000000000000 .LVL160
C:\Users\LOCALH~1\AppData\Local\Temp\ccZQPmnq.s:1716   .text.RCC_I2S2CLKConfig:0000000000000012 .LVL161
C:\Users\LOCALH~1\AppData\Local\Temp\ccZQPmnq.s:1669   .text.RCC_USBFSCLKConfig:0000000000000000 .LVL158
C:\Users\LOCALH~1\AppData\Local\Temp\ccZQPmnq.s:1684   .text.RCC_USBFSCLKConfig:0000000000000014 .LVL159
C:\Users\LOCALH~1\AppData\Local\Temp\ccZQPmnq.s:1600   .text.RCC_PLL3Config:0000000000000000 .LVL153
C:\Users\LOCALH~1\AppData\Local\Temp\ccZQPmnq.s:1606   .text.RCC_PLL3Config:0000000000000006 .LVL154
C:\Users\LOCALH~1\AppData\Local\Temp\ccZQPmnq.s:1531   .text.RCC_PLL2Config:0000000000000000 .LVL148
C:\Users\LOCALH~1\AppData\Local\Temp\ccZQPmnq.s:1537   .text.RCC_PLL2Config:0000000000000006 .LVL149
C:\Users\LOCALH~1\AppData\Local\Temp\ccZQPmnq.s:1500   .text.RCC_PREDIV2Config:0000000000000000 .LVL144
C:\Users\LOCALH~1\AppData\Local\Temp\ccZQPmnq.s:1506   .text.RCC_PREDIV2Config:0000000000000006 .LVL145
C:\Users\LOCALH~1\AppData\Local\Temp\ccZQPmnq.s:1466   .text.RCC_PREDIV1Config:0000000000000000 .LVL140
C:\Users\LOCALH~1\AppData\Local\Temp\ccZQPmnq.s:1483   .text.RCC_PREDIV1Config:0000000000000010 .LVL143
C:\Users\LOCALH~1\AppData\Local\Temp\ccZQPmnq.s:1472   .text.RCC_PREDIV1Config:0000000000000006 .LVL141
C:\Users\LOCALH~1\AppData\Local\Temp\ccZQPmnq.s:1479   .text.RCC_PREDIV1Config:000000000000000c .LVL142
C:\Users\LOCALH~1\AppData\Local\Temp\ccZQPmnq.s:1423   .text.RCC_GetITStatus:0000000000000000 .LVL136
C:\Users\LOCALH~1\AppData\Local\Temp\ccZQPmnq.s:1433   .text.RCC_GetITStatus:0000000000000008 .LVL138
C:\Users\LOCALH~1\AppData\Local\Temp\ccZQPmnq.s:1429   .text.RCC_GetITStatus:0000000000000006 .LVL137
C:\Users\LOCALH~1\AppData\Local\Temp\ccZQPmnq.s:1278   .text.RCC_GetFlagStatus:0000000000000000 .LVL119
C:\Users\LOCALH~1\AppData\Local\Temp\ccZQPmnq.s:1302   .text.RCC_GetFlagStatus:0000000000000014 .LVL123
C:\Users\LOCALH~1\AppData\Local\Temp\ccZQPmnq.s:1306   .text.RCC_GetFlagStatus:0000000000000018 .LVL124
C:\Users\LOCALH~1\AppData\Local\Temp\ccZQPmnq.s:1285   .text.RCC_GetFlagStatus:0000000000000004 .LVL120
C:\Users\LOCALH~1\AppData\Local\Temp\ccZQPmnq.s:1293   .text.RCC_GetFlagStatus:000000000000000e .LVL121
C:\Users\LOCALH~1\AppData\Local\Temp\ccZQPmnq.s:1295   .text.RCC_GetFlagStatus:0000000000000010 .LVL122
C:\Users\LOCALH~1\AppData\Local\Temp\ccZQPmnq.s:1315   .text.RCC_GetFlagStatus:0000000000000022 .LVL125
C:\Users\LOCALH~1\AppData\Local\Temp\ccZQPmnq.s:1319   .text.RCC_GetFlagStatus:0000000000000026 .LVL127
C:\Users\LOCALH~1\AppData\Local\Temp\ccZQPmnq.s:1324   .text.RCC_GetFlagStatus:000000000000002a .LVL128
C:\Users\LOCALH~1\AppData\Local\Temp\ccZQPmnq.s:1317   .text.RCC_GetFlagStatus:0000000000000024 .LVL126
C:\Users\LOCALH~1\AppData\Local\Temp\ccZQPmnq.s:1326   .text.RCC_GetFlagStatus:000000000000002c .LVL129
C:\Users\LOCALH~1\AppData\Local\Temp\ccZQPmnq.s:1151   .text.RCC_APB1PeriphResetCmd:0000000000000000 .LVL113
C:\Users\LOCALH~1\AppData\Local\Temp\ccZQPmnq.s:1170   .text.RCC_APB1PeriphResetCmd:0000000000000018 .LVL114
C:\Users\LOCALH~1\AppData\Local\Temp\ccZQPmnq.s:1173   .text.RCC_APB1PeriphResetCmd:000000000000001a .LVL115
C:\Users\LOCALH~1\AppData\Local\Temp\ccZQPmnq.s:1114   .text.RCC_APB2PeriphResetCmd:0000000000000000 .LVL110
C:\Users\LOCALH~1\AppData\Local\Temp\ccZQPmnq.s:1133   .text.RCC_APB2PeriphResetCmd:0000000000000018 .LVL111
C:\Users\LOCALH~1\AppData\Local\Temp\ccZQPmnq.s:1136   .text.RCC_APB2PeriphResetCmd:000000000000001a .LVL112
C:\Users\LOCALH~1\AppData\Local\Temp\ccZQPmnq.s:1077   .text.RCC_APB1PeriphClockCmd:0000000000000000 .LVL107
C:\Users\LOCALH~1\AppData\Local\Temp\ccZQPmnq.s:1096   .text.RCC_APB1PeriphClockCmd:0000000000000018 .LVL108
C:\Users\LOCALH~1\AppData\Local\Temp\ccZQPmnq.s:1099   .text.RCC_APB1PeriphClockCmd:000000000000001a .LVL109
C:\Users\LOCALH~1\AppData\Local\Temp\ccZQPmnq.s:1040   .text.RCC_APB2PeriphClockCmd:0000000000000000 .LVL104
C:\Users\LOCALH~1\AppData\Local\Temp\ccZQPmnq.s:1059   .text.RCC_APB2PeriphClockCmd:0000000000000018 .LVL105
C:\Users\LOCALH~1\AppData\Local\Temp\ccZQPmnq.s:1062   .text.RCC_APB2PeriphClockCmd:000000000000001a .LVL106
C:\Users\LOCALH~1\AppData\Local\Temp\ccZQPmnq.s:1003   .text.RCC_AHBPeriphClockCmd:0000000000000000 .LVL101
C:\Users\LOCALH~1\AppData\Local\Temp\ccZQPmnq.s:1022   .text.RCC_AHBPeriphClockCmd:0000000000000018 .LVL102
C:\Users\LOCALH~1\AppData\Local\Temp\ccZQPmnq.s:1025   .text.RCC_AHBPeriphClockCmd:000000000000001a .LVL103
C:\Users\LOCALH~1\AppData\Local\Temp\ccZQPmnq.s:641    .text.RCC_GetClocksFreq:0000000000000000 .LVL43
C:\Users\LOCALH~1\AppData\Local\Temp\ccZQPmnq.s:649    .text.RCC_GetClocksFreq:0000000000000006 .LVL44
C:\Users\LOCALH~1\AppData\Local\Temp\ccZQPmnq.s:654    .text.RCC_GetClocksFreq:000000000000000a .LVL45
C:\Users\LOCALH~1\AppData\Local\Temp\ccZQPmnq.s:660    .text.RCC_GetClocksFreq:0000000000000012 .LVL46
C:\Users\LOCALH~1\AppData\Local\Temp\ccZQPmnq.s:670    .text.RCC_GetClocksFreq:000000000000001e .LVL48
C:\Users\LOCALH~1\AppData\Local\Temp\ccZQPmnq.s:676    .text.RCC_GetClocksFreq:0000000000000028 .LVL49
C:\Users\LOCALH~1\AppData\Local\Temp\ccZQPmnq.s:678    .text.RCC_GetClocksFreq:000000000000002a .LVL50
C:\Users\LOCALH~1\AppData\Local\Temp\ccZQPmnq.s:682    .text.RCC_GetClocksFreq:000000000000002c .LVL51
C:\Users\LOCALH~1\AppData\Local\Temp\ccZQPmnq.s:694    .text.RCC_GetClocksFreq:0000000000000038 .LVL53
C:\Users\LOCALH~1\AppData\Local\Temp\ccZQPmnq.s:698    .text.RCC_GetClocksFreq:000000000000003a .LVL54
C:\Users\LOCALH~1\AppData\Local\Temp\ccZQPmnq.s:700    .text.RCC_GetClocksFreq:000000000000003c .LVL55
C:\Users\LOCALH~1\AppData\Local\Temp\ccZQPmnq.s:704    .text.RCC_GetClocksFreq:000000000000003e .LVL56
C:\Users\LOCALH~1\AppData\Local\Temp\ccZQPmnq.s:716    .text.RCC_GetClocksFreq:0000000000000048 .LVL59
C:\Users\LOCALH~1\AppData\Local\Temp\ccZQPmnq.s:720    .text.RCC_GetClocksFreq:000000000000004a .LVL60
C:\Users\LOCALH~1\AppData\Local\Temp\ccZQPmnq.s:722    .text.RCC_GetClocksFreq:000000000000004c .LVL61
C:\Users\LOCALH~1\AppData\Local\Temp\ccZQPmnq.s:727    .text.RCC_GetClocksFreq:0000000000000050 .LVL62
C:\Users\LOCALH~1\AppData\Local\Temp\ccZQPmnq.s:738    .text.RCC_GetClocksFreq:0000000000000060 .LVL63
C:\Users\LOCALH~1\AppData\Local\Temp\ccZQPmnq.s:742    .text.RCC_GetClocksFreq:0000000000000062 .LVL64
C:\Users\LOCALH~1\AppData\Local\Temp\ccZQPmnq.s:744    .text.RCC_GetClocksFreq:0000000000000064 .LVL65
C:\Users\LOCALH~1\AppData\Local\Temp\ccZQPmnq.s:748    .text.RCC_GetClocksFreq:0000000000000066 .LVL66
C:\Users\LOCALH~1\AppData\Local\Temp\ccZQPmnq.s:758    .text.RCC_GetClocksFreq:0000000000000070 .LVL68
C:\Users\LOCALH~1\AppData\Local\Temp\ccZQPmnq.s:763    .text.RCC_GetClocksFreq:0000000000000072 .LVL69
C:\Users\LOCALH~1\AppData\Local\Temp\ccZQPmnq.s:662    .text.RCC_GetClocksFreq:0000000000000016 .LVL47
C:\Users\LOCALH~1\AppData\Local\Temp\ccZQPmnq.s:771    .text.RCC_GetClocksFreq:0000000000000078 .LVL70
C:\Users\LOCALH~1\AppData\Local\Temp\ccZQPmnq.s:786    .text.RCC_GetClocksFreq:000000000000008a .LVL72
C:\Users\LOCALH~1\AppData\Local\Temp\ccZQPmnq.s:822    .text.RCC_GetClocksFreq:00000000000000b0 .LVL76
C:\Users\LOCALH~1\AppData\Local\Temp\ccZQPmnq.s:830    .text.RCC_GetClocksFreq:00000000000000b6 .LVL77
C:\Users\LOCALH~1\AppData\Local\Temp\ccZQPmnq.s:849    .text.RCC_GetClocksFreq:00000000000000ce .LVL79
C:\Users\LOCALH~1\AppData\Local\Temp\ccZQPmnq.s:854    .text.RCC_GetClocksFreq:00000000000000d2 .LVL80
C:\Users\LOCALH~1\AppData\Local\Temp\ccZQPmnq.s:858    .text.RCC_GetClocksFreq:00000000000000d4 .LVL81
C:\Users\LOCALH~1\AppData\Local\Temp\ccZQPmnq.s:860    .text.RCC_GetClocksFreq:00000000000000d6 .LVL82
C:\Users\LOCALH~1\AppData\Local\Temp\ccZQPmnq.s:866    .text.RCC_GetClocksFreq:00000000000000da .LVL83
C:\Users\LOCALH~1\AppData\Local\Temp\ccZQPmnq.s:868    .text.RCC_GetClocksFreq:00000000000000dc .LVL84
C:\Users\LOCALH~1\AppData\Local\Temp\ccZQPmnq.s:873    .text.RCC_GetClocksFreq:00000000000000e0 .LVL85
C:\Users\LOCALH~1\AppData\Local\Temp\ccZQPmnq.s:875    .text.RCC_GetClocksFreq:00000000000000e2 .LVL86
C:\Users\LOCALH~1\AppData\Local\Temp\ccZQPmnq.s:880    .text.RCC_GetClocksFreq:00000000000000e6 .LVL87
C:\Users\LOCALH~1\AppData\Local\Temp\ccZQPmnq.s:882    .text.RCC_GetClocksFreq:00000000000000e8 .LVL88
C:\Users\LOCALH~1\AppData\Local\Temp\ccZQPmnq.s:774    .text.RCC_GetClocksFreq:000000000000007a .LVL71
C:\Users\LOCALH~1\AppData\Local\Temp\ccZQPmnq.s:807    .text.RCC_GetClocksFreq:000000000000009c .LVL74
C:\Users\LOCALH~1\AppData\Local\Temp\ccZQPmnq.s:889    .text.RCC_GetClocksFreq:00000000000000f2 .LVL89
C:\Users\LOCALH~1\AppData\Local\Temp\ccZQPmnq.s:895    .text.RCC_GetClocksFreq:00000000000000f8 .LVL90
C:\Users\LOCALH~1\AppData\Local\Temp\ccZQPmnq.s:684    .text.RCC_GetClocksFreq:000000000000002e .LVL52
C:\Users\LOCALH~1\AppData\Local\Temp\ccZQPmnq.s:706    .text.RCC_GetClocksFreq:0000000000000040 .LVL57
C:\Users\LOCALH~1\AppData\Local\Temp\ccZQPmnq.s:710    .text.RCC_GetClocksFreq:0000000000000044 .LVL58
C:\Users\LOCALH~1\AppData\Local\Temp\ccZQPmnq.s:750    .text.RCC_GetClocksFreq:0000000000000068 .LVL67
C:\Users\LOCALH~1\AppData\Local\Temp\ccZQPmnq.s:799    .text.RCC_GetClocksFreq:0000000000000096 .LVL73
C:\Users\LOCALH~1\AppData\Local\Temp\ccZQPmnq.s:844    .text.RCC_GetClocksFreq:00000000000000c8 .LVL78
C:\Users\LOCALH~1\AppData\Local\Temp\ccZQPmnq.s:817    .text.RCC_GetClocksFreq:00000000000000ac .LVL75
C:\Users\LOCALH~1\AppData\Local\Temp\ccZQPmnq.s:921    .text.RCC_GetClocksFreq:0000000000000118 .LVL91
C:\Users\LOCALH~1\AppData\Local\Temp\ccZQPmnq.s:928    .text.RCC_GetClocksFreq:000000000000011c .LVL92
C:\Users\LOCALH~1\AppData\Local\Temp\ccZQPmnq.s:948    .text.RCC_GetClocksFreq:0000000000000132 .LVL94
C:\Users\LOCALH~1\AppData\Local\Temp\ccZQPmnq.s:957    .text.RCC_GetClocksFreq:000000000000013a .LVL95
C:\Users\LOCALH~1\AppData\Local\Temp\ccZQPmnq.s:959    .text.RCC_GetClocksFreq:000000000000013c .LVL96
C:\Users\LOCALH~1\AppData\Local\Temp\ccZQPmnq.s:968    .text.RCC_GetClocksFreq:0000000000000144 .LVL97
C:\Users\LOCALH~1\AppData\Local\Temp\ccZQPmnq.s:973    .text.RCC_GetClocksFreq:000000000000014a .LVL98
C:\Users\LOCALH~1\AppData\Local\Temp\ccZQPmnq.s:978    .text.RCC_GetClocksFreq:000000000000014c .LVL99
C:\Users\LOCALH~1\AppData\Local\Temp\ccZQPmnq.s:980    .text.RCC_GetClocksFreq:000000000000014e .LVL100
C:\Users\LOCALH~1\AppData\Local\Temp\ccZQPmnq.s:481    .text.RCC_ADCCLKConfig:0000000000000000 .LVL35
C:\Users\LOCALH~1\AppData\Local\Temp\ccZQPmnq.s:487    .text.RCC_ADCCLKConfig:0000000000000006 .LVL36
C:\Users\LOCALH~1\AppData\Local\Temp\ccZQPmnq.s:445    .text.RCC_ITConfig:0000000000000000 .LVL31
C:\Users\LOCALH~1\AppData\Local\Temp\ccZQPmnq.s:455    .text.RCC_ITConfig:000000000000000a .LVL32
C:\Users\LOCALH~1\AppData\Local\Temp\ccZQPmnq.s:461    .text.RCC_ITConfig:000000000000000e .LVL33
C:\Users\LOCALH~1\AppData\Local\Temp\ccZQPmnq.s:466    .text.RCC_ITConfig:0000000000000012 .LVL34
C:\Users\LOCALH~1\AppData\Local\Temp\ccZQPmnq.s:409    .text.RCC_PCLK2Config:0000000000000000 .LVL26
C:\Users\LOCALH~1\AppData\Local\Temp\ccZQPmnq.s:425    .text.RCC_PCLK2Config:0000000000000010 .LVL29
C:\Users\LOCALH~1\AppData\Local\Temp\ccZQPmnq.s:415    .text.RCC_PCLK2Config:0000000000000006 .LVL27
C:\Users\LOCALH~1\AppData\Local\Temp\ccZQPmnq.s:428    .text.RCC_PCLK2Config:0000000000000012 .LVL30
C:\Users\LOCALH~1\AppData\Local\Temp\ccZQPmnq.s:378    .text.RCC_PCLK1Config:0000000000000000 .LVL22
C:\Users\LOCALH~1\AppData\Local\Temp\ccZQPmnq.s:384    .text.RCC_PCLK1Config:0000000000000006 .LVL23
C:\Users\LOCALH~1\AppData\Local\Temp\ccZQPmnq.s:347    .text.RCC_HCLKConfig:0000000000000000 .LVL18
C:\Users\LOCALH~1\AppData\Local\Temp\ccZQPmnq.s:353    .text.RCC_HCLKConfig:0000000000000006 .LVL19
C:\Users\LOCALH~1\AppData\Local\Temp\ccZQPmnq.s:298    .text.RCC_SYSCLKConfig:0000000000000000 .LVL14
C:\Users\LOCALH~1\AppData\Local\Temp\ccZQPmnq.s:304    .text.RCC_SYSCLKConfig:0000000000000006 .LVL15
C:\Users\LOCALH~1\AppData\Local\Temp\ccZQPmnq.s:206    .text.RCC_PLLConfig:0000000000000000 .LVL7
C:\Users\LOCALH~1\AppData\Local\Temp\ccZQPmnq.s:235    .text.RCC_PLLConfig:000000000000001e .LVL10
C:\Users\LOCALH~1\AppData\Local\Temp\ccZQPmnq.s:245    .text.RCC_PLLConfig:0000000000000028 .LVL12
C:\Users\LOCALH~1\AppData\Local\Temp\ccZQPmnq.s:218    .text.RCC_PLLConfig:0000000000000010 .LVL8
C:\Users\LOCALH~1\AppData\Local\Temp\ccZQPmnq.s:238    .text.RCC_PLLConfig:0000000000000020 .LVL11
C:\Users\LOCALH~1\AppData\Local\Temp\ccZQPmnq.s:141    .text.RCC_AdjustHSICalibrationValue:0000000000000000 .LVL1
C:\Users\LOCALH~1\AppData\Local\Temp\ccZQPmnq.s:151    .text.RCC_AdjustHSICalibrationValue:0000000000000008 .LVL3
C:\Users\LOCALH~1\AppData\Local\Temp\ccZQPmnq.s:147    .text.RCC_AdjustHSICalibrationValue:0000000000000006 .LVL2
C:\Users\LOCALH~1\AppData\Local\Temp\ccZQPmnq.s:158    .text.RCC_AdjustHSICalibrationValue:000000000000000e .LVL5
C:\Users\LOCALH~1\AppData\Local\Temp\ccZQPmnq.s:1350   .text.RCC_WaitForHSEStartUp:000000000000000c .LVL130
C:\Users\LOCALH~1\AppData\Local\Temp\ccZQPmnq.s:1384   .text.RCC_WaitForHSEStartUp:0000000000000038 .LVL135
C:\Users\LOCALH~1\AppData\Local\Temp\ccZQPmnq.s:1354   .text.RCC_WaitForHSEStartUp:000000000000000e .LVL131
C:\Users\LOCALH~1\AppData\Local\Temp\ccZQPmnq.s:1378   .text.RCC_WaitForHSEStartUp:000000000000002c .LVL133
C:\Users\LOCALH~1\AppData\Local\Temp\ccZQPmnq.s:2114   .debug_info:0000000000000000 .Ldebug_info0

UNDEFINED SYMBOLS
__riscv_save_1
__riscv_restore_1
