   1              		.file	"ch32v30x_sdio.c"
   2              		.option nopic
   3              		.attribute arch, "rv32i2p0_m2p0_a2p0_f2p0_c2p0_xw"
   4              		.attribute unaligned_access, 0
   5              		.attribute stack_align, 16
   6              		.text
   7              	.Ltext0:
   8              		.cfi_sections	.debug_frame
   9              		.file 0 "C:\\Users\\localhost\\Documents\\turbomoskal-repo\\qqexpert\\firmware\\MasterController\\
  10              		.section	.text.SDIO_DeInit,"ax",@progbits
  11              		.align	1
  12              		.globl	SDIO_DeInit
  14              	SDIO_DeInit:
  15              	.LFB29:
  16              		.file 1 "../Peripheral/src/ch32v30x_sdio.c"
   1:../Peripheral/src/ch32v30x_sdio.c **** /********************************** (C) COPYRIGHT  *******************************
   2:../Peripheral/src/ch32v30x_sdio.c **** * File Name          : ch32v30x_SDIO.c
   3:../Peripheral/src/ch32v30x_sdio.c **** * Author             : WCH
   4:../Peripheral/src/ch32v30x_sdio.c **** * Version            : V1.0.0
   5:../Peripheral/src/ch32v30x_sdio.c **** * Date               : 2021/06/06
   6:../Peripheral/src/ch32v30x_sdio.c **** * Description        : This file provides all the SDIO firmware functions.
   7:../Peripheral/src/ch32v30x_sdio.c **** *********************************************************************************
   8:../Peripheral/src/ch32v30x_sdio.c **** * Copyright (c) 2021 Nanjing Qinheng Microelectronics Co., Ltd.
   9:../Peripheral/src/ch32v30x_sdio.c **** * Attention: This software (modified or not) and binary are used for 
  10:../Peripheral/src/ch32v30x_sdio.c **** * microcontroller manufactured by Nanjing Qinheng Microelectronics.
  11:../Peripheral/src/ch32v30x_sdio.c **** *******************************************************************************/
  12:../Peripheral/src/ch32v30x_sdio.c **** #include "ch32v30x_sdio.h"
  13:../Peripheral/src/ch32v30x_sdio.c **** #include "ch32v30x_rcc.h"
  14:../Peripheral/src/ch32v30x_sdio.c **** 
  15:../Peripheral/src/ch32v30x_sdio.c **** #define SDIO_OFFSET         (SDIO_BASE - PERIPH_BASE)
  16:../Peripheral/src/ch32v30x_sdio.c **** 
  17:../Peripheral/src/ch32v30x_sdio.c **** /* CLKCR register clear mask */
  18:../Peripheral/src/ch32v30x_sdio.c **** #define CLKCR_CLEAR_MASK    ((uint32_t)0xFFFF8100)
  19:../Peripheral/src/ch32v30x_sdio.c **** 
  20:../Peripheral/src/ch32v30x_sdio.c **** /* SDIO PWRCTRL Mask */
  21:../Peripheral/src/ch32v30x_sdio.c **** #define PWR_PWRCTRL_MASK    ((uint32_t)0xFFFFFFFC)
  22:../Peripheral/src/ch32v30x_sdio.c **** 
  23:../Peripheral/src/ch32v30x_sdio.c **** /* SDIO DCTRL Clear Mask */
  24:../Peripheral/src/ch32v30x_sdio.c **** #define DCTRL_CLEAR_MASK    ((uint32_t)0xFFFFFF08)
  25:../Peripheral/src/ch32v30x_sdio.c **** 
  26:../Peripheral/src/ch32v30x_sdio.c **** /* CMD Register clear mask */
  27:../Peripheral/src/ch32v30x_sdio.c **** #define CMD_CLEAR_MASK      ((uint32_t)0xFFFFF800)
  28:../Peripheral/src/ch32v30x_sdio.c **** 
  29:../Peripheral/src/ch32v30x_sdio.c **** /* SDIO RESP Registers Address */
  30:../Peripheral/src/ch32v30x_sdio.c **** #define SDIO_RESP_ADDR      ((uint32_t)(SDIO_BASE + 0x14))
  31:../Peripheral/src/ch32v30x_sdio.c **** 
  32:../Peripheral/src/ch32v30x_sdio.c **** /*********************************************************************
  33:../Peripheral/src/ch32v30x_sdio.c ****  * @fn      SDIO_DeInit
  34:../Peripheral/src/ch32v30x_sdio.c ****  *
  35:../Peripheral/src/ch32v30x_sdio.c ****  * @brief   Deinitializes the SDIO peripheral registers to their default
  36:../Peripheral/src/ch32v30x_sdio.c ****  *        reset values.
  37:../Peripheral/src/ch32v30x_sdio.c ****  *
  38:../Peripheral/src/ch32v30x_sdio.c ****  * @return  RTC counter value
  39:../Peripheral/src/ch32v30x_sdio.c ****  */
  40:../Peripheral/src/ch32v30x_sdio.c **** void SDIO_DeInit(void)
  41:../Peripheral/src/ch32v30x_sdio.c **** {
  17              		.loc 1 41 1
  18              		.cfi_startproc
  42:../Peripheral/src/ch32v30x_sdio.c ****     SDIO->POWER = 0x00000000;
  19              		.loc 1 42 5
  20              		.loc 1 42 17 is_stmt 0
  21 0000 B7870140 		li	a5,1073840128
  22 0004 23A00700 		sw	zero,0(a5)
  43:../Peripheral/src/ch32v30x_sdio.c ****     SDIO->CLKCR = 0x00000000;
  23              		.loc 1 43 5 is_stmt 1
  24              		.loc 1 43 17 is_stmt 0
  25 0008 23A20700 		sw	zero,4(a5)
  44:../Peripheral/src/ch32v30x_sdio.c ****     SDIO->ARG = 0x00000000;
  26              		.loc 1 44 5 is_stmt 1
  27              		.loc 1 44 15 is_stmt 0
  28 000c 23A40700 		sw	zero,8(a5)
  45:../Peripheral/src/ch32v30x_sdio.c ****     SDIO->CMD = 0x00000000;
  29              		.loc 1 45 5 is_stmt 1
  30              		.loc 1 45 15 is_stmt 0
  31 0010 23A60700 		sw	zero,12(a5)
  46:../Peripheral/src/ch32v30x_sdio.c ****     SDIO->DTIMER = 0x00000000;
  32              		.loc 1 46 5 is_stmt 1
  33              		.loc 1 46 18 is_stmt 0
  34 0014 23A20702 		sw	zero,36(a5)
  47:../Peripheral/src/ch32v30x_sdio.c ****     SDIO->DLEN = 0x00000000;
  35              		.loc 1 47 5 is_stmt 1
  36              		.loc 1 47 16 is_stmt 0
  37 0018 23A40702 		sw	zero,40(a5)
  48:../Peripheral/src/ch32v30x_sdio.c ****     SDIO->DCTRL = 0x00000000;
  38              		.loc 1 48 5 is_stmt 1
  49:../Peripheral/src/ch32v30x_sdio.c ****     SDIO->ICR = 0x00C007FF;
  39              		.loc 1 49 15 is_stmt 0
  40 001c 3707C000 		li	a4,12582912
  48:../Peripheral/src/ch32v30x_sdio.c ****     SDIO->DCTRL = 0x00000000;
  41              		.loc 1 48 17
  42 0020 23A60702 		sw	zero,44(a5)
  43              		.loc 1 49 5 is_stmt 1
  44              		.loc 1 49 15 is_stmt 0
  45 0024 1307F77F 		addi	a4,a4,2047
  46 0028 98DF     		sw	a4,56(a5)
  50:../Peripheral/src/ch32v30x_sdio.c ****     SDIO->MASK = 0x00000000;
  47              		.loc 1 50 5 is_stmt 1
  48              		.loc 1 50 16 is_stmt 0
  49 002a 23AE0702 		sw	zero,60(a5)
  51:../Peripheral/src/ch32v30x_sdio.c **** }
  50              		.loc 1 51 1
  51 002e 8280     		ret
  52              		.cfi_endproc
  53              	.LFE29:
  55              		.section	.text.SDIO_Init,"ax",@progbits
  56              		.align	1
  57              		.globl	SDIO_Init
  59              	SDIO_Init:
  60              	.LFB30:
  52:../Peripheral/src/ch32v30x_sdio.c **** 
  53:../Peripheral/src/ch32v30x_sdio.c **** /*********************************************************************
  54:../Peripheral/src/ch32v30x_sdio.c ****  * @fn      SDIO_Init
  55:../Peripheral/src/ch32v30x_sdio.c ****  *
  56:../Peripheral/src/ch32v30x_sdio.c ****  * @brief   Initializes the SDIO peripheral according to the specified
  57:../Peripheral/src/ch32v30x_sdio.c ****  *        parameters in the SDIO_InitStruct.
  58:../Peripheral/src/ch32v30x_sdio.c ****  *
  59:../Peripheral/src/ch32v30x_sdio.c ****  * @param   SDIO_InitStruct - pointer to a SDIO_InitTypeDef structure
  60:../Peripheral/src/ch32v30x_sdio.c ****  *        that contains the configuration information for the SDIO peripheral.
  61:../Peripheral/src/ch32v30x_sdio.c ****  *
  62:../Peripheral/src/ch32v30x_sdio.c ****  * @return  None
  63:../Peripheral/src/ch32v30x_sdio.c ****  */
  64:../Peripheral/src/ch32v30x_sdio.c **** void SDIO_Init(SDIO_InitTypeDef *SDIO_InitStruct)
  65:../Peripheral/src/ch32v30x_sdio.c **** {
  61              		.loc 1 65 1 is_stmt 1
  62              		.cfi_startproc
  63              	.LVL0:
  66:../Peripheral/src/ch32v30x_sdio.c ****     uint32_t tmpreg = 0;
  64              		.loc 1 66 5
  67:../Peripheral/src/ch32v30x_sdio.c **** 
  68:../Peripheral/src/ch32v30x_sdio.c ****     tmpreg = SDIO->CLKCR;
  65              		.loc 1 68 5
  66 0000 5441     		lw	a3,4(a0)
  67 0002 1C45     		lw	a5,8(a0)
  68              		.loc 1 68 12 is_stmt 0
  69 0004 37860140 		li	a2,1073840128
  70 0008 5842     		lw	a4,4(a2)
  71              	.LVL1:
  69:../Peripheral/src/ch32v30x_sdio.c ****     tmpreg &= CLKCR_CLEAR_MASK;
  72              		.loc 1 69 5 is_stmt 1
  70:../Peripheral/src/ch32v30x_sdio.c ****     tmpreg |= (SDIO_InitStruct->SDIO_ClockDiv | SDIO_InitStruct->SDIO_ClockPowerSave |
  73              		.loc 1 70 5
  74 000a D58F     		or	a5,a5,a3
  69:../Peripheral/src/ch32v30x_sdio.c ****     tmpreg &= CLKCR_CLEAR_MASK;
  75              		.loc 1 69 12 is_stmt 0
  76 000c E176     		li	a3,-32768
  77 000e 93860610 		addi	a3,a3,256
  78 0012 758F     		and	a4,a4,a3
  79              	.LVL2:
  80 0014 D98F     		or	a5,a5,a4
  81 0016 5845     		lw	a4,12(a0)
  82 0018 D98F     		or	a5,a5,a4
  83 001a 1841     		lw	a4,0(a0)
  84 001c D98F     		or	a5,a5,a4
  85 001e 1849     		lw	a4,16(a0)
  86 0020 D98F     		or	a5,a5,a4
  87              		.loc 1 70 31
  88 0022 5829     		lbu	a4,20(a0)
  89              		.loc 1 70 12
  90 0024 D98F     		or	a5,a4,a5
  91              	.LVL3:
  71:../Peripheral/src/ch32v30x_sdio.c ****                SDIO_InitStruct->SDIO_ClockBypass | SDIO_InitStruct->SDIO_BusWide |
  72:../Peripheral/src/ch32v30x_sdio.c ****                SDIO_InitStruct->SDIO_ClockEdge | SDIO_InitStruct->SDIO_HardwareFlowControl);
  73:../Peripheral/src/ch32v30x_sdio.c **** 
  74:../Peripheral/src/ch32v30x_sdio.c ****     SDIO->CLKCR = tmpreg;
  92              		.loc 1 74 5 is_stmt 1
  93              		.loc 1 74 17 is_stmt 0
  94 0026 5CC2     		sw	a5,4(a2)
  75:../Peripheral/src/ch32v30x_sdio.c **** }
  95              		.loc 1 75 1
  96 0028 8280     		ret
  97              		.cfi_endproc
  98              	.LFE30:
 100              		.section	.text.SDIO_StructInit,"ax",@progbits
 101              		.align	1
 102              		.globl	SDIO_StructInit
 104              	SDIO_StructInit:
 105              	.LFB31:
  76:../Peripheral/src/ch32v30x_sdio.c **** 
  77:../Peripheral/src/ch32v30x_sdio.c **** /*********************************************************************
  78:../Peripheral/src/ch32v30x_sdio.c ****  * @fn      SDIO_StructInit
  79:../Peripheral/src/ch32v30x_sdio.c ****  *
  80:../Peripheral/src/ch32v30x_sdio.c ****  * @brief   Fills each SDIO_InitStruct member with its default value.
  81:../Peripheral/src/ch32v30x_sdio.c ****  *
  82:../Peripheral/src/ch32v30x_sdio.c ****  * @param   SDIO_InitStruct - pointer to an SDIO_InitTypeDef structure which
  83:../Peripheral/src/ch32v30x_sdio.c ****  *        will be initialized.
  84:../Peripheral/src/ch32v30x_sdio.c ****  *
  85:../Peripheral/src/ch32v30x_sdio.c ****  * @return  none
  86:../Peripheral/src/ch32v30x_sdio.c ****  */
  87:../Peripheral/src/ch32v30x_sdio.c **** void SDIO_StructInit(SDIO_InitTypeDef *SDIO_InitStruct)
  88:../Peripheral/src/ch32v30x_sdio.c **** {
 106              		.loc 1 88 1 is_stmt 1
 107              		.cfi_startproc
 108              	.LVL4:
  89:../Peripheral/src/ch32v30x_sdio.c ****     SDIO_InitStruct->SDIO_ClockDiv = 0x00;
 109              		.loc 1 89 5
 110              		.loc 1 89 36 is_stmt 0
 111 0000 230A0500 		sb	zero,20(a0)
  90:../Peripheral/src/ch32v30x_sdio.c ****     SDIO_InitStruct->SDIO_ClockEdge = SDIO_ClockEdge_Rising;
 112              		.loc 1 90 5 is_stmt 1
 113              		.loc 1 90 37 is_stmt 0
 114 0004 23200500 		sw	zero,0(a0)
  91:../Peripheral/src/ch32v30x_sdio.c ****     SDIO_InitStruct->SDIO_ClockBypass = SDIO_ClockBypass_Disable;
 115              		.loc 1 91 5 is_stmt 1
 116              		.loc 1 91 39 is_stmt 0
 117 0008 23220500 		sw	zero,4(a0)
  92:../Peripheral/src/ch32v30x_sdio.c ****     SDIO_InitStruct->SDIO_ClockPowerSave = SDIO_ClockPowerSave_Disable;
 118              		.loc 1 92 5 is_stmt 1
 119              		.loc 1 92 42 is_stmt 0
 120 000c 23240500 		sw	zero,8(a0)
  93:../Peripheral/src/ch32v30x_sdio.c ****     SDIO_InitStruct->SDIO_BusWide = SDIO_BusWide_1b;
 121              		.loc 1 93 5 is_stmt 1
 122              		.loc 1 93 35 is_stmt 0
 123 0010 23260500 		sw	zero,12(a0)
  94:../Peripheral/src/ch32v30x_sdio.c ****     SDIO_InitStruct->SDIO_HardwareFlowControl = SDIO_HardwareFlowControl_Disable;
 124              		.loc 1 94 5 is_stmt 1
 125              		.loc 1 94 47 is_stmt 0
 126 0014 23280500 		sw	zero,16(a0)
  95:../Peripheral/src/ch32v30x_sdio.c **** }
 127              		.loc 1 95 1
 128 0018 8280     		ret
 129              		.cfi_endproc
 130              	.LFE31:
 132              		.section	.text.SDIO_ClockCmd,"ax",@progbits
 133              		.align	1
 134              		.globl	SDIO_ClockCmd
 136              	SDIO_ClockCmd:
 137              	.LFB32:
  96:../Peripheral/src/ch32v30x_sdio.c **** 
  97:../Peripheral/src/ch32v30x_sdio.c **** /*********************************************************************
  98:../Peripheral/src/ch32v30x_sdio.c ****  * @fn      SDIO_ClockCmd
  99:../Peripheral/src/ch32v30x_sdio.c ****  *
 100:../Peripheral/src/ch32v30x_sdio.c ****  * @brief   Enables or disables the SDIO Clock.
 101:../Peripheral/src/ch32v30x_sdio.c ****  *
 102:../Peripheral/src/ch32v30x_sdio.c ****  * @param   SDIO_InitStruct - pointer to an SDIO_InitTypeDef structure which
 103:../Peripheral/src/ch32v30x_sdio.c ****  *        will be initialized.
 104:../Peripheral/src/ch32v30x_sdio.c ****  *
 105:../Peripheral/src/ch32v30x_sdio.c ****  * @return  none
 106:../Peripheral/src/ch32v30x_sdio.c ****  */
 107:../Peripheral/src/ch32v30x_sdio.c **** void SDIO_ClockCmd(FunctionalState NewState)
 108:../Peripheral/src/ch32v30x_sdio.c **** {
 138              		.loc 1 108 1 is_stmt 1
 139              		.cfi_startproc
 140              	.LVL5:
 109:../Peripheral/src/ch32v30x_sdio.c ****     if(NewState)
 141              		.loc 1 109 5
 110:../Peripheral/src/ch32v30x_sdio.c ****         SDIO->CLKCR |= (1 << 8);
 142              		.loc 1 110 13 is_stmt 0
 143 0000 37870140 		li	a4,1073840128
 144 0004 5C43     		lw	a5,4(a4)
 109:../Peripheral/src/ch32v30x_sdio.c ****     if(NewState)
 145              		.loc 1 109 7
 146 0006 09C5     		beq	a0,zero,.L5
 147              		.loc 1 110 9 is_stmt 1
 148              		.loc 1 110 21 is_stmt 0
 149 0008 93E70710 		ori	a5,a5,256
 150              	.L7:
 111:../Peripheral/src/ch32v30x_sdio.c ****     else
 112:../Peripheral/src/ch32v30x_sdio.c ****         SDIO->CLKCR &= ~(1 << 8);
 151              		.loc 1 112 21
 152 000c 5CC3     		sw	a5,4(a4)
 113:../Peripheral/src/ch32v30x_sdio.c **** }
 153              		.loc 1 113 1
 154 000e 8280     		ret
 155              	.L5:
 112:../Peripheral/src/ch32v30x_sdio.c **** }
 156              		.loc 1 112 9 is_stmt 1
 112:../Peripheral/src/ch32v30x_sdio.c **** }
 157              		.loc 1 112 21 is_stmt 0
 158 0010 93F7F7EF 		andi	a5,a5,-257
 159 0014 E5BF     		j	.L7
 160              		.cfi_endproc
 161              	.LFE32:
 163              		.section	.text.SDIO_SetPowerState,"ax",@progbits
 164              		.align	1
 165              		.globl	SDIO_SetPowerState
 167              	SDIO_SetPowerState:
 168              	.LFB33:
 114:../Peripheral/src/ch32v30x_sdio.c **** 
 115:../Peripheral/src/ch32v30x_sdio.c **** /*********************************************************************
 116:../Peripheral/src/ch32v30x_sdio.c ****  * @fn      SDIO_SetPowerState
 117:../Peripheral/src/ch32v30x_sdio.c ****  *
 118:../Peripheral/src/ch32v30x_sdio.c ****  * @brief   Sets the power status of the controller.
 119:../Peripheral/src/ch32v30x_sdio.c ****  *
 120:../Peripheral/src/ch32v30x_sdio.c ****  * @param   SDIO_PowerState - new state of the Power state.
 121:../Peripheral/src/ch32v30x_sdio.c ****  *            SDIO_PowerState_OFF
 122:../Peripheral/src/ch32v30x_sdio.c ****  *            SDIO_PowerState_ON
 123:../Peripheral/src/ch32v30x_sdio.c ****  *
 124:../Peripheral/src/ch32v30x_sdio.c ****  * @return  none
 125:../Peripheral/src/ch32v30x_sdio.c ****  */
 126:../Peripheral/src/ch32v30x_sdio.c **** void SDIO_SetPowerState(uint32_t SDIO_PowerState)
 127:../Peripheral/src/ch32v30x_sdio.c **** {
 169              		.loc 1 127 1 is_stmt 1
 170              		.cfi_startproc
 171              	.LVL6:
 128:../Peripheral/src/ch32v30x_sdio.c ****     SDIO->POWER &= PWR_PWRCTRL_MASK;
 172              		.loc 1 128 5
 173              		.loc 1 128 9 is_stmt 0
 174 0000 B7870140 		li	a5,1073840128
 175 0004 9843     		lw	a4,0(a5)
 176              		.loc 1 128 17
 177 0006 719B     		andi	a4,a4,-4
 178 0008 98C3     		sw	a4,0(a5)
 129:../Peripheral/src/ch32v30x_sdio.c ****     SDIO->POWER |= SDIO_PowerState;
 179              		.loc 1 129 5 is_stmt 1
 180              		.loc 1 129 9 is_stmt 0
 181 000a 9843     		lw	a4,0(a5)
 182              		.loc 1 129 17
 183 000c 498F     		or	a4,a4,a0
 184 000e 98C3     		sw	a4,0(a5)
 130:../Peripheral/src/ch32v30x_sdio.c **** }
 185              		.loc 1 130 1
 186 0010 8280     		ret
 187              		.cfi_endproc
 188              	.LFE33:
 190              		.section	.text.SDIO_GetPowerState,"ax",@progbits
 191              		.align	1
 192              		.globl	SDIO_GetPowerState
 194              	SDIO_GetPowerState:
 195              	.LFB34:
 131:../Peripheral/src/ch32v30x_sdio.c **** 
 132:../Peripheral/src/ch32v30x_sdio.c **** /*********************************************************************
 133:../Peripheral/src/ch32v30x_sdio.c ****  * @fn      SDIO_GetPowerState
 134:../Peripheral/src/ch32v30x_sdio.c ****  *
 135:../Peripheral/src/ch32v30x_sdio.c ****  * @brief   Gets the power status of the controller.
 136:../Peripheral/src/ch32v30x_sdio.c ****  *
 137:../Peripheral/src/ch32v30x_sdio.c ****  * @param   CounterValue - RTC counter new value.
 138:../Peripheral/src/ch32v30x_sdio.c ****  *
 139:../Peripheral/src/ch32v30x_sdio.c ****  * @return  power state -
 140:../Peripheral/src/ch32v30x_sdio.c ****  *            0x00 - Power OFF
 141:../Peripheral/src/ch32v30x_sdio.c ****  *            0x02 - Power UP
 142:../Peripheral/src/ch32v30x_sdio.c ****  *            0x03 - Power ON
 143:../Peripheral/src/ch32v30x_sdio.c ****  */
 144:../Peripheral/src/ch32v30x_sdio.c **** uint32_t SDIO_GetPowerState(void)
 145:../Peripheral/src/ch32v30x_sdio.c **** {
 196              		.loc 1 145 1 is_stmt 1
 197              		.cfi_startproc
 146:../Peripheral/src/ch32v30x_sdio.c ****     return (SDIO->POWER & (~PWR_PWRCTRL_MASK));
 198              		.loc 1 146 5
 199              		.loc 1 146 17 is_stmt 0
 200 0000 B7870140 		li	a5,1073840128
 201 0004 8843     		lw	a0,0(a5)
 147:../Peripheral/src/ch32v30x_sdio.c **** }
 202              		.loc 1 147 1
 203 0006 0D89     		andi	a0,a0,3
 204 0008 8280     		ret
 205              		.cfi_endproc
 206              	.LFE34:
 208              		.section	.text.SDIO_ITConfig,"ax",@progbits
 209              		.align	1
 210              		.globl	SDIO_ITConfig
 212              	SDIO_ITConfig:
 213              	.LFB35:
 148:../Peripheral/src/ch32v30x_sdio.c **** 
 149:../Peripheral/src/ch32v30x_sdio.c **** /*********************************************************************
 150:../Peripheral/src/ch32v30x_sdio.c ****  * @fn      SDIO_ITConfig
 151:../Peripheral/src/ch32v30x_sdio.c ****  *
 152:../Peripheral/src/ch32v30x_sdio.c ****  * @brief   Enables or disables the SDIO interrupts.
 153:../Peripheral/src/ch32v30x_sdio.c ****  *
 154:../Peripheral/src/ch32v30x_sdio.c ****  * @param   DIO_IT - specifies the SDIO interrupt sources to be enabled or disabled.
 155:../Peripheral/src/ch32v30x_sdio.c ****  *            SDIO_IT_CCRCFAIL
 156:../Peripheral/src/ch32v30x_sdio.c ****  *            SDIO_IT_DCRCFAIL
 157:../Peripheral/src/ch32v30x_sdio.c ****  *            SDIO_IT_CTIMEOUT
 158:../Peripheral/src/ch32v30x_sdio.c ****  *            SDIO_IT_DTIMEOUT
 159:../Peripheral/src/ch32v30x_sdio.c ****  *            SDIO_IT_TXUNDERR
 160:../Peripheral/src/ch32v30x_sdio.c ****  *            SDIO_IT_RXOVERR
 161:../Peripheral/src/ch32v30x_sdio.c ****  *            SDIO_IT_CMDREND
 162:../Peripheral/src/ch32v30x_sdio.c ****  *            SDIO_IT_CMDSENT
 163:../Peripheral/src/ch32v30x_sdio.c ****  *            SDIO_IT_DATAEND
 164:../Peripheral/src/ch32v30x_sdio.c ****  *            SDIO_IT_STBITERR
 165:../Peripheral/src/ch32v30x_sdio.c ****  *            SDIO_IT_DBCKEND
 166:../Peripheral/src/ch32v30x_sdio.c ****  *            SDIO_IT_CMDACT
 167:../Peripheral/src/ch32v30x_sdio.c ****  *            SDIO_IT_TXACT
 168:../Peripheral/src/ch32v30x_sdio.c ****  *            SDIO_IT_RXACT
 169:../Peripheral/src/ch32v30x_sdio.c ****  *            SDIO_IT_TXFIFOHE
 170:../Peripheral/src/ch32v30x_sdio.c ****  *            SDIO_IT_RXFIFOHF
 171:../Peripheral/src/ch32v30x_sdio.c ****  *            SDIO_IT_TXFIFOF
 172:../Peripheral/src/ch32v30x_sdio.c ****  *            SDIO_IT_RXFIFOF
 173:../Peripheral/src/ch32v30x_sdio.c ****  *            SDIO_IT_TXFIFOE
 174:../Peripheral/src/ch32v30x_sdio.c ****  *            SDIO_IT_RXFIFOE
 175:../Peripheral/src/ch32v30x_sdio.c ****  *            SDIO_IT_TXDAVL
 176:../Peripheral/src/ch32v30x_sdio.c ****  *            SDIO_IT_RXDAVL
 177:../Peripheral/src/ch32v30x_sdio.c ****  *            SDIO_IT_SDIOIT
 178:../Peripheral/src/ch32v30x_sdio.c ****  *            SDIO_IT_CEATAEND
 179:../Peripheral/src/ch32v30x_sdio.c ****  *          NewState - ENABLE or DISABLE.
 180:../Peripheral/src/ch32v30x_sdio.c ****  *
 181:../Peripheral/src/ch32v30x_sdio.c ****  * @return  none
 182:../Peripheral/src/ch32v30x_sdio.c ****  */
 183:../Peripheral/src/ch32v30x_sdio.c **** void SDIO_ITConfig(uint32_t SDIO_IT, FunctionalState NewState)
 184:../Peripheral/src/ch32v30x_sdio.c **** {
 214              		.loc 1 184 1 is_stmt 1
 215              		.cfi_startproc
 216              	.LVL7:
 185:../Peripheral/src/ch32v30x_sdio.c ****     if(NewState != DISABLE)
 217              		.loc 1 185 5
 218              		.loc 1 185 7 is_stmt 0
 219 0000 99C5     		beq	a1,zero,.L11
 186:../Peripheral/src/ch32v30x_sdio.c ****     {
 187:../Peripheral/src/ch32v30x_sdio.c ****         SDIO->MASK |= SDIO_IT;
 220              		.loc 1 187 9 is_stmt 1
 221              		.loc 1 187 13 is_stmt 0
 222 0002 37870140 		li	a4,1073840128
 223 0006 5C5F     		lw	a5,60(a4)
 224              		.loc 1 187 20
 225 0008 C98F     		or	a5,a5,a0
 226 000a 5CDF     		sw	a5,60(a4)
 227 000c 8280     		ret
 228              	.L11:
 188:../Peripheral/src/ch32v30x_sdio.c ****     }
 189:../Peripheral/src/ch32v30x_sdio.c ****     else
 190:../Peripheral/src/ch32v30x_sdio.c ****     {
 191:../Peripheral/src/ch32v30x_sdio.c ****         SDIO->MASK &= ~SDIO_IT;
 229              		.loc 1 191 9 is_stmt 1
 230              		.loc 1 191 13 is_stmt 0
 231 000e B7870140 		li	a5,1073840128
 232 0012 D85F     		lw	a4,60(a5)
 233              		.loc 1 191 23
 234 0014 1345F5FF 		not	a0,a0
 235              	.LVL8:
 236              		.loc 1 191 20
 237 0018 798D     		and	a0,a0,a4
 238              	.LVL9:
 239 001a C8DF     		sw	a0,60(a5)
 192:../Peripheral/src/ch32v30x_sdio.c ****     }
 193:../Peripheral/src/ch32v30x_sdio.c **** }
 240              		.loc 1 193 1
 241 001c 8280     		ret
 242              		.cfi_endproc
 243              	.LFE35:
 245              		.section	.text.SDIO_DMACmd,"ax",@progbits
 246              		.align	1
 247              		.globl	SDIO_DMACmd
 249              	SDIO_DMACmd:
 250              	.LFB36:
 194:../Peripheral/src/ch32v30x_sdio.c **** 
 195:../Peripheral/src/ch32v30x_sdio.c **** /*********************************************************************
 196:../Peripheral/src/ch32v30x_sdio.c ****  * @fn      SDIO_DMACmd
 197:../Peripheral/src/ch32v30x_sdio.c ****  *
 198:../Peripheral/src/ch32v30x_sdio.c ****  * @brief   Enables or disables the SDIO DMA request.
 199:../Peripheral/src/ch32v30x_sdio.c ****  *
 200:../Peripheral/src/ch32v30x_sdio.c ****  * @param   NewState - ENABLE or DISABLE.
 201:../Peripheral/src/ch32v30x_sdio.c ****  *
 202:../Peripheral/src/ch32v30x_sdio.c ****  * @return  none
 203:../Peripheral/src/ch32v30x_sdio.c ****  */
 204:../Peripheral/src/ch32v30x_sdio.c **** void SDIO_DMACmd(FunctionalState NewState)
 205:../Peripheral/src/ch32v30x_sdio.c **** {
 251              		.loc 1 205 1 is_stmt 1
 252              		.cfi_startproc
 253              	.LVL10:
 206:../Peripheral/src/ch32v30x_sdio.c ****     if(NewState)
 254              		.loc 1 206 5
 207:../Peripheral/src/ch32v30x_sdio.c ****         SDIO->DCTRL |= (1 << 3);
 255              		.loc 1 207 13 is_stmt 0
 256 0000 37870140 		li	a4,1073840128
 257 0004 5C57     		lw	a5,44(a4)
 206:../Peripheral/src/ch32v30x_sdio.c ****     if(NewState)
 258              		.loc 1 206 7
 259 0006 09C5     		beq	a0,zero,.L14
 260              		.loc 1 207 9 is_stmt 1
 261              		.loc 1 207 21 is_stmt 0
 262 0008 93E78700 		ori	a5,a5,8
 263              	.L16:
 208:../Peripheral/src/ch32v30x_sdio.c ****     else
 209:../Peripheral/src/ch32v30x_sdio.c ****         SDIO->DCTRL &= ~(1 << 3);
 264              		.loc 1 209 21
 265 000c 5CD7     		sw	a5,44(a4)
 210:../Peripheral/src/ch32v30x_sdio.c **** }
 266              		.loc 1 210 1
 267 000e 8280     		ret
 268              	.L14:
 209:../Peripheral/src/ch32v30x_sdio.c **** }
 269              		.loc 1 209 9 is_stmt 1
 209:../Peripheral/src/ch32v30x_sdio.c **** }
 270              		.loc 1 209 21 is_stmt 0
 271 0010 DD9B     		andi	a5,a5,-9
 272 0012 EDBF     		j	.L16
 273              		.cfi_endproc
 274              	.LFE36:
 276              		.section	.text.SDIO_SendCommand,"ax",@progbits
 277              		.align	1
 278              		.globl	SDIO_SendCommand
 280              	SDIO_SendCommand:
 281              	.LFB37:
 211:../Peripheral/src/ch32v30x_sdio.c **** 
 212:../Peripheral/src/ch32v30x_sdio.c **** /*********************************************************************
 213:../Peripheral/src/ch32v30x_sdio.c ****  * @fn      SDIO_SendCommand
 214:../Peripheral/src/ch32v30x_sdio.c ****  *
 215:../Peripheral/src/ch32v30x_sdio.c ****  * @brief   Initializes the SDIO Command according to the specified
 216:../Peripheral/src/ch32v30x_sdio.c ****  *        parameters in the SDIO_CmdInitStruct and send the command.
 217:../Peripheral/src/ch32v30x_sdio.c ****  * @param   SDIO_CmdInitStruct - pointer to a SDIO_CmdInitTypeDef
 218:../Peripheral/src/ch32v30x_sdio.c ****  *        structure that contains the configuration information for
 219:../Peripheral/src/ch32v30x_sdio.c ****  *        ddthe SDIO command.
 220:../Peripheral/src/ch32v30x_sdio.c ****  *
 221:../Peripheral/src/ch32v30x_sdio.c ****  * @return  none
 222:../Peripheral/src/ch32v30x_sdio.c ****  */
 223:../Peripheral/src/ch32v30x_sdio.c **** void SDIO_SendCommand(SDIO_CmdInitTypeDef *SDIO_CmdInitStruct)
 224:../Peripheral/src/ch32v30x_sdio.c **** {
 282              		.loc 1 224 1 is_stmt 1
 283              		.cfi_startproc
 284              	.LVL11:
 225:../Peripheral/src/ch32v30x_sdio.c ****     uint32_t tmpreg = 0;
 285              		.loc 1 225 5
 226:../Peripheral/src/ch32v30x_sdio.c **** 
 227:../Peripheral/src/ch32v30x_sdio.c ****     SDIO->ARG = SDIO_CmdInitStruct->SDIO_Argument;
 286              		.loc 1 227 5
 287              		.loc 1 227 35 is_stmt 0
 288 0000 1C41     		lw	a5,0(a0)
 289              		.loc 1 227 15
 290 0002 37870140 		li	a4,1073840128
 291 0006 1CC7     		sw	a5,8(a4)
 228:../Peripheral/src/ch32v30x_sdio.c **** 
 229:../Peripheral/src/ch32v30x_sdio.c ****     tmpreg = SDIO->CMD;
 292              		.loc 1 229 5 is_stmt 1
 293              		.loc 1 229 12 is_stmt 0
 294 0008 5447     		lw	a3,12(a4)
 295              	.LVL12:
 230:../Peripheral/src/ch32v30x_sdio.c ****     tmpreg &= CMD_CLEAR_MASK;
 296              		.loc 1 230 5 is_stmt 1
 231:../Peripheral/src/ch32v30x_sdio.c ****     tmpreg |= (uint32_t)SDIO_CmdInitStruct->SDIO_CmdIndex | SDIO_CmdInitStruct->SDIO_Response | SDI
 297              		.loc 1 231 5
 298              		.loc 1 231 59 is_stmt 0
 299 000a 5C41     		lw	a5,4(a0)
 300 000c 1045     		lw	a2,8(a0)
 230:../Peripheral/src/ch32v30x_sdio.c ****     tmpreg &= CMD_CLEAR_MASK;
 301              		.loc 1 230 12
 302 000e 93F60680 		andi	a3,a3,-2048
 303              	.LVL13:
 304              		.loc 1 231 59
 305 0012 D18F     		or	a5,a5,a2
 306 0014 D58F     		or	a5,a5,a3
 307 0016 5445     		lw	a3,12(a0)
 308              	.LVL14:
 309 0018 D58F     		or	a5,a5,a3
 310              		.loc 1 231 12
 311 001a 1449     		lw	a3,16(a0)
 312 001c D58F     		or	a5,a5,a3
 313              	.LVL15:
 232:../Peripheral/src/ch32v30x_sdio.c **** 
 233:../Peripheral/src/ch32v30x_sdio.c ****     SDIO->CMD = tmpreg;
 314              		.loc 1 233 5 is_stmt 1
 315              		.loc 1 233 15 is_stmt 0
 316 001e 5CC7     		sw	a5,12(a4)
 234:../Peripheral/src/ch32v30x_sdio.c **** }
 317              		.loc 1 234 1
 318 0020 8280     		ret
 319              		.cfi_endproc
 320              	.LFE37:
 322              		.section	.text.SDIO_CmdStructInit,"ax",@progbits
 323              		.align	1
 324              		.globl	SDIO_CmdStructInit
 326              	SDIO_CmdStructInit:
 327              	.LFB38:
 235:../Peripheral/src/ch32v30x_sdio.c **** 
 236:../Peripheral/src/ch32v30x_sdio.c **** /*********************************************************************
 237:../Peripheral/src/ch32v30x_sdio.c ****  * @fn      SDIO_CmdStructInit
 238:../Peripheral/src/ch32v30x_sdio.c ****  *
 239:../Peripheral/src/ch32v30x_sdio.c ****  * @brief   Fills each SDIO_CmdInitStruct member with its default value.
 240:../Peripheral/src/ch32v30x_sdio.c ****  *
 241:../Peripheral/src/ch32v30x_sdio.c ****  * @param   SDIO_CmdInitStruct - pointer to an SDIO_CmdInitTypeDef
 242:../Peripheral/src/ch32v30x_sdio.c ****  *        structure which will be initialized.
 243:../Peripheral/src/ch32v30x_sdio.c ****  *
 244:../Peripheral/src/ch32v30x_sdio.c ****  * @return  none
 245:../Peripheral/src/ch32v30x_sdio.c ****  */
 246:../Peripheral/src/ch32v30x_sdio.c **** void SDIO_CmdStructInit(SDIO_CmdInitTypeDef *SDIO_CmdInitStruct)
 247:../Peripheral/src/ch32v30x_sdio.c **** {
 328              		.loc 1 247 1 is_stmt 1
 329              		.cfi_startproc
 330              	.LVL16:
 248:../Peripheral/src/ch32v30x_sdio.c ****     SDIO_CmdInitStruct->SDIO_Argument = 0x00;
 331              		.loc 1 248 5
 332              		.loc 1 248 39 is_stmt 0
 333 0000 23200500 		sw	zero,0(a0)
 249:../Peripheral/src/ch32v30x_sdio.c ****     SDIO_CmdInitStruct->SDIO_CmdIndex = 0x00;
 334              		.loc 1 249 5 is_stmt 1
 335              		.loc 1 249 39 is_stmt 0
 336 0004 23220500 		sw	zero,4(a0)
 250:../Peripheral/src/ch32v30x_sdio.c ****     SDIO_CmdInitStruct->SDIO_Response = SDIO_Response_No;
 337              		.loc 1 250 5 is_stmt 1
 338              		.loc 1 250 39 is_stmt 0
 339 0008 23240500 		sw	zero,8(a0)
 251:../Peripheral/src/ch32v30x_sdio.c ****     SDIO_CmdInitStruct->SDIO_Wait = SDIO_Wait_No;
 340              		.loc 1 251 5 is_stmt 1
 341              		.loc 1 251 35 is_stmt 0
 342 000c 23260500 		sw	zero,12(a0)
 252:../Peripheral/src/ch32v30x_sdio.c ****     SDIO_CmdInitStruct->SDIO_CPSM = SDIO_CPSM_Disable;
 343              		.loc 1 252 5 is_stmt 1
 344              		.loc 1 252 35 is_stmt 0
 345 0010 23280500 		sw	zero,16(a0)
 253:../Peripheral/src/ch32v30x_sdio.c **** }
 346              		.loc 1 253 1
 347 0014 8280     		ret
 348              		.cfi_endproc
 349              	.LFE38:
 351              		.section	.text.SDIO_GetCommandResponse,"ax",@progbits
 352              		.align	1
 353              		.globl	SDIO_GetCommandResponse
 355              	SDIO_GetCommandResponse:
 356              	.LFB39:
 254:../Peripheral/src/ch32v30x_sdio.c **** 
 255:../Peripheral/src/ch32v30x_sdio.c **** /*********************************************************************
 256:../Peripheral/src/ch32v30x_sdio.c ****  * @fn      SDIO_GetCommandResponse
 257:../Peripheral/src/ch32v30x_sdio.c ****  *
 258:../Peripheral/src/ch32v30x_sdio.c ****  * @brief   Returns command index of last command for which response received.
 259:../Peripheral/src/ch32v30x_sdio.c ****  *
 260:../Peripheral/src/ch32v30x_sdio.c ****  * @return  Returns the command index of the last command response received.
 261:../Peripheral/src/ch32v30x_sdio.c ****  */
 262:../Peripheral/src/ch32v30x_sdio.c **** uint8_t SDIO_GetCommandResponse(void)
 263:../Peripheral/src/ch32v30x_sdio.c **** {
 357              		.loc 1 263 1 is_stmt 1
 358              		.cfi_startproc
 264:../Peripheral/src/ch32v30x_sdio.c ****     return (uint8_t)(SDIO->RESPCMD);
 359              		.loc 1 264 5
 360              		.loc 1 264 26 is_stmt 0
 361 0000 B7870140 		li	a5,1073840128
 362 0004 884B     		lw	a0,16(a5)
 265:../Peripheral/src/ch32v30x_sdio.c **** }
 363              		.loc 1 265 1
 364 0006 1375F50F 		andi	a0,a0,0xff
 365 000a 8280     		ret
 366              		.cfi_endproc
 367              	.LFE39:
 369              		.section	.text.SDIO_GetResponse,"ax",@progbits
 370              		.align	1
 371              		.globl	SDIO_GetResponse
 373              	SDIO_GetResponse:
 374              	.LFB40:
 266:../Peripheral/src/ch32v30x_sdio.c **** 
 267:../Peripheral/src/ch32v30x_sdio.c **** /*********************************************************************
 268:../Peripheral/src/ch32v30x_sdio.c ****  * @fn      SDIO_GetResponse
 269:../Peripheral/src/ch32v30x_sdio.c ****  *
 270:../Peripheral/src/ch32v30x_sdio.c ****  * @brief   Returns response received from the card for the last command.
 271:../Peripheral/src/ch32v30x_sdio.c ****  *
 272:../Peripheral/src/ch32v30x_sdio.c ****  * @param   SDIO_RESP - Specifies the SDIO response register.
 273:../Peripheral/src/ch32v30x_sdio.c ****  *            SDIO_RESP1 - Response Register 1
 274:../Peripheral/src/ch32v30x_sdio.c ****  *            SDIO_RESP2 - Response Register 2
 275:../Peripheral/src/ch32v30x_sdio.c ****  *            SDIO_RESP3 - Response Register 3
 276:../Peripheral/src/ch32v30x_sdio.c ****  *            SDIO_RESP4 - Response Register 4
 277:../Peripheral/src/ch32v30x_sdio.c ****  *
 278:../Peripheral/src/ch32v30x_sdio.c ****  * @return  Returns the command index of the last command response received.
 279:../Peripheral/src/ch32v30x_sdio.c ****  */
 280:../Peripheral/src/ch32v30x_sdio.c **** uint32_t SDIO_GetResponse(uint32_t SDIO_RESP)
 281:../Peripheral/src/ch32v30x_sdio.c **** {
 375              		.loc 1 281 1 is_stmt 1
 376              		.cfi_startproc
 377              	.LVL17:
 282:../Peripheral/src/ch32v30x_sdio.c ****     __IO uint32_t tmp = 0;
 378              		.loc 1 282 5
 283:../Peripheral/src/ch32v30x_sdio.c **** 
 284:../Peripheral/src/ch32v30x_sdio.c ****     tmp = SDIO_RESP_ADDR + SDIO_RESP;
 379              		.loc 1 284 26 is_stmt 0
 380 0000 B7870140 		li	a5,1073840128
 281:../Peripheral/src/ch32v30x_sdio.c ****     __IO uint32_t tmp = 0;
 381              		.loc 1 281 1
 382 0004 4111     		addi	sp,sp,-16
 383              		.cfi_def_cfa_offset 16
 384              		.loc 1 284 26
 385 0006 D107     		addi	a5,a5,20
 282:../Peripheral/src/ch32v30x_sdio.c ****     __IO uint32_t tmp = 0;
 386              		.loc 1 282 19
 387 0008 02C6     		sw	zero,12(sp)
 388              		.loc 1 284 5 is_stmt 1
 389              		.loc 1 284 26 is_stmt 0
 390 000a 3E95     		add	a0,a0,a5
 391              	.LVL18:
 392              		.loc 1 284 9
 393 000c 2AC6     		sw	a0,12(sp)
 285:../Peripheral/src/ch32v30x_sdio.c **** 
 286:../Peripheral/src/ch32v30x_sdio.c ****     return (*(__IO uint32_t *)tmp);
 394              		.loc 1 286 5 is_stmt 1
 395              		.loc 1 286 14 is_stmt 0
 396 000e B247     		lw	a5,12(sp)
 397              		.loc 1 286 13
 398 0010 8843     		lw	a0,0(a5)
 399              	.LVL19:
 287:../Peripheral/src/ch32v30x_sdio.c **** }
 400              		.loc 1 287 1
 401 0012 4101     		addi	sp,sp,16
 402              		.cfi_def_cfa_offset 0
 403              	.LVL20:
 404 0014 8280     		jr	ra
 405              		.cfi_endproc
 406              	.LFE40:
 408              		.section	.text.SDIO_DataConfig,"ax",@progbits
 409              		.align	1
 410              		.globl	SDIO_DataConfig
 412              	SDIO_DataConfig:
 413              	.LFB41:
 288:../Peripheral/src/ch32v30x_sdio.c **** 
 289:../Peripheral/src/ch32v30x_sdio.c **** /*********************************************************************
 290:../Peripheral/src/ch32v30x_sdio.c ****  * @fn      SDIO_DataConfig
 291:../Peripheral/src/ch32v30x_sdio.c ****  *
 292:../Peripheral/src/ch32v30x_sdio.c ****  * @brief   Initializes the SDIO data path according to the specified
 293:../Peripheral/src/ch32v30x_sdio.c ****  *
 294:../Peripheral/src/ch32v30x_sdio.c ****  * @param   SDIO_DataInitStruct - pointer to a SDIO_DataInitTypeDef structure that
 295:../Peripheral/src/ch32v30x_sdio.c ****  *        contains the configuration information for the SDIO command.
 296:../Peripheral/src/ch32v30x_sdio.c ****  *
 297:../Peripheral/src/ch32v30x_sdio.c ****  * @return  none
 298:../Peripheral/src/ch32v30x_sdio.c ****  */
 299:../Peripheral/src/ch32v30x_sdio.c **** void SDIO_DataConfig(SDIO_DataInitTypeDef *SDIO_DataInitStruct)
 300:../Peripheral/src/ch32v30x_sdio.c **** {
 414              		.loc 1 300 1 is_stmt 1
 415              		.cfi_startproc
 416              	.LVL21:
 301:../Peripheral/src/ch32v30x_sdio.c ****     uint32_t tmpreg = 0;
 417              		.loc 1 301 5
 302:../Peripheral/src/ch32v30x_sdio.c **** 
 303:../Peripheral/src/ch32v30x_sdio.c ****     SDIO->DTIMER = SDIO_DataInitStruct->SDIO_DataTimeOut;
 418              		.loc 1 303 5
 419              		.loc 1 303 39 is_stmt 0
 420 0000 1C41     		lw	a5,0(a0)
 421              		.loc 1 303 18
 422 0002 37870140 		li	a4,1073840128
 423 0006 5CD3     		sw	a5,36(a4)
 304:../Peripheral/src/ch32v30x_sdio.c ****     SDIO->DLEN = SDIO_DataInitStruct->SDIO_DataLength;
 424              		.loc 1 304 5 is_stmt 1
 425              		.loc 1 304 37 is_stmt 0
 426 0008 5C41     		lw	a5,4(a0)
 427              		.loc 1 304 16
 428 000a 1CD7     		sw	a5,40(a4)
 305:../Peripheral/src/ch32v30x_sdio.c ****     tmpreg = SDIO->DCTRL;
 429              		.loc 1 305 5 is_stmt 1
 430              		.loc 1 305 12 is_stmt 0
 431 000c 5457     		lw	a3,44(a4)
 432              	.LVL22:
 306:../Peripheral/src/ch32v30x_sdio.c ****     tmpreg &= DCTRL_CLEAR_MASK;
 433              		.loc 1 306 5 is_stmt 1
 307:../Peripheral/src/ch32v30x_sdio.c ****     tmpreg |= (uint32_t)SDIO_DataInitStruct->SDIO_DataBlockSize | SDIO_DataInitStruct->SDIO_Transfe
 434              		.loc 1 307 5
 435              		.loc 1 307 65 is_stmt 0
 436 000e 1C45     		lw	a5,8(a0)
 437 0010 5045     		lw	a2,12(a0)
 306:../Peripheral/src/ch32v30x_sdio.c ****     tmpreg &= DCTRL_CLEAR_MASK;
 438              		.loc 1 306 12
 439 0012 93F686F0 		andi	a3,a3,-248
 440              	.LVL23:
 441              		.loc 1 307 65
 442 0016 D18F     		or	a5,a5,a2
 443 0018 D58F     		or	a5,a5,a3
 444 001a 1449     		lw	a3,16(a0)
 445              	.LVL24:
 446 001c D58F     		or	a5,a5,a3
 447              		.loc 1 307 12
 448 001e 5449     		lw	a3,20(a0)
 449 0020 D58F     		or	a5,a5,a3
 450              	.LVL25:
 308:../Peripheral/src/ch32v30x_sdio.c **** 
 309:../Peripheral/src/ch32v30x_sdio.c ****     SDIO->DCTRL = tmpreg;
 451              		.loc 1 309 5 is_stmt 1
 452              		.loc 1 309 17 is_stmt 0
 453 0022 5CD7     		sw	a5,44(a4)
 310:../Peripheral/src/ch32v30x_sdio.c **** }
 454              		.loc 1 310 1
 455 0024 8280     		ret
 456              		.cfi_endproc
 457              	.LFE41:
 459              		.section	.text.SDIO_DataStructInit,"ax",@progbits
 460              		.align	1
 461              		.globl	SDIO_DataStructInit
 463              	SDIO_DataStructInit:
 464              	.LFB42:
 311:../Peripheral/src/ch32v30x_sdio.c **** 
 312:../Peripheral/src/ch32v30x_sdio.c **** /*********************************************************************
 313:../Peripheral/src/ch32v30x_sdio.c ****  * @fn      SDIO_DataStructInit
 314:../Peripheral/src/ch32v30x_sdio.c ****  *
 315:../Peripheral/src/ch32v30x_sdio.c ****  * @brief   Fills each SDIO_DataInitStruct member with its default value.
 316:../Peripheral/src/ch32v30x_sdio.c ****  *
 317:../Peripheral/src/ch32v30x_sdio.c ****  * @param   SDIO_DataInitStruct - pointer to an SDIO_DataInitTypeDef
 318:../Peripheral/src/ch32v30x_sdio.c ****  *        structure which will be initialized.
 319:../Peripheral/src/ch32v30x_sdio.c ****  *
 320:../Peripheral/src/ch32v30x_sdio.c ****  * @return  RTC counter value
 321:../Peripheral/src/ch32v30x_sdio.c ****  */
 322:../Peripheral/src/ch32v30x_sdio.c **** void SDIO_DataStructInit(SDIO_DataInitTypeDef *SDIO_DataInitStruct)
 323:../Peripheral/src/ch32v30x_sdio.c **** {
 465              		.loc 1 323 1 is_stmt 1
 466              		.cfi_startproc
 467              	.LVL26:
 324:../Peripheral/src/ch32v30x_sdio.c ****     SDIO_DataInitStruct->SDIO_DataTimeOut = 0xFFFFFFFF;
 468              		.loc 1 324 5
 469              		.loc 1 324 43 is_stmt 0
 470 0000 FD57     		li	a5,-1
 471 0002 1CC1     		sw	a5,0(a0)
 325:../Peripheral/src/ch32v30x_sdio.c ****     SDIO_DataInitStruct->SDIO_DataLength = 0x00;
 472              		.loc 1 325 5 is_stmt 1
 473              		.loc 1 325 42 is_stmt 0
 474 0004 23220500 		sw	zero,4(a0)
 326:../Peripheral/src/ch32v30x_sdio.c ****     SDIO_DataInitStruct->SDIO_DataBlockSize = SDIO_DataBlockSize_1b;
 475              		.loc 1 326 5 is_stmt 1
 476              		.loc 1 326 45 is_stmt 0
 477 0008 23240500 		sw	zero,8(a0)
 327:../Peripheral/src/ch32v30x_sdio.c ****     SDIO_DataInitStruct->SDIO_TransferDir = SDIO_TransferDir_ToCard;
 478              		.loc 1 327 5 is_stmt 1
 479              		.loc 1 327 43 is_stmt 0
 480 000c 23260500 		sw	zero,12(a0)
 328:../Peripheral/src/ch32v30x_sdio.c ****     SDIO_DataInitStruct->SDIO_TransferMode = SDIO_TransferMode_Block;
 481              		.loc 1 328 5 is_stmt 1
 482              		.loc 1 328 44 is_stmt 0
 483 0010 23280500 		sw	zero,16(a0)
 329:../Peripheral/src/ch32v30x_sdio.c ****     SDIO_DataInitStruct->SDIO_DPSM = SDIO_DPSM_Disable;
 484              		.loc 1 329 5 is_stmt 1
 485              		.loc 1 329 36 is_stmt 0
 486 0014 232A0500 		sw	zero,20(a0)
 330:../Peripheral/src/ch32v30x_sdio.c **** }
 487              		.loc 1 330 1
 488 0018 8280     		ret
 489              		.cfi_endproc
 490              	.LFE42:
 492              		.section	.text.SDIO_GetDataCounter,"ax",@progbits
 493              		.align	1
 494              		.globl	SDIO_GetDataCounter
 496              	SDIO_GetDataCounter:
 497              	.LFB43:
 331:../Peripheral/src/ch32v30x_sdio.c **** 
 332:../Peripheral/src/ch32v30x_sdio.c **** /*********************************************************************
 333:../Peripheral/src/ch32v30x_sdio.c ****  * @fn      SDIO_GetDataCounter
 334:../Peripheral/src/ch32v30x_sdio.c ****  *
 335:../Peripheral/src/ch32v30x_sdio.c ****  * @brief   Returns number of remaining data bytes to be transferred.
 336:../Peripheral/src/ch32v30x_sdio.c ****  *
 337:../Peripheral/src/ch32v30x_sdio.c ****  * @return  Number of remaining data bytes to be transferred
 338:../Peripheral/src/ch32v30x_sdio.c ****  */
 339:../Peripheral/src/ch32v30x_sdio.c **** uint32_t SDIO_GetDataCounter(void)
 340:../Peripheral/src/ch32v30x_sdio.c **** {
 498              		.loc 1 340 1 is_stmt 1
 499              		.cfi_startproc
 341:../Peripheral/src/ch32v30x_sdio.c ****     return SDIO->DCOUNT;
 500              		.loc 1 341 5
 501              		.loc 1 341 16 is_stmt 0
 502 0000 B7870140 		li	a5,1073840128
 503 0004 885B     		lw	a0,48(a5)
 342:../Peripheral/src/ch32v30x_sdio.c **** }
 504              		.loc 1 342 1
 505 0006 8280     		ret
 506              		.cfi_endproc
 507              	.LFE43:
 509              		.section	.text.SDIO_ReadData,"ax",@progbits
 510              		.align	1
 511              		.globl	SDIO_ReadData
 513              	SDIO_ReadData:
 514              	.LFB44:
 343:../Peripheral/src/ch32v30x_sdio.c **** 
 344:../Peripheral/src/ch32v30x_sdio.c **** /*********************************************************************
 345:../Peripheral/src/ch32v30x_sdio.c ****  * @fn      SDIO_ReadData
 346:../Peripheral/src/ch32v30x_sdio.c ****  *
 347:../Peripheral/src/ch32v30x_sdio.c ****  * @brief   Read one data word from Rx FIFO.
 348:../Peripheral/src/ch32v30x_sdio.c ****  *
 349:../Peripheral/src/ch32v30x_sdio.c ****  * @return  Data received
 350:../Peripheral/src/ch32v30x_sdio.c ****  */
 351:../Peripheral/src/ch32v30x_sdio.c **** uint32_t SDIO_ReadData(void)
 352:../Peripheral/src/ch32v30x_sdio.c **** {
 515              		.loc 1 352 1 is_stmt 1
 516              		.cfi_startproc
 353:../Peripheral/src/ch32v30x_sdio.c ****     return SDIO->FIFO;
 517              		.loc 1 353 5
 518              		.loc 1 353 16 is_stmt 0
 519 0000 B7870140 		li	a5,1073840128
 520 0004 03A50708 		lw	a0,128(a5)
 354:../Peripheral/src/ch32v30x_sdio.c **** }
 521              		.loc 1 354 1
 522 0008 8280     		ret
 523              		.cfi_endproc
 524              	.LFE44:
 526              		.section	.text.SDIO_WriteData,"ax",@progbits
 527              		.align	1
 528              		.globl	SDIO_WriteData
 530              	SDIO_WriteData:
 531              	.LFB45:
 355:../Peripheral/src/ch32v30x_sdio.c **** 
 356:../Peripheral/src/ch32v30x_sdio.c **** /*********************************************************************
 357:../Peripheral/src/ch32v30x_sdio.c ****  * @fn      SDIO_WriteData
 358:../Peripheral/src/ch32v30x_sdio.c ****  *
 359:../Peripheral/src/ch32v30x_sdio.c ****  * @brief   Write one data word to Tx FIFO.
 360:../Peripheral/src/ch32v30x_sdio.c ****  *
 361:../Peripheral/src/ch32v30x_sdio.c ****  * @param   Data - 32-bit data word to write.
 362:../Peripheral/src/ch32v30x_sdio.c ****  *
 363:../Peripheral/src/ch32v30x_sdio.c ****  * @return  RTC counter value
 364:../Peripheral/src/ch32v30x_sdio.c ****  */
 365:../Peripheral/src/ch32v30x_sdio.c **** void SDIO_WriteData(uint32_t Data)
 366:../Peripheral/src/ch32v30x_sdio.c **** {
 532              		.loc 1 366 1 is_stmt 1
 533              		.cfi_startproc
 534              	.LVL27:
 367:../Peripheral/src/ch32v30x_sdio.c ****     SDIO->FIFO = Data;
 535              		.loc 1 367 5
 536              		.loc 1 367 16 is_stmt 0
 537 0000 B7870140 		li	a5,1073840128
 538 0004 23A0A708 		sw	a0,128(a5)
 368:../Peripheral/src/ch32v30x_sdio.c **** }
 539              		.loc 1 368 1
 540 0008 8280     		ret
 541              		.cfi_endproc
 542              	.LFE45:
 544              		.section	.text.SDIO_GetFIFOCount,"ax",@progbits
 545              		.align	1
 546              		.globl	SDIO_GetFIFOCount
 548              	SDIO_GetFIFOCount:
 549              	.LFB46:
 369:../Peripheral/src/ch32v30x_sdio.c **** 
 370:../Peripheral/src/ch32v30x_sdio.c **** /*********************************************************************
 371:../Peripheral/src/ch32v30x_sdio.c ****  * @fn      SDIO_GetFIFOCount
 372:../Peripheral/src/ch32v30x_sdio.c ****  *
 373:../Peripheral/src/ch32v30x_sdio.c ****  * @brief   Returns the number of words left to be written to or read from FIFO.
 374:../Peripheral/src/ch32v30x_sdio.c ****  *
 375:../Peripheral/src/ch32v30x_sdio.c ****  * @return  Remaining number of words.
 376:../Peripheral/src/ch32v30x_sdio.c ****  */
 377:../Peripheral/src/ch32v30x_sdio.c **** uint32_t SDIO_GetFIFOCount(void)
 378:../Peripheral/src/ch32v30x_sdio.c **** {
 550              		.loc 1 378 1 is_stmt 1
 551              		.cfi_startproc
 379:../Peripheral/src/ch32v30x_sdio.c ****     return SDIO->FIFOCNT;
 552              		.loc 1 379 5
 553              		.loc 1 379 16 is_stmt 0
 554 0000 B7870140 		li	a5,1073840128
 555 0004 A847     		lw	a0,72(a5)
 380:../Peripheral/src/ch32v30x_sdio.c **** }
 556              		.loc 1 380 1
 557 0006 8280     		ret
 558              		.cfi_endproc
 559              	.LFE46:
 561              		.section	.text.SDIO_StartSDIOReadWait,"ax",@progbits
 562              		.align	1
 563              		.globl	SDIO_StartSDIOReadWait
 565              	SDIO_StartSDIOReadWait:
 566              	.LFB47:
 381:../Peripheral/src/ch32v30x_sdio.c **** 
 382:../Peripheral/src/ch32v30x_sdio.c **** /*********************************************************************
 383:../Peripheral/src/ch32v30x_sdio.c ****  * @fn      SDIO_StartSDIOReadWait
 384:../Peripheral/src/ch32v30x_sdio.c ****  *
 385:../Peripheral/src/ch32v30x_sdio.c ****  * @brief   Starts the SD I/O Read Wait operation.
 386:../Peripheral/src/ch32v30x_sdio.c ****  *
 387:../Peripheral/src/ch32v30x_sdio.c ****  * @param   NewState - ENABLE or DISABLE.
 388:../Peripheral/src/ch32v30x_sdio.c ****  *
 389:../Peripheral/src/ch32v30x_sdio.c ****  * @return  none
 390:../Peripheral/src/ch32v30x_sdio.c ****  */
 391:../Peripheral/src/ch32v30x_sdio.c **** void SDIO_StartSDIOReadWait(FunctionalState NewState)
 392:../Peripheral/src/ch32v30x_sdio.c **** {
 567              		.loc 1 392 1 is_stmt 1
 568              		.cfi_startproc
 569              	.LVL28:
 393:../Peripheral/src/ch32v30x_sdio.c ****     if(NewState)
 570              		.loc 1 393 5
 394:../Peripheral/src/ch32v30x_sdio.c ****         SDIO->DCTRL |= (1 << 8);
 571              		.loc 1 394 13 is_stmt 0
 572 0000 37870140 		li	a4,1073840128
 573 0004 5C57     		lw	a5,44(a4)
 393:../Peripheral/src/ch32v30x_sdio.c ****     if(NewState)
 574              		.loc 1 393 7
 575 0006 09C5     		beq	a0,zero,.L29
 576              		.loc 1 394 9 is_stmt 1
 577              		.loc 1 394 21 is_stmt 0
 578 0008 93E70710 		ori	a5,a5,256
 579              	.L31:
 395:../Peripheral/src/ch32v30x_sdio.c ****     else
 396:../Peripheral/src/ch32v30x_sdio.c ****         SDIO->DCTRL &= ~(1 << 8);
 580              		.loc 1 396 21
 581 000c 5CD7     		sw	a5,44(a4)
 397:../Peripheral/src/ch32v30x_sdio.c **** }
 582              		.loc 1 397 1
 583 000e 8280     		ret
 584              	.L29:
 396:../Peripheral/src/ch32v30x_sdio.c **** }
 585              		.loc 1 396 9 is_stmt 1
 396:../Peripheral/src/ch32v30x_sdio.c **** }
 586              		.loc 1 396 21 is_stmt 0
 587 0010 93F7F7EF 		andi	a5,a5,-257
 588 0014 E5BF     		j	.L31
 589              		.cfi_endproc
 590              	.LFE47:
 592              		.section	.text.SDIO_StopSDIOReadWait,"ax",@progbits
 593              		.align	1
 594              		.globl	SDIO_StopSDIOReadWait
 596              	SDIO_StopSDIOReadWait:
 597              	.LFB48:
 398:../Peripheral/src/ch32v30x_sdio.c **** 
 399:../Peripheral/src/ch32v30x_sdio.c **** /*********************************************************************
 400:../Peripheral/src/ch32v30x_sdio.c ****  * @fn      SDIO_StopSDIOReadWait
 401:../Peripheral/src/ch32v30x_sdio.c ****  *
 402:../Peripheral/src/ch32v30x_sdio.c ****  * @brief   Stops the SD I/O Read Wait operation.
 403:../Peripheral/src/ch32v30x_sdio.c ****  *
 404:../Peripheral/src/ch32v30x_sdio.c ****  * @param   NewState - ENABLE or DISABLE.
 405:../Peripheral/src/ch32v30x_sdio.c ****  *
 406:../Peripheral/src/ch32v30x_sdio.c ****  * @return  none
 407:../Peripheral/src/ch32v30x_sdio.c ****  */
 408:../Peripheral/src/ch32v30x_sdio.c **** void SDIO_StopSDIOReadWait(FunctionalState NewState)
 409:../Peripheral/src/ch32v30x_sdio.c **** {
 598              		.loc 1 409 1 is_stmt 1
 599              		.cfi_startproc
 600              	.LVL29:
 410:../Peripheral/src/ch32v30x_sdio.c ****     if(NewState)
 601              		.loc 1 410 5
 411:../Peripheral/src/ch32v30x_sdio.c ****         SDIO->DCTRL |= (1 << 9);
 602              		.loc 1 411 13 is_stmt 0
 603 0000 37870140 		li	a4,1073840128
 604 0004 5C57     		lw	a5,44(a4)
 410:../Peripheral/src/ch32v30x_sdio.c ****     if(NewState)
 605              		.loc 1 410 7
 606 0006 09C5     		beq	a0,zero,.L33
 607              		.loc 1 411 9 is_stmt 1
 608              		.loc 1 411 21 is_stmt 0
 609 0008 93E70720 		ori	a5,a5,512
 610              	.L35:
 412:../Peripheral/src/ch32v30x_sdio.c ****     else
 413:../Peripheral/src/ch32v30x_sdio.c ****         SDIO->DCTRL &= ~(1 << 9);
 611              		.loc 1 413 21
 612 000c 5CD7     		sw	a5,44(a4)
 414:../Peripheral/src/ch32v30x_sdio.c **** }
 613              		.loc 1 414 1
 614 000e 8280     		ret
 615              	.L33:
 413:../Peripheral/src/ch32v30x_sdio.c **** }
 616              		.loc 1 413 9 is_stmt 1
 413:../Peripheral/src/ch32v30x_sdio.c **** }
 617              		.loc 1 413 21 is_stmt 0
 618 0010 93F7F7DF 		andi	a5,a5,-513
 619 0014 E5BF     		j	.L35
 620              		.cfi_endproc
 621              	.LFE48:
 623              		.section	.text.SDIO_SetSDIOReadWaitMode,"ax",@progbits
 624              		.align	1
 625              		.globl	SDIO_SetSDIOReadWaitMode
 627              	SDIO_SetSDIOReadWaitMode:
 628              	.LFB49:
 415:../Peripheral/src/ch32v30x_sdio.c **** 
 416:../Peripheral/src/ch32v30x_sdio.c **** /*********************************************************************
 417:../Peripheral/src/ch32v30x_sdio.c ****  * @fn      SDIO_SetSDIOReadWaitMode
 418:../Peripheral/src/ch32v30x_sdio.c ****  *
 419:../Peripheral/src/ch32v30x_sdio.c ****  * @brief   Sets one of the two options of inserting read wait interval.
 420:../Peripheral/src/ch32v30x_sdio.c ****  *
 421:../Peripheral/src/ch32v30x_sdio.c ****  * @param   SDIO_ReadWaitMode - SD I/O Read Wait operation mode.
 422:../Peripheral/src/ch32v30x_sdio.c ****  *            SDIO_ReadWaitMode_CLK - Read Wait control by stopping SDIOCLK
 423:../Peripheral/src/ch32v30x_sdio.c ****  *            SDIO_ReadWaitMode_DATA2 - Read Wait control using SDIO_DATA2
 424:../Peripheral/src/ch32v30x_sdio.c ****  *
 425:../Peripheral/src/ch32v30x_sdio.c ****  * @return  none
 426:../Peripheral/src/ch32v30x_sdio.c ****  */
 427:../Peripheral/src/ch32v30x_sdio.c **** void SDIO_SetSDIOReadWaitMode(uint32_t SDIO_ReadWaitMode)
 428:../Peripheral/src/ch32v30x_sdio.c **** {
 629              		.loc 1 428 1 is_stmt 1
 630              		.cfi_startproc
 631              	.LVL30:
 429:../Peripheral/src/ch32v30x_sdio.c ****     if(SDIO_ReadWaitMode)
 632              		.loc 1 429 5
 430:../Peripheral/src/ch32v30x_sdio.c ****         SDIO->DCTRL |= (1 << 10);
 633              		.loc 1 430 13 is_stmt 0
 634 0000 37870140 		li	a4,1073840128
 635 0004 5C57     		lw	a5,44(a4)
 429:../Peripheral/src/ch32v30x_sdio.c ****     if(SDIO_ReadWaitMode)
 636              		.loc 1 429 7
 637 0006 09C5     		beq	a0,zero,.L37
 638              		.loc 1 430 9 is_stmt 1
 639              		.loc 1 430 21 is_stmt 0
 640 0008 93E70740 		ori	a5,a5,1024
 641              	.L39:
 431:../Peripheral/src/ch32v30x_sdio.c ****     else
 432:../Peripheral/src/ch32v30x_sdio.c ****         SDIO->DCTRL &= ~(1 << 10);
 642              		.loc 1 432 21
 643 000c 5CD7     		sw	a5,44(a4)
 433:../Peripheral/src/ch32v30x_sdio.c **** }
 644              		.loc 1 433 1
 645 000e 8280     		ret
 646              	.L37:
 432:../Peripheral/src/ch32v30x_sdio.c **** }
 647              		.loc 1 432 9 is_stmt 1
 432:../Peripheral/src/ch32v30x_sdio.c **** }
 648              		.loc 1 432 21 is_stmt 0
 649 0010 93F7F7BF 		andi	a5,a5,-1025
 650 0014 E5BF     		j	.L39
 651              		.cfi_endproc
 652              	.LFE49:
 654              		.section	.text.SDIO_SetSDIOOperation,"ax",@progbits
 655              		.align	1
 656              		.globl	SDIO_SetSDIOOperation
 658              	SDIO_SetSDIOOperation:
 659              	.LFB50:
 434:../Peripheral/src/ch32v30x_sdio.c **** 
 435:../Peripheral/src/ch32v30x_sdio.c **** /*********************************************************************
 436:../Peripheral/src/ch32v30x_sdio.c ****  * @fn      SDIO_SetSDIOOperation
 437:../Peripheral/src/ch32v30x_sdio.c ****  *
 438:../Peripheral/src/ch32v30x_sdio.c ****  * @brief   Enables or disables the SD I/O Mode Operation.
 439:../Peripheral/src/ch32v30x_sdio.c ****  *
 440:../Peripheral/src/ch32v30x_sdio.c ****  * @param   NewState: ENABLE or DISABLE.
 441:../Peripheral/src/ch32v30x_sdio.c ****  *
 442:../Peripheral/src/ch32v30x_sdio.c ****  * @return  none
 443:../Peripheral/src/ch32v30x_sdio.c ****  */
 444:../Peripheral/src/ch32v30x_sdio.c **** void SDIO_SetSDIOOperation(FunctionalState NewState)
 445:../Peripheral/src/ch32v30x_sdio.c **** {
 660              		.loc 1 445 1 is_stmt 1
 661              		.cfi_startproc
 662              	.LVL31:
 446:../Peripheral/src/ch32v30x_sdio.c ****     if(NewState)
 663              		.loc 1 446 5
 447:../Peripheral/src/ch32v30x_sdio.c ****         SDIO->DCTRL |= (1 << 11);
 664              		.loc 1 447 13 is_stmt 0
 665 0000 B7860140 		li	a3,1073840128
 666 0004 DC56     		lw	a5,44(a3)
 446:../Peripheral/src/ch32v30x_sdio.c ****     if(NewState)
 667              		.loc 1 446 7
 668 0006 19C5     		beq	a0,zero,.L41
 669              		.loc 1 447 9 is_stmt 1
 670              		.loc 1 447 21 is_stmt 0
 671 0008 0567     		li	a4,4096
 672 000a 13070780 		addi	a4,a4,-2048
 673 000e D98F     		or	a5,a5,a4
 674              	.L43:
 448:../Peripheral/src/ch32v30x_sdio.c ****     else
 449:../Peripheral/src/ch32v30x_sdio.c ****         SDIO->DCTRL &= ~(1 << 11);
 675              		.loc 1 449 21
 676 0010 DCD6     		sw	a5,44(a3)
 450:../Peripheral/src/ch32v30x_sdio.c **** }
 677              		.loc 1 450 1
 678 0012 8280     		ret
 679              	.L41:
 449:../Peripheral/src/ch32v30x_sdio.c **** }
 680              		.loc 1 449 9 is_stmt 1
 449:../Peripheral/src/ch32v30x_sdio.c **** }
 681              		.loc 1 449 21 is_stmt 0
 682 0014 7D77     		li	a4,-4096
 683 0016 1307F77F 		addi	a4,a4,2047
 684 001a F98F     		and	a5,a5,a4
 685 001c D5BF     		j	.L43
 686              		.cfi_endproc
 687              	.LFE50:
 689              		.section	.text.SDIO_SendSDIOSuspendCmd,"ax",@progbits
 690              		.align	1
 691              		.globl	SDIO_SendSDIOSuspendCmd
 693              	SDIO_SendSDIOSuspendCmd:
 694              	.LFB51:
 451:../Peripheral/src/ch32v30x_sdio.c **** 
 452:../Peripheral/src/ch32v30x_sdio.c **** /*********************************************************************
 453:../Peripheral/src/ch32v30x_sdio.c ****  * @fn      SDIO_SendSDIOSuspendCmd
 454:../Peripheral/src/ch32v30x_sdio.c ****  *
 455:../Peripheral/src/ch32v30x_sdio.c ****  * @brief   Enables or disables the SD I/O Mode suspend command sending.
 456:../Peripheral/src/ch32v30x_sdio.c ****  *
 457:../Peripheral/src/ch32v30x_sdio.c ****  * @param   NewState - ENABLE or DISABLE.
 458:../Peripheral/src/ch32v30x_sdio.c ****  *
 459:../Peripheral/src/ch32v30x_sdio.c ****  * @return  none
 460:../Peripheral/src/ch32v30x_sdio.c ****  */
 461:../Peripheral/src/ch32v30x_sdio.c **** void SDIO_SendSDIOSuspendCmd(FunctionalState NewState)
 462:../Peripheral/src/ch32v30x_sdio.c **** {
 695              		.loc 1 462 1 is_stmt 1
 696              		.cfi_startproc
 697              	.LVL32:
 463:../Peripheral/src/ch32v30x_sdio.c ****     if(NewState)
 698              		.loc 1 463 5
 464:../Peripheral/src/ch32v30x_sdio.c ****         SDIO->CMD |= (1 << 11);
 699              		.loc 1 464 13 is_stmt 0
 700 0000 B7860140 		li	a3,1073840128
 701 0004 DC46     		lw	a5,12(a3)
 463:../Peripheral/src/ch32v30x_sdio.c ****     if(NewState)
 702              		.loc 1 463 7
 703 0006 19C5     		beq	a0,zero,.L45
 704              		.loc 1 464 9 is_stmt 1
 705              		.loc 1 464 19 is_stmt 0
 706 0008 0567     		li	a4,4096
 707 000a 13070780 		addi	a4,a4,-2048
 708 000e D98F     		or	a5,a5,a4
 709              	.L47:
 465:../Peripheral/src/ch32v30x_sdio.c ****     else
 466:../Peripheral/src/ch32v30x_sdio.c ****         SDIO->CMD &= ~(1 << 11);
 710              		.loc 1 466 19
 711 0010 DCC6     		sw	a5,12(a3)
 467:../Peripheral/src/ch32v30x_sdio.c **** }
 712              		.loc 1 467 1
 713 0012 8280     		ret
 714              	.L45:
 466:../Peripheral/src/ch32v30x_sdio.c **** }
 715              		.loc 1 466 9 is_stmt 1
 466:../Peripheral/src/ch32v30x_sdio.c **** }
 716              		.loc 1 466 19 is_stmt 0
 717 0014 7D77     		li	a4,-4096
 718 0016 1307F77F 		addi	a4,a4,2047
 719 001a F98F     		and	a5,a5,a4
 720 001c D5BF     		j	.L47
 721              		.cfi_endproc
 722              	.LFE51:
 724              		.section	.text.SDIO_CommandCompletionCmd,"ax",@progbits
 725              		.align	1
 726              		.globl	SDIO_CommandCompletionCmd
 728              	SDIO_CommandCompletionCmd:
 729              	.LFB52:
 468:../Peripheral/src/ch32v30x_sdio.c **** 
 469:../Peripheral/src/ch32v30x_sdio.c **** /*********************************************************************
 470:../Peripheral/src/ch32v30x_sdio.c ****  * @fn      SDIO_CommandCompletionCmd
 471:../Peripheral/src/ch32v30x_sdio.c ****  *
 472:../Peripheral/src/ch32v30x_sdio.c ****  * @brief   Enables or disables the command completion signal.
 473:../Peripheral/src/ch32v30x_sdio.c ****  *
 474:../Peripheral/src/ch32v30x_sdio.c ****  * @param   NewState - ENABLE or DISABLE.
 475:../Peripheral/src/ch32v30x_sdio.c ****  *
 476:../Peripheral/src/ch32v30x_sdio.c ****  * @return  none
 477:../Peripheral/src/ch32v30x_sdio.c ****  */
 478:../Peripheral/src/ch32v30x_sdio.c **** void SDIO_CommandCompletionCmd(FunctionalState NewState)
 479:../Peripheral/src/ch32v30x_sdio.c **** {
 730              		.loc 1 479 1 is_stmt 1
 731              		.cfi_startproc
 732              	.LVL33:
 480:../Peripheral/src/ch32v30x_sdio.c ****     if(NewState)
 733              		.loc 1 480 5
 734              		.loc 1 480 7 is_stmt 0
 735 0000 01C9     		beq	a0,zero,.L49
 481:../Peripheral/src/ch32v30x_sdio.c ****         SDIO->CMD |= (1 << 12);
 736              		.loc 1 481 9 is_stmt 1
 737              		.loc 1 481 13 is_stmt 0
 738 0002 37870140 		li	a4,1073840128
 739 0006 5C47     		lw	a5,12(a4)
 740              		.loc 1 481 19
 741 0008 8566     		li	a3,4096
 742 000a D58F     		or	a5,a5,a3
 743 000c 5CC7     		sw	a5,12(a4)
 744 000e 8280     		ret
 745              	.L49:
 482:../Peripheral/src/ch32v30x_sdio.c ****     else
 483:../Peripheral/src/ch32v30x_sdio.c ****         SDIO->CMD &= ~(1 << 12);
 746              		.loc 1 483 9 is_stmt 1
 747              		.loc 1 483 13 is_stmt 0
 748 0010 B7860140 		li	a3,1073840128
 749 0014 DC46     		lw	a5,12(a3)
 750              		.loc 1 483 19
 751 0016 7D77     		li	a4,-4096
 752 0018 7D17     		addi	a4,a4,-1
 753 001a F98F     		and	a5,a5,a4
 754 001c DCC6     		sw	a5,12(a3)
 484:../Peripheral/src/ch32v30x_sdio.c **** }
 755              		.loc 1 484 1
 756 001e 8280     		ret
 757              		.cfi_endproc
 758              	.LFE52:
 760              		.section	.text.SDIO_CEATAITCmd,"ax",@progbits
 761              		.align	1
 762              		.globl	SDIO_CEATAITCmd
 764              	SDIO_CEATAITCmd:
 765              	.LFB53:
 485:../Peripheral/src/ch32v30x_sdio.c **** 
 486:../Peripheral/src/ch32v30x_sdio.c **** /*********************************************************************
 487:../Peripheral/src/ch32v30x_sdio.c ****  * @fn      SDIO_CEATAITCmd
 488:../Peripheral/src/ch32v30x_sdio.c ****  *
 489:../Peripheral/src/ch32v30x_sdio.c ****  * @brief   Enables or disables the CE-ATA interrupt.
 490:../Peripheral/src/ch32v30x_sdio.c ****  *
 491:../Peripheral/src/ch32v30x_sdio.c ****  * @param   NewState - ENABLE or DISABLE.
 492:../Peripheral/src/ch32v30x_sdio.c ****  *
 493:../Peripheral/src/ch32v30x_sdio.c ****  * @return  none
 494:../Peripheral/src/ch32v30x_sdio.c ****  */
 495:../Peripheral/src/ch32v30x_sdio.c **** void SDIO_CEATAITCmd(FunctionalState NewState)
 496:../Peripheral/src/ch32v30x_sdio.c **** {
 766              		.loc 1 496 1 is_stmt 1
 767              		.cfi_startproc
 768              	.LVL34:
 497:../Peripheral/src/ch32v30x_sdio.c ****     if(NewState)
 769              		.loc 1 497 5
 770              		.loc 1 497 7 is_stmt 0
 771 0000 01C9     		beq	a0,zero,.L52
 498:../Peripheral/src/ch32v30x_sdio.c ****         SDIO->CMD |= (1 << 13);
 772              		.loc 1 498 9 is_stmt 1
 773              		.loc 1 498 13 is_stmt 0
 774 0002 37870140 		li	a4,1073840128
 775 0006 5C47     		lw	a5,12(a4)
 776              		.loc 1 498 19
 777 0008 8966     		li	a3,8192
 778 000a D58F     		or	a5,a5,a3
 779 000c 5CC7     		sw	a5,12(a4)
 780 000e 8280     		ret
 781              	.L52:
 499:../Peripheral/src/ch32v30x_sdio.c ****     else
 500:../Peripheral/src/ch32v30x_sdio.c ****         SDIO->CMD &= ~(1 << 13);
 782              		.loc 1 500 9 is_stmt 1
 783              		.loc 1 500 13 is_stmt 0
 784 0010 B7860140 		li	a3,1073840128
 785 0014 DC46     		lw	a5,12(a3)
 786              		.loc 1 500 19
 787 0016 7977     		li	a4,-8192
 788 0018 7D17     		addi	a4,a4,-1
 789 001a F98F     		and	a5,a5,a4
 790 001c DCC6     		sw	a5,12(a3)
 501:../Peripheral/src/ch32v30x_sdio.c **** }
 791              		.loc 1 501 1
 792 001e 8280     		ret
 793              		.cfi_endproc
 794              	.LFE53:
 796              		.section	.text.SDIO_SendCEATACmd,"ax",@progbits
 797              		.align	1
 798              		.globl	SDIO_SendCEATACmd
 800              	SDIO_SendCEATACmd:
 801              	.LFB54:
 502:../Peripheral/src/ch32v30x_sdio.c **** 
 503:../Peripheral/src/ch32v30x_sdio.c **** /*********************************************************************
 504:../Peripheral/src/ch32v30x_sdio.c ****  * @fn      SDIO_SendCEATACmd
 505:../Peripheral/src/ch32v30x_sdio.c ****  *
 506:../Peripheral/src/ch32v30x_sdio.c ****  * @brief   Sends CE-ATA command (CMD61).
 507:../Peripheral/src/ch32v30x_sdio.c ****  *
 508:../Peripheral/src/ch32v30x_sdio.c ****  * @param   NewState - ENABLE or DISABLE.
 509:../Peripheral/src/ch32v30x_sdio.c ****  *
 510:../Peripheral/src/ch32v30x_sdio.c ****  * @return  RTC counter value
 511:../Peripheral/src/ch32v30x_sdio.c ****  */
 512:../Peripheral/src/ch32v30x_sdio.c **** void SDIO_SendCEATACmd(FunctionalState NewState)
 513:../Peripheral/src/ch32v30x_sdio.c **** {
 802              		.loc 1 513 1 is_stmt 1
 803              		.cfi_startproc
 804              	.LVL35:
 514:../Peripheral/src/ch32v30x_sdio.c ****     if(NewState)
 805              		.loc 1 514 5
 806              		.loc 1 514 7 is_stmt 0
 807 0000 01C9     		beq	a0,zero,.L55
 515:../Peripheral/src/ch32v30x_sdio.c ****         SDIO->CMD |= (1 << 14);
 808              		.loc 1 515 9 is_stmt 1
 809              		.loc 1 515 13 is_stmt 0
 810 0002 37870140 		li	a4,1073840128
 811 0006 5C47     		lw	a5,12(a4)
 812              		.loc 1 515 19
 813 0008 9166     		li	a3,16384
 814 000a D58F     		or	a5,a5,a3
 815 000c 5CC7     		sw	a5,12(a4)
 816 000e 8280     		ret
 817              	.L55:
 516:../Peripheral/src/ch32v30x_sdio.c ****     else
 517:../Peripheral/src/ch32v30x_sdio.c ****         SDIO->CMD &= ~(1 << 14);
 818              		.loc 1 517 9 is_stmt 1
 819              		.loc 1 517 13 is_stmt 0
 820 0010 B7860140 		li	a3,1073840128
 821 0014 DC46     		lw	a5,12(a3)
 822              		.loc 1 517 19
 823 0016 7177     		li	a4,-16384
 824 0018 7D17     		addi	a4,a4,-1
 825 001a F98F     		and	a5,a5,a4
 826 001c DCC6     		sw	a5,12(a3)
 518:../Peripheral/src/ch32v30x_sdio.c **** }
 827              		.loc 1 518 1
 828 001e 8280     		ret
 829              		.cfi_endproc
 830              	.LFE54:
 832              		.section	.text.SDIO_GetFlagStatus,"ax",@progbits
 833              		.align	1
 834              		.globl	SDIO_GetFlagStatus
 836              	SDIO_GetFlagStatus:
 837              	.LFB55:
 519:../Peripheral/src/ch32v30x_sdio.c **** 
 520:../Peripheral/src/ch32v30x_sdio.c **** /*********************************************************************
 521:../Peripheral/src/ch32v30x_sdio.c ****  * @fn      SDIO_GetFlagStatus
 522:../Peripheral/src/ch32v30x_sdio.c ****  *
 523:../Peripheral/src/ch32v30x_sdio.c ****  * @brief   Checks whether the specified SDIO flag is set or not.
 524:../Peripheral/src/ch32v30x_sdio.c ****  *
 525:../Peripheral/src/ch32v30x_sdio.c ****  * @param   SDIO_FLAG - specifies the flag to check.
 526:../Peripheral/src/ch32v30x_sdio.c ****  *            SDIO_FLAG_CCRCFAIL - Command response received (CRC check failed)
 527:../Peripheral/src/ch32v30x_sdio.c ****  *            SDIO_FLAG_DCRCFAIL - Data block sent/received (CRC check failed)
 528:../Peripheral/src/ch32v30x_sdio.c ****  *            SDIO_FLAG_CTIMEOUT - Command response timeout
 529:../Peripheral/src/ch32v30x_sdio.c ****  *            SDIO_FLAG_DTIMEOUT - Data timeout
 530:../Peripheral/src/ch32v30x_sdio.c ****  *            SDIO_FLAG_TXUNDERR - Transmit FIFO underrun error
 531:../Peripheral/src/ch32v30x_sdio.c ****  *            SDIO_FLAG_RXOVERR - Received FIFO overrun error
 532:../Peripheral/src/ch32v30x_sdio.c ****  *            SDIO_FLAG_CMDREND - Command response received (CRC check passed)
 533:../Peripheral/src/ch32v30x_sdio.c ****  *            SDIO_FLAG_CMDSENT - Command sent (no response required)
 534:../Peripheral/src/ch32v30x_sdio.c ****  *            SDIO_FLAG_DATAEND - Data end (data counter, SDIDCOUNT, is zero)
 535:../Peripheral/src/ch32v30x_sdio.c ****  *            SDIO_FLAG_STBITERR - Start bit not detected on all data signals
 536:../Peripheral/src/ch32v30x_sdio.c ****  *          in wide bus mode.
 537:../Peripheral/src/ch32v30x_sdio.c ****  *            SDIO_FLAG_DBCKEND - Data block sent/received (CRC check passed)
 538:../Peripheral/src/ch32v30x_sdio.c ****  *            SDIO_FLAG_CMDACT - Command transfer in progress
 539:../Peripheral/src/ch32v30x_sdio.c ****  *            SDIO_FLAG_TXACT - Data transmit in progress
 540:../Peripheral/src/ch32v30x_sdio.c ****  *            SDIO_FLAG_RXACT - Data receive in progress
 541:../Peripheral/src/ch32v30x_sdio.c ****  *            SDIO_FLAG_TXFIFOHE - Transmit FIFO Half Empty
 542:../Peripheral/src/ch32v30x_sdio.c ****  *            SDIO_FLAG_RXFIFOHF - Receive FIFO Half Full
 543:../Peripheral/src/ch32v30x_sdio.c ****  *            SDIO_FLAG_TXFIFOF - Transmit FIFO full
 544:../Peripheral/src/ch32v30x_sdio.c ****  *            SDIO_FLAG_RXFIFOF - Receive FIFO full
 545:../Peripheral/src/ch32v30x_sdio.c ****  *            SDIO_FLAG_TXFIFOE - Transmit FIFO empty
 546:../Peripheral/src/ch32v30x_sdio.c ****  *            SDIO_FLAG_RXFIFOE - Receive FIFO empty
 547:../Peripheral/src/ch32v30x_sdio.c ****  *            SDIO_FLAG_TXDAVL - Data available in transmit FIFO
 548:../Peripheral/src/ch32v30x_sdio.c ****  *            SDIO_FLAG_RXDAVL - Data available in receive FIFO
 549:../Peripheral/src/ch32v30x_sdio.c ****  *            SDIO_FLAG_SDIOIT - SD I/O interrupt received
 550:../Peripheral/src/ch32v30x_sdio.c ****  *            SDIO_FLAG_CEATAEND - CE-ATA command completion signal received
 551:../Peripheral/src/ch32v30x_sdio.c ****  *          for CMD61
 552:../Peripheral/src/ch32v30x_sdio.c ****  *
 553:../Peripheral/src/ch32v30x_sdio.c ****  * @return  ITStatus - SET or RESET
 554:../Peripheral/src/ch32v30x_sdio.c ****  */
 555:../Peripheral/src/ch32v30x_sdio.c **** FlagStatus SDIO_GetFlagStatus(uint32_t SDIO_FLAG)
 556:../Peripheral/src/ch32v30x_sdio.c **** {
 838              		.loc 1 556 1 is_stmt 1
 839              		.cfi_startproc
 840              	.LVL36:
 557:../Peripheral/src/ch32v30x_sdio.c ****     FlagStatus bitstatus = RESET;
 841              		.loc 1 557 5
 558:../Peripheral/src/ch32v30x_sdio.c **** 
 559:../Peripheral/src/ch32v30x_sdio.c ****     if((SDIO->STA & SDIO_FLAG) != (uint32_t)RESET)
 842              		.loc 1 559 5
 843              		.loc 1 559 13 is_stmt 0
 844 0000 B7870140 		li	a5,1073840128
 845 0004 DC5B     		lw	a5,52(a5)
 846              	.LVL37:
 560:../Peripheral/src/ch32v30x_sdio.c ****     {
 561:../Peripheral/src/ch32v30x_sdio.c ****         bitstatus = SET;
 562:../Peripheral/src/ch32v30x_sdio.c ****     }
 563:../Peripheral/src/ch32v30x_sdio.c ****     else
 564:../Peripheral/src/ch32v30x_sdio.c ****     {
 565:../Peripheral/src/ch32v30x_sdio.c ****         bitstatus = RESET;
 566:../Peripheral/src/ch32v30x_sdio.c ****     }
 567:../Peripheral/src/ch32v30x_sdio.c ****     return bitstatus;
 847              		.loc 1 567 5 is_stmt 1
 559:../Peripheral/src/ch32v30x_sdio.c ****     {
 848              		.loc 1 559 19 is_stmt 0
 849 0006 7D8D     		and	a0,a5,a0
 850              	.LVL38:
 568:../Peripheral/src/ch32v30x_sdio.c **** }
 851              		.loc 1 568 1
 852 0008 3335A000 		snez	a0,a0
 853 000c 8280     		ret
 854              		.cfi_endproc
 855              	.LFE55:
 857              		.section	.text.SDIO_ClearFlag,"ax",@progbits
 858              		.align	1
 859              		.globl	SDIO_ClearFlag
 861              	SDIO_ClearFlag:
 862              	.LFB56:
 569:../Peripheral/src/ch32v30x_sdio.c **** 
 570:../Peripheral/src/ch32v30x_sdio.c **** /*********************************************************************
 571:../Peripheral/src/ch32v30x_sdio.c ****  * @fn      SDIO_ClearFlag
 572:../Peripheral/src/ch32v30x_sdio.c ****  *
 573:../Peripheral/src/ch32v30x_sdio.c ****  * @brief   Clears the SDIO's pending flags.
 574:../Peripheral/src/ch32v30x_sdio.c ****  *
 575:../Peripheral/src/ch32v30x_sdio.c ****  * @param   SDIO_FLAG - specifies the flag to clear.
 576:../Peripheral/src/ch32v30x_sdio.c ****  *            SDIO_FLAG_CCRCFAIL - Command response received (CRC check failed)
 577:../Peripheral/src/ch32v30x_sdio.c ****  *            SDIO_FLAG_DCRCFAIL - Data block sent/received (CRC check failed)
 578:../Peripheral/src/ch32v30x_sdio.c ****  *            SDIO_FLAG_CTIMEOUT - Command response timeout
 579:../Peripheral/src/ch32v30x_sdio.c ****  *            SDIO_FLAG_DTIMEOUT - Data timeout
 580:../Peripheral/src/ch32v30x_sdio.c ****  *            SDIO_FLAG_TXUNDERR - Transmit FIFO underrun error
 581:../Peripheral/src/ch32v30x_sdio.c ****  *            SDIO_FLAG_RXOVERR - Received FIFO overrun error
 582:../Peripheral/src/ch32v30x_sdio.c ****  *            SDIO_FLAG_CMDREND - Command response received (CRC check passed)
 583:../Peripheral/src/ch32v30x_sdio.c ****  *            SDIO_FLAG_CMDSENT - Command sent (no response required)
 584:../Peripheral/src/ch32v30x_sdio.c ****  *            SDIO_FLAG_DATAEND - Data end (data counter, SDIDCOUNT, is zero)
 585:../Peripheral/src/ch32v30x_sdio.c ****  *            SDIO_FLAG_STBITERR - Start bit not detected on all data signals
 586:../Peripheral/src/ch32v30x_sdio.c ****  *        in wide bus mode
 587:../Peripheral/src/ch32v30x_sdio.c ****  *            SDIO_FLAG_DBCKEND - Data block sent/received (CRC check passed)
 588:../Peripheral/src/ch32v30x_sdio.c ****  *            SDIO_FLAG_SDIOIT - SD I/O interrupt received
 589:../Peripheral/src/ch32v30x_sdio.c ****  *            SDIO_FLAG_CEATAEND - CE-ATA command completion signal received for CMD61
 590:../Peripheral/src/ch32v30x_sdio.c ****  *
 591:../Peripheral/src/ch32v30x_sdio.c ****  * @return  none
 592:../Peripheral/src/ch32v30x_sdio.c ****  */
 593:../Peripheral/src/ch32v30x_sdio.c **** void SDIO_ClearFlag(uint32_t SDIO_FLAG)
 594:../Peripheral/src/ch32v30x_sdio.c **** {
 863              		.loc 1 594 1 is_stmt 1
 864              		.cfi_startproc
 865              	.LVL39:
 595:../Peripheral/src/ch32v30x_sdio.c ****     SDIO->ICR = SDIO_FLAG;
 866              		.loc 1 595 5
 867              		.loc 1 595 15 is_stmt 0
 868 0000 B7870140 		li	a5,1073840128
 869 0004 88DF     		sw	a0,56(a5)
 596:../Peripheral/src/ch32v30x_sdio.c **** }
 870              		.loc 1 596 1
 871 0006 8280     		ret
 872              		.cfi_endproc
 873              	.LFE56:
 875              		.section	.text.SDIO_GetITStatus,"ax",@progbits
 876              		.align	1
 877              		.globl	SDIO_GetITStatus
 879              	SDIO_GetITStatus:
 880              	.LFB60:
 881              		.cfi_startproc
 597:../Peripheral/src/ch32v30x_sdio.c **** 
 598:../Peripheral/src/ch32v30x_sdio.c **** /*********************************************************************
 599:../Peripheral/src/ch32v30x_sdio.c ****  * @fn      SDIO_GetITStatus
 600:../Peripheral/src/ch32v30x_sdio.c ****  *
 601:../Peripheral/src/ch32v30x_sdio.c ****  * @brief   Checks whether the specified SDIO interrupt has occurred or not.
 602:../Peripheral/src/ch32v30x_sdio.c ****  *
 603:../Peripheral/src/ch32v30x_sdio.c ****  * @param   SDIO_IT: specifies the SDIO interrupt source to check.
 604:../Peripheral/src/ch32v30x_sdio.c ****  *            SDIO_IT_CCRCFAIL - Command response received (CRC check failed) interrupt
 605:../Peripheral/src/ch32v30x_sdio.c ****  *            SDIO_IT_DCRCFAIL - Data block sent/received (CRC check failed) interrupt
 606:../Peripheral/src/ch32v30x_sdio.c ****  *            SDIO_IT_CTIMEOUT - Command response timeout interrupt
 607:../Peripheral/src/ch32v30x_sdio.c ****  *            SDIO_IT_DTIMEOUT - Data timeout interrupt
 608:../Peripheral/src/ch32v30x_sdio.c ****  *            SDIO_IT_TXUNDERR - Transmit FIFO underrun error interrupt
 609:../Peripheral/src/ch32v30x_sdio.c ****  *            SDIO_IT_RXOVERR - Received FIFO overrun error interrupt
 610:../Peripheral/src/ch32v30x_sdio.c ****  *            SDIO_IT_CMDREND - Command response received (CRC check passed) interrupt
 611:../Peripheral/src/ch32v30x_sdio.c ****  *            SDIO_IT_CMDSENT - Command sent (no response required) interrupt
 612:../Peripheral/src/ch32v30x_sdio.c ****  *            SDIO_IT_DATAEND -  Data end (data counter, SDIDCOUNT, is zero) interrupt
 613:../Peripheral/src/ch32v30x_sdio.c ****  *            SDIO_IT_STBITERR - Start bit not detected on all data signals in wide
 614:../Peripheral/src/ch32v30x_sdio.c ****  *        bus mode interrupt
 615:../Peripheral/src/ch32v30x_sdio.c ****  *            SDIO_IT_DBCKEND - Data block sent/received (CRC check passed) interrupt
 616:../Peripheral/src/ch32v30x_sdio.c ****  *            SDIO_IT_CMDACT - Command transfer in progress interrupt
 617:../Peripheral/src/ch32v30x_sdio.c ****  *            SDIO_IT_TXACT - Data transmit in progress interrupt
 618:../Peripheral/src/ch32v30x_sdio.c ****  *            SDIO_IT_RXACT - Data receive in progress interrupt
 619:../Peripheral/src/ch32v30x_sdio.c ****  *            SDIO_IT_TXFIFOHE - Transmit FIFO Half Empty interrupt
 620:../Peripheral/src/ch32v30x_sdio.c ****  *            SDIO_IT_RXFIFOHF - Receive FIFO Half Full interrupt
 621:../Peripheral/src/ch32v30x_sdio.c ****  *            SDIO_IT_TXFIFOF - Transmit FIFO full interrupt
 622:../Peripheral/src/ch32v30x_sdio.c ****  *            SDIO_IT_RXFIFOF - Receive FIFO full interrupt
 623:../Peripheral/src/ch32v30x_sdio.c ****  *            SDIO_IT_TXFIFOE - Transmit FIFO empty interrupt
 624:../Peripheral/src/ch32v30x_sdio.c ****  *            SDIO_IT_RXFIFOE - Receive FIFO empty interrupt
 625:../Peripheral/src/ch32v30x_sdio.c ****  *            SDIO_IT_TXDAVL - Data available in transmit FIFO interrupt
 626:../Peripheral/src/ch32v30x_sdio.c ****  *            SDIO_IT_RXDAVL - Data available in receive FIFO interrupt
 627:../Peripheral/src/ch32v30x_sdio.c ****  *            SDIO_IT_SDIOIT - SD I/O interrupt received interrupt
 628:../Peripheral/src/ch32v30x_sdio.c ****  *            SDIO_IT_CEATAEND - CE-ATA command completion signal received for CMD61 interrupt
 629:../Peripheral/src/ch32v30x_sdio.c ****  *
 630:../Peripheral/src/ch32v30x_sdio.c ****  * @return  ITStatus:SET or RESET
 631:../Peripheral/src/ch32v30x_sdio.c ****  */
 632:../Peripheral/src/ch32v30x_sdio.c **** ITStatus SDIO_GetITStatus(uint32_t SDIO_IT)
 882              		.loc 1 632 10 is_stmt 1
 883 0000 17030000 		tail	SDIO_GetFlagStatus
 883      67000300 
 884              		.cfi_endproc
 885              	.LFE60:
 887              		.section	.text.SDIO_ClearITPendingBit,"ax",@progbits
 888              		.align	1
 889              		.globl	SDIO_ClearITPendingBit
 891              	SDIO_ClearITPendingBit:
 892              	.LFB62:
 893              		.cfi_startproc
 633:../Peripheral/src/ch32v30x_sdio.c **** {
 634:../Peripheral/src/ch32v30x_sdio.c ****     ITStatus bitstatus = RESET;
 635:../Peripheral/src/ch32v30x_sdio.c **** 
 636:../Peripheral/src/ch32v30x_sdio.c ****     if((SDIO->STA & SDIO_IT) != (uint32_t)RESET)
 637:../Peripheral/src/ch32v30x_sdio.c ****     {
 638:../Peripheral/src/ch32v30x_sdio.c ****         bitstatus = SET;
 639:../Peripheral/src/ch32v30x_sdio.c ****     }
 640:../Peripheral/src/ch32v30x_sdio.c ****     else
 641:../Peripheral/src/ch32v30x_sdio.c ****     {
 642:../Peripheral/src/ch32v30x_sdio.c ****         bitstatus = RESET;
 643:../Peripheral/src/ch32v30x_sdio.c ****     }
 644:../Peripheral/src/ch32v30x_sdio.c ****     return bitstatus;
 645:../Peripheral/src/ch32v30x_sdio.c **** }
 646:../Peripheral/src/ch32v30x_sdio.c **** 
 647:../Peripheral/src/ch32v30x_sdio.c **** /*********************************************************************
 648:../Peripheral/src/ch32v30x_sdio.c ****  * @fn      SDIO_ClearITPendingBit
 649:../Peripheral/src/ch32v30x_sdio.c ****  *
 650:../Peripheral/src/ch32v30x_sdio.c ****  * @brief   Clears the SDIO's interrupt pending bits.
 651:../Peripheral/src/ch32v30x_sdio.c ****  *
 652:../Peripheral/src/ch32v30x_sdio.c ****  * @param   SDIO_IT - specifies the interrupt pending bit to clear.
 653:../Peripheral/src/ch32v30x_sdio.c ****  *            SDIO_IT_CCRCFAIL - Command response received (CRC check failed) interrupt
 654:../Peripheral/src/ch32v30x_sdio.c ****  *            SDIO_IT_DCRCFAIL - Data block sent/received (CRC check failed) interrupt
 655:../Peripheral/src/ch32v30x_sdio.c ****  *            SDIO_IT_CTIMEOUT - Command response timeout interrupt
 656:../Peripheral/src/ch32v30x_sdio.c ****  *            SDIO_IT_DTIMEOUT - Data timeout interrupt
 657:../Peripheral/src/ch32v30x_sdio.c ****  *            SDIO_IT_TXUNDERR - Transmit FIFO underrun error interrupt
 658:../Peripheral/src/ch32v30x_sdio.c ****  *            SDIO_IT_RXOVERR - Received FIFO overrun error interrupt
 659:../Peripheral/src/ch32v30x_sdio.c ****  *            SDIO_IT_CMDREND - Command response received (CRC check passed) interrupt
 660:../Peripheral/src/ch32v30x_sdio.c ****  *            SDIO_IT_CMDSENT - Command sent (no response required) interrupt
 661:../Peripheral/src/ch32v30x_sdio.c ****  *            SDIO_IT_DATAEND - Data end (data counter, SDIDCOUNT, is zero) interrupt
 662:../Peripheral/src/ch32v30x_sdio.c ****  *            SDIO_IT_STBITERR - Start bit not detected on all data signals in wide
 663:../Peripheral/src/ch32v30x_sdio.c ****  *        bus mode interrupt
 664:../Peripheral/src/ch32v30x_sdio.c ****  *            SDIO_IT_SDIOIT - SD I/O interrupt received interrupt
 665:../Peripheral/src/ch32v30x_sdio.c ****  *            SDIO_IT_CEATAEND - CE-ATA command completion signal received for CMD61
 666:../Peripheral/src/ch32v30x_sdio.c ****  *
 667:../Peripheral/src/ch32v30x_sdio.c ****  * @return  RTC counter value
 668:../Peripheral/src/ch32v30x_sdio.c ****  */
 669:../Peripheral/src/ch32v30x_sdio.c **** void SDIO_ClearITPendingBit(uint32_t SDIO_IT)
 894              		.loc 1 669 6
 895 0000 B7870140 		li	a5,1073840128
 896 0004 88DF     		sw	a0,56(a5)
 897 0006 8280     		ret
 898              		.cfi_endproc
 899              	.LFE62:
 901              		.text
 902              	.Letext0:
 903              		.file 2 "d:\\software\\mounriver_studio\\toolchain\\risc-v embedded gcc12\\riscv-none-elf\\include
 904              		.file 3 "d:\\software\\mounriver_studio\\toolchain\\risc-v embedded gcc12\\riscv-none-elf\\include
 905              		.file 4 "C:\\Users\\localhost\\Documents\\turbomoskal-repo\\qqexpert\\firmware\\MasterController\\
 906              		.file 5 "C:\\Users\\localhost\\Documents\\turbomoskal-repo\\qqexpert\\firmware\\MasterController\\
 907              		.file 6 "C:\\Users\\localhost\\Documents\\turbomoskal-repo\\qqexpert\\firmware\\MasterController\\
DEFINED SYMBOLS
                            *ABS*:0000000000000000 ch32v30x_sdio.c
C:\Users\LOCALH~1\AppData\Local\Temp\ccRcSERF.s:14     .text.SDIO_DeInit:0000000000000000 SDIO_DeInit
C:\Users\LOCALH~1\AppData\Local\Temp\ccRcSERF.s:18     .text.SDIO_DeInit:0000000000000000 .L0 
C:\Users\LOCALH~1\AppData\Local\Temp\ccRcSERF.s:19     .text.SDIO_DeInit:0000000000000000 .L0 
C:\Users\LOCALH~1\AppData\Local\Temp\ccRcSERF.s:20     .text.SDIO_DeInit:0000000000000000 .L0 
C:\Users\LOCALH~1\AppData\Local\Temp\ccRcSERF.s:21     .text.SDIO_DeInit:0000000000000000 $x
C:\Users\LOCALH~1\AppData\Local\Temp\ccRcSERF.s:21     .text.SDIO_DeInit:0000000000000000 .L0 
C:\Users\LOCALH~1\AppData\Local\Temp\ccRcSERF.s:24     .text.SDIO_DeInit:0000000000000008 .L0 
C:\Users\LOCALH~1\AppData\Local\Temp\ccRcSERF.s:25     .text.SDIO_DeInit:0000000000000008 .L0 
C:\Users\LOCALH~1\AppData\Local\Temp\ccRcSERF.s:27     .text.SDIO_DeInit:000000000000000c .L0 
C:\Users\LOCALH~1\AppData\Local\Temp\ccRcSERF.s:28     .text.SDIO_DeInit:000000000000000c .L0 
C:\Users\LOCALH~1\AppData\Local\Temp\ccRcSERF.s:30     .text.SDIO_DeInit:0000000000000010 .L0 
C:\Users\LOCALH~1\AppData\Local\Temp\ccRcSERF.s:31     .text.SDIO_DeInit:0000000000000010 .L0 
C:\Users\LOCALH~1\AppData\Local\Temp\ccRcSERF.s:33     .text.SDIO_DeInit:0000000000000014 .L0 
C:\Users\LOCALH~1\AppData\Local\Temp\ccRcSERF.s:34     .text.SDIO_DeInit:0000000000000014 .L0 
C:\Users\LOCALH~1\AppData\Local\Temp\ccRcSERF.s:36     .text.SDIO_DeInit:0000000000000018 .L0 
C:\Users\LOCALH~1\AppData\Local\Temp\ccRcSERF.s:37     .text.SDIO_DeInit:0000000000000018 .L0 
C:\Users\LOCALH~1\AppData\Local\Temp\ccRcSERF.s:39     .text.SDIO_DeInit:000000000000001c .L0 
C:\Users\LOCALH~1\AppData\Local\Temp\ccRcSERF.s:40     .text.SDIO_DeInit:000000000000001c .L0 
C:\Users\LOCALH~1\AppData\Local\Temp\ccRcSERF.s:42     .text.SDIO_DeInit:0000000000000020 .L0 
C:\Users\LOCALH~1\AppData\Local\Temp\ccRcSERF.s:44     .text.SDIO_DeInit:0000000000000024 .L0 
C:\Users\LOCALH~1\AppData\Local\Temp\ccRcSERF.s:45     .text.SDIO_DeInit:0000000000000024 .L0 
C:\Users\LOCALH~1\AppData\Local\Temp\ccRcSERF.s:48     .text.SDIO_DeInit:000000000000002a .L0 
C:\Users\LOCALH~1\AppData\Local\Temp\ccRcSERF.s:49     .text.SDIO_DeInit:000000000000002a .L0 
C:\Users\LOCALH~1\AppData\Local\Temp\ccRcSERF.s:51     .text.SDIO_DeInit:000000000000002e .L0 
C:\Users\LOCALH~1\AppData\Local\Temp\ccRcSERF.s:52     .text.SDIO_DeInit:0000000000000030 .L0 
C:\Users\LOCALH~1\AppData\Local\Temp\ccRcSERF.s:59     .text.SDIO_Init:0000000000000000 SDIO_Init
C:\Users\LOCALH~1\AppData\Local\Temp\ccRcSERF.s:62     .text.SDIO_Init:0000000000000000 .L0 
C:\Users\LOCALH~1\AppData\Local\Temp\ccRcSERF.s:64     .text.SDIO_Init:0000000000000000 .L0 
C:\Users\LOCALH~1\AppData\Local\Temp\ccRcSERF.s:65     .text.SDIO_Init:0000000000000000 .L0 
C:\Users\LOCALH~1\AppData\Local\Temp\ccRcSERF.s:66     .text.SDIO_Init:0000000000000000 $x
C:\Users\LOCALH~1\AppData\Local\Temp\ccRcSERF.s:66     .text.SDIO_Init:0000000000000000 .L0 
C:\Users\LOCALH~1\AppData\Local\Temp\ccRcSERF.s:69     .text.SDIO_Init:0000000000000004 .L0 
C:\Users\LOCALH~1\AppData\Local\Temp\ccRcSERF.s:73     .text.SDIO_Init:000000000000000a .L0 
C:\Users\LOCALH~1\AppData\Local\Temp\ccRcSERF.s:74     .text.SDIO_Init:000000000000000a .L0 
C:\Users\LOCALH~1\AppData\Local\Temp\ccRcSERF.s:76     .text.SDIO_Init:000000000000000c .L0 
C:\Users\LOCALH~1\AppData\Local\Temp\ccRcSERF.s:88     .text.SDIO_Init:0000000000000022 .L0 
C:\Users\LOCALH~1\AppData\Local\Temp\ccRcSERF.s:90     .text.SDIO_Init:0000000000000024 .L0 
C:\Users\LOCALH~1\AppData\Local\Temp\ccRcSERF.s:93     .text.SDIO_Init:0000000000000026 .L0 
C:\Users\LOCALH~1\AppData\Local\Temp\ccRcSERF.s:94     .text.SDIO_Init:0000000000000026 .L0 
C:\Users\LOCALH~1\AppData\Local\Temp\ccRcSERF.s:96     .text.SDIO_Init:0000000000000028 .L0 
C:\Users\LOCALH~1\AppData\Local\Temp\ccRcSERF.s:97     .text.SDIO_Init:000000000000002a .L0 
C:\Users\LOCALH~1\AppData\Local\Temp\ccRcSERF.s:104    .text.SDIO_StructInit:0000000000000000 SDIO_StructInit
C:\Users\LOCALH~1\AppData\Local\Temp\ccRcSERF.s:107    .text.SDIO_StructInit:0000000000000000 .L0 
C:\Users\LOCALH~1\AppData\Local\Temp\ccRcSERF.s:109    .text.SDIO_StructInit:0000000000000000 .L0 
C:\Users\LOCALH~1\AppData\Local\Temp\ccRcSERF.s:110    .text.SDIO_StructInit:0000000000000000 .L0 
C:\Users\LOCALH~1\AppData\Local\Temp\ccRcSERF.s:111    .text.SDIO_StructInit:0000000000000000 $x
C:\Users\LOCALH~1\AppData\Local\Temp\ccRcSERF.s:111    .text.SDIO_StructInit:0000000000000000 .L0 
C:\Users\LOCALH~1\AppData\Local\Temp\ccRcSERF.s:113    .text.SDIO_StructInit:0000000000000004 .L0 
C:\Users\LOCALH~1\AppData\Local\Temp\ccRcSERF.s:114    .text.SDIO_StructInit:0000000000000004 .L0 
C:\Users\LOCALH~1\AppData\Local\Temp\ccRcSERF.s:116    .text.SDIO_StructInit:0000000000000008 .L0 
C:\Users\LOCALH~1\AppData\Local\Temp\ccRcSERF.s:117    .text.SDIO_StructInit:0000000000000008 .L0 
C:\Users\LOCALH~1\AppData\Local\Temp\ccRcSERF.s:119    .text.SDIO_StructInit:000000000000000c .L0 
C:\Users\LOCALH~1\AppData\Local\Temp\ccRcSERF.s:120    .text.SDIO_StructInit:000000000000000c .L0 
C:\Users\LOCALH~1\AppData\Local\Temp\ccRcSERF.s:122    .text.SDIO_StructInit:0000000000000010 .L0 
C:\Users\LOCALH~1\AppData\Local\Temp\ccRcSERF.s:123    .text.SDIO_StructInit:0000000000000010 .L0 
C:\Users\LOCALH~1\AppData\Local\Temp\ccRcSERF.s:125    .text.SDIO_StructInit:0000000000000014 .L0 
C:\Users\LOCALH~1\AppData\Local\Temp\ccRcSERF.s:126    .text.SDIO_StructInit:0000000000000014 .L0 
C:\Users\LOCALH~1\AppData\Local\Temp\ccRcSERF.s:128    .text.SDIO_StructInit:0000000000000018 .L0 
C:\Users\LOCALH~1\AppData\Local\Temp\ccRcSERF.s:129    .text.SDIO_StructInit:000000000000001a .L0 
C:\Users\LOCALH~1\AppData\Local\Temp\ccRcSERF.s:136    .text.SDIO_ClockCmd:0000000000000000 SDIO_ClockCmd
C:\Users\LOCALH~1\AppData\Local\Temp\ccRcSERF.s:139    .text.SDIO_ClockCmd:0000000000000000 .L0 
C:\Users\LOCALH~1\AppData\Local\Temp\ccRcSERF.s:141    .text.SDIO_ClockCmd:0000000000000000 .L0 
C:\Users\LOCALH~1\AppData\Local\Temp\ccRcSERF.s:142    .text.SDIO_ClockCmd:0000000000000000 .L0 
C:\Users\LOCALH~1\AppData\Local\Temp\ccRcSERF.s:143    .text.SDIO_ClockCmd:0000000000000000 $x
C:\Users\LOCALH~1\AppData\Local\Temp\ccRcSERF.s:143    .text.SDIO_ClockCmd:0000000000000000 .L0 
C:\Users\LOCALH~1\AppData\Local\Temp\ccRcSERF.s:146    .text.SDIO_ClockCmd:0000000000000006 .L0 
C:\Users\LOCALH~1\AppData\Local\Temp\ccRcSERF.s:148    .text.SDIO_ClockCmd:0000000000000008 .L0 
C:\Users\LOCALH~1\AppData\Local\Temp\ccRcSERF.s:149    .text.SDIO_ClockCmd:0000000000000008 .L0 
C:\Users\LOCALH~1\AppData\Local\Temp\ccRcSERF.s:152    .text.SDIO_ClockCmd:000000000000000c .L0 
C:\Users\LOCALH~1\AppData\Local\Temp\ccRcSERF.s:154    .text.SDIO_ClockCmd:000000000000000e .L0 
C:\Users\LOCALH~1\AppData\Local\Temp\ccRcSERF.s:157    .text.SDIO_ClockCmd:0000000000000010 .L0 
C:\Users\LOCALH~1\AppData\Local\Temp\ccRcSERF.s:158    .text.SDIO_ClockCmd:0000000000000010 .L0 
C:\Users\LOCALH~1\AppData\Local\Temp\ccRcSERF.s:160    .text.SDIO_ClockCmd:0000000000000016 .L0 
C:\Users\LOCALH~1\AppData\Local\Temp\ccRcSERF.s:167    .text.SDIO_SetPowerState:0000000000000000 SDIO_SetPowerState
C:\Users\LOCALH~1\AppData\Local\Temp\ccRcSERF.s:170    .text.SDIO_SetPowerState:0000000000000000 .L0 
C:\Users\LOCALH~1\AppData\Local\Temp\ccRcSERF.s:172    .text.SDIO_SetPowerState:0000000000000000 .L0 
C:\Users\LOCALH~1\AppData\Local\Temp\ccRcSERF.s:173    .text.SDIO_SetPowerState:0000000000000000 .L0 
C:\Users\LOCALH~1\AppData\Local\Temp\ccRcSERF.s:174    .text.SDIO_SetPowerState:0000000000000000 $x
C:\Users\LOCALH~1\AppData\Local\Temp\ccRcSERF.s:174    .text.SDIO_SetPowerState:0000000000000000 .L0 
C:\Users\LOCALH~1\AppData\Local\Temp\ccRcSERF.s:177    .text.SDIO_SetPowerState:0000000000000006 .L0 
C:\Users\LOCALH~1\AppData\Local\Temp\ccRcSERF.s:180    .text.SDIO_SetPowerState:000000000000000a .L0 
C:\Users\LOCALH~1\AppData\Local\Temp\ccRcSERF.s:181    .text.SDIO_SetPowerState:000000000000000a .L0 
C:\Users\LOCALH~1\AppData\Local\Temp\ccRcSERF.s:183    .text.SDIO_SetPowerState:000000000000000c .L0 
C:\Users\LOCALH~1\AppData\Local\Temp\ccRcSERF.s:186    .text.SDIO_SetPowerState:0000000000000010 .L0 
C:\Users\LOCALH~1\AppData\Local\Temp\ccRcSERF.s:187    .text.SDIO_SetPowerState:0000000000000012 .L0 
C:\Users\LOCALH~1\AppData\Local\Temp\ccRcSERF.s:194    .text.SDIO_GetPowerState:0000000000000000 SDIO_GetPowerState
C:\Users\LOCALH~1\AppData\Local\Temp\ccRcSERF.s:197    .text.SDIO_GetPowerState:0000000000000000 .L0 
C:\Users\LOCALH~1\AppData\Local\Temp\ccRcSERF.s:198    .text.SDIO_GetPowerState:0000000000000000 .L0 
C:\Users\LOCALH~1\AppData\Local\Temp\ccRcSERF.s:199    .text.SDIO_GetPowerState:0000000000000000 .L0 
C:\Users\LOCALH~1\AppData\Local\Temp\ccRcSERF.s:200    .text.SDIO_GetPowerState:0000000000000000 $x
C:\Users\LOCALH~1\AppData\Local\Temp\ccRcSERF.s:200    .text.SDIO_GetPowerState:0000000000000000 .L0 
C:\Users\LOCALH~1\AppData\Local\Temp\ccRcSERF.s:203    .text.SDIO_GetPowerState:0000000000000006 .L0 
C:\Users\LOCALH~1\AppData\Local\Temp\ccRcSERF.s:205    .text.SDIO_GetPowerState:000000000000000a .L0 
C:\Users\LOCALH~1\AppData\Local\Temp\ccRcSERF.s:212    .text.SDIO_ITConfig:0000000000000000 SDIO_ITConfig
C:\Users\LOCALH~1\AppData\Local\Temp\ccRcSERF.s:215    .text.SDIO_ITConfig:0000000000000000 .L0 
C:\Users\LOCALH~1\AppData\Local\Temp\ccRcSERF.s:217    .text.SDIO_ITConfig:0000000000000000 .L0 
C:\Users\LOCALH~1\AppData\Local\Temp\ccRcSERF.s:218    .text.SDIO_ITConfig:0000000000000000 .L0 
C:\Users\LOCALH~1\AppData\Local\Temp\ccRcSERF.s:219    .text.SDIO_ITConfig:0000000000000000 $x
C:\Users\LOCALH~1\AppData\Local\Temp\ccRcSERF.s:219    .text.SDIO_ITConfig:0000000000000000 .L0 
C:\Users\LOCALH~1\AppData\Local\Temp\ccRcSERF.s:221    .text.SDIO_ITConfig:0000000000000002 .L0 
C:\Users\LOCALH~1\AppData\Local\Temp\ccRcSERF.s:222    .text.SDIO_ITConfig:0000000000000002 .L0 
C:\Users\LOCALH~1\AppData\Local\Temp\ccRcSERF.s:225    .text.SDIO_ITConfig:0000000000000008 .L0 
C:\Users\LOCALH~1\AppData\Local\Temp\ccRcSERF.s:230    .text.SDIO_ITConfig:000000000000000e .L0 
C:\Users\LOCALH~1\AppData\Local\Temp\ccRcSERF.s:231    .text.SDIO_ITConfig:000000000000000e .L0 
C:\Users\LOCALH~1\AppData\Local\Temp\ccRcSERF.s:234    .text.SDIO_ITConfig:0000000000000014 .L0 
C:\Users\LOCALH~1\AppData\Local\Temp\ccRcSERF.s:237    .text.SDIO_ITConfig:0000000000000018 .L0 
C:\Users\LOCALH~1\AppData\Local\Temp\ccRcSERF.s:241    .text.SDIO_ITConfig:000000000000001c .L0 
C:\Users\LOCALH~1\AppData\Local\Temp\ccRcSERF.s:242    .text.SDIO_ITConfig:000000000000001e .L0 
C:\Users\LOCALH~1\AppData\Local\Temp\ccRcSERF.s:249    .text.SDIO_DMACmd:0000000000000000 SDIO_DMACmd
C:\Users\LOCALH~1\AppData\Local\Temp\ccRcSERF.s:252    .text.SDIO_DMACmd:0000000000000000 .L0 
C:\Users\LOCALH~1\AppData\Local\Temp\ccRcSERF.s:254    .text.SDIO_DMACmd:0000000000000000 .L0 
C:\Users\LOCALH~1\AppData\Local\Temp\ccRcSERF.s:255    .text.SDIO_DMACmd:0000000000000000 .L0 
C:\Users\LOCALH~1\AppData\Local\Temp\ccRcSERF.s:256    .text.SDIO_DMACmd:0000000000000000 $x
C:\Users\LOCALH~1\AppData\Local\Temp\ccRcSERF.s:256    .text.SDIO_DMACmd:0000000000000000 .L0 
C:\Users\LOCALH~1\AppData\Local\Temp\ccRcSERF.s:259    .text.SDIO_DMACmd:0000000000000006 .L0 
C:\Users\LOCALH~1\AppData\Local\Temp\ccRcSERF.s:261    .text.SDIO_DMACmd:0000000000000008 .L0 
C:\Users\LOCALH~1\AppData\Local\Temp\ccRcSERF.s:262    .text.SDIO_DMACmd:0000000000000008 .L0 
C:\Users\LOCALH~1\AppData\Local\Temp\ccRcSERF.s:265    .text.SDIO_DMACmd:000000000000000c .L0 
C:\Users\LOCALH~1\AppData\Local\Temp\ccRcSERF.s:267    .text.SDIO_DMACmd:000000000000000e .L0 
C:\Users\LOCALH~1\AppData\Local\Temp\ccRcSERF.s:270    .text.SDIO_DMACmd:0000000000000010 .L0 
C:\Users\LOCALH~1\AppData\Local\Temp\ccRcSERF.s:271    .text.SDIO_DMACmd:0000000000000010 .L0 
C:\Users\LOCALH~1\AppData\Local\Temp\ccRcSERF.s:273    .text.SDIO_DMACmd:0000000000000014 .L0 
C:\Users\LOCALH~1\AppData\Local\Temp\ccRcSERF.s:280    .text.SDIO_SendCommand:0000000000000000 SDIO_SendCommand
C:\Users\LOCALH~1\AppData\Local\Temp\ccRcSERF.s:283    .text.SDIO_SendCommand:0000000000000000 .L0 
C:\Users\LOCALH~1\AppData\Local\Temp\ccRcSERF.s:285    .text.SDIO_SendCommand:0000000000000000 .L0 
C:\Users\LOCALH~1\AppData\Local\Temp\ccRcSERF.s:286    .text.SDIO_SendCommand:0000000000000000 .L0 
C:\Users\LOCALH~1\AppData\Local\Temp\ccRcSERF.s:287    .text.SDIO_SendCommand:0000000000000000 .L0 
C:\Users\LOCALH~1\AppData\Local\Temp\ccRcSERF.s:288    .text.SDIO_SendCommand:0000000000000000 $x
C:\Users\LOCALH~1\AppData\Local\Temp\ccRcSERF.s:288    .text.SDIO_SendCommand:0000000000000000 .L0 
C:\Users\LOCALH~1\AppData\Local\Temp\ccRcSERF.s:290    .text.SDIO_SendCommand:0000000000000002 .L0 
C:\Users\LOCALH~1\AppData\Local\Temp\ccRcSERF.s:293    .text.SDIO_SendCommand:0000000000000008 .L0 
C:\Users\LOCALH~1\AppData\Local\Temp\ccRcSERF.s:294    .text.SDIO_SendCommand:0000000000000008 .L0 
C:\Users\LOCALH~1\AppData\Local\Temp\ccRcSERF.s:297    .text.SDIO_SendCommand:000000000000000a .L0 
C:\Users\LOCALH~1\AppData\Local\Temp\ccRcSERF.s:298    .text.SDIO_SendCommand:000000000000000a .L0 
C:\Users\LOCALH~1\AppData\Local\Temp\ccRcSERF.s:299    .text.SDIO_SendCommand:000000000000000a .L0 
C:\Users\LOCALH~1\AppData\Local\Temp\ccRcSERF.s:302    .text.SDIO_SendCommand:000000000000000e .L0 
C:\Users\LOCALH~1\AppData\Local\Temp\ccRcSERF.s:305    .text.SDIO_SendCommand:0000000000000012 .L0 
C:\Users\LOCALH~1\AppData\Local\Temp\ccRcSERF.s:311    .text.SDIO_SendCommand:000000000000001a .L0 
C:\Users\LOCALH~1\AppData\Local\Temp\ccRcSERF.s:315    .text.SDIO_SendCommand:000000000000001e .L0 
C:\Users\LOCALH~1\AppData\Local\Temp\ccRcSERF.s:316    .text.SDIO_SendCommand:000000000000001e .L0 
C:\Users\LOCALH~1\AppData\Local\Temp\ccRcSERF.s:318    .text.SDIO_SendCommand:0000000000000020 .L0 
C:\Users\LOCALH~1\AppData\Local\Temp\ccRcSERF.s:319    .text.SDIO_SendCommand:0000000000000022 .L0 
C:\Users\LOCALH~1\AppData\Local\Temp\ccRcSERF.s:326    .text.SDIO_CmdStructInit:0000000000000000 SDIO_CmdStructInit
C:\Users\LOCALH~1\AppData\Local\Temp\ccRcSERF.s:329    .text.SDIO_CmdStructInit:0000000000000000 .L0 
C:\Users\LOCALH~1\AppData\Local\Temp\ccRcSERF.s:331    .text.SDIO_CmdStructInit:0000000000000000 .L0 
C:\Users\LOCALH~1\AppData\Local\Temp\ccRcSERF.s:332    .text.SDIO_CmdStructInit:0000000000000000 .L0 
C:\Users\LOCALH~1\AppData\Local\Temp\ccRcSERF.s:333    .text.SDIO_CmdStructInit:0000000000000000 $x
C:\Users\LOCALH~1\AppData\Local\Temp\ccRcSERF.s:333    .text.SDIO_CmdStructInit:0000000000000000 .L0 
C:\Users\LOCALH~1\AppData\Local\Temp\ccRcSERF.s:335    .text.SDIO_CmdStructInit:0000000000000004 .L0 
C:\Users\LOCALH~1\AppData\Local\Temp\ccRcSERF.s:336    .text.SDIO_CmdStructInit:0000000000000004 .L0 
C:\Users\LOCALH~1\AppData\Local\Temp\ccRcSERF.s:338    .text.SDIO_CmdStructInit:0000000000000008 .L0 
C:\Users\LOCALH~1\AppData\Local\Temp\ccRcSERF.s:339    .text.SDIO_CmdStructInit:0000000000000008 .L0 
C:\Users\LOCALH~1\AppData\Local\Temp\ccRcSERF.s:341    .text.SDIO_CmdStructInit:000000000000000c .L0 
C:\Users\LOCALH~1\AppData\Local\Temp\ccRcSERF.s:342    .text.SDIO_CmdStructInit:000000000000000c .L0 
C:\Users\LOCALH~1\AppData\Local\Temp\ccRcSERF.s:344    .text.SDIO_CmdStructInit:0000000000000010 .L0 
C:\Users\LOCALH~1\AppData\Local\Temp\ccRcSERF.s:345    .text.SDIO_CmdStructInit:0000000000000010 .L0 
C:\Users\LOCALH~1\AppData\Local\Temp\ccRcSERF.s:347    .text.SDIO_CmdStructInit:0000000000000014 .L0 
C:\Users\LOCALH~1\AppData\Local\Temp\ccRcSERF.s:348    .text.SDIO_CmdStructInit:0000000000000016 .L0 
C:\Users\LOCALH~1\AppData\Local\Temp\ccRcSERF.s:355    .text.SDIO_GetCommandResponse:0000000000000000 SDIO_GetCommandResponse
C:\Users\LOCALH~1\AppData\Local\Temp\ccRcSERF.s:358    .text.SDIO_GetCommandResponse:0000000000000000 .L0 
C:\Users\LOCALH~1\AppData\Local\Temp\ccRcSERF.s:359    .text.SDIO_GetCommandResponse:0000000000000000 .L0 
C:\Users\LOCALH~1\AppData\Local\Temp\ccRcSERF.s:360    .text.SDIO_GetCommandResponse:0000000000000000 .L0 
C:\Users\LOCALH~1\AppData\Local\Temp\ccRcSERF.s:361    .text.SDIO_GetCommandResponse:0000000000000000 $x
C:\Users\LOCALH~1\AppData\Local\Temp\ccRcSERF.s:361    .text.SDIO_GetCommandResponse:0000000000000000 .L0 
C:\Users\LOCALH~1\AppData\Local\Temp\ccRcSERF.s:364    .text.SDIO_GetCommandResponse:0000000000000006 .L0 
C:\Users\LOCALH~1\AppData\Local\Temp\ccRcSERF.s:366    .text.SDIO_GetCommandResponse:000000000000000c .L0 
C:\Users\LOCALH~1\AppData\Local\Temp\ccRcSERF.s:373    .text.SDIO_GetResponse:0000000000000000 SDIO_GetResponse
C:\Users\LOCALH~1\AppData\Local\Temp\ccRcSERF.s:376    .text.SDIO_GetResponse:0000000000000000 .L0 
C:\Users\LOCALH~1\AppData\Local\Temp\ccRcSERF.s:378    .text.SDIO_GetResponse:0000000000000000 .L0 
C:\Users\LOCALH~1\AppData\Local\Temp\ccRcSERF.s:379    .text.SDIO_GetResponse:0000000000000000 .L0 
C:\Users\LOCALH~1\AppData\Local\Temp\ccRcSERF.s:380    .text.SDIO_GetResponse:0000000000000000 $x
C:\Users\LOCALH~1\AppData\Local\Temp\ccRcSERF.s:380    .text.SDIO_GetResponse:0000000000000000 .L0 
C:\Users\LOCALH~1\AppData\Local\Temp\ccRcSERF.s:382    .text.SDIO_GetResponse:0000000000000004 .L0 
C:\Users\LOCALH~1\AppData\Local\Temp\ccRcSERF.s:383    .text.SDIO_GetResponse:0000000000000006 .L0 
C:\Users\LOCALH~1\AppData\Local\Temp\ccRcSERF.s:385    .text.SDIO_GetResponse:0000000000000006 .L0 
C:\Users\LOCALH~1\AppData\Local\Temp\ccRcSERF.s:387    .text.SDIO_GetResponse:0000000000000008 .L0 
C:\Users\LOCALH~1\AppData\Local\Temp\ccRcSERF.s:389    .text.SDIO_GetResponse:000000000000000a .L0 
C:\Users\LOCALH~1\AppData\Local\Temp\ccRcSERF.s:390    .text.SDIO_GetResponse:000000000000000a .L0 
C:\Users\LOCALH~1\AppData\Local\Temp\ccRcSERF.s:393    .text.SDIO_GetResponse:000000000000000c .L0 
C:\Users\LOCALH~1\AppData\Local\Temp\ccRcSERF.s:395    .text.SDIO_GetResponse:000000000000000e .L0 
C:\Users\LOCALH~1\AppData\Local\Temp\ccRcSERF.s:396    .text.SDIO_GetResponse:000000000000000e .L0 
C:\Users\LOCALH~1\AppData\Local\Temp\ccRcSERF.s:398    .text.SDIO_GetResponse:0000000000000010 .L0 
C:\Users\LOCALH~1\AppData\Local\Temp\ccRcSERF.s:401    .text.SDIO_GetResponse:0000000000000012 .L0 
C:\Users\LOCALH~1\AppData\Local\Temp\ccRcSERF.s:402    .text.SDIO_GetResponse:0000000000000014 .L0 
C:\Users\LOCALH~1\AppData\Local\Temp\ccRcSERF.s:405    .text.SDIO_GetResponse:0000000000000016 .L0 
C:\Users\LOCALH~1\AppData\Local\Temp\ccRcSERF.s:412    .text.SDIO_DataConfig:0000000000000000 SDIO_DataConfig
C:\Users\LOCALH~1\AppData\Local\Temp\ccRcSERF.s:415    .text.SDIO_DataConfig:0000000000000000 .L0 
C:\Users\LOCALH~1\AppData\Local\Temp\ccRcSERF.s:417    .text.SDIO_DataConfig:0000000000000000 .L0 
C:\Users\LOCALH~1\AppData\Local\Temp\ccRcSERF.s:418    .text.SDIO_DataConfig:0000000000000000 .L0 
C:\Users\LOCALH~1\AppData\Local\Temp\ccRcSERF.s:419    .text.SDIO_DataConfig:0000000000000000 .L0 
C:\Users\LOCALH~1\AppData\Local\Temp\ccRcSERF.s:420    .text.SDIO_DataConfig:0000000000000000 $x
C:\Users\LOCALH~1\AppData\Local\Temp\ccRcSERF.s:420    .text.SDIO_DataConfig:0000000000000000 .L0 
C:\Users\LOCALH~1\AppData\Local\Temp\ccRcSERF.s:422    .text.SDIO_DataConfig:0000000000000002 .L0 
C:\Users\LOCALH~1\AppData\Local\Temp\ccRcSERF.s:425    .text.SDIO_DataConfig:0000000000000008 .L0 
C:\Users\LOCALH~1\AppData\Local\Temp\ccRcSERF.s:426    .text.SDIO_DataConfig:0000000000000008 .L0 
C:\Users\LOCALH~1\AppData\Local\Temp\ccRcSERF.s:428    .text.SDIO_DataConfig:000000000000000a .L0 
C:\Users\LOCALH~1\AppData\Local\Temp\ccRcSERF.s:430    .text.SDIO_DataConfig:000000000000000c .L0 
C:\Users\LOCALH~1\AppData\Local\Temp\ccRcSERF.s:431    .text.SDIO_DataConfig:000000000000000c .L0 
C:\Users\LOCALH~1\AppData\Local\Temp\ccRcSERF.s:434    .text.SDIO_DataConfig:000000000000000e .L0 
C:\Users\LOCALH~1\AppData\Local\Temp\ccRcSERF.s:435    .text.SDIO_DataConfig:000000000000000e .L0 
C:\Users\LOCALH~1\AppData\Local\Temp\ccRcSERF.s:436    .text.SDIO_DataConfig:000000000000000e .L0 
C:\Users\LOCALH~1\AppData\Local\Temp\ccRcSERF.s:439    .text.SDIO_DataConfig:0000000000000012 .L0 
C:\Users\LOCALH~1\AppData\Local\Temp\ccRcSERF.s:442    .text.SDIO_DataConfig:0000000000000016 .L0 
C:\Users\LOCALH~1\AppData\Local\Temp\ccRcSERF.s:448    .text.SDIO_DataConfig:000000000000001e .L0 
C:\Users\LOCALH~1\AppData\Local\Temp\ccRcSERF.s:452    .text.SDIO_DataConfig:0000000000000022 .L0 
C:\Users\LOCALH~1\AppData\Local\Temp\ccRcSERF.s:453    .text.SDIO_DataConfig:0000000000000022 .L0 
C:\Users\LOCALH~1\AppData\Local\Temp\ccRcSERF.s:455    .text.SDIO_DataConfig:0000000000000024 .L0 
C:\Users\LOCALH~1\AppData\Local\Temp\ccRcSERF.s:456    .text.SDIO_DataConfig:0000000000000026 .L0 
C:\Users\LOCALH~1\AppData\Local\Temp\ccRcSERF.s:463    .text.SDIO_DataStructInit:0000000000000000 SDIO_DataStructInit
C:\Users\LOCALH~1\AppData\Local\Temp\ccRcSERF.s:466    .text.SDIO_DataStructInit:0000000000000000 .L0 
C:\Users\LOCALH~1\AppData\Local\Temp\ccRcSERF.s:468    .text.SDIO_DataStructInit:0000000000000000 .L0 
C:\Users\LOCALH~1\AppData\Local\Temp\ccRcSERF.s:469    .text.SDIO_DataStructInit:0000000000000000 .L0 
C:\Users\LOCALH~1\AppData\Local\Temp\ccRcSERF.s:470    .text.SDIO_DataStructInit:0000000000000000 $x
C:\Users\LOCALH~1\AppData\Local\Temp\ccRcSERF.s:470    .text.SDIO_DataStructInit:0000000000000000 .L0 
C:\Users\LOCALH~1\AppData\Local\Temp\ccRcSERF.s:473    .text.SDIO_DataStructInit:0000000000000004 .L0 
C:\Users\LOCALH~1\AppData\Local\Temp\ccRcSERF.s:474    .text.SDIO_DataStructInit:0000000000000004 .L0 
C:\Users\LOCALH~1\AppData\Local\Temp\ccRcSERF.s:476    .text.SDIO_DataStructInit:0000000000000008 .L0 
C:\Users\LOCALH~1\AppData\Local\Temp\ccRcSERF.s:477    .text.SDIO_DataStructInit:0000000000000008 .L0 
C:\Users\LOCALH~1\AppData\Local\Temp\ccRcSERF.s:479    .text.SDIO_DataStructInit:000000000000000c .L0 
C:\Users\LOCALH~1\AppData\Local\Temp\ccRcSERF.s:480    .text.SDIO_DataStructInit:000000000000000c .L0 
C:\Users\LOCALH~1\AppData\Local\Temp\ccRcSERF.s:482    .text.SDIO_DataStructInit:0000000000000010 .L0 
C:\Users\LOCALH~1\AppData\Local\Temp\ccRcSERF.s:483    .text.SDIO_DataStructInit:0000000000000010 .L0 
C:\Users\LOCALH~1\AppData\Local\Temp\ccRcSERF.s:485    .text.SDIO_DataStructInit:0000000000000014 .L0 
C:\Users\LOCALH~1\AppData\Local\Temp\ccRcSERF.s:486    .text.SDIO_DataStructInit:0000000000000014 .L0 
C:\Users\LOCALH~1\AppData\Local\Temp\ccRcSERF.s:488    .text.SDIO_DataStructInit:0000000000000018 .L0 
C:\Users\LOCALH~1\AppData\Local\Temp\ccRcSERF.s:489    .text.SDIO_DataStructInit:000000000000001a .L0 
C:\Users\LOCALH~1\AppData\Local\Temp\ccRcSERF.s:496    .text.SDIO_GetDataCounter:0000000000000000 SDIO_GetDataCounter
C:\Users\LOCALH~1\AppData\Local\Temp\ccRcSERF.s:499    .text.SDIO_GetDataCounter:0000000000000000 .L0 
C:\Users\LOCALH~1\AppData\Local\Temp\ccRcSERF.s:500    .text.SDIO_GetDataCounter:0000000000000000 .L0 
C:\Users\LOCALH~1\AppData\Local\Temp\ccRcSERF.s:501    .text.SDIO_GetDataCounter:0000000000000000 .L0 
C:\Users\LOCALH~1\AppData\Local\Temp\ccRcSERF.s:502    .text.SDIO_GetDataCounter:0000000000000000 $x
C:\Users\LOCALH~1\AppData\Local\Temp\ccRcSERF.s:502    .text.SDIO_GetDataCounter:0000000000000000 .L0 
C:\Users\LOCALH~1\AppData\Local\Temp\ccRcSERF.s:505    .text.SDIO_GetDataCounter:0000000000000006 .L0 
C:\Users\LOCALH~1\AppData\Local\Temp\ccRcSERF.s:506    .text.SDIO_GetDataCounter:0000000000000008 .L0 
C:\Users\LOCALH~1\AppData\Local\Temp\ccRcSERF.s:513    .text.SDIO_ReadData:0000000000000000 SDIO_ReadData
C:\Users\LOCALH~1\AppData\Local\Temp\ccRcSERF.s:516    .text.SDIO_ReadData:0000000000000000 .L0 
C:\Users\LOCALH~1\AppData\Local\Temp\ccRcSERF.s:517    .text.SDIO_ReadData:0000000000000000 .L0 
C:\Users\LOCALH~1\AppData\Local\Temp\ccRcSERF.s:518    .text.SDIO_ReadData:0000000000000000 .L0 
C:\Users\LOCALH~1\AppData\Local\Temp\ccRcSERF.s:519    .text.SDIO_ReadData:0000000000000000 $x
C:\Users\LOCALH~1\AppData\Local\Temp\ccRcSERF.s:519    .text.SDIO_ReadData:0000000000000000 .L0 
C:\Users\LOCALH~1\AppData\Local\Temp\ccRcSERF.s:522    .text.SDIO_ReadData:0000000000000008 .L0 
C:\Users\LOCALH~1\AppData\Local\Temp\ccRcSERF.s:523    .text.SDIO_ReadData:000000000000000a .L0 
C:\Users\LOCALH~1\AppData\Local\Temp\ccRcSERF.s:530    .text.SDIO_WriteData:0000000000000000 SDIO_WriteData
C:\Users\LOCALH~1\AppData\Local\Temp\ccRcSERF.s:533    .text.SDIO_WriteData:0000000000000000 .L0 
C:\Users\LOCALH~1\AppData\Local\Temp\ccRcSERF.s:535    .text.SDIO_WriteData:0000000000000000 .L0 
C:\Users\LOCALH~1\AppData\Local\Temp\ccRcSERF.s:536    .text.SDIO_WriteData:0000000000000000 .L0 
C:\Users\LOCALH~1\AppData\Local\Temp\ccRcSERF.s:537    .text.SDIO_WriteData:0000000000000000 $x
C:\Users\LOCALH~1\AppData\Local\Temp\ccRcSERF.s:537    .text.SDIO_WriteData:0000000000000000 .L0 
C:\Users\LOCALH~1\AppData\Local\Temp\ccRcSERF.s:540    .text.SDIO_WriteData:0000000000000008 .L0 
C:\Users\LOCALH~1\AppData\Local\Temp\ccRcSERF.s:541    .text.SDIO_WriteData:000000000000000a .L0 
C:\Users\LOCALH~1\AppData\Local\Temp\ccRcSERF.s:548    .text.SDIO_GetFIFOCount:0000000000000000 SDIO_GetFIFOCount
C:\Users\LOCALH~1\AppData\Local\Temp\ccRcSERF.s:551    .text.SDIO_GetFIFOCount:0000000000000000 .L0 
C:\Users\LOCALH~1\AppData\Local\Temp\ccRcSERF.s:552    .text.SDIO_GetFIFOCount:0000000000000000 .L0 
C:\Users\LOCALH~1\AppData\Local\Temp\ccRcSERF.s:553    .text.SDIO_GetFIFOCount:0000000000000000 .L0 
C:\Users\LOCALH~1\AppData\Local\Temp\ccRcSERF.s:554    .text.SDIO_GetFIFOCount:0000000000000000 $x
C:\Users\LOCALH~1\AppData\Local\Temp\ccRcSERF.s:554    .text.SDIO_GetFIFOCount:0000000000000000 .L0 
C:\Users\LOCALH~1\AppData\Local\Temp\ccRcSERF.s:557    .text.SDIO_GetFIFOCount:0000000000000006 .L0 
C:\Users\LOCALH~1\AppData\Local\Temp\ccRcSERF.s:558    .text.SDIO_GetFIFOCount:0000000000000008 .L0 
C:\Users\LOCALH~1\AppData\Local\Temp\ccRcSERF.s:565    .text.SDIO_StartSDIOReadWait:0000000000000000 SDIO_StartSDIOReadWait
C:\Users\LOCALH~1\AppData\Local\Temp\ccRcSERF.s:568    .text.SDIO_StartSDIOReadWait:0000000000000000 .L0 
C:\Users\LOCALH~1\AppData\Local\Temp\ccRcSERF.s:570    .text.SDIO_StartSDIOReadWait:0000000000000000 .L0 
C:\Users\LOCALH~1\AppData\Local\Temp\ccRcSERF.s:571    .text.SDIO_StartSDIOReadWait:0000000000000000 .L0 
C:\Users\LOCALH~1\AppData\Local\Temp\ccRcSERF.s:572    .text.SDIO_StartSDIOReadWait:0000000000000000 $x
C:\Users\LOCALH~1\AppData\Local\Temp\ccRcSERF.s:572    .text.SDIO_StartSDIOReadWait:0000000000000000 .L0 
C:\Users\LOCALH~1\AppData\Local\Temp\ccRcSERF.s:575    .text.SDIO_StartSDIOReadWait:0000000000000006 .L0 
C:\Users\LOCALH~1\AppData\Local\Temp\ccRcSERF.s:577    .text.SDIO_StartSDIOReadWait:0000000000000008 .L0 
C:\Users\LOCALH~1\AppData\Local\Temp\ccRcSERF.s:578    .text.SDIO_StartSDIOReadWait:0000000000000008 .L0 
C:\Users\LOCALH~1\AppData\Local\Temp\ccRcSERF.s:581    .text.SDIO_StartSDIOReadWait:000000000000000c .L0 
C:\Users\LOCALH~1\AppData\Local\Temp\ccRcSERF.s:583    .text.SDIO_StartSDIOReadWait:000000000000000e .L0 
C:\Users\LOCALH~1\AppData\Local\Temp\ccRcSERF.s:586    .text.SDIO_StartSDIOReadWait:0000000000000010 .L0 
C:\Users\LOCALH~1\AppData\Local\Temp\ccRcSERF.s:587    .text.SDIO_StartSDIOReadWait:0000000000000010 .L0 
C:\Users\LOCALH~1\AppData\Local\Temp\ccRcSERF.s:589    .text.SDIO_StartSDIOReadWait:0000000000000016 .L0 
C:\Users\LOCALH~1\AppData\Local\Temp\ccRcSERF.s:596    .text.SDIO_StopSDIOReadWait:0000000000000000 SDIO_StopSDIOReadWait
C:\Users\LOCALH~1\AppData\Local\Temp\ccRcSERF.s:599    .text.SDIO_StopSDIOReadWait:0000000000000000 .L0 
C:\Users\LOCALH~1\AppData\Local\Temp\ccRcSERF.s:601    .text.SDIO_StopSDIOReadWait:0000000000000000 .L0 
C:\Users\LOCALH~1\AppData\Local\Temp\ccRcSERF.s:602    .text.SDIO_StopSDIOReadWait:0000000000000000 .L0 
C:\Users\LOCALH~1\AppData\Local\Temp\ccRcSERF.s:603    .text.SDIO_StopSDIOReadWait:0000000000000000 $x
C:\Users\LOCALH~1\AppData\Local\Temp\ccRcSERF.s:603    .text.SDIO_StopSDIOReadWait:0000000000000000 .L0 
C:\Users\LOCALH~1\AppData\Local\Temp\ccRcSERF.s:606    .text.SDIO_StopSDIOReadWait:0000000000000006 .L0 
C:\Users\LOCALH~1\AppData\Local\Temp\ccRcSERF.s:608    .text.SDIO_StopSDIOReadWait:0000000000000008 .L0 
C:\Users\LOCALH~1\AppData\Local\Temp\ccRcSERF.s:609    .text.SDIO_StopSDIOReadWait:0000000000000008 .L0 
C:\Users\LOCALH~1\AppData\Local\Temp\ccRcSERF.s:612    .text.SDIO_StopSDIOReadWait:000000000000000c .L0 
C:\Users\LOCALH~1\AppData\Local\Temp\ccRcSERF.s:614    .text.SDIO_StopSDIOReadWait:000000000000000e .L0 
C:\Users\LOCALH~1\AppData\Local\Temp\ccRcSERF.s:617    .text.SDIO_StopSDIOReadWait:0000000000000010 .L0 
C:\Users\LOCALH~1\AppData\Local\Temp\ccRcSERF.s:618    .text.SDIO_StopSDIOReadWait:0000000000000010 .L0 
C:\Users\LOCALH~1\AppData\Local\Temp\ccRcSERF.s:620    .text.SDIO_StopSDIOReadWait:0000000000000016 .L0 
C:\Users\LOCALH~1\AppData\Local\Temp\ccRcSERF.s:627    .text.SDIO_SetSDIOReadWaitMode:0000000000000000 SDIO_SetSDIOReadWaitMode
C:\Users\LOCALH~1\AppData\Local\Temp\ccRcSERF.s:630    .text.SDIO_SetSDIOReadWaitMode:0000000000000000 .L0 
C:\Users\LOCALH~1\AppData\Local\Temp\ccRcSERF.s:632    .text.SDIO_SetSDIOReadWaitMode:0000000000000000 .L0 
C:\Users\LOCALH~1\AppData\Local\Temp\ccRcSERF.s:633    .text.SDIO_SetSDIOReadWaitMode:0000000000000000 .L0 
C:\Users\LOCALH~1\AppData\Local\Temp\ccRcSERF.s:634    .text.SDIO_SetSDIOReadWaitMode:0000000000000000 $x
C:\Users\LOCALH~1\AppData\Local\Temp\ccRcSERF.s:634    .text.SDIO_SetSDIOReadWaitMode:0000000000000000 .L0 
C:\Users\LOCALH~1\AppData\Local\Temp\ccRcSERF.s:637    .text.SDIO_SetSDIOReadWaitMode:0000000000000006 .L0 
C:\Users\LOCALH~1\AppData\Local\Temp\ccRcSERF.s:639    .text.SDIO_SetSDIOReadWaitMode:0000000000000008 .L0 
C:\Users\LOCALH~1\AppData\Local\Temp\ccRcSERF.s:640    .text.SDIO_SetSDIOReadWaitMode:0000000000000008 .L0 
C:\Users\LOCALH~1\AppData\Local\Temp\ccRcSERF.s:643    .text.SDIO_SetSDIOReadWaitMode:000000000000000c .L0 
C:\Users\LOCALH~1\AppData\Local\Temp\ccRcSERF.s:645    .text.SDIO_SetSDIOReadWaitMode:000000000000000e .L0 
C:\Users\LOCALH~1\AppData\Local\Temp\ccRcSERF.s:648    .text.SDIO_SetSDIOReadWaitMode:0000000000000010 .L0 
C:\Users\LOCALH~1\AppData\Local\Temp\ccRcSERF.s:649    .text.SDIO_SetSDIOReadWaitMode:0000000000000010 .L0 
C:\Users\LOCALH~1\AppData\Local\Temp\ccRcSERF.s:651    .text.SDIO_SetSDIOReadWaitMode:0000000000000016 .L0 
C:\Users\LOCALH~1\AppData\Local\Temp\ccRcSERF.s:658    .text.SDIO_SetSDIOOperation:0000000000000000 SDIO_SetSDIOOperation
C:\Users\LOCALH~1\AppData\Local\Temp\ccRcSERF.s:661    .text.SDIO_SetSDIOOperation:0000000000000000 .L0 
C:\Users\LOCALH~1\AppData\Local\Temp\ccRcSERF.s:663    .text.SDIO_SetSDIOOperation:0000000000000000 .L0 
C:\Users\LOCALH~1\AppData\Local\Temp\ccRcSERF.s:664    .text.SDIO_SetSDIOOperation:0000000000000000 .L0 
C:\Users\LOCALH~1\AppData\Local\Temp\ccRcSERF.s:665    .text.SDIO_SetSDIOOperation:0000000000000000 $x
C:\Users\LOCALH~1\AppData\Local\Temp\ccRcSERF.s:665    .text.SDIO_SetSDIOOperation:0000000000000000 .L0 
C:\Users\LOCALH~1\AppData\Local\Temp\ccRcSERF.s:668    .text.SDIO_SetSDIOOperation:0000000000000006 .L0 
C:\Users\LOCALH~1\AppData\Local\Temp\ccRcSERF.s:670    .text.SDIO_SetSDIOOperation:0000000000000008 .L0 
C:\Users\LOCALH~1\AppData\Local\Temp\ccRcSERF.s:671    .text.SDIO_SetSDIOOperation:0000000000000008 .L0 
C:\Users\LOCALH~1\AppData\Local\Temp\ccRcSERF.s:676    .text.SDIO_SetSDIOOperation:0000000000000010 .L0 
C:\Users\LOCALH~1\AppData\Local\Temp\ccRcSERF.s:678    .text.SDIO_SetSDIOOperation:0000000000000012 .L0 
C:\Users\LOCALH~1\AppData\Local\Temp\ccRcSERF.s:681    .text.SDIO_SetSDIOOperation:0000000000000014 .L0 
C:\Users\LOCALH~1\AppData\Local\Temp\ccRcSERF.s:682    .text.SDIO_SetSDIOOperation:0000000000000014 .L0 
C:\Users\LOCALH~1\AppData\Local\Temp\ccRcSERF.s:686    .text.SDIO_SetSDIOOperation:000000000000001e .L0 
C:\Users\LOCALH~1\AppData\Local\Temp\ccRcSERF.s:693    .text.SDIO_SendSDIOSuspendCmd:0000000000000000 SDIO_SendSDIOSuspendCmd
C:\Users\LOCALH~1\AppData\Local\Temp\ccRcSERF.s:696    .text.SDIO_SendSDIOSuspendCmd:0000000000000000 .L0 
C:\Users\LOCALH~1\AppData\Local\Temp\ccRcSERF.s:698    .text.SDIO_SendSDIOSuspendCmd:0000000000000000 .L0 
C:\Users\LOCALH~1\AppData\Local\Temp\ccRcSERF.s:699    .text.SDIO_SendSDIOSuspendCmd:0000000000000000 .L0 
C:\Users\LOCALH~1\AppData\Local\Temp\ccRcSERF.s:700    .text.SDIO_SendSDIOSuspendCmd:0000000000000000 $x
C:\Users\LOCALH~1\AppData\Local\Temp\ccRcSERF.s:700    .text.SDIO_SendSDIOSuspendCmd:0000000000000000 .L0 
C:\Users\LOCALH~1\AppData\Local\Temp\ccRcSERF.s:703    .text.SDIO_SendSDIOSuspendCmd:0000000000000006 .L0 
C:\Users\LOCALH~1\AppData\Local\Temp\ccRcSERF.s:705    .text.SDIO_SendSDIOSuspendCmd:0000000000000008 .L0 
C:\Users\LOCALH~1\AppData\Local\Temp\ccRcSERF.s:706    .text.SDIO_SendSDIOSuspendCmd:0000000000000008 .L0 
C:\Users\LOCALH~1\AppData\Local\Temp\ccRcSERF.s:711    .text.SDIO_SendSDIOSuspendCmd:0000000000000010 .L0 
C:\Users\LOCALH~1\AppData\Local\Temp\ccRcSERF.s:713    .text.SDIO_SendSDIOSuspendCmd:0000000000000012 .L0 
C:\Users\LOCALH~1\AppData\Local\Temp\ccRcSERF.s:716    .text.SDIO_SendSDIOSuspendCmd:0000000000000014 .L0 
C:\Users\LOCALH~1\AppData\Local\Temp\ccRcSERF.s:717    .text.SDIO_SendSDIOSuspendCmd:0000000000000014 .L0 
C:\Users\LOCALH~1\AppData\Local\Temp\ccRcSERF.s:721    .text.SDIO_SendSDIOSuspendCmd:000000000000001e .L0 
C:\Users\LOCALH~1\AppData\Local\Temp\ccRcSERF.s:728    .text.SDIO_CommandCompletionCmd:0000000000000000 SDIO_CommandCompletionCmd
C:\Users\LOCALH~1\AppData\Local\Temp\ccRcSERF.s:731    .text.SDIO_CommandCompletionCmd:0000000000000000 .L0 
C:\Users\LOCALH~1\AppData\Local\Temp\ccRcSERF.s:733    .text.SDIO_CommandCompletionCmd:0000000000000000 .L0 
C:\Users\LOCALH~1\AppData\Local\Temp\ccRcSERF.s:734    .text.SDIO_CommandCompletionCmd:0000000000000000 .L0 
C:\Users\LOCALH~1\AppData\Local\Temp\ccRcSERF.s:735    .text.SDIO_CommandCompletionCmd:0000000000000000 $x
C:\Users\LOCALH~1\AppData\Local\Temp\ccRcSERF.s:735    .text.SDIO_CommandCompletionCmd:0000000000000000 .L0 
C:\Users\LOCALH~1\AppData\Local\Temp\ccRcSERF.s:737    .text.SDIO_CommandCompletionCmd:0000000000000002 .L0 
C:\Users\LOCALH~1\AppData\Local\Temp\ccRcSERF.s:738    .text.SDIO_CommandCompletionCmd:0000000000000002 .L0 
C:\Users\LOCALH~1\AppData\Local\Temp\ccRcSERF.s:741    .text.SDIO_CommandCompletionCmd:0000000000000008 .L0 
C:\Users\LOCALH~1\AppData\Local\Temp\ccRcSERF.s:747    .text.SDIO_CommandCompletionCmd:0000000000000010 .L0 
C:\Users\LOCALH~1\AppData\Local\Temp\ccRcSERF.s:748    .text.SDIO_CommandCompletionCmd:0000000000000010 .L0 
C:\Users\LOCALH~1\AppData\Local\Temp\ccRcSERF.s:751    .text.SDIO_CommandCompletionCmd:0000000000000016 .L0 
C:\Users\LOCALH~1\AppData\Local\Temp\ccRcSERF.s:756    .text.SDIO_CommandCompletionCmd:000000000000001e .L0 
C:\Users\LOCALH~1\AppData\Local\Temp\ccRcSERF.s:757    .text.SDIO_CommandCompletionCmd:0000000000000020 .L0 
C:\Users\LOCALH~1\AppData\Local\Temp\ccRcSERF.s:764    .text.SDIO_CEATAITCmd:0000000000000000 SDIO_CEATAITCmd
C:\Users\LOCALH~1\AppData\Local\Temp\ccRcSERF.s:767    .text.SDIO_CEATAITCmd:0000000000000000 .L0 
C:\Users\LOCALH~1\AppData\Local\Temp\ccRcSERF.s:769    .text.SDIO_CEATAITCmd:0000000000000000 .L0 
C:\Users\LOCALH~1\AppData\Local\Temp\ccRcSERF.s:770    .text.SDIO_CEATAITCmd:0000000000000000 .L0 
C:\Users\LOCALH~1\AppData\Local\Temp\ccRcSERF.s:771    .text.SDIO_CEATAITCmd:0000000000000000 $x
C:\Users\LOCALH~1\AppData\Local\Temp\ccRcSERF.s:771    .text.SDIO_CEATAITCmd:0000000000000000 .L0 
C:\Users\LOCALH~1\AppData\Local\Temp\ccRcSERF.s:773    .text.SDIO_CEATAITCmd:0000000000000002 .L0 
C:\Users\LOCALH~1\AppData\Local\Temp\ccRcSERF.s:774    .text.SDIO_CEATAITCmd:0000000000000002 .L0 
C:\Users\LOCALH~1\AppData\Local\Temp\ccRcSERF.s:777    .text.SDIO_CEATAITCmd:0000000000000008 .L0 
C:\Users\LOCALH~1\AppData\Local\Temp\ccRcSERF.s:783    .text.SDIO_CEATAITCmd:0000000000000010 .L0 
C:\Users\LOCALH~1\AppData\Local\Temp\ccRcSERF.s:784    .text.SDIO_CEATAITCmd:0000000000000010 .L0 
C:\Users\LOCALH~1\AppData\Local\Temp\ccRcSERF.s:787    .text.SDIO_CEATAITCmd:0000000000000016 .L0 
C:\Users\LOCALH~1\AppData\Local\Temp\ccRcSERF.s:792    .text.SDIO_CEATAITCmd:000000000000001e .L0 
C:\Users\LOCALH~1\AppData\Local\Temp\ccRcSERF.s:793    .text.SDIO_CEATAITCmd:0000000000000020 .L0 
C:\Users\LOCALH~1\AppData\Local\Temp\ccRcSERF.s:800    .text.SDIO_SendCEATACmd:0000000000000000 SDIO_SendCEATACmd
C:\Users\LOCALH~1\AppData\Local\Temp\ccRcSERF.s:803    .text.SDIO_SendCEATACmd:0000000000000000 .L0 
C:\Users\LOCALH~1\AppData\Local\Temp\ccRcSERF.s:805    .text.SDIO_SendCEATACmd:0000000000000000 .L0 
C:\Users\LOCALH~1\AppData\Local\Temp\ccRcSERF.s:806    .text.SDIO_SendCEATACmd:0000000000000000 .L0 
C:\Users\LOCALH~1\AppData\Local\Temp\ccRcSERF.s:807    .text.SDIO_SendCEATACmd:0000000000000000 $x
C:\Users\LOCALH~1\AppData\Local\Temp\ccRcSERF.s:807    .text.SDIO_SendCEATACmd:0000000000000000 .L0 
C:\Users\LOCALH~1\AppData\Local\Temp\ccRcSERF.s:809    .text.SDIO_SendCEATACmd:0000000000000002 .L0 
C:\Users\LOCALH~1\AppData\Local\Temp\ccRcSERF.s:810    .text.SDIO_SendCEATACmd:0000000000000002 .L0 
C:\Users\LOCALH~1\AppData\Local\Temp\ccRcSERF.s:813    .text.SDIO_SendCEATACmd:0000000000000008 .L0 
C:\Users\LOCALH~1\AppData\Local\Temp\ccRcSERF.s:819    .text.SDIO_SendCEATACmd:0000000000000010 .L0 
C:\Users\LOCALH~1\AppData\Local\Temp\ccRcSERF.s:820    .text.SDIO_SendCEATACmd:0000000000000010 .L0 
C:\Users\LOCALH~1\AppData\Local\Temp\ccRcSERF.s:823    .text.SDIO_SendCEATACmd:0000000000000016 .L0 
C:\Users\LOCALH~1\AppData\Local\Temp\ccRcSERF.s:828    .text.SDIO_SendCEATACmd:000000000000001e .L0 
C:\Users\LOCALH~1\AppData\Local\Temp\ccRcSERF.s:829    .text.SDIO_SendCEATACmd:0000000000000020 .L0 
C:\Users\LOCALH~1\AppData\Local\Temp\ccRcSERF.s:836    .text.SDIO_GetFlagStatus:0000000000000000 SDIO_GetFlagStatus
C:\Users\LOCALH~1\AppData\Local\Temp\ccRcSERF.s:839    .text.SDIO_GetFlagStatus:0000000000000000 .L0 
C:\Users\LOCALH~1\AppData\Local\Temp\ccRcSERF.s:841    .text.SDIO_GetFlagStatus:0000000000000000 .L0 
C:\Users\LOCALH~1\AppData\Local\Temp\ccRcSERF.s:842    .text.SDIO_GetFlagStatus:0000000000000000 .L0 
C:\Users\LOCALH~1\AppData\Local\Temp\ccRcSERF.s:843    .text.SDIO_GetFlagStatus:0000000000000000 .L0 
C:\Users\LOCALH~1\AppData\Local\Temp\ccRcSERF.s:844    .text.SDIO_GetFlagStatus:0000000000000000 $x
C:\Users\LOCALH~1\AppData\Local\Temp\ccRcSERF.s:844    .text.SDIO_GetFlagStatus:0000000000000000 .L0 
C:\Users\LOCALH~1\AppData\Local\Temp\ccRcSERF.s:848    .text.SDIO_GetFlagStatus:0000000000000006 .L0 
C:\Users\LOCALH~1\AppData\Local\Temp\ccRcSERF.s:849    .text.SDIO_GetFlagStatus:0000000000000006 .L0 
C:\Users\LOCALH~1\AppData\Local\Temp\ccRcSERF.s:852    .text.SDIO_GetFlagStatus:0000000000000008 .L0 
C:\Users\LOCALH~1\AppData\Local\Temp\ccRcSERF.s:854    .text.SDIO_GetFlagStatus:000000000000000e .L0 
C:\Users\LOCALH~1\AppData\Local\Temp\ccRcSERF.s:861    .text.SDIO_ClearFlag:0000000000000000 SDIO_ClearFlag
C:\Users\LOCALH~1\AppData\Local\Temp\ccRcSERF.s:864    .text.SDIO_ClearFlag:0000000000000000 .L0 
C:\Users\LOCALH~1\AppData\Local\Temp\ccRcSERF.s:866    .text.SDIO_ClearFlag:0000000000000000 .L0 
C:\Users\LOCALH~1\AppData\Local\Temp\ccRcSERF.s:867    .text.SDIO_ClearFlag:0000000000000000 .L0 
C:\Users\LOCALH~1\AppData\Local\Temp\ccRcSERF.s:868    .text.SDIO_ClearFlag:0000000000000000 $x
C:\Users\LOCALH~1\AppData\Local\Temp\ccRcSERF.s:868    .text.SDIO_ClearFlag:0000000000000000 .L0 
C:\Users\LOCALH~1\AppData\Local\Temp\ccRcSERF.s:871    .text.SDIO_ClearFlag:0000000000000006 .L0 
C:\Users\LOCALH~1\AppData\Local\Temp\ccRcSERF.s:872    .text.SDIO_ClearFlag:0000000000000008 .L0 
C:\Users\LOCALH~1\AppData\Local\Temp\ccRcSERF.s:879    .text.SDIO_GetITStatus:0000000000000000 SDIO_GetITStatus
C:\Users\LOCALH~1\AppData\Local\Temp\ccRcSERF.s:881    .text.SDIO_GetITStatus:0000000000000000 .L0 
C:\Users\LOCALH~1\AppData\Local\Temp\ccRcSERF.s:883    .text.SDIO_GetITStatus:0000000000000000 $x
C:\Users\LOCALH~1\AppData\Local\Temp\ccRcSERF.s:883    .text.SDIO_GetITStatus:0000000000000000 .L0 
C:\Users\LOCALH~1\AppData\Local\Temp\ccRcSERF.s:884    .text.SDIO_GetITStatus:0000000000000008 .L0 
C:\Users\LOCALH~1\AppData\Local\Temp\ccRcSERF.s:891    .text.SDIO_ClearITPendingBit:0000000000000000 SDIO_ClearITPendingBit
C:\Users\LOCALH~1\AppData\Local\Temp\ccRcSERF.s:893    .text.SDIO_ClearITPendingBit:0000000000000000 .L0 
C:\Users\LOCALH~1\AppData\Local\Temp\ccRcSERF.s:895    .text.SDIO_ClearITPendingBit:0000000000000000 $x
C:\Users\LOCALH~1\AppData\Local\Temp\ccRcSERF.s:895    .text.SDIO_ClearITPendingBit:0000000000000000 .L0 
C:\Users\LOCALH~1\AppData\Local\Temp\ccRcSERF.s:898    .text.SDIO_ClearITPendingBit:0000000000000008 .L0 
C:\Users\LOCALH~1\AppData\Local\Temp\ccRcSERF.s:3073   .debug_line_str:0000000000000077 .L0 
C:\Users\LOCALH~1\AppData\Local\Temp\ccRcSERF.s:3073   .debug_line_str:00000000000000cc .L0 
C:\Users\LOCALH~1\AppData\Local\Temp\ccRcSERF.s:3073   .debug_line_str:00000000000000de .L0 
C:\Users\LOCALH~1\AppData\Local\Temp\ccRcSERF.s:3073   .debug_line_str:000000000000013a .L0 
C:\Users\LOCALH~1\AppData\Local\Temp\ccRcSERF.s:3073   .debug_line_str:0000000000000192 .L0 
C:\Users\LOCALH~1\AppData\Local\Temp\ccRcSERF.s:3073   .debug_line_str:00000000000001e8 .L0 
C:\Users\LOCALH~1\AppData\Local\Temp\ccRcSERF.s:3073   .debug_line_str:0000000000000248 .L0 
C:\Users\LOCALH~1\AppData\Local\Temp\ccRcSERF.s:3073   .debug_line_str:0000000000000258 .L0 
C:\Users\LOCALH~1\AppData\Local\Temp\ccRcSERF.s:3073   .debug_line_str:0000000000000268 .L0 
C:\Users\LOCALH~1\AppData\Local\Temp\ccRcSERF.s:3073   .debug_line_str:0000000000000279 .L0 
C:\Users\LOCALH~1\AppData\Local\Temp\ccRcSERF.s:3073   .debug_line_str:0000000000000283 .L0 
C:\Users\LOCALH~1\AppData\Local\Temp\ccRcSERF.s:3073   .debug_line_str:0000000000000290 .L0 
C:\Users\LOCALH~1\AppData\Local\Temp\ccRcSERF.s:3073   .debug_line_str:000000000000029b .L0 
C:\Users\LOCALH~1\AppData\Local\Temp\ccRcSERF.s:55     .text.SDIO_DeInit:0000000000000030 .L0 
C:\Users\LOCALH~1\AppData\Local\Temp\ccRcSERF.s:100    .text.SDIO_Init:000000000000002a .L0 
C:\Users\LOCALH~1\AppData\Local\Temp\ccRcSERF.s:132    .text.SDIO_StructInit:000000000000001a .L0 
C:\Users\LOCALH~1\AppData\Local\Temp\ccRcSERF.s:163    .text.SDIO_ClockCmd:0000000000000016 .L0 
C:\Users\LOCALH~1\AppData\Local\Temp\ccRcSERF.s:190    .text.SDIO_SetPowerState:0000000000000012 .L0 
C:\Users\LOCALH~1\AppData\Local\Temp\ccRcSERF.s:208    .text.SDIO_GetPowerState:000000000000000a .L0 
C:\Users\LOCALH~1\AppData\Local\Temp\ccRcSERF.s:245    .text.SDIO_ITConfig:000000000000001e .L0 
C:\Users\LOCALH~1\AppData\Local\Temp\ccRcSERF.s:276    .text.SDIO_DMACmd:0000000000000014 .L0 
C:\Users\LOCALH~1\AppData\Local\Temp\ccRcSERF.s:322    .text.SDIO_SendCommand:0000000000000022 .L0 
C:\Users\LOCALH~1\AppData\Local\Temp\ccRcSERF.s:351    .text.SDIO_CmdStructInit:0000000000000016 .L0 
C:\Users\LOCALH~1\AppData\Local\Temp\ccRcSERF.s:369    .text.SDIO_GetCommandResponse:000000000000000c .L0 
C:\Users\LOCALH~1\AppData\Local\Temp\ccRcSERF.s:408    .text.SDIO_GetResponse:0000000000000016 .L0 
C:\Users\LOCALH~1\AppData\Local\Temp\ccRcSERF.s:459    .text.SDIO_DataConfig:0000000000000026 .L0 
C:\Users\LOCALH~1\AppData\Local\Temp\ccRcSERF.s:492    .text.SDIO_DataStructInit:000000000000001a .L0 
C:\Users\LOCALH~1\AppData\Local\Temp\ccRcSERF.s:509    .text.SDIO_GetDataCounter:0000000000000008 .L0 
C:\Users\LOCALH~1\AppData\Local\Temp\ccRcSERF.s:526    .text.SDIO_ReadData:000000000000000a .L0 
C:\Users\LOCALH~1\AppData\Local\Temp\ccRcSERF.s:544    .text.SDIO_WriteData:000000000000000a .L0 
C:\Users\LOCALH~1\AppData\Local\Temp\ccRcSERF.s:561    .text.SDIO_GetFIFOCount:0000000000000008 .L0 
C:\Users\LOCALH~1\AppData\Local\Temp\ccRcSERF.s:592    .text.SDIO_StartSDIOReadWait:0000000000000016 .L0 
C:\Users\LOCALH~1\AppData\Local\Temp\ccRcSERF.s:623    .text.SDIO_StopSDIOReadWait:0000000000000016 .L0 
C:\Users\LOCALH~1\AppData\Local\Temp\ccRcSERF.s:654    .text.SDIO_SetSDIOReadWaitMode:0000000000000016 .L0 
C:\Users\LOCALH~1\AppData\Local\Temp\ccRcSERF.s:689    .text.SDIO_SetSDIOOperation:000000000000001e .L0 
C:\Users\LOCALH~1\AppData\Local\Temp\ccRcSERF.s:724    .text.SDIO_SendSDIOSuspendCmd:000000000000001e .L0 
C:\Users\LOCALH~1\AppData\Local\Temp\ccRcSERF.s:760    .text.SDIO_CommandCompletionCmd:0000000000000020 .L0 
C:\Users\LOCALH~1\AppData\Local\Temp\ccRcSERF.s:796    .text.SDIO_CEATAITCmd:0000000000000020 .L0 
C:\Users\LOCALH~1\AppData\Local\Temp\ccRcSERF.s:832    .text.SDIO_SendCEATACmd:0000000000000020 .L0 
C:\Users\LOCALH~1\AppData\Local\Temp\ccRcSERF.s:857    .text.SDIO_GetFlagStatus:000000000000000e .L0 
C:\Users\LOCALH~1\AppData\Local\Temp\ccRcSERF.s:875    .text.SDIO_ClearFlag:0000000000000008 .L0 
C:\Users\LOCALH~1\AppData\Local\Temp\ccRcSERF.s:887    .text.SDIO_GetITStatus:0000000000000008 .L0 
C:\Users\LOCALH~1\AppData\Local\Temp\ccRcSERF.s:901    .text.SDIO_ClearITPendingBit:0000000000000008 .L0 
                     .debug_frame:0000000000000000 .L0 
C:\Users\LOCALH~1\AppData\Local\Temp\ccRcSERF.s:155    .text.SDIO_ClockCmd:0000000000000010 .L5
C:\Users\LOCALH~1\AppData\Local\Temp\ccRcSERF.s:150    .text.SDIO_ClockCmd:000000000000000c .L7
C:\Users\LOCALH~1\AppData\Local\Temp\ccRcSERF.s:228    .text.SDIO_ITConfig:000000000000000e .L11
C:\Users\LOCALH~1\AppData\Local\Temp\ccRcSERF.s:268    .text.SDIO_DMACmd:0000000000000010 .L14
C:\Users\LOCALH~1\AppData\Local\Temp\ccRcSERF.s:263    .text.SDIO_DMACmd:000000000000000c .L16
C:\Users\LOCALH~1\AppData\Local\Temp\ccRcSERF.s:584    .text.SDIO_StartSDIOReadWait:0000000000000010 .L29
C:\Users\LOCALH~1\AppData\Local\Temp\ccRcSERF.s:579    .text.SDIO_StartSDIOReadWait:000000000000000c .L31
C:\Users\LOCALH~1\AppData\Local\Temp\ccRcSERF.s:615    .text.SDIO_StopSDIOReadWait:0000000000000010 .L33
C:\Users\LOCALH~1\AppData\Local\Temp\ccRcSERF.s:610    .text.SDIO_StopSDIOReadWait:000000000000000c .L35
C:\Users\LOCALH~1\AppData\Local\Temp\ccRcSERF.s:646    .text.SDIO_SetSDIOReadWaitMode:0000000000000010 .L37
C:\Users\LOCALH~1\AppData\Local\Temp\ccRcSERF.s:641    .text.SDIO_SetSDIOReadWaitMode:000000000000000c .L39
C:\Users\LOCALH~1\AppData\Local\Temp\ccRcSERF.s:679    .text.SDIO_SetSDIOOperation:0000000000000014 .L41
C:\Users\LOCALH~1\AppData\Local\Temp\ccRcSERF.s:674    .text.SDIO_SetSDIOOperation:0000000000000010 .L43
C:\Users\LOCALH~1\AppData\Local\Temp\ccRcSERF.s:714    .text.SDIO_SendSDIOSuspendCmd:0000000000000014 .L45
C:\Users\LOCALH~1\AppData\Local\Temp\ccRcSERF.s:709    .text.SDIO_SendSDIOSuspendCmd:0000000000000010 .L47
C:\Users\LOCALH~1\AppData\Local\Temp\ccRcSERF.s:745    .text.SDIO_CommandCompletionCmd:0000000000000010 .L49
C:\Users\LOCALH~1\AppData\Local\Temp\ccRcSERF.s:781    .text.SDIO_CEATAITCmd:0000000000000010 .L52
C:\Users\LOCALH~1\AppData\Local\Temp\ccRcSERF.s:817    .text.SDIO_SendCEATACmd:0000000000000010 .L55
C:\Users\LOCALH~1\AppData\Local\Temp\ccRcSERF.s:1836   .debug_abbrev:0000000000000000 .Ldebug_abbrev0
C:\Users\LOCALH~1\AppData\Local\Temp\ccRcSERF.s:3028   .debug_str:0000000000000467 .LASF102
C:\Users\LOCALH~1\AppData\Local\Temp\ccRcSERF.s:3071   .debug_line_str:0000000000000055 .LASF0
C:\Users\LOCALH~1\AppData\Local\Temp\ccRcSERF.s:3069   .debug_line_str:0000000000000000 .LASF1
C:\Users\LOCALH~1\AppData\Local\Temp\ccRcSERF.s:2766   .debug_rnglists:000000000000000c .LLRL7
C:\Users\LOCALH~1\AppData\Local\Temp\ccRcSERF.s:2860   .debug_line:0000000000000000 .Ldebug_line0
C:\Users\LOCALH~1\AppData\Local\Temp\ccRcSERF.s:2980   .debug_str:0000000000000343 .LASF2
C:\Users\LOCALH~1\AppData\Local\Temp\ccRcSERF.s:2972   .debug_str:0000000000000303 .LASF3
C:\Users\LOCALH~1\AppData\Local\Temp\ccRcSERF.s:2954   .debug_str:0000000000000293 .LASF8
C:\Users\LOCALH~1\AppData\Local\Temp\ccRcSERF.s:2968   .debug_str:00000000000002e1 .LASF4
C:\Users\LOCALH~1\AppData\Local\Temp\ccRcSERF.s:2910   .debug_str:000000000000017b .LASF5
C:\Users\LOCALH~1\AppData\Local\Temp\ccRcSERF.s:2990   .debug_str:000000000000038b .LASF6
C:\Users\LOCALH~1\AppData\Local\Temp\ccRcSERF.s:2946   .debug_str:0000000000000257 .LASF7
C:\Users\LOCALH~1\AppData\Local\Temp\ccRcSERF.s:3026   .debug_str:000000000000045c .LASF9
C:\Users\LOCALH~1\AppData\Local\Temp\ccRcSERF.s:3014   .debug_str:00000000000003ff .LASF10
C:\Users\LOCALH~1\AppData\Local\Temp\ccRcSERF.s:2896   .debug_str:00000000000000fb .LASF11
C:\Users\LOCALH~1\AppData\Local\Temp\ccRcSERF.s:2974   .debug_str:000000000000030f .LASF12
C:\Users\LOCALH~1\AppData\Local\Temp\ccRcSERF.s:2918   .debug_str:00000000000001b0 .LASF13
C:\Users\LOCALH~1\AppData\Local\Temp\ccRcSERF.s:2976   .debug_str:0000000000000326 .LASF14
C:\Users\LOCALH~1\AppData\Local\Temp\ccRcSERF.s:2928   .debug_str:00000000000001db .LASF15
C:\Users\LOCALH~1\AppData\Local\Temp\ccRcSERF.s:3062   .debug_str:000000000000064e .LASF16
C:\Users\LOCALH~1\AppData\Local\Temp\ccRcSERF.s:2938   .debug_str:0000000000000226 .LASF17
C:\Users\LOCALH~1\AppData\Local\Temp\ccRcSERF.s:3036   .debug_str:00000000000005a9 .LASF18
C:\Users\LOCALH~1\AppData\Local\Temp\ccRcSERF.s:3060   .debug_str:0000000000000643 .LASF19
C:\Users\LOCALH~1\AppData\Local\Temp\ccRcSERF.s:3006   .debug_str:00000000000003d8 .LASF20
C:\Users\LOCALH~1\AppData\Local\Temp\ccRcSERF.s:2922   .debug_str:00000000000001be .LASF21
C:\Users\LOCALH~1\AppData\Local\Temp\ccRcSERF.s:3020   .debug_str:0000000000000437 .LASF22
C:\Users\LOCALH~1\AppData\Local\Temp\ccRcSERF.s:3056   .debug_str:0000000000000628 .LASF23
C:\Users\LOCALH~1\AppData\Local\Temp\ccRcSERF.s:2994   .debug_str:00000000000003a8 .LASF24
C:\Users\LOCALH~1\AppData\Local\Temp\ccRcSERF.s:2996   .debug_str:00000000000003ae .LASF25
C:\Users\LOCALH~1\AppData\Local\Temp\ccRcSERF.s:2998   .debug_str:00000000000003b4 .LASF26
C:\Users\LOCALH~1\AppData\Local\Temp\ccRcSERF.s:3000   .debug_str:00000000000003ba .LASF27
C:\Users\LOCALH~1\AppData\Local\Temp\ccRcSERF.s:2870   .debug_str:000000000000003a .LASF28
C:\Users\LOCALH~1\AppData\Local\Temp\ccRcSERF.s:2916   .debug_str:00000000000001ab .LASF29
C:\Users\LOCALH~1\AppData\Local\Temp\ccRcSERF.s:2920   .debug_str:00000000000001b8 .LASF30
C:\Users\LOCALH~1\AppData\Local\Temp\ccRcSERF.s:2892   .debug_str:00000000000000e6 .LASF31
C:\Users\LOCALH~1\AppData\Local\Temp\ccRcSERF.s:2982   .debug_str:0000000000000350 .LASF32
C:\Users\LOCALH~1\AppData\Local\Temp\ccRcSERF.s:3008   .debug_str:00000000000003e1 .LASF33
C:\Users\LOCALH~1\AppData\Local\Temp\ccRcSERF.s:3048   .debug_str:00000000000005fc .LASF34
C:\Users\LOCALH~1\AppData\Local\Temp\ccRcSERF.s:3010   .debug_str:00000000000003eb .LASF35
C:\Users\LOCALH~1\AppData\Local\Temp\ccRcSERF.s:2882   .debug_str:0000000000000095 .LASF36
C:\Users\LOCALH~1\AppData\Local\Temp\ccRcSERF.s:3012   .debug_str:00000000000003f5 .LASF37
C:\Users\LOCALH~1\AppData\Local\Temp\ccRcSERF.s:2944   .debug_str:0000000000000252 .LASF38
C:\Users\LOCALH~1\AppData\Local\Temp\ccRcSERF.s:2984   .debug_str:0000000000000355 .LASF39
C:\Users\LOCALH~1\AppData\Local\Temp\ccRcSERF.s:2964   .debug_str:00000000000002cd .LASF40
C:\Users\LOCALH~1\AppData\Local\Temp\ccRcSERF.s:2940   .debug_str:0000000000000236 .LASF41
C:\Users\LOCALH~1\AppData\Local\Temp\ccRcSERF.s:2862   .debug_str:0000000000000000 .LASF42
C:\Users\LOCALH~1\AppData\Local\Temp\ccRcSERF.s:2864   .debug_str:000000000000000f .LASF43
C:\Users\LOCALH~1\AppData\Local\Temp\ccRcSERF.s:2958   .debug_str:00000000000002a2 .LASF44
C:\Users\LOCALH~1\AppData\Local\Temp\ccRcSERF.s:3024   .debug_str:000000000000044f .LASF45
C:\Users\LOCALH~1\AppData\Local\Temp\ccRcSERF.s:2908   .debug_str:0000000000000162 .LASF46
C:\Users\LOCALH~1\AppData\Local\Temp\ccRcSERF.s:2894   .debug_str:00000000000000ed .LASF47
C:\Users\LOCALH~1\AppData\Local\Temp\ccRcSERF.s:2872   .debug_str:0000000000000041 .LASF48
C:\Users\LOCALH~1\AppData\Local\Temp\ccRcSERF.s:3002   .debug_str:00000000000003c0 .LASF49
C:\Users\LOCALH~1\AppData\Local\Temp\ccRcSERF.s:2900   .debug_str:000000000000011b .LASF50
C:\Users\LOCALH~1\AppData\Local\Temp\ccRcSERF.s:2934   .debug_str:0000000000000207 .LASF51
C:\Users\LOCALH~1\AppData\Local\Temp\ccRcSERF.s:2992   .debug_str:000000000000039e .LASF52
C:\Users\LOCALH~1\AppData\Local\Temp\ccRcSERF.s:3050   .debug_str:0000000000000604 .LASF53
C:\Users\LOCALH~1\AppData\Local\Temp\ccRcSERF.s:3034   .debug_str:0000000000000595 .LASF54
C:\Users\LOCALH~1\AppData\Local\Temp\ccRcSERF.s:2932   .debug_str:00000000000001f6 .LASF55
C:\Users\LOCALH~1\AppData\Local\Temp\ccRcSERF.s:2888   .debug_str:00000000000000c3 .LASF56
C:\Users\LOCALH~1\AppData\Local\Temp\ccRcSERF.s:2890   .debug_str:00000000000000d3 .LASF57
C:\Users\LOCALH~1\AppData\Local\Temp\ccRcSERF.s:2936   .debug_str:0000000000000215 .LASF58
C:\Users\LOCALH~1\AppData\Local\Temp\ccRcSERF.s:3066   .debug_str:0000000000000663 .LASF59
C:\Users\LOCALH~1\AppData\Local\Temp\ccRcSERF.s:2906   .debug_str:0000000000000158 .LASF60
C:\Users\LOCALH~1\AppData\Local\Temp\ccRcSERF.s:3042   .debug_str:00000000000005cc .LASF61
C:\Users\LOCALH~1\AppData\Local\Temp\ccRcSERF.s:2948   .debug_str:0000000000000260 .LASF103
C:\Users\LOCALH~1\AppData\Local\Temp\ccRcSERF.s:2966   .debug_str:00000000000002d9 .LASF62
C:\Users\LOCALH~1\AppData\Local\Temp\ccRcSERF.s:2884   .debug_str:000000000000009c .LASF63
C:\Users\LOCALH~1\AppData\Local\Temp\ccRcSERF.s:3054   .debug_str:000000000000061e .LASF84
C:\Users\LOCALH~1\AppData\Local\Temp\ccRcSERF.s:3044   .debug_str:00000000000005e1 .LASF64
C:\Users\LOCALH~1\AppData\Local\Temp\ccRcSERF.s:3004   .debug_str:00000000000003ce .LASF65
C:\Users\LOCALH~1\AppData\Local\Temp\ccRcSERF.s:3058   .debug_str:0000000000000630 .LASF86
C:\Users\LOCALH~1\AppData\Local\Temp\ccRcSERF.s:837    .text.SDIO_GetFlagStatus:0000000000000000 .LFB55
C:\Users\LOCALH~1\AppData\Local\Temp\ccRcSERF.s:855    .text.SDIO_GetFlagStatus:000000000000000e .LFE55
C:\Users\LOCALH~1\AppData\Local\Temp\ccRcSERF.s:2495   .debug_loclists:000000000000000c .LLST5
C:\Users\LOCALH~1\AppData\Local\Temp\ccRcSERF.s:2510   .debug_loclists:0000000000000026 .LLST6
C:\Users\LOCALH~1\AppData\Local\Temp\ccRcSERF.s:3022   .debug_str:000000000000043d .LASF67
C:\Users\LOCALH~1\AppData\Local\Temp\ccRcSERF.s:801    .text.SDIO_SendCEATACmd:0000000000000000 .LFB54
C:\Users\LOCALH~1\AppData\Local\Temp\ccRcSERF.s:830    .text.SDIO_SendCEATACmd:0000000000000020 .LFE54
C:\Users\LOCALH~1\AppData\Local\Temp\ccRcSERF.s:2926   .debug_str:00000000000001d2 .LASF66
C:\Users\LOCALH~1\AppData\Local\Temp\ccRcSERF.s:2866   .debug_str:0000000000000020 .LASF68
C:\Users\LOCALH~1\AppData\Local\Temp\ccRcSERF.s:765    .text.SDIO_CEATAITCmd:0000000000000000 .LFB53
C:\Users\LOCALH~1\AppData\Local\Temp\ccRcSERF.s:794    .text.SDIO_CEATAITCmd:0000000000000020 .LFE53
C:\Users\LOCALH~1\AppData\Local\Temp\ccRcSERF.s:3032   .debug_str:000000000000057b .LASF69
C:\Users\LOCALH~1\AppData\Local\Temp\ccRcSERF.s:729    .text.SDIO_CommandCompletionCmd:0000000000000000 .LFB52
C:\Users\LOCALH~1\AppData\Local\Temp\ccRcSERF.s:758    .text.SDIO_CommandCompletionCmd:0000000000000020 .LFE52
C:\Users\LOCALH~1\AppData\Local\Temp\ccRcSERF.s:2874   .debug_str:0000000000000052 .LASF70
C:\Users\LOCALH~1\AppData\Local\Temp\ccRcSERF.s:694    .text.SDIO_SendSDIOSuspendCmd:0000000000000000 .LFB51
C:\Users\LOCALH~1\AppData\Local\Temp\ccRcSERF.s:722    .text.SDIO_SendSDIOSuspendCmd:000000000000001e .LFE51
C:\Users\LOCALH~1\AppData\Local\Temp\ccRcSERF.s:2886   .debug_str:00000000000000ad .LASF71
C:\Users\LOCALH~1\AppData\Local\Temp\ccRcSERF.s:659    .text.SDIO_SetSDIOOperation:0000000000000000 .LFB50
C:\Users\LOCALH~1\AppData\Local\Temp\ccRcSERF.s:687    .text.SDIO_SetSDIOOperation:000000000000001e .LFE50
C:\Users\LOCALH~1\AppData\Local\Temp\ccRcSERF.s:2902   .debug_str:0000000000000129 .LASF72
C:\Users\LOCALH~1\AppData\Local\Temp\ccRcSERF.s:628    .text.SDIO_SetSDIOReadWaitMode:0000000000000000 .LFB49
C:\Users\LOCALH~1\AppData\Local\Temp\ccRcSERF.s:652    .text.SDIO_SetSDIOReadWaitMode:0000000000000016 .LFE49
C:\Users\LOCALH~1\AppData\Local\Temp\ccRcSERF.s:2898   .debug_str:0000000000000109 .LASF73
C:\Users\LOCALH~1\AppData\Local\Temp\ccRcSERF.s:2904   .debug_str:0000000000000142 .LASF74
C:\Users\LOCALH~1\AppData\Local\Temp\ccRcSERF.s:597    .text.SDIO_StopSDIOReadWait:0000000000000000 .LFB48
C:\Users\LOCALH~1\AppData\Local\Temp\ccRcSERF.s:621    .text.SDIO_StopSDIOReadWait:0000000000000016 .LFE48
C:\Users\LOCALH~1\AppData\Local\Temp\ccRcSERF.s:2942   .debug_str:000000000000023b .LASF75
C:\Users\LOCALH~1\AppData\Local\Temp\ccRcSERF.s:566    .text.SDIO_StartSDIOReadWait:0000000000000000 .LFB47
C:\Users\LOCALH~1\AppData\Local\Temp\ccRcSERF.s:590    .text.SDIO_StartSDIOReadWait:0000000000000016 .LFE47
C:\Users\LOCALH~1\AppData\Local\Temp\ccRcSERF.s:2914   .debug_str:0000000000000199 .LASF78
C:\Users\LOCALH~1\AppData\Local\Temp\ccRcSERF.s:549    .text.SDIO_GetFIFOCount:0000000000000000 .LFB46
C:\Users\LOCALH~1\AppData\Local\Temp\ccRcSERF.s:559    .text.SDIO_GetFIFOCount:0000000000000008 .LFE46
C:\Users\LOCALH~1\AppData\Local\Temp\ccRcSERF.s:3038   .debug_str:00000000000005af .LASF76
C:\Users\LOCALH~1\AppData\Local\Temp\ccRcSERF.s:531    .text.SDIO_WriteData:0000000000000000 .LFB45
C:\Users\LOCALH~1\AppData\Local\Temp\ccRcSERF.s:542    .text.SDIO_WriteData:000000000000000a .LFE45
C:\Users\LOCALH~1\AppData\Local\Temp\ccRcSERF.s:2956   .debug_str:000000000000029d .LASF77
C:\Users\LOCALH~1\AppData\Local\Temp\ccRcSERF.s:3040   .debug_str:00000000000005be .LASF79
C:\Users\LOCALH~1\AppData\Local\Temp\ccRcSERF.s:514    .text.SDIO_ReadData:0000000000000000 .LFB44
C:\Users\LOCALH~1\AppData\Local\Temp\ccRcSERF.s:524    .text.SDIO_ReadData:000000000000000a .LFE44
C:\Users\LOCALH~1\AppData\Local\Temp\ccRcSERF.s:2912   .debug_str:0000000000000185 .LASF80
C:\Users\LOCALH~1\AppData\Local\Temp\ccRcSERF.s:497    .text.SDIO_GetDataCounter:0000000000000000 .LFB43
C:\Users\LOCALH~1\AppData\Local\Temp\ccRcSERF.s:507    .text.SDIO_GetDataCounter:0000000000000008 .LFE43
C:\Users\LOCALH~1\AppData\Local\Temp\ccRcSERF.s:2978   .debug_str:000000000000032f .LASF81
C:\Users\LOCALH~1\AppData\Local\Temp\ccRcSERF.s:464    .text.SDIO_DataStructInit:0000000000000000 .LFB42
C:\Users\LOCALH~1\AppData\Local\Temp\ccRcSERF.s:490    .text.SDIO_DataStructInit:000000000000001a .LFE42
C:\Users\LOCALH~1\AppData\Local\Temp\ccRcSERF.s:2970   .debug_str:00000000000002ef .LASF82
C:\Users\LOCALH~1\AppData\Local\Temp\ccRcSERF.s:2962   .debug_str:00000000000002bd .LASF83
C:\Users\LOCALH~1\AppData\Local\Temp\ccRcSERF.s:413    .text.SDIO_DataConfig:0000000000000000 .LFB41
C:\Users\LOCALH~1\AppData\Local\Temp\ccRcSERF.s:457    .text.SDIO_DataConfig:0000000000000026 .LFE41
C:\Users\LOCALH~1\AppData\Local\Temp\ccRcSERF.s:2960   .debug_str:00000000000002b6 .LASF85
C:\Users\LOCALH~1\AppData\Local\Temp\ccRcSERF.s:2549   .debug_loclists:000000000000005e .LLST4
C:\Users\LOCALH~1\AppData\Local\Temp\ccRcSERF.s:2986   .debug_str:0000000000000362 .LASF87
C:\Users\LOCALH~1\AppData\Local\Temp\ccRcSERF.s:374    .text.SDIO_GetResponse:0000000000000000 .LFB40
C:\Users\LOCALH~1\AppData\Local\Temp\ccRcSERF.s:406    .text.SDIO_GetResponse:0000000000000016 .LFE40
C:\Users\LOCALH~1\AppData\Local\Temp\ccRcSERF.s:2878   .debug_str:000000000000007b .LASF88
C:\Users\LOCALH~1\AppData\Local\Temp\ccRcSERF.s:2577   .debug_loclists:0000000000000092 .LLST3
C:\Users\LOCALH~1\AppData\Local\Temp\ccRcSERF.s:2988   .debug_str:0000000000000373 .LASF89
C:\Users\LOCALH~1\AppData\Local\Temp\ccRcSERF.s:356    .text.SDIO_GetCommandResponse:0000000000000000 .LFB39
C:\Users\LOCALH~1\AppData\Local\Temp\ccRcSERF.s:367    .text.SDIO_GetCommandResponse:000000000000000c .LFE39
C:\Users\LOCALH~1\AppData\Local\Temp\ccRcSERF.s:3030   .debug_str:0000000000000568 .LASF90
C:\Users\LOCALH~1\AppData\Local\Temp\ccRcSERF.s:327    .text.SDIO_CmdStructInit:0000000000000000 .LFB38
C:\Users\LOCALH~1\AppData\Local\Temp\ccRcSERF.s:349    .text.SDIO_CmdStructInit:0000000000000016 .LFE38
C:\Users\LOCALH~1\AppData\Local\Temp\ccRcSERF.s:3018   .debug_str:0000000000000424 .LASF91
C:\Users\LOCALH~1\AppData\Local\Temp\ccRcSERF.s:2876   .debug_str:000000000000006a .LASF92
C:\Users\LOCALH~1\AppData\Local\Temp\ccRcSERF.s:281    .text.SDIO_SendCommand:0000000000000000 .LFB37
C:\Users\LOCALH~1\AppData\Local\Temp\ccRcSERF.s:320    .text.SDIO_SendCommand:0000000000000022 .LFE37
C:\Users\LOCALH~1\AppData\Local\Temp\ccRcSERF.s:2613   .debug_loclists:00000000000000d7 .LLST2
C:\Users\LOCALH~1\AppData\Local\Temp\ccRcSERF.s:2950   .debug_str:0000000000000277 .LASF93
C:\Users\LOCALH~1\AppData\Local\Temp\ccRcSERF.s:250    .text.SDIO_DMACmd:0000000000000000 .LFB36
C:\Users\LOCALH~1\AppData\Local\Temp\ccRcSERF.s:274    .text.SDIO_DMACmd:0000000000000014 .LFE36
C:\Users\LOCALH~1\AppData\Local\Temp\ccRcSERF.s:3064   .debug_str:0000000000000655 .LASF94
C:\Users\LOCALH~1\AppData\Local\Temp\ccRcSERF.s:213    .text.SDIO_ITConfig:0000000000000000 .LFB35
C:\Users\LOCALH~1\AppData\Local\Temp\ccRcSERF.s:243    .text.SDIO_ITConfig:000000000000001e .LFE35
C:\Users\LOCALH~1\AppData\Local\Temp\ccRcSERF.s:2641   .debug_loclists:000000000000010b .LLST1
C:\Users\LOCALH~1\AppData\Local\Temp\ccRcSERF.s:2930   .debug_str:00000000000001e3 .LASF95
C:\Users\LOCALH~1\AppData\Local\Temp\ccRcSERF.s:195    .text.SDIO_GetPowerState:0000000000000000 .LFB34
C:\Users\LOCALH~1\AppData\Local\Temp\ccRcSERF.s:206    .text.SDIO_GetPowerState:000000000000000a .LFE34
C:\Users\LOCALH~1\AppData\Local\Temp\ccRcSERF.s:3016   .debug_str:0000000000000411 .LASF96
C:\Users\LOCALH~1\AppData\Local\Temp\ccRcSERF.s:168    .text.SDIO_SetPowerState:0000000000000000 .LFB33
C:\Users\LOCALH~1\AppData\Local\Temp\ccRcSERF.s:188    .text.SDIO_SetPowerState:0000000000000012 .LFE33
C:\Users\LOCALH~1\AppData\Local\Temp\ccRcSERF.s:2952   .debug_str:0000000000000283 .LASF97
C:\Users\LOCALH~1\AppData\Local\Temp\ccRcSERF.s:2924   .debug_str:00000000000001c4 .LASF98
C:\Users\LOCALH~1\AppData\Local\Temp\ccRcSERF.s:137    .text.SDIO_ClockCmd:0000000000000000 .LFB32
C:\Users\LOCALH~1\AppData\Local\Temp\ccRcSERF.s:161    .text.SDIO_ClockCmd:0000000000000016 .LFE32
C:\Users\LOCALH~1\AppData\Local\Temp\ccRcSERF.s:3052   .debug_str:000000000000060e .LASF99
C:\Users\LOCALH~1\AppData\Local\Temp\ccRcSERF.s:105    .text.SDIO_StructInit:0000000000000000 .LFB31
C:\Users\LOCALH~1\AppData\Local\Temp\ccRcSERF.s:130    .text.SDIO_StructInit:000000000000001a .LFE31
C:\Users\LOCALH~1\AppData\Local\Temp\ccRcSERF.s:2880   .debug_str:0000000000000085 .LASF100
C:\Users\LOCALH~1\AppData\Local\Temp\ccRcSERF.s:2868   .debug_str:0000000000000030 .LASF101
C:\Users\LOCALH~1\AppData\Local\Temp\ccRcSERF.s:60     .text.SDIO_Init:0000000000000000 .LFB30
C:\Users\LOCALH~1\AppData\Local\Temp\ccRcSERF.s:98     .text.SDIO_Init:000000000000002a .LFE30
C:\Users\LOCALH~1\AppData\Local\Temp\ccRcSERF.s:2664   .debug_loclists:0000000000000133 .LLST0
C:\Users\LOCALH~1\AppData\Local\Temp\ccRcSERF.s:3046   .debug_str:00000000000005f0 .LASF104
C:\Users\LOCALH~1\AppData\Local\Temp\ccRcSERF.s:15     .text.SDIO_DeInit:0000000000000000 .LFB29
C:\Users\LOCALH~1\AppData\Local\Temp\ccRcSERF.s:53     .text.SDIO_DeInit:0000000000000030 .LFE29
C:\Users\LOCALH~1\AppData\Local\Temp\ccRcSERF.s:862    .text.SDIO_ClearFlag:0000000000000000 .LFB56
C:\Users\LOCALH~1\AppData\Local\Temp\ccRcSERF.s:873    .text.SDIO_ClearFlag:0000000000000008 .LFE56
C:\Users\LOCALH~1\AppData\Local\Temp\ccRcSERF.s:840    .text.SDIO_GetFlagStatus:0000000000000000 .LVL36
C:\Users\LOCALH~1\AppData\Local\Temp\ccRcSERF.s:850    .text.SDIO_GetFlagStatus:0000000000000008 .LVL38
C:\Users\LOCALH~1\AppData\Local\Temp\ccRcSERF.s:846    .text.SDIO_GetFlagStatus:0000000000000006 .LVL37
C:\Users\LOCALH~1\AppData\Local\Temp\ccRcSERF.s:416    .text.SDIO_DataConfig:0000000000000000 .LVL21
C:\Users\LOCALH~1\AppData\Local\Temp\ccRcSERF.s:432    .text.SDIO_DataConfig:000000000000000e .LVL22
C:\Users\LOCALH~1\AppData\Local\Temp\ccRcSERF.s:440    .text.SDIO_DataConfig:0000000000000016 .LVL23
C:\Users\LOCALH~1\AppData\Local\Temp\ccRcSERF.s:445    .text.SDIO_DataConfig:000000000000001c .LVL24
C:\Users\LOCALH~1\AppData\Local\Temp\ccRcSERF.s:450    .text.SDIO_DataConfig:0000000000000022 .LVL25
C:\Users\LOCALH~1\AppData\Local\Temp\ccRcSERF.s:377    .text.SDIO_GetResponse:0000000000000000 .LVL17
C:\Users\LOCALH~1\AppData\Local\Temp\ccRcSERF.s:391    .text.SDIO_GetResponse:000000000000000c .LVL18
C:\Users\LOCALH~1\AppData\Local\Temp\ccRcSERF.s:399    .text.SDIO_GetResponse:0000000000000012 .LVL19
C:\Users\LOCALH~1\AppData\Local\Temp\ccRcSERF.s:403    .text.SDIO_GetResponse:0000000000000014 .LVL20
C:\Users\LOCALH~1\AppData\Local\Temp\ccRcSERF.s:284    .text.SDIO_SendCommand:0000000000000000 .LVL11
C:\Users\LOCALH~1\AppData\Local\Temp\ccRcSERF.s:295    .text.SDIO_SendCommand:000000000000000a .LVL12
C:\Users\LOCALH~1\AppData\Local\Temp\ccRcSERF.s:303    .text.SDIO_SendCommand:0000000000000012 .LVL13
C:\Users\LOCALH~1\AppData\Local\Temp\ccRcSERF.s:308    .text.SDIO_SendCommand:0000000000000018 .LVL14
C:\Users\LOCALH~1\AppData\Local\Temp\ccRcSERF.s:313    .text.SDIO_SendCommand:000000000000001e .LVL15
C:\Users\LOCALH~1\AppData\Local\Temp\ccRcSERF.s:216    .text.SDIO_ITConfig:0000000000000000 .LVL7
C:\Users\LOCALH~1\AppData\Local\Temp\ccRcSERF.s:235    .text.SDIO_ITConfig:0000000000000018 .LVL8
C:\Users\LOCALH~1\AppData\Local\Temp\ccRcSERF.s:238    .text.SDIO_ITConfig:000000000000001a .LVL9
C:\Users\LOCALH~1\AppData\Local\Temp\ccRcSERF.s:63     .text.SDIO_Init:0000000000000000 .LVL0
C:\Users\LOCALH~1\AppData\Local\Temp\ccRcSERF.s:71     .text.SDIO_Init:000000000000000a .LVL1
C:\Users\LOCALH~1\AppData\Local\Temp\ccRcSERF.s:79     .text.SDIO_Init:0000000000000014 .LVL2
C:\Users\LOCALH~1\AppData\Local\Temp\ccRcSERF.s:91     .text.SDIO_Init:0000000000000026 .LVL3
C:\Users\LOCALH~1\AppData\Local\Temp\ccRcSERF.s:909    .debug_info:0000000000000000 .Ldebug_info0
C:\Users\LOCALH~1\AppData\Local\Temp\ccRcSERF.s:880    .text.SDIO_GetITStatus:0000000000000000 .LFB60
C:\Users\LOCALH~1\AppData\Local\Temp\ccRcSERF.s:885    .text.SDIO_GetITStatus:0000000000000008 .LFE60
C:\Users\LOCALH~1\AppData\Local\Temp\ccRcSERF.s:892    .text.SDIO_ClearITPendingBit:0000000000000000 .LFB62
C:\Users\LOCALH~1\AppData\Local\Temp\ccRcSERF.s:899    .text.SDIO_ClearITPendingBit:0000000000000008 .LFE62

NO UNDEFINED SYMBOLS
