   1              		.file	"ch32v30x_eth.c"
   2              		.option nopic
   3              		.attribute arch, "rv32i2p0_m2p0_a2p0_f2p0_c2p0_xw"
   4              		.attribute unaligned_access, 0
   5              		.attribute stack_align, 16
   6              		.text
   7              	.Ltext0:
   8              		.cfi_sections	.debug_frame
   9              		.file 0 "C:\\Users\\localhost\\Documents\\turbomoskal-repo\\qqexpert\\firmware\\MasterController\\
  10              		.section	.text.ETH_DeInit,"ax",@progbits
  11              		.align	1
  12              		.globl	ETH_DeInit
  14              	ETH_DeInit:
  15              	.LFB29:
  16              		.file 1 "../Peripheral/src/ch32v30x_eth.c"
   1:../Peripheral/src/ch32v30x_eth.c **** /********************************** (C) COPYRIGHT  *******************************
   2:../Peripheral/src/ch32v30x_eth.c **** * File Name          : ch32v30x_eth.c
   3:../Peripheral/src/ch32v30x_eth.c **** * Author             : WCH
   4:../Peripheral/src/ch32v30x_eth.c **** * Version            : V1.0.0
   5:../Peripheral/src/ch32v30x_eth.c **** * Date               : 2021/06/06
   6:../Peripheral/src/ch32v30x_eth.c **** * Description        : This file provides all the ETH firmware functions.
   7:../Peripheral/src/ch32v30x_eth.c **** *********************************************************************************
   8:../Peripheral/src/ch32v30x_eth.c **** * Copyright (c) 2021 Nanjing Qinheng Microelectronics Co., Ltd.
   9:../Peripheral/src/ch32v30x_eth.c **** * Attention: This software (modified or not) and binary are used for 
  10:../Peripheral/src/ch32v30x_eth.c **** * microcontroller manufactured by Nanjing Qinheng Microelectronics.
  11:../Peripheral/src/ch32v30x_eth.c **** *******************************************************************************/
  12:../Peripheral/src/ch32v30x_eth.c **** #include "ch32v30x_eth.h"
  13:../Peripheral/src/ch32v30x_eth.c **** #include "ch32v30x_rcc.h"
  14:../Peripheral/src/ch32v30x_eth.c **** 
  15:../Peripheral/src/ch32v30x_eth.c **** ETH_DMADESCTypeDef *DMATxDescToSet;
  16:../Peripheral/src/ch32v30x_eth.c **** ETH_DMADESCTypeDef *DMARxDescToGet;
  17:../Peripheral/src/ch32v30x_eth.c **** ETH_DMADESCTypeDef *DMAPTPTxDescToSet;
  18:../Peripheral/src/ch32v30x_eth.c **** ETH_DMADESCTypeDef *DMAPTPRxDescToGet;
  19:../Peripheral/src/ch32v30x_eth.c **** 
  20:../Peripheral/src/ch32v30x_eth.c **** /*********************************************************************
  21:../Peripheral/src/ch32v30x_eth.c ****  * @fn      ETH_DeInit
  22:../Peripheral/src/ch32v30x_eth.c ****  *
  23:../Peripheral/src/ch32v30x_eth.c ****  * @brief   ETH hardware initialize again.
  24:../Peripheral/src/ch32v30x_eth.c ****  *
  25:../Peripheral/src/ch32v30x_eth.c ****  * @return  none
  26:../Peripheral/src/ch32v30x_eth.c ****  */
  27:../Peripheral/src/ch32v30x_eth.c **** #ifdef CH32V30x_D8C
  28:../Peripheral/src/ch32v30x_eth.c **** void ETH_DeInit(void)
  29:../Peripheral/src/ch32v30x_eth.c **** {
  17              		.loc 1 29 1
  18              		.cfi_startproc
  19 0000 17030000 		call	t0,__riscv_save_0
  19      E7020300 
  20              		.cfi_offset 1, -4
  21              		.cfi_def_cfa_offset 16
  30:../Peripheral/src/ch32v30x_eth.c ****     RCC_AHBPeriphResetCmd(RCC_AHBPeriph_ETH_MAC, ENABLE);
  22              		.loc 1 30 5
  23 0008 8545     		li	a1,1
  24 000a 1165     		li	a0,16384
  25 000c 97000000 		call	RCC_AHBPeriphResetCmd
  25      E7800000 
  26              	.LVL0:
  31:../Peripheral/src/ch32v30x_eth.c ****     RCC_AHBPeriphResetCmd(RCC_AHBPeriph_ETH_MAC, DISABLE);
  27              		.loc 1 31 5
  28 0014 8145     		li	a1,0
  29 0016 1165     		li	a0,16384
  30 0018 97000000 		call	RCC_AHBPeriphResetCmd
  30      E7800000 
  31              	.LVL1:
  32:../Peripheral/src/ch32v30x_eth.c **** }
  32              		.loc 1 32 1 is_stmt 0
  33 0020 17030000 		tail	__riscv_restore_0
  33      67000300 
  34              		.cfi_restore 1
  35              		.cfi_def_cfa_offset 0
  36              		.cfi_endproc
  37              	.LFE29:
  39              		.section	.text.ETH_StructInit,"ax",@progbits
  40              		.align	1
  41              		.globl	ETH_StructInit
  43              	ETH_StructInit:
  44              	.LFB30:
  33:../Peripheral/src/ch32v30x_eth.c **** 
  34:../Peripheral/src/ch32v30x_eth.c **** #endif
  35:../Peripheral/src/ch32v30x_eth.c **** 
  36:../Peripheral/src/ch32v30x_eth.c **** /*********************************************************************
  37:../Peripheral/src/ch32v30x_eth.c ****  * @fn      ETH_StructInit
  38:../Peripheral/src/ch32v30x_eth.c ****  *
  39:../Peripheral/src/ch32v30x_eth.c ****  * @brief   Fills each ETH_InitStruct member with its default value.
  40:../Peripheral/src/ch32v30x_eth.c ****  *
  41:../Peripheral/src/ch32v30x_eth.c ****  * @param   ETH_InitStruct - pointer to a ETH_InitTypeDef structure
  42:../Peripheral/src/ch32v30x_eth.c ****  *        which will be initialized.
  43:../Peripheral/src/ch32v30x_eth.c ****  *
  44:../Peripheral/src/ch32v30x_eth.c ****  * @return  none
  45:../Peripheral/src/ch32v30x_eth.c ****  */
  46:../Peripheral/src/ch32v30x_eth.c **** void ETH_StructInit(ETH_InitTypeDef *ETH_InitStruct)
  47:../Peripheral/src/ch32v30x_eth.c **** {
  45              		.loc 1 47 1 is_stmt 1
  46              		.cfi_startproc
  47              	.LVL2:
  48:../Peripheral/src/ch32v30x_eth.c ****     /*------------------------   MAC   -----------------------------------*/
  49:../Peripheral/src/ch32v30x_eth.c ****     ETH_InitStruct->ETH_AutoNegotiation = ETH_AutoNegotiation_Disable;
  48              		.loc 1 49 5
  50:../Peripheral/src/ch32v30x_eth.c ****     ETH_InitStruct->ETH_Watchdog = ETH_Watchdog_Enable;
  51:../Peripheral/src/ch32v30x_eth.c ****     ETH_InitStruct->ETH_Jabber = ETH_Jabber_Enable;
  52:../Peripheral/src/ch32v30x_eth.c ****     ETH_InitStruct->ETH_InterFrameGap = ETH_InterFrameGap_96Bit;
  53:../Peripheral/src/ch32v30x_eth.c ****     ETH_InitStruct->ETH_CarrierSense = ETH_CarrierSense_Enable;
  54:../Peripheral/src/ch32v30x_eth.c ****     ETH_InitStruct->ETH_Speed = ETH_Speed_10M;
  55:../Peripheral/src/ch32v30x_eth.c ****     ETH_InitStruct->ETH_ReceiveOwn = ETH_ReceiveOwn_Enable;
  56:../Peripheral/src/ch32v30x_eth.c ****     ETH_InitStruct->ETH_LoopbackMode = ETH_LoopbackMode_Disable;
  57:../Peripheral/src/ch32v30x_eth.c ****     ETH_InitStruct->ETH_Mode = ETH_Mode_HalfDuplex;
  58:../Peripheral/src/ch32v30x_eth.c ****     ETH_InitStruct->ETH_ChecksumOffload = ETH_ChecksumOffload_Disable;
  59:../Peripheral/src/ch32v30x_eth.c ****     ETH_InitStruct->ETH_RetryTransmission = ETH_RetryTransmission_Enable;
  60:../Peripheral/src/ch32v30x_eth.c ****     ETH_InitStruct->ETH_AutomaticPadCRCStrip = ETH_AutomaticPadCRCStrip_Disable;
  61:../Peripheral/src/ch32v30x_eth.c ****     ETH_InitStruct->ETH_BackOffLimit = ETH_BackOffLimit_10;
  62:../Peripheral/src/ch32v30x_eth.c ****     ETH_InitStruct->ETH_DeferralCheck = ETH_DeferralCheck_Disable;
  63:../Peripheral/src/ch32v30x_eth.c ****     ETH_InitStruct->ETH_ReceiveAll = ETH_ReceiveAll_Disable;
  64:../Peripheral/src/ch32v30x_eth.c ****     ETH_InitStruct->ETH_SourceAddrFilter = ETH_SourceAddrFilter_Disable;
  65:../Peripheral/src/ch32v30x_eth.c ****     ETH_InitStruct->ETH_PassControlFrames = ETH_PassControlFrames_BlockAll;
  49              		.loc 1 65 43 is_stmt 0
  50 0000 93070004 		li	a5,64
  51 0004 3CC1     		sw	a5,64(a0)
  66:../Peripheral/src/ch32v30x_eth.c ****     ETH_InitStruct->ETH_BroadcastFramesReception = ETH_BroadcastFramesReception_Disable;
  52              		.loc 1 66 50
  53 0006 93070002 		li	a5,32
  54 000a 7CC1     		sw	a5,68(a0)
  67:../Peripheral/src/ch32v30x_eth.c ****     ETH_InitStruct->ETH_DestinationAddrFilter = ETH_DestinationAddrFilter_Normal;
  68:../Peripheral/src/ch32v30x_eth.c ****     ETH_InitStruct->ETH_PromiscuousMode = ETH_PromiscuousMode_Disable;
  69:../Peripheral/src/ch32v30x_eth.c ****     ETH_InitStruct->ETH_MulticastFramesFilter = ETH_MulticastFramesFilter_Perfect;
  70:../Peripheral/src/ch32v30x_eth.c ****     ETH_InitStruct->ETH_UnicastFramesFilter = ETH_UnicastFramesFilter_Perfect;
  71:../Peripheral/src/ch32v30x_eth.c ****     ETH_InitStruct->ETH_HashTableHigh = 0x0;
  72:../Peripheral/src/ch32v30x_eth.c ****     ETH_InitStruct->ETH_HashTableLow = 0x0;
  73:../Peripheral/src/ch32v30x_eth.c ****     ETH_InitStruct->ETH_PauseTime = 0x0;
  74:../Peripheral/src/ch32v30x_eth.c ****     ETH_InitStruct->ETH_ZeroQuantaPause = ETH_ZeroQuantaPause_Disable;
  55              		.loc 1 74 41
  56 000c 93070008 		li	a5,128
  57 0010 7CD1     		sw	a5,100(a0)
  75:../Peripheral/src/ch32v30x_eth.c ****     ETH_InitStruct->ETH_PauseLowThreshold = ETH_PauseLowThreshold_Minus4;
  76:../Peripheral/src/ch32v30x_eth.c ****     ETH_InitStruct->ETH_UnicastPauseFrameDetect = ETH_UnicastPauseFrameDetect_Disable;
  77:../Peripheral/src/ch32v30x_eth.c ****     ETH_InitStruct->ETH_ReceiveFlowControl = ETH_ReceiveFlowControl_Disable;
  78:../Peripheral/src/ch32v30x_eth.c ****     ETH_InitStruct->ETH_TransmitFlowControl = ETH_TransmitFlowControl_Disable;
  79:../Peripheral/src/ch32v30x_eth.c ****     ETH_InitStruct->ETH_VLANTagComparison = ETH_VLANTagComparison_16Bit;
  80:../Peripheral/src/ch32v30x_eth.c ****     ETH_InitStruct->ETH_VLANTagIdentifier = 0x0;
  81:../Peripheral/src/ch32v30x_eth.c ****     /*------------------------   DMA   -----------------------------------*/
  82:../Peripheral/src/ch32v30x_eth.c ****     ETH_InitStruct->ETH_DropTCPIPChecksumErrorFrame = ETH_DropTCPIPChecksumErrorFrame_Disable;
  58              		.loc 1 82 53
  59 0012 37070004 		li	a4,67108864
  60 0016 93070508 		addi	a5,a0,128
  49:../Peripheral/src/ch32v30x_eth.c ****     ETH_InitStruct->ETH_Watchdog = ETH_Watchdog_Enable;
  61              		.loc 1 49 41
  62 001a 23200500 		sw	zero,0(a0)
  50:../Peripheral/src/ch32v30x_eth.c ****     ETH_InitStruct->ETH_Jabber = ETH_Jabber_Enable;
  63              		.loc 1 50 5 is_stmt 1
  50:../Peripheral/src/ch32v30x_eth.c ****     ETH_InitStruct->ETH_Jabber = ETH_Jabber_Enable;
  64              		.loc 1 50 34 is_stmt 0
  65 001e 23220500 		sw	zero,4(a0)
  51:../Peripheral/src/ch32v30x_eth.c ****     ETH_InitStruct->ETH_InterFrameGap = ETH_InterFrameGap_96Bit;
  66              		.loc 1 51 5 is_stmt 1
  51:../Peripheral/src/ch32v30x_eth.c ****     ETH_InitStruct->ETH_InterFrameGap = ETH_InterFrameGap_96Bit;
  67              		.loc 1 51 32 is_stmt 0
  68 0022 23240500 		sw	zero,8(a0)
  52:../Peripheral/src/ch32v30x_eth.c ****     ETH_InitStruct->ETH_CarrierSense = ETH_CarrierSense_Enable;
  69              		.loc 1 52 5 is_stmt 1
  52:../Peripheral/src/ch32v30x_eth.c ****     ETH_InitStruct->ETH_CarrierSense = ETH_CarrierSense_Enable;
  70              		.loc 1 52 39 is_stmt 0
  71 0026 23260500 		sw	zero,12(a0)
  53:../Peripheral/src/ch32v30x_eth.c ****     ETH_InitStruct->ETH_Speed = ETH_Speed_10M;
  72              		.loc 1 53 5 is_stmt 1
  53:../Peripheral/src/ch32v30x_eth.c ****     ETH_InitStruct->ETH_Speed = ETH_Speed_10M;
  73              		.loc 1 53 38 is_stmt 0
  74 002a 23280500 		sw	zero,16(a0)
  54:../Peripheral/src/ch32v30x_eth.c ****     ETH_InitStruct->ETH_ReceiveOwn = ETH_ReceiveOwn_Enable;
  75              		.loc 1 54 5 is_stmt 1
  54:../Peripheral/src/ch32v30x_eth.c ****     ETH_InitStruct->ETH_ReceiveOwn = ETH_ReceiveOwn_Enable;
  76              		.loc 1 54 31 is_stmt 0
  77 002e 232A0500 		sw	zero,20(a0)
  55:../Peripheral/src/ch32v30x_eth.c ****     ETH_InitStruct->ETH_LoopbackMode = ETH_LoopbackMode_Disable;
  78              		.loc 1 55 5 is_stmt 1
  55:../Peripheral/src/ch32v30x_eth.c ****     ETH_InitStruct->ETH_LoopbackMode = ETH_LoopbackMode_Disable;
  79              		.loc 1 55 36 is_stmt 0
  80 0032 232C0500 		sw	zero,24(a0)
  56:../Peripheral/src/ch32v30x_eth.c ****     ETH_InitStruct->ETH_Mode = ETH_Mode_HalfDuplex;
  81              		.loc 1 56 5 is_stmt 1
  56:../Peripheral/src/ch32v30x_eth.c ****     ETH_InitStruct->ETH_Mode = ETH_Mode_HalfDuplex;
  82              		.loc 1 56 38 is_stmt 0
  83 0036 232E0500 		sw	zero,28(a0)
  57:../Peripheral/src/ch32v30x_eth.c ****     ETH_InitStruct->ETH_ChecksumOffload = ETH_ChecksumOffload_Disable;
  84              		.loc 1 57 5 is_stmt 1
  57:../Peripheral/src/ch32v30x_eth.c ****     ETH_InitStruct->ETH_ChecksumOffload = ETH_ChecksumOffload_Disable;
  85              		.loc 1 57 30 is_stmt 0
  86 003a 23200502 		sw	zero,32(a0)
  58:../Peripheral/src/ch32v30x_eth.c ****     ETH_InitStruct->ETH_RetryTransmission = ETH_RetryTransmission_Enable;
  87              		.loc 1 58 5 is_stmt 1
  58:../Peripheral/src/ch32v30x_eth.c ****     ETH_InitStruct->ETH_RetryTransmission = ETH_RetryTransmission_Enable;
  88              		.loc 1 58 41 is_stmt 0
  89 003e 23220502 		sw	zero,36(a0)
  59:../Peripheral/src/ch32v30x_eth.c ****     ETH_InitStruct->ETH_AutomaticPadCRCStrip = ETH_AutomaticPadCRCStrip_Disable;
  90              		.loc 1 59 5 is_stmt 1
  59:../Peripheral/src/ch32v30x_eth.c ****     ETH_InitStruct->ETH_AutomaticPadCRCStrip = ETH_AutomaticPadCRCStrip_Disable;
  91              		.loc 1 59 43 is_stmt 0
  92 0042 23240502 		sw	zero,40(a0)
  60:../Peripheral/src/ch32v30x_eth.c ****     ETH_InitStruct->ETH_BackOffLimit = ETH_BackOffLimit_10;
  93              		.loc 1 60 5 is_stmt 1
  60:../Peripheral/src/ch32v30x_eth.c ****     ETH_InitStruct->ETH_BackOffLimit = ETH_BackOffLimit_10;
  94              		.loc 1 60 46 is_stmt 0
  95 0046 23260502 		sw	zero,44(a0)
  61:../Peripheral/src/ch32v30x_eth.c ****     ETH_InitStruct->ETH_DeferralCheck = ETH_DeferralCheck_Disable;
  96              		.loc 1 61 5 is_stmt 1
  61:../Peripheral/src/ch32v30x_eth.c ****     ETH_InitStruct->ETH_DeferralCheck = ETH_DeferralCheck_Disable;
  97              		.loc 1 61 38 is_stmt 0
  98 004a 23280502 		sw	zero,48(a0)
  62:../Peripheral/src/ch32v30x_eth.c ****     ETH_InitStruct->ETH_ReceiveAll = ETH_ReceiveAll_Disable;
  99              		.loc 1 62 5 is_stmt 1
  62:../Peripheral/src/ch32v30x_eth.c ****     ETH_InitStruct->ETH_ReceiveAll = ETH_ReceiveAll_Disable;
 100              		.loc 1 62 39 is_stmt 0
 101 004e 232A0502 		sw	zero,52(a0)
  63:../Peripheral/src/ch32v30x_eth.c ****     ETH_InitStruct->ETH_SourceAddrFilter = ETH_SourceAddrFilter_Disable;
 102              		.loc 1 63 5 is_stmt 1
  63:../Peripheral/src/ch32v30x_eth.c ****     ETH_InitStruct->ETH_SourceAddrFilter = ETH_SourceAddrFilter_Disable;
 103              		.loc 1 63 36 is_stmt 0
 104 0052 232C0502 		sw	zero,56(a0)
  64:../Peripheral/src/ch32v30x_eth.c ****     ETH_InitStruct->ETH_PassControlFrames = ETH_PassControlFrames_BlockAll;
 105              		.loc 1 64 5 is_stmt 1
  64:../Peripheral/src/ch32v30x_eth.c ****     ETH_InitStruct->ETH_PassControlFrames = ETH_PassControlFrames_BlockAll;
 106              		.loc 1 64 42 is_stmt 0
 107 0056 232E0502 		sw	zero,60(a0)
  65:../Peripheral/src/ch32v30x_eth.c ****     ETH_InitStruct->ETH_BroadcastFramesReception = ETH_BroadcastFramesReception_Disable;
 108              		.loc 1 65 5 is_stmt 1
  66:../Peripheral/src/ch32v30x_eth.c ****     ETH_InitStruct->ETH_DestinationAddrFilter = ETH_DestinationAddrFilter_Normal;
 109              		.loc 1 66 5
  67:../Peripheral/src/ch32v30x_eth.c ****     ETH_InitStruct->ETH_PromiscuousMode = ETH_PromiscuousMode_Disable;
 110              		.loc 1 67 5
  67:../Peripheral/src/ch32v30x_eth.c ****     ETH_InitStruct->ETH_PromiscuousMode = ETH_PromiscuousMode_Disable;
 111              		.loc 1 67 47 is_stmt 0
 112 005a 23240504 		sw	zero,72(a0)
  68:../Peripheral/src/ch32v30x_eth.c ****     ETH_InitStruct->ETH_MulticastFramesFilter = ETH_MulticastFramesFilter_Perfect;
 113              		.loc 1 68 5 is_stmt 1
  68:../Peripheral/src/ch32v30x_eth.c ****     ETH_InitStruct->ETH_MulticastFramesFilter = ETH_MulticastFramesFilter_Perfect;
 114              		.loc 1 68 41 is_stmt 0
 115 005e 23260504 		sw	zero,76(a0)
  69:../Peripheral/src/ch32v30x_eth.c ****     ETH_InitStruct->ETH_UnicastFramesFilter = ETH_UnicastFramesFilter_Perfect;
 116              		.loc 1 69 5 is_stmt 1
  69:../Peripheral/src/ch32v30x_eth.c ****     ETH_InitStruct->ETH_UnicastFramesFilter = ETH_UnicastFramesFilter_Perfect;
 117              		.loc 1 69 47 is_stmt 0
 118 0062 23280504 		sw	zero,80(a0)
  70:../Peripheral/src/ch32v30x_eth.c ****     ETH_InitStruct->ETH_HashTableHigh = 0x0;
 119              		.loc 1 70 5 is_stmt 1
  70:../Peripheral/src/ch32v30x_eth.c ****     ETH_InitStruct->ETH_HashTableHigh = 0x0;
 120              		.loc 1 70 45 is_stmt 0
 121 0066 232A0504 		sw	zero,84(a0)
  71:../Peripheral/src/ch32v30x_eth.c ****     ETH_InitStruct->ETH_HashTableLow = 0x0;
 122              		.loc 1 71 5 is_stmt 1
  71:../Peripheral/src/ch32v30x_eth.c ****     ETH_InitStruct->ETH_HashTableLow = 0x0;
 123              		.loc 1 71 39 is_stmt 0
 124 006a 232C0504 		sw	zero,88(a0)
  72:../Peripheral/src/ch32v30x_eth.c ****     ETH_InitStruct->ETH_PauseTime = 0x0;
 125              		.loc 1 72 5 is_stmt 1
  72:../Peripheral/src/ch32v30x_eth.c ****     ETH_InitStruct->ETH_PauseTime = 0x0;
 126              		.loc 1 72 38 is_stmt 0
 127 006e 232E0504 		sw	zero,92(a0)
  73:../Peripheral/src/ch32v30x_eth.c ****     ETH_InitStruct->ETH_ZeroQuantaPause = ETH_ZeroQuantaPause_Disable;
 128              		.loc 1 73 5 is_stmt 1
  73:../Peripheral/src/ch32v30x_eth.c ****     ETH_InitStruct->ETH_ZeroQuantaPause = ETH_ZeroQuantaPause_Disable;
 129              		.loc 1 73 35 is_stmt 0
 130 0072 23200506 		sw	zero,96(a0)
  74:../Peripheral/src/ch32v30x_eth.c ****     ETH_InitStruct->ETH_PauseLowThreshold = ETH_PauseLowThreshold_Minus4;
 131              		.loc 1 74 5 is_stmt 1
  75:../Peripheral/src/ch32v30x_eth.c ****     ETH_InitStruct->ETH_UnicastPauseFrameDetect = ETH_UnicastPauseFrameDetect_Disable;
 132              		.loc 1 75 5
  75:../Peripheral/src/ch32v30x_eth.c ****     ETH_InitStruct->ETH_UnicastPauseFrameDetect = ETH_UnicastPauseFrameDetect_Disable;
 133              		.loc 1 75 43 is_stmt 0
 134 0076 23240506 		sw	zero,104(a0)
  76:../Peripheral/src/ch32v30x_eth.c ****     ETH_InitStruct->ETH_ReceiveFlowControl = ETH_ReceiveFlowControl_Disable;
 135              		.loc 1 76 5 is_stmt 1
  76:../Peripheral/src/ch32v30x_eth.c ****     ETH_InitStruct->ETH_ReceiveFlowControl = ETH_ReceiveFlowControl_Disable;
 136              		.loc 1 76 49 is_stmt 0
 137 007a 23260506 		sw	zero,108(a0)
  77:../Peripheral/src/ch32v30x_eth.c ****     ETH_InitStruct->ETH_TransmitFlowControl = ETH_TransmitFlowControl_Disable;
 138              		.loc 1 77 5 is_stmt 1
  77:../Peripheral/src/ch32v30x_eth.c ****     ETH_InitStruct->ETH_TransmitFlowControl = ETH_TransmitFlowControl_Disable;
 139              		.loc 1 77 44 is_stmt 0
 140 007e 23280506 		sw	zero,112(a0)
  78:../Peripheral/src/ch32v30x_eth.c ****     ETH_InitStruct->ETH_VLANTagComparison = ETH_VLANTagComparison_16Bit;
 141              		.loc 1 78 5 is_stmt 1
  78:../Peripheral/src/ch32v30x_eth.c ****     ETH_InitStruct->ETH_VLANTagComparison = ETH_VLANTagComparison_16Bit;
 142              		.loc 1 78 45 is_stmt 0
 143 0082 232A0506 		sw	zero,116(a0)
  79:../Peripheral/src/ch32v30x_eth.c ****     ETH_InitStruct->ETH_VLANTagIdentifier = 0x0;
 144              		.loc 1 79 5 is_stmt 1
  79:../Peripheral/src/ch32v30x_eth.c ****     ETH_InitStruct->ETH_VLANTagIdentifier = 0x0;
 145              		.loc 1 79 43 is_stmt 0
 146 0086 232C0506 		sw	zero,120(a0)
  80:../Peripheral/src/ch32v30x_eth.c ****     /*------------------------   DMA   -----------------------------------*/
 147              		.loc 1 80 5 is_stmt 1
  80:../Peripheral/src/ch32v30x_eth.c ****     /*------------------------   DMA   -----------------------------------*/
 148              		.loc 1 80 43 is_stmt 0
 149 008a 232E0506 		sw	zero,124(a0)
 150              		.loc 1 82 5 is_stmt 1
 151              		.loc 1 82 53 is_stmt 0
 152 008e 98C3     		sw	a4,0(a5)
  83:../Peripheral/src/ch32v30x_eth.c ****     ETH_InitStruct->ETH_ReceiveStoreForward = ETH_ReceiveStoreForward_Enable;
 153              		.loc 1 83 5 is_stmt 1
 154              		.loc 1 83 45 is_stmt 0
 155 0090 37070002 		li	a4,33554432
 156 0094 D8C3     		sw	a4,4(a5)
  84:../Peripheral/src/ch32v30x_eth.c ****     ETH_InitStruct->ETH_FlushReceivedFrame = ETH_FlushReceivedFrame_Enable;
 157              		.loc 1 84 5 is_stmt 1
 158              		.loc 1 84 44 is_stmt 0
 159 0096 23240508 		sw	zero,136(a0)
  85:../Peripheral/src/ch32v30x_eth.c ****     ETH_InitStruct->ETH_TransmitStoreForward = ETH_TransmitStoreForward_Enable;
 160              		.loc 1 85 5 is_stmt 1
 161              		.loc 1 85 46 is_stmt 0
 162 009a B7062000 		li	a3,2097152
 163 009e D4C7     		sw	a3,12(a5)
  86:../Peripheral/src/ch32v30x_eth.c ****     ETH_InitStruct->ETH_TransmitThresholdControl = ETH_TransmitThresholdControl_64Bytes;
 164              		.loc 1 86 5 is_stmt 1
 165              		.loc 1 86 50 is_stmt 0
 166 00a0 23280508 		sw	zero,144(a0)
  87:../Peripheral/src/ch32v30x_eth.c ****     ETH_InitStruct->ETH_ForwardErrorFrames = ETH_ForwardErrorFrames_Disable;
 167              		.loc 1 87 5 is_stmt 1
 168              		.loc 1 87 44 is_stmt 0
 169 00a4 232A0508 		sw	zero,148(a0)
  88:../Peripheral/src/ch32v30x_eth.c ****     ETH_InitStruct->ETH_ForwardUndersizedGoodFrames = ETH_ForwardUndersizedGoodFrames_Disable;
 170              		.loc 1 88 5 is_stmt 1
 171              		.loc 1 88 53 is_stmt 0
 172 00a8 232C0508 		sw	zero,152(a0)
  89:../Peripheral/src/ch32v30x_eth.c ****     ETH_InitStruct->ETH_ReceiveThresholdControl = ETH_ReceiveThresholdControl_64Bytes;
 173              		.loc 1 89 5 is_stmt 1
 174              		.loc 1 89 49 is_stmt 0
 175 00ac 232E0508 		sw	zero,156(a0)
  90:../Peripheral/src/ch32v30x_eth.c ****     ETH_InitStruct->ETH_SecondFrameOperate = ETH_SecondFrameOperate_Disable;
 176              		.loc 1 90 5 is_stmt 1
 177              		.loc 1 90 44 is_stmt 0
 178 00b0 2320050A 		sw	zero,160(a0)
  91:../Peripheral/src/ch32v30x_eth.c ****     ETH_InitStruct->ETH_AddressAlignedBeats = ETH_AddressAlignedBeats_Enable;
 179              		.loc 1 91 5 is_stmt 1
 180              		.loc 1 91 45 is_stmt 0
 181 00b4 D8D3     		sw	a4,36(a5)
  92:../Peripheral/src/ch32v30x_eth.c ****     ETH_InitStruct->ETH_FixedBurst = ETH_FixedBurst_Disable;
 182              		.loc 1 92 5 is_stmt 1
 183              		.loc 1 92 36 is_stmt 0
 184 00b6 2324050A 		sw	zero,168(a0)
  93:../Peripheral/src/ch32v30x_eth.c ****     ETH_InitStruct->ETH_RxDMABurstLength = ETH_RxDMABurstLength_1Beat;
 185              		.loc 1 93 5 is_stmt 1
 186              		.loc 1 93 42 is_stmt 0
 187 00ba 37070200 		li	a4,131072
 188 00be D8D7     		sw	a4,44(a5)
  94:../Peripheral/src/ch32v30x_eth.c ****     ETH_InitStruct->ETH_TxDMABurstLength = ETH_TxDMABurstLength_1Beat;
 189              		.loc 1 94 5 is_stmt 1
 190              		.loc 1 94 42 is_stmt 0
 191 00c0 13070010 		li	a4,256
 192 00c4 98DB     		sw	a4,48(a5)
  95:../Peripheral/src/ch32v30x_eth.c ****     ETH_InitStruct->ETH_DescriptorSkipLength = 0x0;
 193              		.loc 1 95 5 is_stmt 1
 194              		.loc 1 95 46 is_stmt 0
 195 00c6 232A050A 		sw	zero,180(a0)
  96:../Peripheral/src/ch32v30x_eth.c ****     ETH_InitStruct->ETH_DMAArbitration = ETH_DMAArbitration_RoundRobin_RxTx_1_1;
 196              		.loc 1 96 5 is_stmt 1
 197              		.loc 1 96 40 is_stmt 0
 198 00ca 232C050A 		sw	zero,184(a0)
  97:../Peripheral/src/ch32v30x_eth.c **** }
 199              		.loc 1 97 1
 200 00ce 8280     		ret
 201              		.cfi_endproc
 202              	.LFE30:
 204              		.section	.text.ETH_HandleTxPkt,"ax",@progbits
 205              		.align	1
 206              		.globl	ETH_HandleTxPkt
 208              	ETH_HandleTxPkt:
 209              	.LFB32:
  98:../Peripheral/src/ch32v30x_eth.c **** 
  99:../Peripheral/src/ch32v30x_eth.c **** /*********************************************************************
 100:../Peripheral/src/ch32v30x_eth.c ****  * @fn      ETH_Start
 101:../Peripheral/src/ch32v30x_eth.c ****  *
 102:../Peripheral/src/ch32v30x_eth.c ****  * @brief   Enables ENET MAC and DMA reception/transmission.
 103:../Peripheral/src/ch32v30x_eth.c ****  *
 104:../Peripheral/src/ch32v30x_eth.c ****  * @return  none
 105:../Peripheral/src/ch32v30x_eth.c ****  */
 106:../Peripheral/src/ch32v30x_eth.c **** void ETH_Start(void)
 107:../Peripheral/src/ch32v30x_eth.c **** {
 108:../Peripheral/src/ch32v30x_eth.c ****     ETH_MACTransmissionCmd(ENABLE);
 109:../Peripheral/src/ch32v30x_eth.c ****     ETH_FlushTransmitFIFO();
 110:../Peripheral/src/ch32v30x_eth.c ****     ETH_MACReceptionCmd(ENABLE);
 111:../Peripheral/src/ch32v30x_eth.c ****     ETH_DMATransmissionCmd(ENABLE);
 112:../Peripheral/src/ch32v30x_eth.c ****     ETH_DMAReceptionCmd(ENABLE);
 113:../Peripheral/src/ch32v30x_eth.c **** }
 114:../Peripheral/src/ch32v30x_eth.c **** 
 115:../Peripheral/src/ch32v30x_eth.c **** /*********************************************************************
 116:../Peripheral/src/ch32v30x_eth.c ****  * @fn      ETH_HandleTxPkt
 117:../Peripheral/src/ch32v30x_eth.c ****  *
 118:../Peripheral/src/ch32v30x_eth.c ****  * @brief   Transmits a packet, from application buffer, pointed by ppkt.
 119:../Peripheral/src/ch32v30x_eth.c ****  *
 120:../Peripheral/src/ch32v30x_eth.c ****  * @param   ppkt - pointer to the application's packet buffer to transmit.
 121:../Peripheral/src/ch32v30x_eth.c ****  *          FrameLength - Tx Packet size.
 122:../Peripheral/src/ch32v30x_eth.c ****  *
 123:../Peripheral/src/ch32v30x_eth.c ****  * @return  ETH_ERROR - in case of Tx desc owned by DMA.
 124:../Peripheral/src/ch32v30x_eth.c ****  *          ETH_SUCCESS - for correct transmission.
 125:../Peripheral/src/ch32v30x_eth.c ****  */
 126:../Peripheral/src/ch32v30x_eth.c **** uint32_t ETH_HandleTxPkt(uint8_t *ppkt, uint16_t FrameLength)
 127:../Peripheral/src/ch32v30x_eth.c **** {
 210              		.loc 1 127 1 is_stmt 1
 211              		.cfi_startproc
 212              	.LVL3:
 128:../Peripheral/src/ch32v30x_eth.c ****     uint32_t offset = 0;
 213              		.loc 1 128 5
 129:../Peripheral/src/ch32v30x_eth.c **** 
 130:../Peripheral/src/ch32v30x_eth.c ****     if((DMATxDescToSet->Status & ETH_DMATxDesc_OWN) != (uint32_t)RESET)
 214              		.loc 1 130 5
 215              		.loc 1 130 23 is_stmt 0
 216 0000 97060000 		lla	a3,DMATxDescToSet
 216      93860600 
 217 0008 9C42     		lw	a5,0(a3)
 131:../Peripheral/src/ch32v30x_eth.c ****     {
 132:../Peripheral/src/ch32v30x_eth.c ****         return ETH_ERROR;
 133:../Peripheral/src/ch32v30x_eth.c ****     }
 134:../Peripheral/src/ch32v30x_eth.c **** 
 135:../Peripheral/src/ch32v30x_eth.c ****     for(offset = 0; offset < FrameLength; offset++)
 218              		.loc 1 135 16
 219 000a 0147     		li	a4,0
 130:../Peripheral/src/ch32v30x_eth.c ****     {
 220              		.loc 1 130 23
 221 000c 9C43     		lw	a5,0(a5)
 130:../Peripheral/src/ch32v30x_eth.c ****     {
 222              		.loc 1 130 7
 223 000e 63DB0700 		bge	a5,zero,.L6
 132:../Peripheral/src/ch32v30x_eth.c ****     }
 224              		.loc 1 132 16
 225 0012 0145     		li	a0,0
 226              	.LVL4:
 136:../Peripheral/src/ch32v30x_eth.c ****     {
 137:../Peripheral/src/ch32v30x_eth.c ****         (*(__IO uint8_t *)((DMATxDescToSet->Buffer1Addr) + offset)) = (*(ppkt + offset));
 138:../Peripheral/src/ch32v30x_eth.c ****     }
 139:../Peripheral/src/ch32v30x_eth.c **** 
 140:../Peripheral/src/ch32v30x_eth.c ****     DMATxDescToSet->ControlBufferSize = (FrameLength & ETH_DMATxDesc_TBS1);
 141:../Peripheral/src/ch32v30x_eth.c ****     DMATxDescToSet->Status |= ETH_DMATxDesc_LS | ETH_DMATxDesc_FS;
 142:../Peripheral/src/ch32v30x_eth.c ****     DMATxDescToSet->Status |= ETH_DMATxDesc_OWN;
 143:../Peripheral/src/ch32v30x_eth.c **** 
 144:../Peripheral/src/ch32v30x_eth.c ****     if((ETH->DMASR & ETH_DMASR_TBUS) != (uint32_t)RESET)
 145:../Peripheral/src/ch32v30x_eth.c ****     {
 146:../Peripheral/src/ch32v30x_eth.c ****         ETH->DMASR = ETH_DMASR_TBUS;
 147:../Peripheral/src/ch32v30x_eth.c ****         ETH->DMATPDR = 0;
 148:../Peripheral/src/ch32v30x_eth.c ****     }
 149:../Peripheral/src/ch32v30x_eth.c **** 
 150:../Peripheral/src/ch32v30x_eth.c ****     if((DMATxDescToSet->Status & ETH_DMATxDesc_TCH) != (uint32_t)RESET)
 151:../Peripheral/src/ch32v30x_eth.c ****     {
 152:../Peripheral/src/ch32v30x_eth.c ****         DMATxDescToSet = (ETH_DMADESCTypeDef *)(DMATxDescToSet->Buffer2NextDescAddr);
 153:../Peripheral/src/ch32v30x_eth.c ****     }
 154:../Peripheral/src/ch32v30x_eth.c ****     else
 155:../Peripheral/src/ch32v30x_eth.c ****     {
 156:../Peripheral/src/ch32v30x_eth.c ****         if((DMATxDescToSet->Status & ETH_DMATxDesc_TER) != (uint32_t)RESET)
 157:../Peripheral/src/ch32v30x_eth.c ****         {
 158:../Peripheral/src/ch32v30x_eth.c ****             DMATxDescToSet = (ETH_DMADESCTypeDef *)(ETH->DMATDLAR);
 159:../Peripheral/src/ch32v30x_eth.c ****         }
 160:../Peripheral/src/ch32v30x_eth.c ****         else
 161:../Peripheral/src/ch32v30x_eth.c ****         {
 162:../Peripheral/src/ch32v30x_eth.c ****             DMATxDescToSet = (ETH_DMADESCTypeDef *)((uint32_t)DMATxDescToSet + 0x10 + ((ETH->DMABMR
 163:../Peripheral/src/ch32v30x_eth.c ****         }
 164:../Peripheral/src/ch32v30x_eth.c ****     }
 165:../Peripheral/src/ch32v30x_eth.c **** 
 166:../Peripheral/src/ch32v30x_eth.c ****     return ETH_SUCCESS;
 167:../Peripheral/src/ch32v30x_eth.c **** }
 227              		.loc 1 167 1
 228 0014 8280     		ret
 229              	.LVL5:
 230              	.L7:
 137:../Peripheral/src/ch32v30x_eth.c ****     }
 231              		.loc 1 137 9 is_stmt 1 discriminator 3
 137:../Peripheral/src/ch32v30x_eth.c ****     }
 232              		.loc 1 137 72 is_stmt 0 discriminator 3
 233 0016 3306E500 		add	a2,a0,a4
 137:../Peripheral/src/ch32v30x_eth.c ****     }
 234              		.loc 1 137 58 discriminator 3
 235 001a 9C47     		lw	a5,8(a5)
 137:../Peripheral/src/ch32v30x_eth.c ****     }
 236              		.loc 1 137 72 discriminator 3
 237 001c 1022     		lbu	a2,0(a2)
 137:../Peripheral/src/ch32v30x_eth.c ****     }
 238              		.loc 1 137 58 discriminator 3
 239 001e BA97     		add	a5,a4,a5
 137:../Peripheral/src/ch32v30x_eth.c ****     }
 240              		.loc 1 137 69 discriminator 3
 241 0020 90A3     		sb	a2,0(a5)
 135:../Peripheral/src/ch32v30x_eth.c ****     {
 242              		.loc 1 135 49 is_stmt 1 discriminator 3
 243 0022 0507     		addi	a4,a4,1
 244              	.LVL6:
 245              	.L6:
 135:../Peripheral/src/ch32v30x_eth.c ****     {
 246              		.loc 1 135 28 discriminator 1
 137:../Peripheral/src/ch32v30x_eth.c ****     }
 247              		.loc 1 137 43 is_stmt 0 discriminator 1
 248 0024 9C42     		lw	a5,0(a3)
 135:../Peripheral/src/ch32v30x_eth.c ****     {
 249              		.loc 1 135 28 discriminator 1
 250 0026 E368B7FE 		bgtu	a1,a4,.L7
 140:../Peripheral/src/ch32v30x_eth.c ****     DMATxDescToSet->Status |= ETH_DMATxDesc_LS | ETH_DMATxDesc_FS;
 251              		.loc 1 140 5 is_stmt 1
 141:../Peripheral/src/ch32v30x_eth.c ****     DMATxDescToSet->Status |= ETH_DMATxDesc_OWN;
 252              		.loc 1 141 19 is_stmt 0
 253 002a 9843     		lw	a4,0(a5)
 254              	.LVL7:
 141:../Peripheral/src/ch32v30x_eth.c ****     DMATxDescToSet->Status |= ETH_DMATxDesc_OWN;
 255              		.loc 1 141 28
 256 002c 37060030 		li	a2,805306368
 140:../Peripheral/src/ch32v30x_eth.c ****     DMATxDescToSet->Status |= ETH_DMATxDesc_LS | ETH_DMATxDesc_FS;
 257              		.loc 1 140 54
 258 0030 CE05     		slli	a1,a1,19
 259              	.LVL8:
 141:../Peripheral/src/ch32v30x_eth.c ****     DMATxDescToSet->Status |= ETH_DMATxDesc_OWN;
 260              		.loc 1 141 28
 261 0032 518F     		or	a4,a4,a2
 262 0034 98C3     		sw	a4,0(a5)
 142:../Peripheral/src/ch32v30x_eth.c **** 
 263              		.loc 1 142 19
 264 0036 9843     		lw	a4,0(a5)
 142:../Peripheral/src/ch32v30x_eth.c **** 
 265              		.loc 1 142 28
 266 0038 37060080 		li	a2,-2147483648
 140:../Peripheral/src/ch32v30x_eth.c ****     DMATxDescToSet->Status |= ETH_DMATxDesc_LS | ETH_DMATxDesc_FS;
 267              		.loc 1 140 54
 268 003c CD81     		srli	a1,a1,19
 142:../Peripheral/src/ch32v30x_eth.c **** 
 269              		.loc 1 142 28
 270 003e 518F     		or	a4,a4,a2
 271 0040 98C3     		sw	a4,0(a5)
 140:../Peripheral/src/ch32v30x_eth.c ****     DMATxDescToSet->Status |= ETH_DMATxDesc_LS | ETH_DMATxDesc_FS;
 272              		.loc 1 140 54
 273 0042 CCC3     		sw	a1,4(a5)
 141:../Peripheral/src/ch32v30x_eth.c ****     DMATxDescToSet->Status |= ETH_DMATxDesc_OWN;
 274              		.loc 1 141 5 is_stmt 1
 142:../Peripheral/src/ch32v30x_eth.c **** 
 275              		.loc 1 142 5
 144:../Peripheral/src/ch32v30x_eth.c ****     {
 276              		.loc 1 144 5
 144:../Peripheral/src/ch32v30x_eth.c ****     {
 277              		.loc 1 144 12 is_stmt 0
 278 0044 37970240 		li	a4,1073909760
 279 0048 504B     		lw	a2,20(a4)
 144:../Peripheral/src/ch32v30x_eth.c ****     {
 280              		.loc 1 144 20
 281 004a 118A     		andi	a2,a2,4
 144:../Peripheral/src/ch32v30x_eth.c ****     {
 282              		.loc 1 144 7
 283 004c 09C6     		beq	a2,zero,.L8
 146:../Peripheral/src/ch32v30x_eth.c ****         ETH->DMATPDR = 0;
 284              		.loc 1 146 9 is_stmt 1
 146:../Peripheral/src/ch32v30x_eth.c ****         ETH->DMATPDR = 0;
 285              		.loc 1 146 20 is_stmt 0
 286 004e 1146     		li	a2,4
 287 0050 50CB     		sw	a2,20(a4)
 147:../Peripheral/src/ch32v30x_eth.c ****     }
 288              		.loc 1 147 9 is_stmt 1
 147:../Peripheral/src/ch32v30x_eth.c ****     }
 289              		.loc 1 147 22 is_stmt 0
 290 0052 23220700 		sw	zero,4(a4)
 291              	.L8:
 150:../Peripheral/src/ch32v30x_eth.c ****     {
 292              		.loc 1 150 5 is_stmt 1
 150:../Peripheral/src/ch32v30x_eth.c ****     {
 293              		.loc 1 150 23 is_stmt 0
 294 0056 9843     		lw	a4,0(a5)
 150:../Peripheral/src/ch32v30x_eth.c ****     {
 295              		.loc 1 150 32
 296 0058 37061000 		li	a2,1048576
 297 005c 718F     		and	a4,a4,a2
 150:../Peripheral/src/ch32v30x_eth.c ****     {
 298              		.loc 1 150 7
 299 005e 09C7     		beq	a4,zero,.L9
 152:../Peripheral/src/ch32v30x_eth.c ****     }
 300              		.loc 1 152 9 is_stmt 1
 152:../Peripheral/src/ch32v30x_eth.c ****     }
 301              		.loc 1 152 26 is_stmt 0
 302 0060 DC47     		lw	a5,12(a5)
 303              	.L11:
 152:../Peripheral/src/ch32v30x_eth.c ****     }
 304              		.loc 1 152 24
 305 0062 9CC2     		sw	a5,0(a3)
 166:../Peripheral/src/ch32v30x_eth.c **** }
 306              		.loc 1 166 12
 307 0064 0545     		li	a0,1
 308              	.LVL9:
 309 0066 8280     		ret
 310              	.LVL10:
 311              	.L9:
 156:../Peripheral/src/ch32v30x_eth.c ****         {
 312              		.loc 1 156 9 is_stmt 1
 156:../Peripheral/src/ch32v30x_eth.c ****         {
 313              		.loc 1 156 27 is_stmt 0
 314 0068 9843     		lw	a4,0(a5)
 156:../Peripheral/src/ch32v30x_eth.c ****         {
 315              		.loc 1 156 36
 316 006a 37062000 		li	a2,2097152
 317 006e 718F     		and	a4,a4,a2
 156:../Peripheral/src/ch32v30x_eth.c ****         {
 318              		.loc 1 156 11
 319 0070 09C7     		beq	a4,zero,.L10
 158:../Peripheral/src/ch32v30x_eth.c ****         }
 320              		.loc 1 158 13 is_stmt 1
 158:../Peripheral/src/ch32v30x_eth.c ****         }
 321              		.loc 1 158 56 is_stmt 0
 322 0072 B7970240 		li	a5,1073909760
 323 0076 9C4B     		lw	a5,16(a5)
 324 0078 EDB7     		j	.L11
 325              	.L10:
 162:../Peripheral/src/ch32v30x_eth.c ****         }
 326              		.loc 1 162 13 is_stmt 1
 162:../Peripheral/src/ch32v30x_eth.c ****         }
 327              		.loc 1 162 92 is_stmt 0
 328 007a 37970240 		li	a4,1073909760
 329 007e 1843     		lw	a4,0(a4)
 162:../Peripheral/src/ch32v30x_eth.c ****         }
 330              		.loc 1 162 85
 331 0080 C107     		addi	a5,a5,16
 162:../Peripheral/src/ch32v30x_eth.c ****         }
 332              		.loc 1 162 119
 333 0082 0983     		srli	a4,a4,2
 334 0084 7D8B     		andi	a4,a4,31
 162:../Peripheral/src/ch32v30x_eth.c ****         }
 335              		.loc 1 162 85
 336 0086 BA97     		add	a5,a4,a5
 337 0088 E9BF     		j	.L11
 338              		.cfi_endproc
 339              	.LFE32:
 341              		.section	.text.ETH_HandleRxPkt,"ax",@progbits
 342              		.align	1
 343              		.globl	ETH_HandleRxPkt
 345              	ETH_HandleRxPkt:
 346              	.LFB33:
 168:../Peripheral/src/ch32v30x_eth.c **** 
 169:../Peripheral/src/ch32v30x_eth.c **** /*********************************************************************
 170:../Peripheral/src/ch32v30x_eth.c ****  * @fn      ETH_HandleRxPkt
 171:../Peripheral/src/ch32v30x_eth.c ****  *
 172:../Peripheral/src/ch32v30x_eth.c ****  * @brief   Receives a packet and copies it to memory pointed by ppkt.
 173:../Peripheral/src/ch32v30x_eth.c ****  *
 174:../Peripheral/src/ch32v30x_eth.c ****  * @param   ppkt - pointer to the application packet receive buffer.
 175:../Peripheral/src/ch32v30x_eth.c ****  *
 176:../Peripheral/src/ch32v30x_eth.c ****  * @return  ETH_ERROR - if there is error in reception
 177:../Peripheral/src/ch32v30x_eth.c ****  *          framelength - received packet size if packet reception is correct
 178:../Peripheral/src/ch32v30x_eth.c ****  */
 179:../Peripheral/src/ch32v30x_eth.c **** uint32_t ETH_HandleRxPkt(uint8_t *ppkt)
 180:../Peripheral/src/ch32v30x_eth.c **** {
 347              		.loc 1 180 1 is_stmt 1
 348              		.cfi_startproc
 349              	.LVL11:
 181:../Peripheral/src/ch32v30x_eth.c ****     uint32_t offset = 0, framelength = 0;
 350              		.loc 1 181 5
 182:../Peripheral/src/ch32v30x_eth.c **** 
 183:../Peripheral/src/ch32v30x_eth.c ****     if((DMARxDescToGet->Status & ETH_DMARxDesc_OWN) != (uint32_t)RESET)
 351              		.loc 1 183 5
 352              		.loc 1 183 23 is_stmt 0
 353 0000 97060000 		lla	a3,DMARxDescToGet
 353      93860600 
 354 0008 9842     		lw	a4,0(a3)
 180:../Peripheral/src/ch32v30x_eth.c ****     uint32_t offset = 0, framelength = 0;
 355              		.loc 1 180 1
 356 000a 2A86     		mv	a2,a0
 357              		.loc 1 183 23
 358 000c 1C43     		lw	a5,0(a4)
 359              		.loc 1 183 7
 360 000e 63C40708 		blt	a5,zero,.L25
 184:../Peripheral/src/ch32v30x_eth.c ****     {
 185:../Peripheral/src/ch32v30x_eth.c ****         return ETH_ERROR;
 186:../Peripheral/src/ch32v30x_eth.c ****     }
 187:../Peripheral/src/ch32v30x_eth.c **** 
 188:../Peripheral/src/ch32v30x_eth.c ****     if(((DMARxDescToGet->Status & ETH_DMARxDesc_ES) == (uint32_t)RESET) &&
 361              		.loc 1 188 5 is_stmt 1
 362              		.loc 1 188 24 is_stmt 0
 363 0012 1C43     		lw	a5,0(a4)
 364              		.loc 1 188 33
 365 0014 A165     		li	a1,32768
 189:../Peripheral/src/ch32v30x_eth.c ****        ((DMARxDescToGet->Status & ETH_DMARxDesc_LS) != (uint32_t)RESET) &&
 190:../Peripheral/src/ch32v30x_eth.c ****        ((DMARxDescToGet->Status & ETH_DMARxDesc_FS) != (uint32_t)RESET))
 191:../Peripheral/src/ch32v30x_eth.c ****     {
 192:../Peripheral/src/ch32v30x_eth.c ****         framelength = ((DMARxDescToGet->Status & ETH_DMARxDesc_FL) >> ETH_DMARXDESC_FRAME_LENGTHSHI
 193:../Peripheral/src/ch32v30x_eth.c **** 
 194:../Peripheral/src/ch32v30x_eth.c ****         for(offset = 0; offset < framelength; offset++)
 195:../Peripheral/src/ch32v30x_eth.c ****         {
 196:../Peripheral/src/ch32v30x_eth.c ****             (*(ppkt + offset)) = (*(__IO uint8_t *)((DMARxDescToGet->Buffer1Addr) + offset));
 197:../Peripheral/src/ch32v30x_eth.c ****         }
 198:../Peripheral/src/ch32v30x_eth.c ****     }
 199:../Peripheral/src/ch32v30x_eth.c ****     else
 200:../Peripheral/src/ch32v30x_eth.c ****     {
 201:../Peripheral/src/ch32v30x_eth.c ****         framelength = ETH_ERROR;
 366              		.loc 1 201 21
 367 0016 0145     		li	a0,0
 368              	.LVL12:
 188:../Peripheral/src/ch32v30x_eth.c ****        ((DMARxDescToGet->Status & ETH_DMARxDesc_LS) != (uint32_t)RESET) &&
 369              		.loc 1 188 33
 370 0018 ED8F     		and	a5,a5,a1
 188:../Peripheral/src/ch32v30x_eth.c ****        ((DMARxDescToGet->Status & ETH_DMARxDesc_LS) != (uint32_t)RESET) &&
 371              		.loc 1 188 7
 372 001a 8DE3     		bne	a5,zero,.L18
 189:../Peripheral/src/ch32v30x_eth.c ****        ((DMARxDescToGet->Status & ETH_DMARxDesc_LS) != (uint32_t)RESET) &&
 373              		.loc 1 189 24 discriminator 1
 374 001c 0843     		lw	a0,0(a4)
 189:../Peripheral/src/ch32v30x_eth.c ****        ((DMARxDescToGet->Status & ETH_DMARxDesc_LS) != (uint32_t)RESET) &&
 375              		.loc 1 189 33 discriminator 1
 376 001e 13750510 		andi	a0,a0,256
 188:../Peripheral/src/ch32v30x_eth.c ****        ((DMARxDescToGet->Status & ETH_DMARxDesc_LS) != (uint32_t)RESET) &&
 377              		.loc 1 188 73 discriminator 1
 378 0022 09CD     		beq	a0,zero,.L18
 190:../Peripheral/src/ch32v30x_eth.c ****     {
 379              		.loc 1 190 24
 380 0024 0843     		lw	a0,0(a4)
 190:../Peripheral/src/ch32v30x_eth.c ****     {
 381              		.loc 1 190 33
 382 0026 13750520 		andi	a0,a0,512
 189:../Peripheral/src/ch32v30x_eth.c ****        ((DMARxDescToGet->Status & ETH_DMARxDesc_LS) != (uint32_t)RESET) &&
 383              		.loc 1 189 73
 384 002a 09C9     		beq	a0,zero,.L18
 192:../Peripheral/src/ch32v30x_eth.c **** 
 385              		.loc 1 192 9 is_stmt 1
 192:../Peripheral/src/ch32v30x_eth.c **** 
 386              		.loc 1 192 39 is_stmt 0
 387 002c 1843     		lw	a4,0(a4)
 192:../Peripheral/src/ch32v30x_eth.c **** 
 388              		.loc 1 192 68
 389 002e 0A07     		slli	a4,a4,2
 390 0030 4983     		srli	a4,a4,18
 192:../Peripheral/src/ch32v30x_eth.c **** 
 391              		.loc 1 192 21
 392 0032 1305C7FF 		addi	a0,a4,-4
 393              	.LVL13:
 194:../Peripheral/src/ch32v30x_eth.c ****         {
 394              		.loc 1 194 9 is_stmt 1
 395              	.L19:
 194:../Peripheral/src/ch32v30x_eth.c ****         {
 396              		.loc 1 194 32 discriminator 1
 196:../Peripheral/src/ch32v30x_eth.c ****         }
 397              		.loc 1 196 68 is_stmt 0 discriminator 1
 398 0036 9842     		lw	a4,0(a3)
 194:../Peripheral/src/ch32v30x_eth.c ****         {
 399              		.loc 1 194 32 discriminator 1
 400 0038 63E8A702 		bltu	a5,a0,.L20
 401              	.LVL14:
 402              	.L18:
 202:../Peripheral/src/ch32v30x_eth.c ****     }
 203:../Peripheral/src/ch32v30x_eth.c **** 
 204:../Peripheral/src/ch32v30x_eth.c ****     DMARxDescToGet->Status = ETH_DMARxDesc_OWN;
 403              		.loc 1 204 5 is_stmt 1
 404              		.loc 1 204 19 is_stmt 0
 405 003c 9842     		lw	a4,0(a3)
 406              		.loc 1 204 28
 407 003e B7070080 		li	a5,-2147483648
 408 0042 1CC3     		sw	a5,0(a4)
 205:../Peripheral/src/ch32v30x_eth.c **** 
 206:../Peripheral/src/ch32v30x_eth.c ****     if((ETH->DMASR & ETH_DMASR_RBUS) != (uint32_t)RESET)
 409              		.loc 1 206 5 is_stmt 1
 410              		.loc 1 206 12 is_stmt 0
 411 0044 B7970240 		li	a5,1073909760
 412 0048 D04B     		lw	a2,20(a5)
 413              	.LVL15:
 414              		.loc 1 206 20
 415 004a 13760608 		andi	a2,a2,128
 416              		.loc 1 206 7
 417 004e 11C6     		beq	a2,zero,.L21
 207:../Peripheral/src/ch32v30x_eth.c ****     {
 208:../Peripheral/src/ch32v30x_eth.c ****         ETH->DMASR = ETH_DMASR_RBUS;
 418              		.loc 1 208 9 is_stmt 1
 419              		.loc 1 208 20 is_stmt 0
 420 0050 13060008 		li	a2,128
 421 0054 D0CB     		sw	a2,20(a5)
 209:../Peripheral/src/ch32v30x_eth.c ****         ETH->DMARPDR = 0;
 422              		.loc 1 209 9 is_stmt 1
 423              		.loc 1 209 22 is_stmt 0
 424 0056 23A40700 		sw	zero,8(a5)
 425              	.L21:
 210:../Peripheral/src/ch32v30x_eth.c ****     }
 211:../Peripheral/src/ch32v30x_eth.c **** 
 212:../Peripheral/src/ch32v30x_eth.c ****     if((DMARxDescToGet->ControlBufferSize & ETH_DMARxDesc_RCH) != (uint32_t)RESET)
 426              		.loc 1 212 5 is_stmt 1
 427              		.loc 1 212 23 is_stmt 0
 428 005a 5C43     		lw	a5,4(a4)
 429              		.loc 1 212 43
 430 005c 1166     		li	a2,16384
 431 005e 7D8E     		and	a2,a5,a2
 432              		.loc 1 212 7
 433 0060 01CE     		beq	a2,zero,.L22
 213:../Peripheral/src/ch32v30x_eth.c ****     {
 214:../Peripheral/src/ch32v30x_eth.c ****         DMARxDescToGet = (ETH_DMADESCTypeDef *)(DMARxDescToGet->Buffer2NextDescAddr);
 434              		.loc 1 214 9 is_stmt 1
 435              		.loc 1 214 26 is_stmt 0
 436 0062 5C47     		lw	a5,12(a4)
 437              	.L24:
 438              		.loc 1 214 24
 439 0064 9CC2     		sw	a5,0(a3)
 440 0066 8280     		ret
 441              	.LVL16:
 442              	.L20:
 196:../Peripheral/src/ch32v30x_eth.c ****         }
 443              		.loc 1 196 13 is_stmt 1 discriminator 3
 196:../Peripheral/src/ch32v30x_eth.c ****         }
 444              		.loc 1 196 83 is_stmt 0 discriminator 3
 445 0068 1847     		lw	a4,8(a4)
 446 006a 3E97     		add	a4,a5,a4
 196:../Peripheral/src/ch32v30x_eth.c ****         }
 447              		.loc 1 196 35 discriminator 3
 448 006c 0C23     		lbu	a1,0(a4)
 196:../Peripheral/src/ch32v30x_eth.c ****         }
 449              		.loc 1 196 32 discriminator 3
 450 006e 3307F600 		add	a4,a2,a5
 194:../Peripheral/src/ch32v30x_eth.c ****         {
 451              		.loc 1 194 53 discriminator 3
 452 0072 8507     		addi	a5,a5,1
 453              	.LVL17:
 196:../Peripheral/src/ch32v30x_eth.c ****         }
 454              		.loc 1 196 32 discriminator 3
 455 0074 0CA3     		sb	a1,0(a4)
 194:../Peripheral/src/ch32v30x_eth.c ****         {
 456              		.loc 1 194 53 is_stmt 1 discriminator 3
 457              	.LVL18:
 458 0076 C1B7     		j	.L19
 459              	.LVL19:
 460              	.L22:
 215:../Peripheral/src/ch32v30x_eth.c ****     }
 216:../Peripheral/src/ch32v30x_eth.c ****     else
 217:../Peripheral/src/ch32v30x_eth.c ****     {
 218:../Peripheral/src/ch32v30x_eth.c ****         if((DMARxDescToGet->ControlBufferSize & ETH_DMARxDesc_RER) != (uint32_t)RESET)
 461              		.loc 1 218 9
 462              		.loc 1 218 47 is_stmt 0
 463 0078 2166     		li	a2,32768
 464 007a F18F     		and	a5,a5,a2
 465              		.loc 1 218 11
 466 007c 89C7     		beq	a5,zero,.L23
 219:../Peripheral/src/ch32v30x_eth.c ****         {
 220:../Peripheral/src/ch32v30x_eth.c ****             DMARxDescToGet = (ETH_DMADESCTypeDef *)(ETH->DMARDLAR);
 467              		.loc 1 220 13 is_stmt 1
 468              		.loc 1 220 56 is_stmt 0
 469 007e B7970240 		li	a5,1073909760
 470 0082 DC47     		lw	a5,12(a5)
 471 0084 C5B7     		j	.L24
 472              	.L23:
 221:../Peripheral/src/ch32v30x_eth.c ****         }
 222:../Peripheral/src/ch32v30x_eth.c ****         else
 223:../Peripheral/src/ch32v30x_eth.c ****         {
 224:../Peripheral/src/ch32v30x_eth.c ****             DMARxDescToGet = (ETH_DMADESCTypeDef *)((uint32_t)DMARxDescToGet + 0x10 + ((ETH->DMABMR
 473              		.loc 1 224 13 is_stmt 1
 474              		.loc 1 224 92 is_stmt 0
 475 0086 B7970240 		li	a5,1073909760
 476 008a 9C43     		lw	a5,0(a5)
 477              		.loc 1 224 85
 478 008c 4107     		addi	a4,a4,16
 479              		.loc 1 224 119
 480 008e 8983     		srli	a5,a5,2
 481 0090 FD8B     		andi	a5,a5,31
 482              		.loc 1 224 85
 483 0092 BA97     		add	a5,a5,a4
 484 0094 C1BF     		j	.L24
 485              	.LVL20:
 486              	.L25:
 185:../Peripheral/src/ch32v30x_eth.c ****     }
 487              		.loc 1 185 16
 488 0096 0145     		li	a0,0
 489              	.LVL21:
 225:../Peripheral/src/ch32v30x_eth.c ****         }
 226:../Peripheral/src/ch32v30x_eth.c ****     }
 227:../Peripheral/src/ch32v30x_eth.c **** 
 228:../Peripheral/src/ch32v30x_eth.c ****     return (framelength);
 229:../Peripheral/src/ch32v30x_eth.c **** }
 490              		.loc 1 229 1
 491 0098 8280     		ret
 492              		.cfi_endproc
 493              	.LFE33:
 495              		.section	.text.ETH_GetRxPktSize,"ax",@progbits
 496              		.align	1
 497              		.globl	ETH_GetRxPktSize
 499              	ETH_GetRxPktSize:
 500              	.LFB34:
 230:../Peripheral/src/ch32v30x_eth.c **** 
 231:../Peripheral/src/ch32v30x_eth.c **** /*********************************************************************
 232:../Peripheral/src/ch32v30x_eth.c ****  * @fn      ETH_GetRxPktSize
 233:../Peripheral/src/ch32v30x_eth.c ****  *
 234:../Peripheral/src/ch32v30x_eth.c ****  * @brief   Get the size of received the received packet.
 235:../Peripheral/src/ch32v30x_eth.c ****  *
 236:../Peripheral/src/ch32v30x_eth.c ****  * @return  framelength - received packet size
 237:../Peripheral/src/ch32v30x_eth.c ****  */
 238:../Peripheral/src/ch32v30x_eth.c **** uint32_t ETH_GetRxPktSize(void)
 239:../Peripheral/src/ch32v30x_eth.c **** {
 501              		.loc 1 239 1 is_stmt 1
 502              		.cfi_startproc
 240:../Peripheral/src/ch32v30x_eth.c ****     uint32_t frameLength = 0;
 503              		.loc 1 240 5
 504              	.LVL22:
 241:../Peripheral/src/ch32v30x_eth.c ****     if(((DMARxDescToGet->Status & ETH_DMARxDesc_OWN) == (uint32_t)RESET) &&
 505              		.loc 1 241 5
 506              		.loc 1 241 24 is_stmt 0
 507 0000 97070000 		lw	a5,DMARxDescToGet
 507      83A70700 
 508 0008 9843     		lw	a4,0(a5)
 240:../Peripheral/src/ch32v30x_eth.c ****     uint32_t frameLength = 0;
 509              		.loc 1 240 14
 510 000a 0145     		li	a0,0
 511              		.loc 1 241 7
 512 000c 63410702 		blt	a4,zero,.L36
 242:../Peripheral/src/ch32v30x_eth.c ****        ((DMARxDescToGet->Status & ETH_DMARxDesc_ES) == (uint32_t)RESET) &&
 513              		.loc 1 242 24 discriminator 1
 514 0010 9843     		lw	a4,0(a5)
 515              		.loc 1 242 33 discriminator 1
 516 0012 A166     		li	a3,32768
 517 0014 758F     		and	a4,a4,a3
 241:../Peripheral/src/ch32v30x_eth.c ****     if(((DMARxDescToGet->Status & ETH_DMARxDesc_OWN) == (uint32_t)RESET) &&
 518              		.loc 1 241 74 discriminator 1
 519 0016 01EF     		bne	a4,zero,.L36
 243:../Peripheral/src/ch32v30x_eth.c ****        ((DMARxDescToGet->Status & ETH_DMARxDesc_LS) != (uint32_t)RESET) &&
 520              		.loc 1 243 24
 521 0018 8843     		lw	a0,0(a5)
 522              		.loc 1 243 33
 523 001a 13750510 		andi	a0,a0,256
 242:../Peripheral/src/ch32v30x_eth.c ****        ((DMARxDescToGet->Status & ETH_DMARxDesc_ES) == (uint32_t)RESET) &&
 524              		.loc 1 242 73
 525 001e 01C9     		beq	a0,zero,.L36
 244:../Peripheral/src/ch32v30x_eth.c ****        ((DMARxDescToGet->Status & ETH_DMARxDesc_FS) != (uint32_t)RESET))
 526              		.loc 1 244 24
 527 0020 8843     		lw	a0,0(a5)
 528              		.loc 1 244 33
 529 0022 13750520 		andi	a0,a0,512
 243:../Peripheral/src/ch32v30x_eth.c ****        ((DMARxDescToGet->Status & ETH_DMARxDesc_LS) != (uint32_t)RESET) &&
 530              		.loc 1 243 73
 531 0026 01C5     		beq	a0,zero,.L36
 245:../Peripheral/src/ch32v30x_eth.c ****     {
 246:../Peripheral/src/ch32v30x_eth.c ****         frameLength = ETH_GetDMARxDescFrameLength(DMARxDescToGet);
 532              		.loc 1 246 9 is_stmt 1
 533              	.LVL23:
 534              	.LBB12:
 535              	.LBB13:
 247:../Peripheral/src/ch32v30x_eth.c ****     }
 248:../Peripheral/src/ch32v30x_eth.c **** 
 249:../Peripheral/src/ch32v30x_eth.c ****     return frameLength;
 250:../Peripheral/src/ch32v30x_eth.c **** }
 251:../Peripheral/src/ch32v30x_eth.c **** 
 252:../Peripheral/src/ch32v30x_eth.c **** /*********************************************************************
 253:../Peripheral/src/ch32v30x_eth.c ****  * @fn      ETH_DropRxPkt
 254:../Peripheral/src/ch32v30x_eth.c ****  *
 255:../Peripheral/src/ch32v30x_eth.c ****  * @brief   Drop a Received packet.
 256:../Peripheral/src/ch32v30x_eth.c ****  *
 257:../Peripheral/src/ch32v30x_eth.c ****  * @return  none
 258:../Peripheral/src/ch32v30x_eth.c ****  */
 259:../Peripheral/src/ch32v30x_eth.c **** void ETH_DropRxPkt(void)
 260:../Peripheral/src/ch32v30x_eth.c **** {
 261:../Peripheral/src/ch32v30x_eth.c ****     DMARxDescToGet->Status = ETH_DMARxDesc_OWN;
 262:../Peripheral/src/ch32v30x_eth.c **** 
 263:../Peripheral/src/ch32v30x_eth.c ****     if((DMARxDescToGet->ControlBufferSize & ETH_DMARxDesc_RCH) != (uint32_t)RESET)
 264:../Peripheral/src/ch32v30x_eth.c ****     {
 265:../Peripheral/src/ch32v30x_eth.c ****         DMARxDescToGet = (ETH_DMADESCTypeDef *)(DMARxDescToGet->Buffer2NextDescAddr);
 266:../Peripheral/src/ch32v30x_eth.c ****     }
 267:../Peripheral/src/ch32v30x_eth.c ****     else
 268:../Peripheral/src/ch32v30x_eth.c ****     {
 269:../Peripheral/src/ch32v30x_eth.c ****         if((DMARxDescToGet->ControlBufferSize & ETH_DMARxDesc_RER) != (uint32_t)RESET)
 270:../Peripheral/src/ch32v30x_eth.c ****         {
 271:../Peripheral/src/ch32v30x_eth.c ****             DMARxDescToGet = (ETH_DMADESCTypeDef *)(ETH->DMARDLAR);
 272:../Peripheral/src/ch32v30x_eth.c ****         }
 273:../Peripheral/src/ch32v30x_eth.c ****         else
 274:../Peripheral/src/ch32v30x_eth.c ****         {
 275:../Peripheral/src/ch32v30x_eth.c ****             DMARxDescToGet = (ETH_DMADESCTypeDef *)((uint32_t)DMARxDescToGet + 0x10 + ((ETH->DMABMR
 276:../Peripheral/src/ch32v30x_eth.c ****         }
 277:../Peripheral/src/ch32v30x_eth.c ****     }
 278:../Peripheral/src/ch32v30x_eth.c **** }
 279:../Peripheral/src/ch32v30x_eth.c **** 
 280:../Peripheral/src/ch32v30x_eth.c **** /*********************************************************************
 281:../Peripheral/src/ch32v30x_eth.c ****  * @fn      ETH_ReadPHYRegister
 282:../Peripheral/src/ch32v30x_eth.c ****  *
 283:../Peripheral/src/ch32v30x_eth.c ****  * @brief   Read a PHY register.
 284:../Peripheral/src/ch32v30x_eth.c ****  *
 285:../Peripheral/src/ch32v30x_eth.c ****  * @param   PHYAddress - PHY device address, is the index of one of supported 32 PHY devices.
 286:../Peripheral/src/ch32v30x_eth.c ****  *          PHYReg - PHY register address, is the index of one of the 32 PHY register.
 287:../Peripheral/src/ch32v30x_eth.c ****  *
 288:../Peripheral/src/ch32v30x_eth.c ****  * @return  ETH_ERROR - in case of timeout.
 289:../Peripheral/src/ch32v30x_eth.c ****  *          MAC MIIDR register value - Data read from the selected PHY register.
 290:../Peripheral/src/ch32v30x_eth.c ****  */
 291:../Peripheral/src/ch32v30x_eth.c **** uint16_t ETH_ReadPHYRegister(uint16_t PHYAddress, uint16_t PHYReg)
 292:../Peripheral/src/ch32v30x_eth.c **** {
 293:../Peripheral/src/ch32v30x_eth.c ****     uint32_t      tmpreg = 0;
 294:../Peripheral/src/ch32v30x_eth.c ****     __IO uint32_t timeout = 0;
 295:../Peripheral/src/ch32v30x_eth.c **** 
 296:../Peripheral/src/ch32v30x_eth.c ****     tmpreg = ETH->MACMIIAR;
 297:../Peripheral/src/ch32v30x_eth.c ****     tmpreg &= ~MACMIIAR_CR_MASK;
 298:../Peripheral/src/ch32v30x_eth.c ****     tmpreg |= (((uint32_t)PHYAddress << 11) & ETH_MACMIIAR_PA);
 299:../Peripheral/src/ch32v30x_eth.c ****     tmpreg |= (((uint32_t)PHYReg << 6) & ETH_MACMIIAR_MR);
 300:../Peripheral/src/ch32v30x_eth.c ****     tmpreg &= ~ETH_MACMIIAR_MW;
 301:../Peripheral/src/ch32v30x_eth.c ****     tmpreg |= ETH_MACMIIAR_MB;
 302:../Peripheral/src/ch32v30x_eth.c ****     ETH->MACMIIAR = tmpreg;
 303:../Peripheral/src/ch32v30x_eth.c **** 
 304:../Peripheral/src/ch32v30x_eth.c ****     do
 305:../Peripheral/src/ch32v30x_eth.c ****     {
 306:../Peripheral/src/ch32v30x_eth.c ****         timeout++;
 307:../Peripheral/src/ch32v30x_eth.c ****         tmpreg = ETH->MACMIIAR;
 308:../Peripheral/src/ch32v30x_eth.c ****     } while((tmpreg & ETH_MACMIIAR_MB) && (timeout < (uint32_t)PHY_READ_TO));
 309:../Peripheral/src/ch32v30x_eth.c **** 
 310:../Peripheral/src/ch32v30x_eth.c ****     if(timeout == PHY_READ_TO)
 311:../Peripheral/src/ch32v30x_eth.c ****     {
 312:../Peripheral/src/ch32v30x_eth.c ****         return (uint16_t)ETH_ERROR;
 313:../Peripheral/src/ch32v30x_eth.c ****     }
 314:../Peripheral/src/ch32v30x_eth.c **** 
 315:../Peripheral/src/ch32v30x_eth.c ****     return (uint16_t)(ETH->MACMIIDR);
 316:../Peripheral/src/ch32v30x_eth.c **** }
 317:../Peripheral/src/ch32v30x_eth.c **** 
 318:../Peripheral/src/ch32v30x_eth.c **** /*********************************************************************
 319:../Peripheral/src/ch32v30x_eth.c ****  * @fn      ETH_WritePHYRegister
 320:../Peripheral/src/ch32v30x_eth.c ****  *
 321:../Peripheral/src/ch32v30x_eth.c ****  * @brief   Write to a PHY register.
 322:../Peripheral/src/ch32v30x_eth.c ****  *
 323:../Peripheral/src/ch32v30x_eth.c ****  * @param   PHYAddress - PHY device address, is the index of one of supported 32 PHY devices.
 324:../Peripheral/src/ch32v30x_eth.c ****  *          PHYReg - PHY register address, is the index of one of the 32 PHY register.
 325:../Peripheral/src/ch32v30x_eth.c ****  *          PHYValue - the value to write.
 326:../Peripheral/src/ch32v30x_eth.c ****  *
 327:../Peripheral/src/ch32v30x_eth.c ****  * @return  ETH_ERROR - in case of timeout.
 328:../Peripheral/src/ch32v30x_eth.c ****  *          ETH_SUCCESS - for correct write
 329:../Peripheral/src/ch32v30x_eth.c ****  */
 330:../Peripheral/src/ch32v30x_eth.c **** uint32_t ETH_WritePHYRegister(uint16_t PHYAddress, uint16_t PHYReg, uint16_t PHYValue)
 331:../Peripheral/src/ch32v30x_eth.c **** {
 332:../Peripheral/src/ch32v30x_eth.c ****     uint32_t      tmpreg = 0;
 333:../Peripheral/src/ch32v30x_eth.c ****     __IO uint32_t timeout = 0;
 334:../Peripheral/src/ch32v30x_eth.c **** 
 335:../Peripheral/src/ch32v30x_eth.c ****     tmpreg = ETH->MACMIIAR;
 336:../Peripheral/src/ch32v30x_eth.c ****     tmpreg &= ~MACMIIAR_CR_MASK;
 337:../Peripheral/src/ch32v30x_eth.c ****     tmpreg |= (((uint32_t)PHYAddress << 11) & ETH_MACMIIAR_PA);
 338:../Peripheral/src/ch32v30x_eth.c ****     tmpreg |= (((uint32_t)PHYReg << 6) & ETH_MACMIIAR_MR);
 339:../Peripheral/src/ch32v30x_eth.c ****     tmpreg |= ETH_MACMIIAR_MW;
 340:../Peripheral/src/ch32v30x_eth.c ****     tmpreg |= ETH_MACMIIAR_MB;
 341:../Peripheral/src/ch32v30x_eth.c ****     ETH->MACMIIDR = PHYValue;
 342:../Peripheral/src/ch32v30x_eth.c ****     ETH->MACMIIAR = tmpreg;
 343:../Peripheral/src/ch32v30x_eth.c **** 
 344:../Peripheral/src/ch32v30x_eth.c ****     do
 345:../Peripheral/src/ch32v30x_eth.c ****     {
 346:../Peripheral/src/ch32v30x_eth.c ****         timeout++;
 347:../Peripheral/src/ch32v30x_eth.c ****         tmpreg = ETH->MACMIIAR;
 348:../Peripheral/src/ch32v30x_eth.c ****     } while((tmpreg & ETH_MACMIIAR_MB) && (timeout < (uint32_t)PHY_WRITE_TO));
 349:../Peripheral/src/ch32v30x_eth.c **** 
 350:../Peripheral/src/ch32v30x_eth.c ****     if(timeout >= PHY_WRITE_TO)
 351:../Peripheral/src/ch32v30x_eth.c ****     {
 352:../Peripheral/src/ch32v30x_eth.c ****         return ETH_ERROR;
 353:../Peripheral/src/ch32v30x_eth.c ****     }
 354:../Peripheral/src/ch32v30x_eth.c **** 
 355:../Peripheral/src/ch32v30x_eth.c ****     return ETH_SUCCESS;
 356:../Peripheral/src/ch32v30x_eth.c **** }
 357:../Peripheral/src/ch32v30x_eth.c **** 
 358:../Peripheral/src/ch32v30x_eth.c **** /*********************************************************************
 359:../Peripheral/src/ch32v30x_eth.c ****  * @fn      ETH_PHYLoopBackCmd
 360:../Peripheral/src/ch32v30x_eth.c ****  *
 361:../Peripheral/src/ch32v30x_eth.c ****  * @brief   Enables or disables the PHY loopBack mode.
 362:../Peripheral/src/ch32v30x_eth.c ****  *
 363:../Peripheral/src/ch32v30x_eth.c ****  * @param   PHYAddress - PHY device address, is the index of one of supported 32 PHY devices.
 364:../Peripheral/src/ch32v30x_eth.c ****  *          NewState - new state of the PHY loopBack mode.
 365:../Peripheral/src/ch32v30x_eth.c ****  *
 366:../Peripheral/src/ch32v30x_eth.c ****  * @return  ETH_ERROR - in case of bad PHY configuration.
 367:../Peripheral/src/ch32v30x_eth.c ****  *          ETH_SUCCESS - for correct PHY configuration.
 368:../Peripheral/src/ch32v30x_eth.c ****  */
 369:../Peripheral/src/ch32v30x_eth.c **** uint32_t ETH_PHYLoopBackCmd(uint16_t PHYAddress, FunctionalState NewState)
 370:../Peripheral/src/ch32v30x_eth.c **** {
 371:../Peripheral/src/ch32v30x_eth.c ****     uint16_t tmpreg = 0;
 372:../Peripheral/src/ch32v30x_eth.c **** 
 373:../Peripheral/src/ch32v30x_eth.c ****     tmpreg = ETH_ReadPHYRegister(PHYAddress, PHY_BCR);
 374:../Peripheral/src/ch32v30x_eth.c **** 
 375:../Peripheral/src/ch32v30x_eth.c ****     if(NewState != DISABLE)
 376:../Peripheral/src/ch32v30x_eth.c ****     {
 377:../Peripheral/src/ch32v30x_eth.c ****         tmpreg |= PHY_Loopback;
 378:../Peripheral/src/ch32v30x_eth.c ****     }
 379:../Peripheral/src/ch32v30x_eth.c ****     else
 380:../Peripheral/src/ch32v30x_eth.c ****     {
 381:../Peripheral/src/ch32v30x_eth.c ****         tmpreg &= (uint16_t)(~(uint16_t)PHY_Loopback);
 382:../Peripheral/src/ch32v30x_eth.c ****     }
 383:../Peripheral/src/ch32v30x_eth.c **** 
 384:../Peripheral/src/ch32v30x_eth.c ****     if(ETH_WritePHYRegister(PHYAddress, PHY_BCR, tmpreg) != (uint32_t)RESET)
 385:../Peripheral/src/ch32v30x_eth.c ****     {
 386:../Peripheral/src/ch32v30x_eth.c ****         return ETH_SUCCESS;
 387:../Peripheral/src/ch32v30x_eth.c ****     }
 388:../Peripheral/src/ch32v30x_eth.c ****     else
 389:../Peripheral/src/ch32v30x_eth.c ****     {
 390:../Peripheral/src/ch32v30x_eth.c ****         return ETH_ERROR;
 391:../Peripheral/src/ch32v30x_eth.c ****     }
 392:../Peripheral/src/ch32v30x_eth.c **** }
 393:../Peripheral/src/ch32v30x_eth.c **** 
 394:../Peripheral/src/ch32v30x_eth.c **** /*********************************************************************
 395:../Peripheral/src/ch32v30x_eth.c ****  * @fn      ETH_MACTransmissionCmd
 396:../Peripheral/src/ch32v30x_eth.c ****  *
 397:../Peripheral/src/ch32v30x_eth.c ****  * @brief   Enables or disables the MAC transmission.
 398:../Peripheral/src/ch32v30x_eth.c ****  *
 399:../Peripheral/src/ch32v30x_eth.c ****  * @param   NewState - new state of the MAC transmission.
 400:../Peripheral/src/ch32v30x_eth.c ****  *
 401:../Peripheral/src/ch32v30x_eth.c ****  * @return  none
 402:../Peripheral/src/ch32v30x_eth.c ****  */
 403:../Peripheral/src/ch32v30x_eth.c **** void ETH_MACTransmissionCmd(FunctionalState NewState)
 404:../Peripheral/src/ch32v30x_eth.c **** {
 405:../Peripheral/src/ch32v30x_eth.c ****     if(NewState != DISABLE)
 406:../Peripheral/src/ch32v30x_eth.c ****     {
 407:../Peripheral/src/ch32v30x_eth.c ****         ETH->MACCR |= ETH_MACCR_TE;
 408:../Peripheral/src/ch32v30x_eth.c ****     }
 409:../Peripheral/src/ch32v30x_eth.c ****     else
 410:../Peripheral/src/ch32v30x_eth.c ****     {
 411:../Peripheral/src/ch32v30x_eth.c ****         ETH->MACCR &= ~ETH_MACCR_TE;
 412:../Peripheral/src/ch32v30x_eth.c ****     }
 413:../Peripheral/src/ch32v30x_eth.c **** }
 414:../Peripheral/src/ch32v30x_eth.c **** 
 415:../Peripheral/src/ch32v30x_eth.c **** /*********************************************************************
 416:../Peripheral/src/ch32v30x_eth.c ****  * @fn      ETH_MACReceptionCmd
 417:../Peripheral/src/ch32v30x_eth.c ****  *
 418:../Peripheral/src/ch32v30x_eth.c ****  * @brief   Enables or disables the MAC reception.
 419:../Peripheral/src/ch32v30x_eth.c ****  *
 420:../Peripheral/src/ch32v30x_eth.c ****  * @param   NewState - new state of the MAC reception.
 421:../Peripheral/src/ch32v30x_eth.c ****  *
 422:../Peripheral/src/ch32v30x_eth.c ****  * @return  none
 423:../Peripheral/src/ch32v30x_eth.c ****  */
 424:../Peripheral/src/ch32v30x_eth.c **** void ETH_MACReceptionCmd(FunctionalState NewState)
 425:../Peripheral/src/ch32v30x_eth.c **** {
 426:../Peripheral/src/ch32v30x_eth.c ****     if(NewState != DISABLE)
 427:../Peripheral/src/ch32v30x_eth.c ****     {
 428:../Peripheral/src/ch32v30x_eth.c ****         ETH->MACCR |= ETH_MACCR_RE;
 429:../Peripheral/src/ch32v30x_eth.c ****     }
 430:../Peripheral/src/ch32v30x_eth.c ****     else
 431:../Peripheral/src/ch32v30x_eth.c ****     {
 432:../Peripheral/src/ch32v30x_eth.c ****         ETH->MACCR &= ~ETH_MACCR_RE;
 433:../Peripheral/src/ch32v30x_eth.c ****     }
 434:../Peripheral/src/ch32v30x_eth.c **** }
 435:../Peripheral/src/ch32v30x_eth.c **** 
 436:../Peripheral/src/ch32v30x_eth.c **** /*********************************************************************
 437:../Peripheral/src/ch32v30x_eth.c ****  * @fn      ETH_GetFlowControlBusyStatus
 438:../Peripheral/src/ch32v30x_eth.c ****  *
 439:../Peripheral/src/ch32v30x_eth.c ****  * @brief   Enables or disables the MAC reception.
 440:../Peripheral/src/ch32v30x_eth.c ****  *
 441:../Peripheral/src/ch32v30x_eth.c ****  * @return  The new state of flow control busy status bit (SET or RESET).
 442:../Peripheral/src/ch32v30x_eth.c ****  */
 443:../Peripheral/src/ch32v30x_eth.c **** FlagStatus ETH_GetFlowControlBusyStatus(void)
 444:../Peripheral/src/ch32v30x_eth.c **** {
 445:../Peripheral/src/ch32v30x_eth.c ****     FlagStatus bitstatus = RESET;
 446:../Peripheral/src/ch32v30x_eth.c **** 
 447:../Peripheral/src/ch32v30x_eth.c ****     if((ETH->MACFCR & ETH_MACFCR_FCBBPA) != (uint32_t)RESET)
 448:../Peripheral/src/ch32v30x_eth.c ****     {
 449:../Peripheral/src/ch32v30x_eth.c ****         bitstatus = SET;
 450:../Peripheral/src/ch32v30x_eth.c ****     }
 451:../Peripheral/src/ch32v30x_eth.c ****     else
 452:../Peripheral/src/ch32v30x_eth.c ****     {
 453:../Peripheral/src/ch32v30x_eth.c ****         bitstatus = RESET;
 454:../Peripheral/src/ch32v30x_eth.c ****     }
 455:../Peripheral/src/ch32v30x_eth.c ****     return bitstatus;
 456:../Peripheral/src/ch32v30x_eth.c **** }
 457:../Peripheral/src/ch32v30x_eth.c **** 
 458:../Peripheral/src/ch32v30x_eth.c **** /*********************************************************************
 459:../Peripheral/src/ch32v30x_eth.c ****  * @fn      ETH_InitiatePauseControlFrame
 460:../Peripheral/src/ch32v30x_eth.c ****  *
 461:../Peripheral/src/ch32v30x_eth.c ****  * @brief   Initiate a Pause Control Frame (Full-duplex only).
 462:../Peripheral/src/ch32v30x_eth.c ****  *
 463:../Peripheral/src/ch32v30x_eth.c ****  * @return  none
 464:../Peripheral/src/ch32v30x_eth.c ****  */
 465:../Peripheral/src/ch32v30x_eth.c **** void ETH_InitiatePauseControlFrame(void)
 466:../Peripheral/src/ch32v30x_eth.c **** {
 467:../Peripheral/src/ch32v30x_eth.c ****     ETH->MACFCR |= ETH_MACFCR_FCBBPA;
 468:../Peripheral/src/ch32v30x_eth.c **** }
 469:../Peripheral/src/ch32v30x_eth.c **** 
 470:../Peripheral/src/ch32v30x_eth.c **** /*********************************************************************
 471:../Peripheral/src/ch32v30x_eth.c ****  * @fn      ETH_BackPressureActivationCmd
 472:../Peripheral/src/ch32v30x_eth.c ****  *
 473:../Peripheral/src/ch32v30x_eth.c ****  * @brief   Enables or disables the MAC BackPressure operation activation (Half-duplex only).
 474:../Peripheral/src/ch32v30x_eth.c ****  *
 475:../Peripheral/src/ch32v30x_eth.c ****  * @param   NewState - new state of the MAC BackPressure operation activation.
 476:../Peripheral/src/ch32v30x_eth.c ****  *
 477:../Peripheral/src/ch32v30x_eth.c ****  * @return  none
 478:../Peripheral/src/ch32v30x_eth.c ****  */
 479:../Peripheral/src/ch32v30x_eth.c **** void ETH_BackPressureActivationCmd(FunctionalState NewState)
 480:../Peripheral/src/ch32v30x_eth.c **** {
 481:../Peripheral/src/ch32v30x_eth.c ****     if(NewState != DISABLE)
 482:../Peripheral/src/ch32v30x_eth.c ****     {
 483:../Peripheral/src/ch32v30x_eth.c ****         ETH->MACFCR |= ETH_MACFCR_FCBBPA;
 484:../Peripheral/src/ch32v30x_eth.c ****     }
 485:../Peripheral/src/ch32v30x_eth.c ****     else
 486:../Peripheral/src/ch32v30x_eth.c ****     {
 487:../Peripheral/src/ch32v30x_eth.c ****         ETH->MACFCR &= ~ETH_MACFCR_FCBBPA;
 488:../Peripheral/src/ch32v30x_eth.c ****     }
 489:../Peripheral/src/ch32v30x_eth.c **** }
 490:../Peripheral/src/ch32v30x_eth.c **** 
 491:../Peripheral/src/ch32v30x_eth.c **** /*********************************************************************
 492:../Peripheral/src/ch32v30x_eth.c ****  * @fn      ETH_GetMACFlagStatus
 493:../Peripheral/src/ch32v30x_eth.c ****  *
 494:../Peripheral/src/ch32v30x_eth.c ****  * @brief   Checks whether the specified ETHERNET MAC flag is set or not.
 495:../Peripheral/src/ch32v30x_eth.c ****  *
 496:../Peripheral/src/ch32v30x_eth.c ****  * @param   ETH_MAC_FLAG - specifies the flag to check.
 497:../Peripheral/src/ch32v30x_eth.c ****  *
 498:../Peripheral/src/ch32v30x_eth.c ****  * @return  The new state of ETHERNET MAC flag (SET or RESET).
 499:../Peripheral/src/ch32v30x_eth.c ****  */
 500:../Peripheral/src/ch32v30x_eth.c **** FlagStatus ETH_GetMACFlagStatus(uint32_t ETH_MAC_FLAG)
 501:../Peripheral/src/ch32v30x_eth.c **** {
 502:../Peripheral/src/ch32v30x_eth.c ****     FlagStatus bitstatus = RESET;
 503:../Peripheral/src/ch32v30x_eth.c **** 
 504:../Peripheral/src/ch32v30x_eth.c ****     if((ETH->MACSR & ETH_MAC_FLAG) != (uint32_t)RESET)
 505:../Peripheral/src/ch32v30x_eth.c ****     {
 506:../Peripheral/src/ch32v30x_eth.c ****         bitstatus = SET;
 507:../Peripheral/src/ch32v30x_eth.c ****     }
 508:../Peripheral/src/ch32v30x_eth.c ****     else
 509:../Peripheral/src/ch32v30x_eth.c ****     {
 510:../Peripheral/src/ch32v30x_eth.c ****         bitstatus = RESET;
 511:../Peripheral/src/ch32v30x_eth.c ****     }
 512:../Peripheral/src/ch32v30x_eth.c ****     return bitstatus;
 513:../Peripheral/src/ch32v30x_eth.c **** }
 514:../Peripheral/src/ch32v30x_eth.c **** 
 515:../Peripheral/src/ch32v30x_eth.c **** /*********************************************************************
 516:../Peripheral/src/ch32v30x_eth.c ****  * @fn      ETH_GetMACITStatus
 517:../Peripheral/src/ch32v30x_eth.c ****  *
 518:../Peripheral/src/ch32v30x_eth.c ****  * @brief   Checks whether the specified ETHERNET MAC interrupt has occurred or not.
 519:../Peripheral/src/ch32v30x_eth.c ****  *
 520:../Peripheral/src/ch32v30x_eth.c ****  * @param   ETH_MAC_IT - specifies the interrupt source to check.
 521:../Peripheral/src/ch32v30x_eth.c ****  *
 522:../Peripheral/src/ch32v30x_eth.c ****  * @return  The new state of ETHERNET MAC interrupt (SET or RESET).
 523:../Peripheral/src/ch32v30x_eth.c ****  */
 524:../Peripheral/src/ch32v30x_eth.c **** ITStatus ETH_GetMACITStatus(uint32_t ETH_MAC_IT)
 525:../Peripheral/src/ch32v30x_eth.c **** {
 526:../Peripheral/src/ch32v30x_eth.c ****     FlagStatus bitstatus = RESET;
 527:../Peripheral/src/ch32v30x_eth.c **** 
 528:../Peripheral/src/ch32v30x_eth.c ****     if((ETH->MACSR & ETH_MAC_IT) != (uint32_t)RESET)
 529:../Peripheral/src/ch32v30x_eth.c ****     {
 530:../Peripheral/src/ch32v30x_eth.c ****         bitstatus = SET;
 531:../Peripheral/src/ch32v30x_eth.c ****     }
 532:../Peripheral/src/ch32v30x_eth.c ****     else
 533:../Peripheral/src/ch32v30x_eth.c ****     {
 534:../Peripheral/src/ch32v30x_eth.c ****         bitstatus = RESET;
 535:../Peripheral/src/ch32v30x_eth.c ****     }
 536:../Peripheral/src/ch32v30x_eth.c **** 
 537:../Peripheral/src/ch32v30x_eth.c ****     return bitstatus;
 538:../Peripheral/src/ch32v30x_eth.c **** }
 539:../Peripheral/src/ch32v30x_eth.c **** 
 540:../Peripheral/src/ch32v30x_eth.c **** /*********************************************************************
 541:../Peripheral/src/ch32v30x_eth.c ****  * @fn      ETH_MACITConfig
 542:../Peripheral/src/ch32v30x_eth.c ****  *
 543:../Peripheral/src/ch32v30x_eth.c ****  * @brief   Enables or disables the specified ETHERNET MAC interrupts.
 544:../Peripheral/src/ch32v30x_eth.c ****  *
 545:../Peripheral/src/ch32v30x_eth.c ****  * @param   ETH_MAC_IT - specifies the interrupt source to check.
 546:../Peripheral/src/ch32v30x_eth.c ****  *          NewState - new state of the specified ETHERNET MAC interrupts.
 547:../Peripheral/src/ch32v30x_eth.c ****  *
 548:../Peripheral/src/ch32v30x_eth.c ****  * @return  none
 549:../Peripheral/src/ch32v30x_eth.c ****  */
 550:../Peripheral/src/ch32v30x_eth.c **** void ETH_MACITConfig(uint32_t ETH_MAC_IT, FunctionalState NewState)
 551:../Peripheral/src/ch32v30x_eth.c **** {
 552:../Peripheral/src/ch32v30x_eth.c ****     if(NewState != DISABLE)
 553:../Peripheral/src/ch32v30x_eth.c ****     {
 554:../Peripheral/src/ch32v30x_eth.c ****         ETH->MACIMR &= (~(uint32_t)ETH_MAC_IT);
 555:../Peripheral/src/ch32v30x_eth.c ****     }
 556:../Peripheral/src/ch32v30x_eth.c ****     else
 557:../Peripheral/src/ch32v30x_eth.c ****     {
 558:../Peripheral/src/ch32v30x_eth.c ****         ETH->MACIMR |= ETH_MAC_IT;
 559:../Peripheral/src/ch32v30x_eth.c ****     }
 560:../Peripheral/src/ch32v30x_eth.c **** }
 561:../Peripheral/src/ch32v30x_eth.c **** 
 562:../Peripheral/src/ch32v30x_eth.c **** /*********************************************************************
 563:../Peripheral/src/ch32v30x_eth.c ****  * @fn      ETH_MACAddressConfig
 564:../Peripheral/src/ch32v30x_eth.c ****  *
 565:../Peripheral/src/ch32v30x_eth.c ****  * @brief   Configures the selected MAC address.
 566:../Peripheral/src/ch32v30x_eth.c ****  *
 567:../Peripheral/src/ch32v30x_eth.c ****  * @param   MacAddr - The MAC addres to configure.
 568:../Peripheral/src/ch32v30x_eth.c ****  *            ETH_MAC_Address0 - MAC Address0
 569:../Peripheral/src/ch32v30x_eth.c ****  *            ETH_MAC_Address1 - MAC Address1
 570:../Peripheral/src/ch32v30x_eth.c ****  *            ETH_MAC_Address2 - MAC Address2
 571:../Peripheral/src/ch32v30x_eth.c ****  *            ETH_MAC_Address3 - MAC Address3
 572:../Peripheral/src/ch32v30x_eth.c ****  *            Addr - Pointer on MAC address buffer data (6 bytes).
 573:../Peripheral/src/ch32v30x_eth.c ****  *
 574:../Peripheral/src/ch32v30x_eth.c ****  * @return  none
 575:../Peripheral/src/ch32v30x_eth.c ****  */
 576:../Peripheral/src/ch32v30x_eth.c **** void ETH_MACAddressConfig(uint32_t MacAddr, uint8_t *Addr)
 577:../Peripheral/src/ch32v30x_eth.c **** {
 578:../Peripheral/src/ch32v30x_eth.c ****     uint32_t tmpreg;
 579:../Peripheral/src/ch32v30x_eth.c **** 
 580:../Peripheral/src/ch32v30x_eth.c ****     tmpreg = ((uint32_t)Addr[5] << 8) | (uint32_t)Addr[4];
 581:../Peripheral/src/ch32v30x_eth.c ****     (*(__IO uint32_t *)(ETH_MAC_ADDR_HBASE + MacAddr)) = tmpreg;
 582:../Peripheral/src/ch32v30x_eth.c ****     tmpreg = ((uint32_t)Addr[3] << 24) | ((uint32_t)Addr[2] << 16) | ((uint32_t)Addr[1] << 8) | Add
 583:../Peripheral/src/ch32v30x_eth.c **** 
 584:../Peripheral/src/ch32v30x_eth.c ****     (*(__IO uint32_t *)(ETH_MAC_ADDR_LBASE + MacAddr)) = tmpreg;
 585:../Peripheral/src/ch32v30x_eth.c **** }
 586:../Peripheral/src/ch32v30x_eth.c **** 
 587:../Peripheral/src/ch32v30x_eth.c **** /*********************************************************************
 588:../Peripheral/src/ch32v30x_eth.c ****  * @fn      ETH_GetMACAddress
 589:../Peripheral/src/ch32v30x_eth.c ****  *
 590:../Peripheral/src/ch32v30x_eth.c ****  * @brief   Get the selected MAC address.
 591:../Peripheral/src/ch32v30x_eth.c ****  *
 592:../Peripheral/src/ch32v30x_eth.c ****  * @param   MacAddr - The MAC address to return.
 593:../Peripheral/src/ch32v30x_eth.c ****  *            ETH_MAC_Address0 - MAC Address0
 594:../Peripheral/src/ch32v30x_eth.c ****  *            ETH_MAC_Address1 - MAC Address1
 595:../Peripheral/src/ch32v30x_eth.c ****  *            ETH_MAC_Address2 - MAC Address2
 596:../Peripheral/src/ch32v30x_eth.c ****  *            ETH_MAC_Address3 - MAC Address3
 597:../Peripheral/src/ch32v30x_eth.c ****  *            Addr - Pointer on MAC address buffer data (6 bytes).
 598:../Peripheral/src/ch32v30x_eth.c ****  *
 599:../Peripheral/src/ch32v30x_eth.c ****  * @return  none
 600:../Peripheral/src/ch32v30x_eth.c ****  */
 601:../Peripheral/src/ch32v30x_eth.c **** void ETH_GetMACAddress(uint32_t MacAddr, uint8_t *Addr)
 602:../Peripheral/src/ch32v30x_eth.c **** {
 603:../Peripheral/src/ch32v30x_eth.c ****     uint32_t tmpreg;
 604:../Peripheral/src/ch32v30x_eth.c **** 
 605:../Peripheral/src/ch32v30x_eth.c ****     tmpreg = (*(__IO uint32_t *)(ETH_MAC_ADDR_HBASE + MacAddr));
 606:../Peripheral/src/ch32v30x_eth.c **** 
 607:../Peripheral/src/ch32v30x_eth.c ****     Addr[5] = ((tmpreg >> 8) & (uint8_t)0xFF);
 608:../Peripheral/src/ch32v30x_eth.c ****     Addr[4] = (tmpreg & (uint8_t)0xFF);
 609:../Peripheral/src/ch32v30x_eth.c ****     tmpreg = (*(__IO uint32_t *)(ETH_MAC_ADDR_LBASE + MacAddr));
 610:../Peripheral/src/ch32v30x_eth.c ****     Addr[3] = ((tmpreg >> 24) & (uint8_t)0xFF);
 611:../Peripheral/src/ch32v30x_eth.c ****     Addr[2] = ((tmpreg >> 16) & (uint8_t)0xFF);
 612:../Peripheral/src/ch32v30x_eth.c ****     Addr[1] = ((tmpreg >> 8) & (uint8_t)0xFF);
 613:../Peripheral/src/ch32v30x_eth.c ****     Addr[0] = (tmpreg & (uint8_t)0xFF);
 614:../Peripheral/src/ch32v30x_eth.c **** }
 615:../Peripheral/src/ch32v30x_eth.c **** 
 616:../Peripheral/src/ch32v30x_eth.c **** /*********************************************************************
 617:../Peripheral/src/ch32v30x_eth.c ****  * @fn      ETH_MACAddressPerfectFilterCmd
 618:../Peripheral/src/ch32v30x_eth.c ****  *
 619:../Peripheral/src/ch32v30x_eth.c ****  * @brief   Enables or disables the Address filter module uses the specified.
 620:../Peripheral/src/ch32v30x_eth.c ****  *
 621:../Peripheral/src/ch32v30x_eth.c ****  * @param   MacAddr - The MAC address to return.
 622:../Peripheral/src/ch32v30x_eth.c ****  *            ETH_MAC_Address0 - MAC Address0
 623:../Peripheral/src/ch32v30x_eth.c ****  *            ETH_MAC_Address1 - MAC Address1
 624:../Peripheral/src/ch32v30x_eth.c ****  *            ETH_MAC_Address2 - MAC Address2
 625:../Peripheral/src/ch32v30x_eth.c ****  *            ETH_MAC_Address3 - MAC Address3
 626:../Peripheral/src/ch32v30x_eth.c ****  *            NewState - new state of the specified ETHERNET MAC address use.
 627:../Peripheral/src/ch32v30x_eth.c ****  *
 628:../Peripheral/src/ch32v30x_eth.c ****  * @return  none
 629:../Peripheral/src/ch32v30x_eth.c ****  */
 630:../Peripheral/src/ch32v30x_eth.c **** void ETH_MACAddressPerfectFilterCmd(uint32_t MacAddr, FunctionalState NewState)
 631:../Peripheral/src/ch32v30x_eth.c **** {
 632:../Peripheral/src/ch32v30x_eth.c ****     if(NewState != DISABLE)
 633:../Peripheral/src/ch32v30x_eth.c ****     {
 634:../Peripheral/src/ch32v30x_eth.c ****         (*(__IO uint32_t *)(ETH_MAC_ADDR_HBASE + MacAddr)) |= ETH_MACA1HR_AE;
 635:../Peripheral/src/ch32v30x_eth.c ****     }
 636:../Peripheral/src/ch32v30x_eth.c ****     else
 637:../Peripheral/src/ch32v30x_eth.c ****     {
 638:../Peripheral/src/ch32v30x_eth.c ****         (*(__IO uint32_t *)(ETH_MAC_ADDR_HBASE + MacAddr)) &= (~(uint32_t)ETH_MACA1HR_AE);
 639:../Peripheral/src/ch32v30x_eth.c ****     }
 640:../Peripheral/src/ch32v30x_eth.c **** }
 641:../Peripheral/src/ch32v30x_eth.c **** 
 642:../Peripheral/src/ch32v30x_eth.c **** /*********************************************************************
 643:../Peripheral/src/ch32v30x_eth.c ****  * @fn      ETH_MACAddressFilterConfig
 644:../Peripheral/src/ch32v30x_eth.c ****  *
 645:../Peripheral/src/ch32v30x_eth.c ****  * @brief   Set the filter type for the specified ETHERNET MAC address.
 646:../Peripheral/src/ch32v30x_eth.c ****  *
 647:../Peripheral/src/ch32v30x_eth.c ****  * @param   MacAddr - specifies the ETHERNET MAC address.
 648:../Peripheral/src/ch32v30x_eth.c ****  *            ETH_MAC_Address0 - MAC Address0
 649:../Peripheral/src/ch32v30x_eth.c ****  *            ETH_MAC_Address1 - MAC Address1
 650:../Peripheral/src/ch32v30x_eth.c ****  *            ETH_MAC_Address2 - MAC Address2
 651:../Peripheral/src/ch32v30x_eth.c ****  *            ETH_MAC_Address3 - MAC Address3
 652:../Peripheral/src/ch32v30x_eth.c ****  *          Filter - specifies the used frame received field for comparaison.
 653:../Peripheral/src/ch32v30x_eth.c ****  *            ETH_MAC_AddressFilter_SA - MAC Address is used to compare with the
 654:../Peripheral/src/ch32v30x_eth.c ****  *        SA fields of the received frame.
 655:../Peripheral/src/ch32v30x_eth.c ****  *            ETH_MAC_AddressFilter_DA - MAC Address is used to compare with the
 656:../Peripheral/src/ch32v30x_eth.c ****  *        DA fields of the received frame.
 657:../Peripheral/src/ch32v30x_eth.c ****  *
 658:../Peripheral/src/ch32v30x_eth.c ****  * @return  none
 659:../Peripheral/src/ch32v30x_eth.c ****  */
 660:../Peripheral/src/ch32v30x_eth.c **** void ETH_MACAddressFilterConfig(uint32_t MacAddr, uint32_t Filter)
 661:../Peripheral/src/ch32v30x_eth.c **** {
 662:../Peripheral/src/ch32v30x_eth.c ****     if(Filter != ETH_MAC_AddressFilter_DA)
 663:../Peripheral/src/ch32v30x_eth.c ****     {
 664:../Peripheral/src/ch32v30x_eth.c ****         (*(__IO uint32_t *)(ETH_MAC_ADDR_HBASE + MacAddr)) |= ETH_MACA1HR_SA;
 665:../Peripheral/src/ch32v30x_eth.c ****     }
 666:../Peripheral/src/ch32v30x_eth.c ****     else
 667:../Peripheral/src/ch32v30x_eth.c ****     {
 668:../Peripheral/src/ch32v30x_eth.c ****         (*(__IO uint32_t *)(ETH_MAC_ADDR_HBASE + MacAddr)) &= (~(uint32_t)ETH_MACA1HR_SA);
 669:../Peripheral/src/ch32v30x_eth.c ****     }
 670:../Peripheral/src/ch32v30x_eth.c **** }
 671:../Peripheral/src/ch32v30x_eth.c **** 
 672:../Peripheral/src/ch32v30x_eth.c **** /*********************************************************************
 673:../Peripheral/src/ch32v30x_eth.c ****  * @fn      ETH_MACAddressMaskBytesFilterConfig
 674:../Peripheral/src/ch32v30x_eth.c ****  *
 675:../Peripheral/src/ch32v30x_eth.c ****  * @brief   Set the filter type for the specified ETHERNET MAC address.
 676:../Peripheral/src/ch32v30x_eth.c ****  *
 677:../Peripheral/src/ch32v30x_eth.c ****  * @param   MacAddr - specifies the ETHERNET MAC address.
 678:../Peripheral/src/ch32v30x_eth.c ****  *            ETH_MAC_Address1 - MAC Address1
 679:../Peripheral/src/ch32v30x_eth.c ****  *            ETH_MAC_Address2 - MAC Address2
 680:../Peripheral/src/ch32v30x_eth.c ****  *            ETH_MAC_Address3 - MAC Address3
 681:../Peripheral/src/ch32v30x_eth.c ****  *          MaskByte - specifies the used address bytes for comparaison
 682:../Peripheral/src/ch32v30x_eth.c ****  *            ETH_MAC_AddressMask_Byte5 - Mask MAC Address high reg bits [7:0].
 683:../Peripheral/src/ch32v30x_eth.c ****  *            ETH_MAC_AddressMask_Byte4 - Mask MAC Address low reg bits [31:24].
 684:../Peripheral/src/ch32v30x_eth.c ****  *            ETH_MAC_AddressMask_Byte3 - Mask MAC Address low reg bits [23:16].
 685:../Peripheral/src/ch32v30x_eth.c ****  *            ETH_MAC_AddressMask_Byte2 - Mask MAC Address low reg bits [15:8].
 686:../Peripheral/src/ch32v30x_eth.c ****  *            ETH_MAC_AddressMask_Byte1 - Mask MAC Address low reg bits [7:0].
 687:../Peripheral/src/ch32v30x_eth.c ****  *
 688:../Peripheral/src/ch32v30x_eth.c ****  * @return  none
 689:../Peripheral/src/ch32v30x_eth.c ****  */
 690:../Peripheral/src/ch32v30x_eth.c **** void ETH_MACAddressMaskBytesFilterConfig(uint32_t MacAddr, uint32_t MaskByte)
 691:../Peripheral/src/ch32v30x_eth.c **** {
 692:../Peripheral/src/ch32v30x_eth.c ****     (*(__IO uint32_t *)(ETH_MAC_ADDR_HBASE + MacAddr)) &= (~(uint32_t)ETH_MACA1HR_MBC);
 693:../Peripheral/src/ch32v30x_eth.c ****     (*(__IO uint32_t *)(ETH_MAC_ADDR_HBASE + MacAddr)) |= MaskByte;
 694:../Peripheral/src/ch32v30x_eth.c **** }
 695:../Peripheral/src/ch32v30x_eth.c **** 
 696:../Peripheral/src/ch32v30x_eth.c **** /*********************************************************************
 697:../Peripheral/src/ch32v30x_eth.c ****  * @fn      ETH_DMATxDescChainInit
 698:../Peripheral/src/ch32v30x_eth.c ****  *
 699:../Peripheral/src/ch32v30x_eth.c ****  * @brief   Initializes the DMA Tx descriptors in chain mode.
 700:../Peripheral/src/ch32v30x_eth.c ****  *
 701:../Peripheral/src/ch32v30x_eth.c ****  * @param   DMATxDescTab - Pointer on the first Tx desc list
 702:../Peripheral/src/ch32v30x_eth.c ****  *          TxBuff - Pointer on the first TxBuffer list
 703:../Peripheral/src/ch32v30x_eth.c ****  *          TxBuffCount - Number of the used Tx desc in the list
 704:../Peripheral/src/ch32v30x_eth.c ****  *
 705:../Peripheral/src/ch32v30x_eth.c ****  * @return  none
 706:../Peripheral/src/ch32v30x_eth.c ****  */
 707:../Peripheral/src/ch32v30x_eth.c **** void ETH_DMATxDescChainInit(ETH_DMADESCTypeDef *DMATxDescTab, uint8_t *TxBuff, uint32_t TxBuffCount
 708:../Peripheral/src/ch32v30x_eth.c **** {
 709:../Peripheral/src/ch32v30x_eth.c ****     uint32_t            i = 0;
 710:../Peripheral/src/ch32v30x_eth.c ****     ETH_DMADESCTypeDef *DMATxDesc;
 711:../Peripheral/src/ch32v30x_eth.c **** 
 712:../Peripheral/src/ch32v30x_eth.c ****     DMATxDescToSet = DMATxDescTab;
 713:../Peripheral/src/ch32v30x_eth.c **** 
 714:../Peripheral/src/ch32v30x_eth.c ****     for(i = 0; i < TxBuffCount; i++)
 715:../Peripheral/src/ch32v30x_eth.c ****     {
 716:../Peripheral/src/ch32v30x_eth.c ****         DMATxDesc = DMATxDescTab + i;
 717:../Peripheral/src/ch32v30x_eth.c ****         DMATxDesc->Status = ETH_DMATxDesc_TCH | ETH_DMATxDesc_IC;
 718:../Peripheral/src/ch32v30x_eth.c ****         DMATxDesc->Buffer1Addr = (uint32_t)(&TxBuff[i * ETH_MAX_PACKET_SIZE]);
 719:../Peripheral/src/ch32v30x_eth.c **** 
 720:../Peripheral/src/ch32v30x_eth.c ****         if(i < (TxBuffCount - 1))
 721:../Peripheral/src/ch32v30x_eth.c ****         {
 722:../Peripheral/src/ch32v30x_eth.c ****             DMATxDesc->Buffer2NextDescAddr = (uint32_t)(DMATxDescTab + i + 1);
 723:../Peripheral/src/ch32v30x_eth.c ****         }
 724:../Peripheral/src/ch32v30x_eth.c ****         else
 725:../Peripheral/src/ch32v30x_eth.c ****         {
 726:../Peripheral/src/ch32v30x_eth.c ****             DMATxDesc->Buffer2NextDescAddr = (uint32_t)DMATxDescTab;
 727:../Peripheral/src/ch32v30x_eth.c ****         }
 728:../Peripheral/src/ch32v30x_eth.c ****     }
 729:../Peripheral/src/ch32v30x_eth.c **** 
 730:../Peripheral/src/ch32v30x_eth.c ****     ETH->DMATDLAR = (uint32_t)DMATxDescTab;
 731:../Peripheral/src/ch32v30x_eth.c **** }
 732:../Peripheral/src/ch32v30x_eth.c **** 
 733:../Peripheral/src/ch32v30x_eth.c **** /*********************************************************************
 734:../Peripheral/src/ch32v30x_eth.c ****  * @fn      ETH_DMATxDescRingInit
 735:../Peripheral/src/ch32v30x_eth.c ****  *
 736:../Peripheral/src/ch32v30x_eth.c ****  * @brief   Initializes the DMA Tx descriptors in ring mode.
 737:../Peripheral/src/ch32v30x_eth.c ****  *
 738:../Peripheral/src/ch32v30x_eth.c ****  * @param   DMATxDescTab - Pointer on the first Tx desc list.
 739:../Peripheral/src/ch32v30x_eth.c ****  *            TxBuff1 - Pointer on the first TxBuffer1 list.
 740:../Peripheral/src/ch32v30x_eth.c ****  *            TxBuff2 - Pointer on the first TxBuffer2 list.
 741:../Peripheral/src/ch32v30x_eth.c ****  *            TxBuffCount - Number of the used Tx desc in the list.
 742:../Peripheral/src/ch32v30x_eth.c ****  *
 743:../Peripheral/src/ch32v30x_eth.c ****  * @return  none
 744:../Peripheral/src/ch32v30x_eth.c ****  */
 745:../Peripheral/src/ch32v30x_eth.c **** void ETH_DMATxDescRingInit(ETH_DMADESCTypeDef *DMATxDescTab, uint8_t *TxBuff1, uint8_t *TxBuff2, ui
 746:../Peripheral/src/ch32v30x_eth.c **** {
 747:../Peripheral/src/ch32v30x_eth.c ****     uint32_t            i = 0;
 748:../Peripheral/src/ch32v30x_eth.c ****     ETH_DMADESCTypeDef *DMATxDesc;
 749:../Peripheral/src/ch32v30x_eth.c **** 
 750:../Peripheral/src/ch32v30x_eth.c ****     DMATxDescToSet = DMATxDescTab;
 751:../Peripheral/src/ch32v30x_eth.c **** 
 752:../Peripheral/src/ch32v30x_eth.c ****     for(i = 0; i < TxBuffCount; i++)
 753:../Peripheral/src/ch32v30x_eth.c ****     {
 754:../Peripheral/src/ch32v30x_eth.c ****         DMATxDesc = DMATxDescTab + i;
 755:../Peripheral/src/ch32v30x_eth.c ****         DMATxDesc->Buffer1Addr = (uint32_t)(&TxBuff1[i * ETH_MAX_PACKET_SIZE]);
 756:../Peripheral/src/ch32v30x_eth.c ****         DMATxDesc->Buffer2NextDescAddr = (uint32_t)(&TxBuff2[i * ETH_MAX_PACKET_SIZE]);
 757:../Peripheral/src/ch32v30x_eth.c **** 
 758:../Peripheral/src/ch32v30x_eth.c ****         if(i == (TxBuffCount - 1))
 759:../Peripheral/src/ch32v30x_eth.c ****         {
 760:../Peripheral/src/ch32v30x_eth.c ****             DMATxDesc->Status = ETH_DMATxDesc_TER;
 761:../Peripheral/src/ch32v30x_eth.c ****         }
 762:../Peripheral/src/ch32v30x_eth.c ****     }
 763:../Peripheral/src/ch32v30x_eth.c **** 
 764:../Peripheral/src/ch32v30x_eth.c ****     ETH->DMATDLAR = (uint32_t)DMATxDescTab;
 765:../Peripheral/src/ch32v30x_eth.c **** }
 766:../Peripheral/src/ch32v30x_eth.c **** 
 767:../Peripheral/src/ch32v30x_eth.c **** /*********************************************************************
 768:../Peripheral/src/ch32v30x_eth.c ****  * @fn      ETH_GetDMATxDescFlagStatus
 769:../Peripheral/src/ch32v30x_eth.c ****  *
 770:../Peripheral/src/ch32v30x_eth.c ****  * @brief   Checks whether the specified ETHERNET DMA Tx Desc flag is set or not.
 771:../Peripheral/src/ch32v30x_eth.c ****  *
 772:../Peripheral/src/ch32v30x_eth.c ****  * @param   DMATxDesc - pointer on a DMA Tx descriptor
 773:../Peripheral/src/ch32v30x_eth.c ****  *          ETH_DMATxDescFlag - specifies the flag to check.
 774:../Peripheral/src/ch32v30x_eth.c ****  *            ETH_DMATxDesc_OWN - OWN bit - descriptor is owned by DMA engine
 775:../Peripheral/src/ch32v30x_eth.c ****  *            ETH_DMATxDesc_IC - Interrupt on completetion
 776:../Peripheral/src/ch32v30x_eth.c ****  *            ETH_DMATxDesc_LS - Last Segment
 777:../Peripheral/src/ch32v30x_eth.c ****  *            ETH_DMATxDesc_FS - First Segment
 778:../Peripheral/src/ch32v30x_eth.c ****  *            ETH_DMATxDesc_DC - Disable CRC
 779:../Peripheral/src/ch32v30x_eth.c ****  *            ETH_DMATxDesc_DP - Disable Pad
 780:../Peripheral/src/ch32v30x_eth.c ****  *            ETH_DMATxDesc_TTSE - Transmit Time Stamp Enable
 781:../Peripheral/src/ch32v30x_eth.c ****  *            ETH_DMATxDesc_TER - Transmit End of Ring
 782:../Peripheral/src/ch32v30x_eth.c ****  *            ETH_DMATxDesc_TCH - Second Address Chained
 783:../Peripheral/src/ch32v30x_eth.c ****  *            ETH_DMATxDesc_TTSS - Tx Time Stamp Status
 784:../Peripheral/src/ch32v30x_eth.c ****  *            ETH_DMATxDesc_IHE - IP Header Error
 785:../Peripheral/src/ch32v30x_eth.c ****  *            ETH_DMATxDesc_ES - Error summary
 786:../Peripheral/src/ch32v30x_eth.c ****  *            ETH_DMATxDesc_JT - Jabber Timeout
 787:../Peripheral/src/ch32v30x_eth.c ****  *            ETH_DMATxDesc_FF - Frame Flushed - DMA/MTL flushed the frame due to SW flush
 788:../Peripheral/src/ch32v30x_eth.c ****  *            ETH_DMATxDesc_PCE - Payload Checksum Error
 789:../Peripheral/src/ch32v30x_eth.c ****  *            ETH_DMATxDesc_LCA - Loss of Carrier - carrier lost during tramsmission
 790:../Peripheral/src/ch32v30x_eth.c ****  *            ETH_DMATxDesc_NC - No Carrier - no carrier signal from the tranceiver
 791:../Peripheral/src/ch32v30x_eth.c ****  *            ETH_DMATxDesc_LCO - Late Collision - transmission aborted due to collision
 792:../Peripheral/src/ch32v30x_eth.c ****  *            ETH_DMATxDesc_EC - Excessive Collision - transmission aborted after 16 collisions
 793:../Peripheral/src/ch32v30x_eth.c ****  *            ETH_DMATxDesc_VF - VLAN Frame
 794:../Peripheral/src/ch32v30x_eth.c ****  *            ETH_DMATxDesc_CC - Collision Count
 795:../Peripheral/src/ch32v30x_eth.c ****  *            ETH_DMATxDesc_ED - Excessive Deferral
 796:../Peripheral/src/ch32v30x_eth.c ****  *            ETH_DMATxDesc_UF - Underflow Error - late data arrival from the memory
 797:../Peripheral/src/ch32v30x_eth.c ****  *            ETH_DMATxDesc_DB - Deferred Bit
 798:../Peripheral/src/ch32v30x_eth.c ****  *
 799:../Peripheral/src/ch32v30x_eth.c ****  * @return  The new state of ETH_DMATxDescFlag (SET or RESET).
 800:../Peripheral/src/ch32v30x_eth.c ****  */
 801:../Peripheral/src/ch32v30x_eth.c **** FlagStatus ETH_GetDMATxDescFlagStatus(ETH_DMADESCTypeDef *DMATxDesc, uint32_t ETH_DMATxDescFlag)
 802:../Peripheral/src/ch32v30x_eth.c **** {
 803:../Peripheral/src/ch32v30x_eth.c ****     FlagStatus bitstatus = RESET;
 804:../Peripheral/src/ch32v30x_eth.c **** 
 805:../Peripheral/src/ch32v30x_eth.c ****     if((DMATxDesc->Status & ETH_DMATxDescFlag) != (uint32_t)RESET)
 806:../Peripheral/src/ch32v30x_eth.c ****     {
 807:../Peripheral/src/ch32v30x_eth.c ****         bitstatus = SET;
 808:../Peripheral/src/ch32v30x_eth.c ****     }
 809:../Peripheral/src/ch32v30x_eth.c ****     else
 810:../Peripheral/src/ch32v30x_eth.c ****     {
 811:../Peripheral/src/ch32v30x_eth.c ****         bitstatus = RESET;
 812:../Peripheral/src/ch32v30x_eth.c ****     }
 813:../Peripheral/src/ch32v30x_eth.c **** 
 814:../Peripheral/src/ch32v30x_eth.c ****     return bitstatus;
 815:../Peripheral/src/ch32v30x_eth.c **** }
 816:../Peripheral/src/ch32v30x_eth.c **** 
 817:../Peripheral/src/ch32v30x_eth.c **** /*********************************************************************
 818:../Peripheral/src/ch32v30x_eth.c ****  * @fn      ETH_GetDMATxDescCollisionCount
 819:../Peripheral/src/ch32v30x_eth.c ****  *
 820:../Peripheral/src/ch32v30x_eth.c ****  * @brief   Returns the specified ETHERNET DMA Tx Desc collision count.
 821:../Peripheral/src/ch32v30x_eth.c ****  *
 822:../Peripheral/src/ch32v30x_eth.c ****  * @param   pointer on a DMA Tx descriptor.
 823:../Peripheral/src/ch32v30x_eth.c ****  *
 824:../Peripheral/src/ch32v30x_eth.c ****  * @return  The Transmit descriptor collision counter value.
 825:../Peripheral/src/ch32v30x_eth.c ****  */
 826:../Peripheral/src/ch32v30x_eth.c **** uint32_t ETH_GetDMATxDescCollisionCount(ETH_DMADESCTypeDef *DMATxDesc)
 827:../Peripheral/src/ch32v30x_eth.c **** {
 828:../Peripheral/src/ch32v30x_eth.c ****     return ((DMATxDesc->Status & ETH_DMATxDesc_CC) >> ETH_DMATXDESC_COLLISION_COUNTSHIFT);
 829:../Peripheral/src/ch32v30x_eth.c **** }
 830:../Peripheral/src/ch32v30x_eth.c **** 
 831:../Peripheral/src/ch32v30x_eth.c **** /*********************************************************************
 832:../Peripheral/src/ch32v30x_eth.c ****  * @fn      ETH_SetDMATxDescOwnBit
 833:../Peripheral/src/ch32v30x_eth.c ****  *
 834:../Peripheral/src/ch32v30x_eth.c ****  * @brief   Set the specified DMA Tx Desc Own bit.
 835:../Peripheral/src/ch32v30x_eth.c ****  *
 836:../Peripheral/src/ch32v30x_eth.c ****  * @param   DMATxDesc - Pointer on a Tx desc
 837:../Peripheral/src/ch32v30x_eth.c ****  *
 838:../Peripheral/src/ch32v30x_eth.c ****  * @return  none
 839:../Peripheral/src/ch32v30x_eth.c ****  */
 840:../Peripheral/src/ch32v30x_eth.c **** void ETH_SetDMATxDescOwnBit(ETH_DMADESCTypeDef *DMATxDesc)
 841:../Peripheral/src/ch32v30x_eth.c **** {
 842:../Peripheral/src/ch32v30x_eth.c ****     DMATxDesc->Status |= ETH_DMATxDesc_OWN;
 843:../Peripheral/src/ch32v30x_eth.c **** }
 844:../Peripheral/src/ch32v30x_eth.c **** 
 845:../Peripheral/src/ch32v30x_eth.c **** /*********************************************************************
 846:../Peripheral/src/ch32v30x_eth.c ****  * @fn      ETH_DMATxDescTransmitITConfig
 847:../Peripheral/src/ch32v30x_eth.c ****  *
 848:../Peripheral/src/ch32v30x_eth.c ****  * @brief   Enables or disables the specified DMA Tx Desc Transmit interrupt.
 849:../Peripheral/src/ch32v30x_eth.c ****  *
 850:../Peripheral/src/ch32v30x_eth.c ****  * @param   Pointer on a Tx desc.
 851:../Peripheral/src/ch32v30x_eth.c ****  *          NewState - new state of the DMA Tx Desc transmit interrupt.
 852:../Peripheral/src/ch32v30x_eth.c ****  *
 853:../Peripheral/src/ch32v30x_eth.c ****  * @return  none
 854:../Peripheral/src/ch32v30x_eth.c ****  */
 855:../Peripheral/src/ch32v30x_eth.c **** void ETH_DMATxDescTransmitITConfig(ETH_DMADESCTypeDef *DMATxDesc, FunctionalState NewState)
 856:../Peripheral/src/ch32v30x_eth.c **** {
 857:../Peripheral/src/ch32v30x_eth.c ****     if(NewState != DISABLE)
 858:../Peripheral/src/ch32v30x_eth.c ****     {
 859:../Peripheral/src/ch32v30x_eth.c ****         DMATxDesc->Status |= ETH_DMATxDesc_IC;
 860:../Peripheral/src/ch32v30x_eth.c ****     }
 861:../Peripheral/src/ch32v30x_eth.c ****     else
 862:../Peripheral/src/ch32v30x_eth.c ****     {
 863:../Peripheral/src/ch32v30x_eth.c ****         DMATxDesc->Status &= (~(uint32_t)ETH_DMATxDesc_IC);
 864:../Peripheral/src/ch32v30x_eth.c ****     }
 865:../Peripheral/src/ch32v30x_eth.c **** }
 866:../Peripheral/src/ch32v30x_eth.c **** 
 867:../Peripheral/src/ch32v30x_eth.c **** /*********************************************************************
 868:../Peripheral/src/ch32v30x_eth.c ****  * @fn      ETH_DMATxDescFrameSegmentConfig
 869:../Peripheral/src/ch32v30x_eth.c ****  *
 870:../Peripheral/src/ch32v30x_eth.c ****  * @brief   Enables or disables the specified DMA Tx Desc Transmit interrupt.
 871:../Peripheral/src/ch32v30x_eth.c ****  *
 872:../Peripheral/src/ch32v30x_eth.c ****  * @param   PDMATxDesc - Pointer on a Tx desc.
 873:../Peripheral/src/ch32v30x_eth.c ****  *          ETH_DMATxDesc_FirstSegment - actual Tx desc contain first segment.
 874:../Peripheral/src/ch32v30x_eth.c ****  *
 875:../Peripheral/src/ch32v30x_eth.c ****  * @return  none
 876:../Peripheral/src/ch32v30x_eth.c ****  */
 877:../Peripheral/src/ch32v30x_eth.c **** void ETH_DMATxDescFrameSegmentConfig(ETH_DMADESCTypeDef *DMATxDesc, uint32_t DMATxDesc_FrameSegment
 878:../Peripheral/src/ch32v30x_eth.c **** {
 879:../Peripheral/src/ch32v30x_eth.c ****     DMATxDesc->Status |= DMATxDesc_FrameSegment;
 880:../Peripheral/src/ch32v30x_eth.c **** }
 881:../Peripheral/src/ch32v30x_eth.c **** 
 882:../Peripheral/src/ch32v30x_eth.c **** /*********************************************************************
 883:../Peripheral/src/ch32v30x_eth.c ****  * @fn      ETH_DMATxDescChecksumInsertionConfig
 884:../Peripheral/src/ch32v30x_eth.c ****  *
 885:../Peripheral/src/ch32v30x_eth.c ****  * @brief   Selects the specified ETHERNET DMA Tx Desc Checksum Insertion.
 886:../Peripheral/src/ch32v30x_eth.c ****  *
 887:../Peripheral/src/ch32v30x_eth.c ****  * @param   DMATxDesc - pointer on a DMA Tx descriptor.
 888:../Peripheral/src/ch32v30x_eth.c ****  *          DMATxDesc_Checksum - specifies is the DMA Tx desc checksum insertion.
 889:../Peripheral/src/ch32v30x_eth.c ****  *
 890:../Peripheral/src/ch32v30x_eth.c ****  * @return  none
 891:../Peripheral/src/ch32v30x_eth.c ****  */
 892:../Peripheral/src/ch32v30x_eth.c **** void ETH_DMATxDescChecksumInsertionConfig(ETH_DMADESCTypeDef *DMATxDesc, uint32_t DMATxDesc_Checksu
 893:../Peripheral/src/ch32v30x_eth.c **** {
 894:../Peripheral/src/ch32v30x_eth.c ****     DMATxDesc->Status |= DMATxDesc_Checksum;
 895:../Peripheral/src/ch32v30x_eth.c **** }
 896:../Peripheral/src/ch32v30x_eth.c **** 
 897:../Peripheral/src/ch32v30x_eth.c **** /*********************************************************************
 898:../Peripheral/src/ch32v30x_eth.c ****  * @fn      ETH_DMATxDescCRCCmd
 899:../Peripheral/src/ch32v30x_eth.c ****  *
 900:../Peripheral/src/ch32v30x_eth.c ****  * @brief   Enables or disables the DMA Tx Desc CRC.
 901:../Peripheral/src/ch32v30x_eth.c ****  *
 902:../Peripheral/src/ch32v30x_eth.c ****  * @param   DMATxDesc - pointer on a DMA Tx descriptor
 903:../Peripheral/src/ch32v30x_eth.c ****  *          NewState - new state of the specified DMA Tx Desc CRC.
 904:../Peripheral/src/ch32v30x_eth.c ****  *
 905:../Peripheral/src/ch32v30x_eth.c ****  * @return  none
 906:../Peripheral/src/ch32v30x_eth.c ****  */
 907:../Peripheral/src/ch32v30x_eth.c **** void ETH_DMATxDescCRCCmd(ETH_DMADESCTypeDef *DMATxDesc, FunctionalState NewState)
 908:../Peripheral/src/ch32v30x_eth.c **** {
 909:../Peripheral/src/ch32v30x_eth.c ****     if(NewState != DISABLE)
 910:../Peripheral/src/ch32v30x_eth.c ****     {
 911:../Peripheral/src/ch32v30x_eth.c ****         DMATxDesc->Status &= (~(uint32_t)ETH_DMATxDesc_DC);
 912:../Peripheral/src/ch32v30x_eth.c ****     }
 913:../Peripheral/src/ch32v30x_eth.c ****     else
 914:../Peripheral/src/ch32v30x_eth.c ****     {
 915:../Peripheral/src/ch32v30x_eth.c ****         DMATxDesc->Status |= ETH_DMATxDesc_DC;
 916:../Peripheral/src/ch32v30x_eth.c ****     }
 917:../Peripheral/src/ch32v30x_eth.c **** }
 918:../Peripheral/src/ch32v30x_eth.c **** 
 919:../Peripheral/src/ch32v30x_eth.c **** /*********************************************************************
 920:../Peripheral/src/ch32v30x_eth.c ****  * @fn      ETH_DMATxDescEndOfRingCmd
 921:../Peripheral/src/ch32v30x_eth.c ****  *
 922:../Peripheral/src/ch32v30x_eth.c ****  * @brief   Enables or disables the DMA Tx Desc end of ring.
 923:../Peripheral/src/ch32v30x_eth.c ****  *
 924:../Peripheral/src/ch32v30x_eth.c ****  * @param   DMATxDesc - pointer on a DMA Tx descriptor.
 925:../Peripheral/src/ch32v30x_eth.c ****  *          NewState - new state of the specified DMA Tx Desc end of ring.
 926:../Peripheral/src/ch32v30x_eth.c ****  *
 927:../Peripheral/src/ch32v30x_eth.c ****  * @return  none
 928:../Peripheral/src/ch32v30x_eth.c ****  */
 929:../Peripheral/src/ch32v30x_eth.c **** void ETH_DMATxDescEndOfRingCmd(ETH_DMADESCTypeDef *DMATxDesc, FunctionalState NewState)
 930:../Peripheral/src/ch32v30x_eth.c **** {
 931:../Peripheral/src/ch32v30x_eth.c ****     if(NewState != DISABLE)
 932:../Peripheral/src/ch32v30x_eth.c ****     {
 933:../Peripheral/src/ch32v30x_eth.c ****         DMATxDesc->Status |= ETH_DMATxDesc_TER;
 934:../Peripheral/src/ch32v30x_eth.c ****     }
 935:../Peripheral/src/ch32v30x_eth.c ****     else
 936:../Peripheral/src/ch32v30x_eth.c ****     {
 937:../Peripheral/src/ch32v30x_eth.c ****         DMATxDesc->Status &= (~(uint32_t)ETH_DMATxDesc_TER);
 938:../Peripheral/src/ch32v30x_eth.c ****     }
 939:../Peripheral/src/ch32v30x_eth.c **** }
 940:../Peripheral/src/ch32v30x_eth.c **** 
 941:../Peripheral/src/ch32v30x_eth.c **** /*********************************************************************
 942:../Peripheral/src/ch32v30x_eth.c ****  * @fn      ETH_DMATxDescSecondAddressChainedCmd
 943:../Peripheral/src/ch32v30x_eth.c ****  *
 944:../Peripheral/src/ch32v30x_eth.c ****  * @brief   Enables or disables the DMA Tx Desc second address chained.
 945:../Peripheral/src/ch32v30x_eth.c ****  *
 946:../Peripheral/src/ch32v30x_eth.c ****  * @param   DMATxDesc - pointer on a DMA Tx descriptor
 947:../Peripheral/src/ch32v30x_eth.c ****  *          NewState - new state of the specified DMA Tx Desc second address chained.
 948:../Peripheral/src/ch32v30x_eth.c ****  *
 949:../Peripheral/src/ch32v30x_eth.c ****  * @return  none
 950:../Peripheral/src/ch32v30x_eth.c ****  */
 951:../Peripheral/src/ch32v30x_eth.c **** void ETH_DMATxDescSecondAddressChainedCmd(ETH_DMADESCTypeDef *DMATxDesc, FunctionalState NewState)
 952:../Peripheral/src/ch32v30x_eth.c **** {
 953:../Peripheral/src/ch32v30x_eth.c ****     if(NewState != DISABLE)
 954:../Peripheral/src/ch32v30x_eth.c ****     {
 955:../Peripheral/src/ch32v30x_eth.c ****         DMATxDesc->Status |= ETH_DMATxDesc_TCH;
 956:../Peripheral/src/ch32v30x_eth.c ****     }
 957:../Peripheral/src/ch32v30x_eth.c ****     else
 958:../Peripheral/src/ch32v30x_eth.c ****     {
 959:../Peripheral/src/ch32v30x_eth.c ****         DMATxDesc->Status &= (~(uint32_t)ETH_DMATxDesc_TCH);
 960:../Peripheral/src/ch32v30x_eth.c ****     }
 961:../Peripheral/src/ch32v30x_eth.c **** }
 962:../Peripheral/src/ch32v30x_eth.c **** 
 963:../Peripheral/src/ch32v30x_eth.c **** /*********************************************************************
 964:../Peripheral/src/ch32v30x_eth.c ****  * @fn      ETH_DMATxDescShortFramePaddingCmd
 965:../Peripheral/src/ch32v30x_eth.c ****  *
 966:../Peripheral/src/ch32v30x_eth.c ****  * @brief   Enables or disables the DMA Tx Desc padding for frame shorter than 64 bytes.
 967:../Peripheral/src/ch32v30x_eth.c ****  *
 968:../Peripheral/src/ch32v30x_eth.c ****  * @param   DMATxDesc - pointer on a DMA Tx descriptor.
 969:../Peripheral/src/ch32v30x_eth.c ****  *          NewState - new state of the specified DMA Tx Desc padding for frame shorter than 64 byt
 970:../Peripheral/src/ch32v30x_eth.c ****  *
 971:../Peripheral/src/ch32v30x_eth.c ****  * @return  none
 972:../Peripheral/src/ch32v30x_eth.c ****  */
 973:../Peripheral/src/ch32v30x_eth.c **** void ETH_DMATxDescShortFramePaddingCmd(ETH_DMADESCTypeDef *DMATxDesc, FunctionalState NewState)
 974:../Peripheral/src/ch32v30x_eth.c **** {
 975:../Peripheral/src/ch32v30x_eth.c ****     if(NewState != DISABLE)
 976:../Peripheral/src/ch32v30x_eth.c ****     {
 977:../Peripheral/src/ch32v30x_eth.c ****         DMATxDesc->Status &= (~(uint32_t)ETH_DMATxDesc_DP);
 978:../Peripheral/src/ch32v30x_eth.c ****     }
 979:../Peripheral/src/ch32v30x_eth.c ****     else
 980:../Peripheral/src/ch32v30x_eth.c ****     {
 981:../Peripheral/src/ch32v30x_eth.c ****         DMATxDesc->Status |= ETH_DMATxDesc_DP;
 982:../Peripheral/src/ch32v30x_eth.c ****     }
 983:../Peripheral/src/ch32v30x_eth.c **** }
 984:../Peripheral/src/ch32v30x_eth.c **** 
 985:../Peripheral/src/ch32v30x_eth.c **** /*********************************************************************
 986:../Peripheral/src/ch32v30x_eth.c ****  * @fn      ETH_DMATxDescTimeStampCmd
 987:../Peripheral/src/ch32v30x_eth.c ****  *
 988:../Peripheral/src/ch32v30x_eth.c ****  * @brief   Enables or disables the DMA Tx Desc time stamp.
 989:../Peripheral/src/ch32v30x_eth.c ****  *
 990:../Peripheral/src/ch32v30x_eth.c ****  * @param   DMATxDesc - pointer on a DMA Tx descriptor
 991:../Peripheral/src/ch32v30x_eth.c ****  *          NewState - new state of the specified DMA Tx Desc time stamp.
 992:../Peripheral/src/ch32v30x_eth.c ****  *
 993:../Peripheral/src/ch32v30x_eth.c ****  * @return  none
 994:../Peripheral/src/ch32v30x_eth.c ****  */
 995:../Peripheral/src/ch32v30x_eth.c **** void ETH_DMATxDescTimeStampCmd(ETH_DMADESCTypeDef *DMATxDesc, FunctionalState NewState)
 996:../Peripheral/src/ch32v30x_eth.c **** {
 997:../Peripheral/src/ch32v30x_eth.c ****     if(NewState != DISABLE)
 998:../Peripheral/src/ch32v30x_eth.c ****     {
 999:../Peripheral/src/ch32v30x_eth.c ****         DMATxDesc->Status |= ETH_DMATxDesc_TTSE;
1000:../Peripheral/src/ch32v30x_eth.c ****     }
1001:../Peripheral/src/ch32v30x_eth.c ****     else
1002:../Peripheral/src/ch32v30x_eth.c ****     {
1003:../Peripheral/src/ch32v30x_eth.c ****         DMATxDesc->Status &= (~(uint32_t)ETH_DMATxDesc_TTSE);
1004:../Peripheral/src/ch32v30x_eth.c ****     }
1005:../Peripheral/src/ch32v30x_eth.c **** }
1006:../Peripheral/src/ch32v30x_eth.c **** 
1007:../Peripheral/src/ch32v30x_eth.c **** /*********************************************************************
1008:../Peripheral/src/ch32v30x_eth.c ****  * @fn      ETH_DMATxDescBufferSizeConfig
1009:../Peripheral/src/ch32v30x_eth.c ****  *
1010:../Peripheral/src/ch32v30x_eth.c ****  * @brief   Configures the specified DMA Tx Desc buffer1 and buffer2 sizes.
1011:../Peripheral/src/ch32v30x_eth.c ****  *
1012:../Peripheral/src/ch32v30x_eth.c ****  * @param   DMATxDesc - Pointer on a Tx desc.
1013:../Peripheral/src/ch32v30x_eth.c ****  *          BufferSize1 - specifies the Tx desc buffer1 size.
1014:../Peripheral/src/ch32v30x_eth.c ****  *          RxBuff2 - Pointer on the first RxBuffer2 list
1015:../Peripheral/src/ch32v30x_eth.c ****  *          BufferSize2 - specifies the Tx desc buffer2 size (put "0" if not used).
1016:../Peripheral/src/ch32v30x_eth.c ****  *
1017:../Peripheral/src/ch32v30x_eth.c ****  * @return  none
1018:../Peripheral/src/ch32v30x_eth.c ****  */
1019:../Peripheral/src/ch32v30x_eth.c **** void ETH_DMATxDescBufferSizeConfig(ETH_DMADESCTypeDef *DMATxDesc, uint32_t BufferSize1, uint32_t Bu
1020:../Peripheral/src/ch32v30x_eth.c **** {
1021:../Peripheral/src/ch32v30x_eth.c ****     DMATxDesc->ControlBufferSize |= (BufferSize1 | (BufferSize2 << ETH_DMATXDESC_BUFFER2_SIZESHIFT)
1022:../Peripheral/src/ch32v30x_eth.c **** }
1023:../Peripheral/src/ch32v30x_eth.c **** 
1024:../Peripheral/src/ch32v30x_eth.c **** /*********************************************************************
1025:../Peripheral/src/ch32v30x_eth.c ****  * @fn      ETH_DMARxDescChainInit
1026:../Peripheral/src/ch32v30x_eth.c ****  *
1027:../Peripheral/src/ch32v30x_eth.c ****  * @brief   Initializes the DMA Rx descriptors in chain mode.
1028:../Peripheral/src/ch32v30x_eth.c ****  *
1029:../Peripheral/src/ch32v30x_eth.c ****  * @param   DMARxDescTab - Pointer on the first Rx desc list.
1030:../Peripheral/src/ch32v30x_eth.c ****  *          RxBuff - Pointer on the first RxBuffer list.
1031:../Peripheral/src/ch32v30x_eth.c ****  *          RxBuffCount - Number of the used Rx desc in the list.
1032:../Peripheral/src/ch32v30x_eth.c ****  *
1033:../Peripheral/src/ch32v30x_eth.c ****  * @return  none
1034:../Peripheral/src/ch32v30x_eth.c ****  */
1035:../Peripheral/src/ch32v30x_eth.c **** void ETH_DMARxDescChainInit(ETH_DMADESCTypeDef *DMARxDescTab, uint8_t *RxBuff, uint32_t RxBuffCount
1036:../Peripheral/src/ch32v30x_eth.c **** {
1037:../Peripheral/src/ch32v30x_eth.c ****     uint32_t            i = 0;
1038:../Peripheral/src/ch32v30x_eth.c ****     ETH_DMADESCTypeDef *DMARxDesc;
1039:../Peripheral/src/ch32v30x_eth.c **** 
1040:../Peripheral/src/ch32v30x_eth.c ****     DMARxDescToGet = DMARxDescTab;
1041:../Peripheral/src/ch32v30x_eth.c **** 
1042:../Peripheral/src/ch32v30x_eth.c ****     for(i = 0; i < RxBuffCount; i++)
1043:../Peripheral/src/ch32v30x_eth.c ****     {
1044:../Peripheral/src/ch32v30x_eth.c ****         DMARxDesc = DMARxDescTab + i;
1045:../Peripheral/src/ch32v30x_eth.c ****         DMARxDesc->Status = ETH_DMARxDesc_OWN;
1046:../Peripheral/src/ch32v30x_eth.c ****         DMARxDesc->ControlBufferSize = ETH_DMARxDesc_RCH | (uint32_t)ETH_MAX_PACKET_SIZE;
1047:../Peripheral/src/ch32v30x_eth.c ****         DMARxDesc->Buffer1Addr = (uint32_t)(&RxBuff[i * ETH_MAX_PACKET_SIZE]);
1048:../Peripheral/src/ch32v30x_eth.c **** 
1049:../Peripheral/src/ch32v30x_eth.c ****         if(i < (RxBuffCount - 1))
1050:../Peripheral/src/ch32v30x_eth.c ****         {
1051:../Peripheral/src/ch32v30x_eth.c ****             DMARxDesc->Buffer2NextDescAddr = (uint32_t)(DMARxDescTab + i + 1);
1052:../Peripheral/src/ch32v30x_eth.c ****         }
1053:../Peripheral/src/ch32v30x_eth.c ****         else
1054:../Peripheral/src/ch32v30x_eth.c ****         {
1055:../Peripheral/src/ch32v30x_eth.c ****             DMARxDesc->Buffer2NextDescAddr = (uint32_t)(DMARxDescTab);
1056:../Peripheral/src/ch32v30x_eth.c ****         }
1057:../Peripheral/src/ch32v30x_eth.c ****     }
1058:../Peripheral/src/ch32v30x_eth.c **** 
1059:../Peripheral/src/ch32v30x_eth.c ****     ETH->DMARDLAR = (uint32_t)DMARxDescTab;
1060:../Peripheral/src/ch32v30x_eth.c **** }
1061:../Peripheral/src/ch32v30x_eth.c **** 
1062:../Peripheral/src/ch32v30x_eth.c **** /*********************************************************************
1063:../Peripheral/src/ch32v30x_eth.c ****  * @fn      ETH_DMARxDescRingInit
1064:../Peripheral/src/ch32v30x_eth.c ****  *
1065:../Peripheral/src/ch32v30x_eth.c ****  * @brief   Initializes the DMA Rx descriptors in ring mode.
1066:../Peripheral/src/ch32v30x_eth.c ****  *
1067:../Peripheral/src/ch32v30x_eth.c ****  * @param   DMARxDescTab - Pointer on the first Rx desc list.
1068:../Peripheral/src/ch32v30x_eth.c ****  *            RxBuff1 - Pointer on the first RxBuffer1 list.
1069:../Peripheral/src/ch32v30x_eth.c ****  *            RxBuff2 - Pointer on the first RxBuffer2 list
1070:../Peripheral/src/ch32v30x_eth.c ****  *            RxBuffCount - Number of the used Rx desc in the list.
1071:../Peripheral/src/ch32v30x_eth.c ****  *
1072:../Peripheral/src/ch32v30x_eth.c ****  * @return  none
1073:../Peripheral/src/ch32v30x_eth.c ****  */
1074:../Peripheral/src/ch32v30x_eth.c **** void ETH_DMARxDescRingInit(ETH_DMADESCTypeDef *DMARxDescTab, uint8_t *RxBuff1, uint8_t *RxBuff2, ui
1075:../Peripheral/src/ch32v30x_eth.c **** {
1076:../Peripheral/src/ch32v30x_eth.c ****     uint32_t            i = 0;
1077:../Peripheral/src/ch32v30x_eth.c ****     ETH_DMADESCTypeDef *DMARxDesc;
1078:../Peripheral/src/ch32v30x_eth.c **** 
1079:../Peripheral/src/ch32v30x_eth.c ****     DMARxDescToGet = DMARxDescTab;
1080:../Peripheral/src/ch32v30x_eth.c **** 
1081:../Peripheral/src/ch32v30x_eth.c ****     for(i = 0; i < RxBuffCount; i++)
1082:../Peripheral/src/ch32v30x_eth.c ****     {
1083:../Peripheral/src/ch32v30x_eth.c ****         DMARxDesc = DMARxDescTab + i;
1084:../Peripheral/src/ch32v30x_eth.c ****         DMARxDesc->Status = ETH_DMARxDesc_OWN;
1085:../Peripheral/src/ch32v30x_eth.c ****         DMARxDesc->ControlBufferSize = ETH_MAX_PACKET_SIZE;
1086:../Peripheral/src/ch32v30x_eth.c ****         DMARxDesc->Buffer1Addr = (uint32_t)(&RxBuff1[i * ETH_MAX_PACKET_SIZE]);
1087:../Peripheral/src/ch32v30x_eth.c ****         DMARxDesc->Buffer2NextDescAddr = (uint32_t)(&RxBuff2[i * ETH_MAX_PACKET_SIZE]);
1088:../Peripheral/src/ch32v30x_eth.c **** 
1089:../Peripheral/src/ch32v30x_eth.c ****         if(i == (RxBuffCount - 1))
1090:../Peripheral/src/ch32v30x_eth.c ****         {
1091:../Peripheral/src/ch32v30x_eth.c ****             DMARxDesc->ControlBufferSize |= ETH_DMARxDesc_RER;
1092:../Peripheral/src/ch32v30x_eth.c ****         }
1093:../Peripheral/src/ch32v30x_eth.c ****     }
1094:../Peripheral/src/ch32v30x_eth.c **** 
1095:../Peripheral/src/ch32v30x_eth.c ****     ETH->DMARDLAR = (uint32_t)DMARxDescTab;
1096:../Peripheral/src/ch32v30x_eth.c **** }
1097:../Peripheral/src/ch32v30x_eth.c **** 
1098:../Peripheral/src/ch32v30x_eth.c **** /*********************************************************************
1099:../Peripheral/src/ch32v30x_eth.c ****  * @fn      ETH_GetDMARxDescFlagStatus
1100:../Peripheral/src/ch32v30x_eth.c ****  *
1101:../Peripheral/src/ch32v30x_eth.c ****  * @brief   Checks whether the specified ETHERNET Rx Desc flag is set or not.
1102:../Peripheral/src/ch32v30x_eth.c ****  *
1103:../Peripheral/src/ch32v30x_eth.c ****  * @param   DMARxDesc - pointer on a DMA Rx descriptor.
1104:../Peripheral/src/ch32v30x_eth.c ****  *          ETH_DMARxDescFlag - specifies the flag to check.
1105:../Peripheral/src/ch32v30x_eth.c ****  *            ETH_DMARxDesc_OWN - OWN bit: descriptor is owned by DMA engine
1106:../Peripheral/src/ch32v30x_eth.c ****  *            ETH_DMARxDesc_AFM - DA Filter Fail for the rx frame
1107:../Peripheral/src/ch32v30x_eth.c ****  *            ETH_DMARxDesc_ES - Error summary
1108:../Peripheral/src/ch32v30x_eth.c ****  *            ETH_DMARxDesc_DE - Desciptor error: no more descriptors for receive frame
1109:../Peripheral/src/ch32v30x_eth.c ****  *            ETH_DMARxDesc_SAF - SA Filter Fail for the received frame
1110:../Peripheral/src/ch32v30x_eth.c ****  *            ETH_DMARxDesc_LE - Frame size not matching with length field
1111:../Peripheral/src/ch32v30x_eth.c ****  *            ETH_DMARxDesc_OE - Overflow Error: Frame was damaged due to buffer overflow
1112:../Peripheral/src/ch32v30x_eth.c ****  *            ETH_DMARxDesc_VLAN - VLAN Tag: received frame is a VLAN frame
1113:../Peripheral/src/ch32v30x_eth.c ****  *            ETH_DMARxDesc_FS - First descriptor of the frame
1114:../Peripheral/src/ch32v30x_eth.c ****  *            ETH_DMARxDesc_LS - Last descriptor of the frame
1115:../Peripheral/src/ch32v30x_eth.c ****  *            ETH_DMARxDesc_IPV4HCE - IPC Checksum Error/Giant Frame: Rx Ipv4 header checksum error
1116:../Peripheral/src/ch32v30x_eth.c ****  *            ETH_DMARxDesc_LC - Late collision occurred during reception
1117:../Peripheral/src/ch32v30x_eth.c ****  *            ETH_DMARxDesc_FT - Frame type - Ethernet, otherwise 802.3
1118:../Peripheral/src/ch32v30x_eth.c ****  *            ETH_DMARxDesc_RWT - Receive Watchdog Timeout: watchdog timer expired during reception
1119:../Peripheral/src/ch32v30x_eth.c ****  *            ETH_DMARxDesc_RE - Receive error: error reported by MII interface
1120:../Peripheral/src/ch32v30x_eth.c ****  *            ETH_DMARxDesc_DE - Dribble bit error: frame contains non int multiple of 8 bits
1121:../Peripheral/src/ch32v30x_eth.c ****  *            ETH_DMARxDesc_CE - CRC error
1122:../Peripheral/src/ch32v30x_eth.c ****  *            ETH_DMARxDesc_MAMPCE - Rx MAC Address/Payload Checksum Error: Rx MAC address matched/
1123:../Peripheral/src/ch32v30x_eth.c ****  *
1124:../Peripheral/src/ch32v30x_eth.c ****  * @return  The new state of ETH_DMARxDescFlag (SET or RESET).
1125:../Peripheral/src/ch32v30x_eth.c ****  */
1126:../Peripheral/src/ch32v30x_eth.c **** FlagStatus ETH_GetDMARxDescFlagStatus(ETH_DMADESCTypeDef *DMARxDesc, uint32_t ETH_DMARxDescFlag)
1127:../Peripheral/src/ch32v30x_eth.c **** {
1128:../Peripheral/src/ch32v30x_eth.c ****     FlagStatus bitstatus = RESET;
1129:../Peripheral/src/ch32v30x_eth.c **** 
1130:../Peripheral/src/ch32v30x_eth.c ****     if((DMARxDesc->Status & ETH_DMARxDescFlag) != (uint32_t)RESET)
1131:../Peripheral/src/ch32v30x_eth.c ****     {
1132:../Peripheral/src/ch32v30x_eth.c ****         bitstatus = SET;
1133:../Peripheral/src/ch32v30x_eth.c ****     }
1134:../Peripheral/src/ch32v30x_eth.c ****     else
1135:../Peripheral/src/ch32v30x_eth.c ****     {
1136:../Peripheral/src/ch32v30x_eth.c ****         bitstatus = RESET;
1137:../Peripheral/src/ch32v30x_eth.c ****     }
1138:../Peripheral/src/ch32v30x_eth.c **** 
1139:../Peripheral/src/ch32v30x_eth.c ****     return bitstatus;
1140:../Peripheral/src/ch32v30x_eth.c **** }
1141:../Peripheral/src/ch32v30x_eth.c **** 
1142:../Peripheral/src/ch32v30x_eth.c **** /*********************************************************************
1143:../Peripheral/src/ch32v30x_eth.c ****  * @fn      ETH_SetDMARxDescOwnBit
1144:../Peripheral/src/ch32v30x_eth.c ****  *
1145:../Peripheral/src/ch32v30x_eth.c ****  * @brief   Set the specified DMA Rx Desc Own bit.
1146:../Peripheral/src/ch32v30x_eth.c ****  *
1147:../Peripheral/src/ch32v30x_eth.c ****  * @param   DMARxDesc - Pointer on a Rx desc
1148:../Peripheral/src/ch32v30x_eth.c ****  *
1149:../Peripheral/src/ch32v30x_eth.c ****  * @return  none
1150:../Peripheral/src/ch32v30x_eth.c ****  */
1151:../Peripheral/src/ch32v30x_eth.c **** void ETH_SetDMARxDescOwnBit(ETH_DMADESCTypeDef *DMARxDesc)
1152:../Peripheral/src/ch32v30x_eth.c **** {
1153:../Peripheral/src/ch32v30x_eth.c ****     DMARxDesc->Status |= ETH_DMARxDesc_OWN;
1154:../Peripheral/src/ch32v30x_eth.c **** }
1155:../Peripheral/src/ch32v30x_eth.c **** 
1156:../Peripheral/src/ch32v30x_eth.c **** /*********************************************************************
1157:../Peripheral/src/ch32v30x_eth.c ****  * @fn      ETH_GetDMARxDescFrameLength
1158:../Peripheral/src/ch32v30x_eth.c ****  *
1159:../Peripheral/src/ch32v30x_eth.c ****  * @brief   Returns the specified DMA Rx Desc frame length.
1160:../Peripheral/src/ch32v30x_eth.c ****  *
1161:../Peripheral/src/ch32v30x_eth.c ****  * @param   DMARxDesc - pointer on a DMA Rx descriptor
1162:../Peripheral/src/ch32v30x_eth.c ****  *
1163:../Peripheral/src/ch32v30x_eth.c ****  * @return  The Rx descriptor received frame length.
1164:../Peripheral/src/ch32v30x_eth.c ****  */
1165:../Peripheral/src/ch32v30x_eth.c **** uint32_t ETH_GetDMARxDescFrameLength(ETH_DMADESCTypeDef *DMARxDesc)
1166:../Peripheral/src/ch32v30x_eth.c **** {
1167:../Peripheral/src/ch32v30x_eth.c ****     return ((DMARxDesc->Status & ETH_DMARxDesc_FL) >> ETH_DMARXDESC_FRAME_LENGTHSHIFT);
 536              		.loc 1 1167 5
 537              		.loc 1 1167 23 is_stmt 0
 538 0028 8843     		lw	a0,0(a5)
 539              		.loc 1 1167 52
 540 002a 0A05     		slli	a0,a0,2
 541 002c 4981     		srli	a0,a0,18
 542              	.LVL24:
 543              	.L36:
 544              	.LBE13:
 545              	.LBE12:
 250:../Peripheral/src/ch32v30x_eth.c **** 
 546              		.loc 1 250 1
 547 002e 8280     		ret
 548              		.cfi_endproc
 549              	.LFE34:
 551              		.section	.text.ETH_DropRxPkt,"ax",@progbits
 552              		.align	1
 553              		.globl	ETH_DropRxPkt
 555              	ETH_DropRxPkt:
 556              	.LFB35:
 260:../Peripheral/src/ch32v30x_eth.c ****     DMARxDescToGet->Status = ETH_DMARxDesc_OWN;
 557              		.loc 1 260 1 is_stmt 1
 558              		.cfi_startproc
 261:../Peripheral/src/ch32v30x_eth.c **** 
 559              		.loc 1 261 5
 261:../Peripheral/src/ch32v30x_eth.c **** 
 560              		.loc 1 261 19 is_stmt 0
 561 0000 17060000 		lla	a2,DMARxDescToGet
 561      13060600 
 562 0008 1842     		lw	a4,0(a2)
 261:../Peripheral/src/ch32v30x_eth.c **** 
 563              		.loc 1 261 28
 564 000a B7070080 		li	a5,-2147483648
 263:../Peripheral/src/ch32v30x_eth.c ****     {
 565              		.loc 1 263 43
 566 000e 9166     		li	a3,16384
 261:../Peripheral/src/ch32v30x_eth.c **** 
 567              		.loc 1 261 28
 568 0010 1CC3     		sw	a5,0(a4)
 263:../Peripheral/src/ch32v30x_eth.c ****     {
 569              		.loc 1 263 5 is_stmt 1
 263:../Peripheral/src/ch32v30x_eth.c ****     {
 570              		.loc 1 263 23 is_stmt 0
 571 0012 5C43     		lw	a5,4(a4)
 263:../Peripheral/src/ch32v30x_eth.c ****     {
 572              		.loc 1 263 43
 573 0014 FD8E     		and	a3,a5,a3
 263:../Peripheral/src/ch32v30x_eth.c ****     {
 574              		.loc 1 263 7
 575 0016 81C6     		beq	a3,zero,.L47
 265:../Peripheral/src/ch32v30x_eth.c ****     }
 576              		.loc 1 265 9 is_stmt 1
 265:../Peripheral/src/ch32v30x_eth.c ****     }
 577              		.loc 1 265 26 is_stmt 0
 578 0018 5C47     		lw	a5,12(a4)
 579              	.L48:
 265:../Peripheral/src/ch32v30x_eth.c ****     }
 580              		.loc 1 265 24
 581 001a 1CC2     		sw	a5,0(a2)
 278:../Peripheral/src/ch32v30x_eth.c **** 
 582              		.loc 1 278 1
 583 001c 8280     		ret
 584              	.L47:
 269:../Peripheral/src/ch32v30x_eth.c ****         {
 585              		.loc 1 269 9 is_stmt 1
 269:../Peripheral/src/ch32v30x_eth.c ****         {
 586              		.loc 1 269 47 is_stmt 0
 587 001e A166     		li	a3,32768
 588 0020 F58F     		and	a5,a5,a3
 269:../Peripheral/src/ch32v30x_eth.c ****         {
 589              		.loc 1 269 11
 590 0022 89C7     		beq	a5,zero,.L49
 271:../Peripheral/src/ch32v30x_eth.c ****         }
 591              		.loc 1 271 13 is_stmt 1
 271:../Peripheral/src/ch32v30x_eth.c ****         }
 592              		.loc 1 271 56 is_stmt 0
 593 0024 B7970240 		li	a5,1073909760
 594 0028 DC47     		lw	a5,12(a5)
 595 002a C5BF     		j	.L48
 596              	.L49:
 275:../Peripheral/src/ch32v30x_eth.c ****         }
 597              		.loc 1 275 13 is_stmt 1
 275:../Peripheral/src/ch32v30x_eth.c ****         }
 598              		.loc 1 275 92 is_stmt 0
 599 002c B7970240 		li	a5,1073909760
 600 0030 9C43     		lw	a5,0(a5)
 275:../Peripheral/src/ch32v30x_eth.c ****         }
 601              		.loc 1 275 85
 602 0032 4107     		addi	a4,a4,16
 275:../Peripheral/src/ch32v30x_eth.c ****         }
 603              		.loc 1 275 119
 604 0034 8983     		srli	a5,a5,2
 605 0036 FD8B     		andi	a5,a5,31
 275:../Peripheral/src/ch32v30x_eth.c ****         }
 606              		.loc 1 275 85
 607 0038 BA97     		add	a5,a5,a4
 608 003a C5B7     		j	.L48
 609              		.cfi_endproc
 610              	.LFE35:
 612              		.section	.text.ETH_ReadPHYRegister,"ax",@progbits
 613              		.align	1
 614              		.globl	ETH_ReadPHYRegister
 616              	ETH_ReadPHYRegister:
 617              	.LFB36:
 292:../Peripheral/src/ch32v30x_eth.c ****     uint32_t      tmpreg = 0;
 618              		.loc 1 292 1 is_stmt 1
 619              		.cfi_startproc
 620              	.LVL25:
 293:../Peripheral/src/ch32v30x_eth.c ****     __IO uint32_t timeout = 0;
 621              		.loc 1 293 5
 294:../Peripheral/src/ch32v30x_eth.c **** 
 622              		.loc 1 294 5
 292:../Peripheral/src/ch32v30x_eth.c ****     uint32_t      tmpreg = 0;
 623              		.loc 1 292 1 is_stmt 0
 624 0000 4111     		addi	sp,sp,-16
 625              		.cfi_def_cfa_offset 16
 294:../Peripheral/src/ch32v30x_eth.c **** 
 626              		.loc 1 294 19
 627 0002 02C6     		sw	zero,12(sp)
 296:../Peripheral/src/ch32v30x_eth.c ****     tmpreg &= ~MACMIIAR_CR_MASK;
 628              		.loc 1 296 5 is_stmt 1
 296:../Peripheral/src/ch32v30x_eth.c ****     tmpreg &= ~MACMIIAR_CR_MASK;
 629              		.loc 1 296 12 is_stmt 0
 630 0004 B7860240 		li	a3,1073905664
 631 0008 9C4A     		lw	a5,16(a3)
 632              	.LVL26:
 297:../Peripheral/src/ch32v30x_eth.c ****     tmpreg |= (((uint32_t)PHYAddress << 11) & ETH_MACMIIAR_PA);
 633              		.loc 1 297 5 is_stmt 1
 298:../Peripheral/src/ch32v30x_eth.c ****     tmpreg |= (((uint32_t)PHYReg << 6) & ETH_MACMIIAR_MR);
 634              		.loc 1 298 45 is_stmt 0
 635 000a 4167     		li	a4,65536
 298:../Peripheral/src/ch32v30x_eth.c ****     tmpreg |= (((uint32_t)PHYReg << 6) & ETH_MACMIIAR_MR);
 636              		.loc 1 298 38
 637 000c 2E05     		slli	a0,a0,11
 638              	.LVL27:
 298:../Peripheral/src/ch32v30x_eth.c ****     tmpreg |= (((uint32_t)PHYReg << 6) & ETH_MACMIIAR_MR);
 639              		.loc 1 298 45
 640 000e 7D17     		addi	a4,a4,-1
 297:../Peripheral/src/ch32v30x_eth.c ****     tmpreg |= (((uint32_t)PHYAddress << 11) & ETH_MACMIIAR_PA);
 641              		.loc 1 297 12
 642 0010 F18B     		andi	a5,a5,28
 643              	.LVL28:
 298:../Peripheral/src/ch32v30x_eth.c ****     tmpreg |= (((uint32_t)PHYReg << 6) & ETH_MACMIIAR_MR);
 644              		.loc 1 298 5 is_stmt 1
 298:../Peripheral/src/ch32v30x_eth.c ****     tmpreg |= (((uint32_t)PHYReg << 6) & ETH_MACMIIAR_MR);
 645              		.loc 1 298 45 is_stmt 0
 646 0012 798D     		and	a0,a0,a4
 299:../Peripheral/src/ch32v30x_eth.c ****     tmpreg &= ~ETH_MACMIIAR_MW;
 647              		.loc 1 299 34
 648 0014 9A05     		slli	a1,a1,6
 649              	.LVL29:
 298:../Peripheral/src/ch32v30x_eth.c ****     tmpreg |= (((uint32_t)PHYReg << 6) & ETH_MACMIIAR_MR);
 650              		.loc 1 298 12
 651 0016 5D8D     		or	a0,a0,a5
 652              	.LVL30:
 299:../Peripheral/src/ch32v30x_eth.c ****     tmpreg &= ~ETH_MACMIIAR_MW;
 653              		.loc 1 299 5 is_stmt 1
 299:../Peripheral/src/ch32v30x_eth.c ****     tmpreg &= ~ETH_MACMIIAR_MW;
 654              		.loc 1 299 40 is_stmt 0
 655 0018 93F5057C 		andi	a1,a1,1984
 299:../Peripheral/src/ch32v30x_eth.c ****     tmpreg &= ~ETH_MACMIIAR_MW;
 656              		.loc 1 299 12
 657 001c C98D     		or	a1,a1,a0
 658              	.LVL31:
 300:../Peripheral/src/ch32v30x_eth.c ****     tmpreg |= ETH_MACMIIAR_MB;
 659              		.loc 1 300 5 is_stmt 1
 301:../Peripheral/src/ch32v30x_eth.c ****     ETH->MACMIIAR = tmpreg;
 660              		.loc 1 301 5
 301:../Peripheral/src/ch32v30x_eth.c ****     ETH->MACMIIAR = tmpreg;
 661              		.loc 1 301 12 is_stmt 0
 662 001e 93E51500 		ori	a1,a1,1
 663              	.LVL32:
 302:../Peripheral/src/ch32v30x_eth.c **** 
 664              		.loc 1 302 5 is_stmt 1
 308:../Peripheral/src/ch32v30x_eth.c **** 
 665              		.loc 1 308 40 is_stmt 0
 666 0022 B7075000 		li	a5,5242880
 302:../Peripheral/src/ch32v30x_eth.c **** 
 667              		.loc 1 302 19
 668 0026 8CCA     		sw	a1,16(a3)
 308:../Peripheral/src/ch32v30x_eth.c **** 
 669              		.loc 1 308 40
 670 0028 F917     		addi	a5,a5,-2
 671              	.LVL33:
 672              	.L52:
 304:../Peripheral/src/ch32v30x_eth.c ****     {
 673              		.loc 1 304 5 is_stmt 1 discriminator 2
 306:../Peripheral/src/ch32v30x_eth.c ****         tmpreg = ETH->MACMIIAR;
 674              		.loc 1 306 9 discriminator 2
 306:../Peripheral/src/ch32v30x_eth.c ****         tmpreg = ETH->MACMIIAR;
 675              		.loc 1 306 16 is_stmt 0 discriminator 2
 676 002a 3247     		lw	a4,12(sp)
 677 002c 0507     		addi	a4,a4,1
 678 002e 3AC6     		sw	a4,12(sp)
 307:../Peripheral/src/ch32v30x_eth.c ****     } while((tmpreg & ETH_MACMIIAR_MB) && (timeout < (uint32_t)PHY_READ_TO));
 679              		.loc 1 307 9 is_stmt 1 discriminator 2
 307:../Peripheral/src/ch32v30x_eth.c ****     } while((tmpreg & ETH_MACMIIAR_MB) && (timeout < (uint32_t)PHY_READ_TO));
 680              		.loc 1 307 16 is_stmt 0 discriminator 2
 681 0030 984A     		lw	a4,16(a3)
 682              	.LVL34:
 308:../Peripheral/src/ch32v30x_eth.c **** 
 683              		.loc 1 308 40 is_stmt 1 discriminator 2
 308:../Peripheral/src/ch32v30x_eth.c **** 
 684              		.loc 1 308 21 is_stmt 0 discriminator 2
 685 0032 058B     		andi	a4,a4,1
 686              	.LVL35:
 308:../Peripheral/src/ch32v30x_eth.c **** 
 687              		.loc 1 308 40 discriminator 2
 688 0034 01C7     		beq	a4,zero,.L51
 308:../Peripheral/src/ch32v30x_eth.c **** 
 689              		.loc 1 308 52 discriminator 1
 690 0036 3247     		lw	a4,12(sp)
 308:../Peripheral/src/ch32v30x_eth.c **** 
 691              		.loc 1 308 40 discriminator 1
 692 0038 E3F9E7FE 		bleu	a4,a5,.L52
 693              	.L51:
 310:../Peripheral/src/ch32v30x_eth.c ****     {
 694              		.loc 1 310 5 is_stmt 1
 310:../Peripheral/src/ch32v30x_eth.c ****     {
 695              		.loc 1 310 16 is_stmt 0
 696 003c 3247     		lw	a4,12(sp)
 310:../Peripheral/src/ch32v30x_eth.c ****     {
 697              		.loc 1 310 7
 698 003e B7075000 		li	a5,5242880
 699 0042 FD17     		addi	a5,a5,-1
 312:../Peripheral/src/ch32v30x_eth.c ****     }
 700              		.loc 1 312 16
 701 0044 0145     		li	a0,0
 310:../Peripheral/src/ch32v30x_eth.c ****     {
 702              		.loc 1 310 7
 703 0046 6307F700 		beq	a4,a5,.L53
 315:../Peripheral/src/ch32v30x_eth.c **** }
 704              		.loc 1 315 5 is_stmt 1
 315:../Peripheral/src/ch32v30x_eth.c **** }
 705              		.loc 1 315 26 is_stmt 0
 706 004a B7870240 		li	a5,1073905664
 707 004e C84B     		lw	a0,20(a5)
 315:../Peripheral/src/ch32v30x_eth.c **** }
 708              		.loc 1 315 12
 709 0050 4205     		slli	a0,a0,16
 710 0052 4181     		srli	a0,a0,16
 711              	.L53:
 316:../Peripheral/src/ch32v30x_eth.c **** 
 712              		.loc 1 316 1
 713 0054 4101     		addi	sp,sp,16
 714              		.cfi_def_cfa_offset 0
 715 0056 8280     		jr	ra
 716              		.cfi_endproc
 717              	.LFE36:
 719              		.section	.text.ETH_WritePHYRegister,"ax",@progbits
 720              		.align	1
 721              		.globl	ETH_WritePHYRegister
 723              	ETH_WritePHYRegister:
 724              	.LFB37:
 331:../Peripheral/src/ch32v30x_eth.c ****     uint32_t      tmpreg = 0;
 725              		.loc 1 331 1 is_stmt 1
 726              		.cfi_startproc
 727              	.LVL36:
 332:../Peripheral/src/ch32v30x_eth.c ****     __IO uint32_t timeout = 0;
 728              		.loc 1 332 5
 333:../Peripheral/src/ch32v30x_eth.c **** 
 729              		.loc 1 333 5
 331:../Peripheral/src/ch32v30x_eth.c ****     uint32_t      tmpreg = 0;
 730              		.loc 1 331 1 is_stmt 0
 731 0000 4111     		addi	sp,sp,-16
 732              		.cfi_def_cfa_offset 16
 335:../Peripheral/src/ch32v30x_eth.c ****     tmpreg &= ~MACMIIAR_CR_MASK;
 733              		.loc 1 335 12
 734 0002 B7870240 		li	a5,1073905664
 333:../Peripheral/src/ch32v30x_eth.c **** 
 735              		.loc 1 333 19
 736 0006 02C6     		sw	zero,12(sp)
 335:../Peripheral/src/ch32v30x_eth.c ****     tmpreg &= ~MACMIIAR_CR_MASK;
 737              		.loc 1 335 5 is_stmt 1
 335:../Peripheral/src/ch32v30x_eth.c ****     tmpreg &= ~MACMIIAR_CR_MASK;
 738              		.loc 1 335 12 is_stmt 0
 739 0008 984B     		lw	a4,16(a5)
 740              	.LVL37:
 336:../Peripheral/src/ch32v30x_eth.c ****     tmpreg |= (((uint32_t)PHYAddress << 11) & ETH_MACMIIAR_PA);
 741              		.loc 1 336 5 is_stmt 1
 337:../Peripheral/src/ch32v30x_eth.c ****     tmpreg |= (((uint32_t)PHYReg << 6) & ETH_MACMIIAR_MR);
 742              		.loc 1 337 45 is_stmt 0
 743 000a C166     		li	a3,65536
 744 000c FD16     		addi	a3,a3,-1
 337:../Peripheral/src/ch32v30x_eth.c ****     tmpreg |= (((uint32_t)PHYReg << 6) & ETH_MACMIIAR_MR);
 745              		.loc 1 337 38
 746 000e 2E05     		slli	a0,a0,11
 747              	.LVL38:
 337:../Peripheral/src/ch32v30x_eth.c ****     tmpreg |= (((uint32_t)PHYReg << 6) & ETH_MACMIIAR_MR);
 748              		.loc 1 337 45
 749 0010 758D     		and	a0,a0,a3
 336:../Peripheral/src/ch32v30x_eth.c ****     tmpreg |= (((uint32_t)PHYAddress << 11) & ETH_MACMIIAR_PA);
 750              		.loc 1 336 12
 751 0012 718B     		andi	a4,a4,28
 752              	.LVL39:
 337:../Peripheral/src/ch32v30x_eth.c ****     tmpreg |= (((uint32_t)PHYReg << 6) & ETH_MACMIIAR_MR);
 753              		.loc 1 337 5 is_stmt 1
 338:../Peripheral/src/ch32v30x_eth.c ****     tmpreg |= ETH_MACMIIAR_MW;
 754              		.loc 1 338 34 is_stmt 0
 755 0014 9A05     		slli	a1,a1,6
 756              	.LVL40:
 337:../Peripheral/src/ch32v30x_eth.c ****     tmpreg |= (((uint32_t)PHYReg << 6) & ETH_MACMIIAR_MR);
 757              		.loc 1 337 12
 758 0016 598D     		or	a0,a0,a4
 759              	.LVL41:
 338:../Peripheral/src/ch32v30x_eth.c ****     tmpreg |= ETH_MACMIIAR_MW;
 760              		.loc 1 338 5 is_stmt 1
 338:../Peripheral/src/ch32v30x_eth.c ****     tmpreg |= ETH_MACMIIAR_MW;
 761              		.loc 1 338 40 is_stmt 0
 762 0018 93F5057C 		andi	a1,a1,1984
 338:../Peripheral/src/ch32v30x_eth.c ****     tmpreg |= ETH_MACMIIAR_MW;
 763              		.loc 1 338 12
 764 001c C98D     		or	a1,a1,a0
 765              	.LVL42:
 339:../Peripheral/src/ch32v30x_eth.c ****     tmpreg |= ETH_MACMIIAR_MB;
 766              		.loc 1 339 5 is_stmt 1
 340:../Peripheral/src/ch32v30x_eth.c ****     ETH->MACMIIDR = PHYValue;
 767              		.loc 1 340 5
 341:../Peripheral/src/ch32v30x_eth.c ****     ETH->MACMIIAR = tmpreg;
 768              		.loc 1 341 19 is_stmt 0
 769 001e D0CB     		sw	a2,20(a5)
 340:../Peripheral/src/ch32v30x_eth.c ****     ETH->MACMIIDR = PHYValue;
 770              		.loc 1 340 12
 771 0020 93E53500 		ori	a1,a1,3
 772              	.LVL43:
 341:../Peripheral/src/ch32v30x_eth.c ****     ETH->MACMIIAR = tmpreg;
 773              		.loc 1 341 5 is_stmt 1
 342:../Peripheral/src/ch32v30x_eth.c **** 
 774              		.loc 1 342 5
 342:../Peripheral/src/ch32v30x_eth.c **** 
 775              		.loc 1 342 19 is_stmt 0
 776 0024 8CCB     		sw	a1,16(a5)
 348:../Peripheral/src/ch32v30x_eth.c **** 
 777              		.loc 1 348 40
 778 0026 B7070500 		li	a5,327680
 347:../Peripheral/src/ch32v30x_eth.c ****     } while((tmpreg & ETH_MACMIIAR_MB) && (timeout < (uint32_t)PHY_WRITE_TO));
 779              		.loc 1 347 16
 780 002a B7860240 		li	a3,1073905664
 348:../Peripheral/src/ch32v30x_eth.c **** 
 781              		.loc 1 348 40
 782 002e F917     		addi	a5,a5,-2
 783              	.LVL44:
 784              	.L62:
 344:../Peripheral/src/ch32v30x_eth.c ****     {
 785              		.loc 1 344 5 is_stmt 1 discriminator 2
 346:../Peripheral/src/ch32v30x_eth.c ****         tmpreg = ETH->MACMIIAR;
 786              		.loc 1 346 9 discriminator 2
 346:../Peripheral/src/ch32v30x_eth.c ****         tmpreg = ETH->MACMIIAR;
 787              		.loc 1 346 16 is_stmt 0 discriminator 2
 788 0030 3247     		lw	a4,12(sp)
 789 0032 0507     		addi	a4,a4,1
 790 0034 3AC6     		sw	a4,12(sp)
 347:../Peripheral/src/ch32v30x_eth.c ****     } while((tmpreg & ETH_MACMIIAR_MB) && (timeout < (uint32_t)PHY_WRITE_TO));
 791              		.loc 1 347 9 is_stmt 1 discriminator 2
 347:../Peripheral/src/ch32v30x_eth.c ****     } while((tmpreg & ETH_MACMIIAR_MB) && (timeout < (uint32_t)PHY_WRITE_TO));
 792              		.loc 1 347 16 is_stmt 0 discriminator 2
 793 0036 984A     		lw	a4,16(a3)
 794              	.LVL45:
 348:../Peripheral/src/ch32v30x_eth.c **** 
 795              		.loc 1 348 40 is_stmt 1 discriminator 2
 348:../Peripheral/src/ch32v30x_eth.c **** 
 796              		.loc 1 348 21 is_stmt 0 discriminator 2
 797 0038 058B     		andi	a4,a4,1
 798              	.LVL46:
 348:../Peripheral/src/ch32v30x_eth.c **** 
 799              		.loc 1 348 40 discriminator 2
 800 003a 01C7     		beq	a4,zero,.L61
 348:../Peripheral/src/ch32v30x_eth.c **** 
 801              		.loc 1 348 52 discriminator 1
 802 003c 3247     		lw	a4,12(sp)
 348:../Peripheral/src/ch32v30x_eth.c **** 
 803              		.loc 1 348 40 discriminator 1
 804 003e E3F9E7FE 		bleu	a4,a5,.L62
 805              	.L61:
 350:../Peripheral/src/ch32v30x_eth.c ****     {
 806              		.loc 1 350 5 is_stmt 1
 350:../Peripheral/src/ch32v30x_eth.c ****     {
 807              		.loc 1 350 16 is_stmt 0
 808 0042 3245     		lw	a0,12(sp)
 356:../Peripheral/src/ch32v30x_eth.c **** 
 809              		.loc 1 356 1
 810 0044 B7070500 		li	a5,327680
 811 0048 FD17     		addi	a5,a5,-1
 812 004a 3335F500 		sltu	a0,a0,a5
 813 004e 4101     		addi	sp,sp,16
 814              		.cfi_def_cfa_offset 0
 815 0050 8280     		jr	ra
 816              		.cfi_endproc
 817              	.LFE37:
 819              		.section	.text.ETH_PHYLoopBackCmd,"ax",@progbits
 820              		.align	1
 821              		.globl	ETH_PHYLoopBackCmd
 823              	ETH_PHYLoopBackCmd:
 824              	.LFB38:
 370:../Peripheral/src/ch32v30x_eth.c ****     uint16_t tmpreg = 0;
 825              		.loc 1 370 1 is_stmt 1
 826              		.cfi_startproc
 827              	.LVL47:
 828 0000 17030000 		call	t0,__riscv_save_2
 828      E7020300 
 829              		.cfi_offset 9, -12
 830              		.cfi_offset 8, -8
 831              		.cfi_offset 1, -4
 832              		.cfi_def_cfa_offset 16
 371:../Peripheral/src/ch32v30x_eth.c **** 
 833              		.loc 1 371 5
 834              	.LVL48:
 373:../Peripheral/src/ch32v30x_eth.c **** 
 835              		.loc 1 373 5
 370:../Peripheral/src/ch32v30x_eth.c ****     uint16_t tmpreg = 0;
 836              		.loc 1 370 1 is_stmt 0
 837 0008 AE84     		mv	s1,a1
 373:../Peripheral/src/ch32v30x_eth.c **** 
 838              		.loc 1 373 14
 839 000a 8145     		li	a1,0
 840              	.LVL49:
 370:../Peripheral/src/ch32v30x_eth.c ****     uint16_t tmpreg = 0;
 841              		.loc 1 370 1
 842 000c 2A84     		mv	s0,a0
 373:../Peripheral/src/ch32v30x_eth.c **** 
 843              		.loc 1 373 14
 844 000e 97000000 		call	ETH_ReadPHYRegister
 844      E7800000 
 845              	.LVL50:
 375:../Peripheral/src/ch32v30x_eth.c ****     {
 846              		.loc 1 375 5 is_stmt 1
 375:../Peripheral/src/ch32v30x_eth.c ****     {
 847              		.loc 1 375 7 is_stmt 0
 848 0016 95C0     		beq	s1,zero,.L69
 377:../Peripheral/src/ch32v30x_eth.c ****     }
 849              		.loc 1 377 9 is_stmt 1
 377:../Peripheral/src/ch32v30x_eth.c ****     }
 850              		.loc 1 377 16 is_stmt 0
 851 0018 9167     		li	a5,16384
 852 001a 3366F500 		or	a2,a0,a5
 853              	.L72:
 381:../Peripheral/src/ch32v30x_eth.c ****     }
 854              		.loc 1 381 16
 855 001e 4206     		slli	a2,a2,16
 856 0020 4182     		srli	a2,a2,16
 857              	.LVL51:
 384:../Peripheral/src/ch32v30x_eth.c ****     {
 858              		.loc 1 384 5 is_stmt 1
 384:../Peripheral/src/ch32v30x_eth.c ****     {
 859              		.loc 1 384 8 is_stmt 0
 860 0022 8145     		li	a1,0
 861 0024 2285     		mv	a0,s0
 862 0026 97000000 		call	ETH_WritePHYRegister
 862      E7800000 
 863              	.LVL52:
 392:../Peripheral/src/ch32v30x_eth.c **** 
 864              		.loc 1 392 1
 865 002e 3335A000 		snez	a0,a0
 866 0032 17030000 		tail	__riscv_restore_2
 866      67000300 
 867              		.cfi_remember_state
 868              		.cfi_restore 9
 869              		.cfi_restore 8
 870              		.cfi_restore 1
 871              		.cfi_def_cfa_offset 0
 872              	.LVL53:
 873              	.L69:
 874              		.cfi_restore_state
 381:../Peripheral/src/ch32v30x_eth.c ****     }
 875              		.loc 1 381 9 is_stmt 1
 381:../Peripheral/src/ch32v30x_eth.c ****     }
 876              		.loc 1 381 16 is_stmt 0
 877 003a F177     		li	a5,-16384
 878 003c FD17     		addi	a5,a5,-1
 879 003e 3376F500 		and	a2,a0,a5
 880 0042 F1BF     		j	.L72
 881              		.cfi_endproc
 882              	.LFE38:
 884              		.section	.text.ETH_MACTransmissionCmd,"ax",@progbits
 885              		.align	1
 886              		.globl	ETH_MACTransmissionCmd
 888              	ETH_MACTransmissionCmd:
 889              	.LFB39:
 404:../Peripheral/src/ch32v30x_eth.c ****     if(NewState != DISABLE)
 890              		.loc 1 404 1 is_stmt 1
 891              		.cfi_startproc
 892              	.LVL54:
 405:../Peripheral/src/ch32v30x_eth.c ****     {
 893              		.loc 1 405 5
 894              	.LBB16:
 895              	.LBB17:
 407:../Peripheral/src/ch32v30x_eth.c ****     }
 896              		.loc 1 407 12 is_stmt 0
 897 0000 37870240 		li	a4,1073905664
 898 0004 1C43     		lw	a5,0(a4)
 899              	.LBE17:
 900              	.LBE16:
 405:../Peripheral/src/ch32v30x_eth.c ****     {
 901              		.loc 1 405 7
 902 0006 09C5     		beq	a0,zero,.L74
 903              	.LVL55:
 904              	.LBB19:
 905              	.LBB18:
 407:../Peripheral/src/ch32v30x_eth.c ****     }
 906              		.loc 1 407 9 is_stmt 1
 407:../Peripheral/src/ch32v30x_eth.c ****     }
 907              		.loc 1 407 20 is_stmt 0
 908 0008 93E78700 		ori	a5,a5,8
 909              	.LVL56:
 910              	.L76:
 911              	.LBE18:
 912              	.LBE19:
 411:../Peripheral/src/ch32v30x_eth.c ****     }
 913              		.loc 1 411 20
 914 000c 1CC3     		sw	a5,0(a4)
 413:../Peripheral/src/ch32v30x_eth.c **** 
 915              		.loc 1 413 1
 916 000e 8280     		ret
 917              	.L74:
 411:../Peripheral/src/ch32v30x_eth.c ****     }
 918              		.loc 1 411 9 is_stmt 1
 411:../Peripheral/src/ch32v30x_eth.c ****     }
 919              		.loc 1 411 20 is_stmt 0
 920 0010 DD9B     		andi	a5,a5,-9
 921 0012 EDBF     		j	.L76
 922              		.cfi_endproc
 923              	.LFE39:
 925              		.section	.text.ETH_MACReceptionCmd,"ax",@progbits
 926              		.align	1
 927              		.globl	ETH_MACReceptionCmd
 929              	ETH_MACReceptionCmd:
 930              	.LFB40:
 425:../Peripheral/src/ch32v30x_eth.c ****     if(NewState != DISABLE)
 931              		.loc 1 425 1 is_stmt 1
 932              		.cfi_startproc
 933              	.LVL57:
 426:../Peripheral/src/ch32v30x_eth.c ****     {
 934              		.loc 1 426 5
 935              	.LBB22:
 936              	.LBB23:
 428:../Peripheral/src/ch32v30x_eth.c ****     }
 937              		.loc 1 428 12 is_stmt 0
 938 0000 37870240 		li	a4,1073905664
 939 0004 1C43     		lw	a5,0(a4)
 940              	.LBE23:
 941              	.LBE22:
 426:../Peripheral/src/ch32v30x_eth.c ****     {
 942              		.loc 1 426 7
 943 0006 09C5     		beq	a0,zero,.L78
 944              	.LVL58:
 945              	.LBB25:
 946              	.LBB24:
 428:../Peripheral/src/ch32v30x_eth.c ****     }
 947              		.loc 1 428 9 is_stmt 1
 428:../Peripheral/src/ch32v30x_eth.c ****     }
 948              		.loc 1 428 20 is_stmt 0
 949 0008 93E74700 		ori	a5,a5,4
 950              	.LVL59:
 951              	.L80:
 952              	.LBE24:
 953              	.LBE25:
 432:../Peripheral/src/ch32v30x_eth.c ****     }
 954              		.loc 1 432 20
 955 000c 1CC3     		sw	a5,0(a4)
 434:../Peripheral/src/ch32v30x_eth.c **** 
 956              		.loc 1 434 1
 957 000e 8280     		ret
 958              	.L78:
 432:../Peripheral/src/ch32v30x_eth.c ****     }
 959              		.loc 1 432 9 is_stmt 1
 432:../Peripheral/src/ch32v30x_eth.c ****     }
 960              		.loc 1 432 20 is_stmt 0
 961 0010 ED9B     		andi	a5,a5,-5
 962 0012 EDBF     		j	.L80
 963              		.cfi_endproc
 964              	.LFE40:
 966              		.section	.text.ETH_GetFlowControlBusyStatus,"ax",@progbits
 967              		.align	1
 968              		.globl	ETH_GetFlowControlBusyStatus
 970              	ETH_GetFlowControlBusyStatus:
 971              	.LFB41:
 444:../Peripheral/src/ch32v30x_eth.c ****     FlagStatus bitstatus = RESET;
 972              		.loc 1 444 1 is_stmt 1
 973              		.cfi_startproc
 445:../Peripheral/src/ch32v30x_eth.c **** 
 974              		.loc 1 445 5
 975              	.LVL60:
 447:../Peripheral/src/ch32v30x_eth.c ****     {
 976              		.loc 1 447 5
 447:../Peripheral/src/ch32v30x_eth.c ****     {
 977              		.loc 1 447 12 is_stmt 0
 978 0000 B7870240 		li	a5,1073905664
 979 0004 884F     		lw	a0,24(a5)
 980              	.LVL61:
 455:../Peripheral/src/ch32v30x_eth.c **** }
 981              		.loc 1 455 5 is_stmt 1
 456:../Peripheral/src/ch32v30x_eth.c **** 
 982              		.loc 1 456 1 is_stmt 0
 983 0006 0589     		andi	a0,a0,1
 984              	.LVL62:
 985 0008 8280     		ret
 986              		.cfi_endproc
 987              	.LFE41:
 989              		.section	.text.ETH_InitiatePauseControlFrame,"ax",@progbits
 990              		.align	1
 991              		.globl	ETH_InitiatePauseControlFrame
 993              	ETH_InitiatePauseControlFrame:
 994              	.LFB42:
 466:../Peripheral/src/ch32v30x_eth.c ****     ETH->MACFCR |= ETH_MACFCR_FCBBPA;
 995              		.loc 1 466 1 is_stmt 1
 996              		.cfi_startproc
 467:../Peripheral/src/ch32v30x_eth.c **** }
 997              		.loc 1 467 5
 467:../Peripheral/src/ch32v30x_eth.c **** }
 998              		.loc 1 467 8 is_stmt 0
 999 0000 37870240 		li	a4,1073905664
 1000 0004 1C4F     		lw	a5,24(a4)
 467:../Peripheral/src/ch32v30x_eth.c **** }
 1001              		.loc 1 467 17
 1002 0006 93E71700 		ori	a5,a5,1
 1003 000a 1CCF     		sw	a5,24(a4)
 468:../Peripheral/src/ch32v30x_eth.c **** 
 1004              		.loc 1 468 1
 1005 000c 8280     		ret
 1006              		.cfi_endproc
 1007              	.LFE42:
 1009              		.section	.text.ETH_BackPressureActivationCmd,"ax",@progbits
 1010              		.align	1
 1011              		.globl	ETH_BackPressureActivationCmd
 1013              	ETH_BackPressureActivationCmd:
 1014              	.LFB43:
 480:../Peripheral/src/ch32v30x_eth.c ****     if(NewState != DISABLE)
 1015              		.loc 1 480 1 is_stmt 1
 1016              		.cfi_startproc
 1017              	.LVL63:
 481:../Peripheral/src/ch32v30x_eth.c ****     {
 1018              		.loc 1 481 5
 483:../Peripheral/src/ch32v30x_eth.c ****     }
 1019              		.loc 1 483 12 is_stmt 0
 1020 0000 37870240 		li	a4,1073905664
 1021 0004 1C4F     		lw	a5,24(a4)
 481:../Peripheral/src/ch32v30x_eth.c ****     {
 1022              		.loc 1 481 7
 1023 0006 09C5     		beq	a0,zero,.L84
 483:../Peripheral/src/ch32v30x_eth.c ****     }
 1024              		.loc 1 483 9 is_stmt 1
 483:../Peripheral/src/ch32v30x_eth.c ****     }
 1025              		.loc 1 483 21 is_stmt 0
 1026 0008 93E71700 		ori	a5,a5,1
 1027              	.L86:
 487:../Peripheral/src/ch32v30x_eth.c ****     }
 1028              		.loc 1 487 21
 1029 000c 1CCF     		sw	a5,24(a4)
 489:../Peripheral/src/ch32v30x_eth.c **** 
 1030              		.loc 1 489 1
 1031 000e 8280     		ret
 1032              	.L84:
 487:../Peripheral/src/ch32v30x_eth.c ****     }
 1033              		.loc 1 487 9 is_stmt 1
 487:../Peripheral/src/ch32v30x_eth.c ****     }
 1034              		.loc 1 487 21 is_stmt 0
 1035 0010 F99B     		andi	a5,a5,-2
 1036 0012 EDBF     		j	.L86
 1037              		.cfi_endproc
 1038              	.LFE43:
 1040              		.section	.text.ETH_GetMACFlagStatus,"ax",@progbits
 1041              		.align	1
 1042              		.globl	ETH_GetMACFlagStatus
 1044              	ETH_GetMACFlagStatus:
 1045              	.LFB44:
 501:../Peripheral/src/ch32v30x_eth.c ****     FlagStatus bitstatus = RESET;
 1046              		.loc 1 501 1 is_stmt 1
 1047              		.cfi_startproc
 1048              	.LVL64:
 502:../Peripheral/src/ch32v30x_eth.c **** 
 1049              		.loc 1 502 5
 504:../Peripheral/src/ch32v30x_eth.c ****     {
 1050              		.loc 1 504 5
 504:../Peripheral/src/ch32v30x_eth.c ****     {
 1051              		.loc 1 504 12 is_stmt 0
 1052 0000 B7870240 		li	a5,1073905664
 1053 0004 9C5F     		lw	a5,56(a5)
 1054              	.LVL65:
 512:../Peripheral/src/ch32v30x_eth.c **** }
 1055              		.loc 1 512 5 is_stmt 1
 504:../Peripheral/src/ch32v30x_eth.c ****     {
 1056              		.loc 1 504 20 is_stmt 0
 1057 0006 7D8D     		and	a0,a5,a0
 1058              	.LVL66:
 513:../Peripheral/src/ch32v30x_eth.c **** 
 1059              		.loc 1 513 1
 1060 0008 3335A000 		snez	a0,a0
 1061 000c 8280     		ret
 1062              		.cfi_endproc
 1063              	.LFE44:
 1065              		.section	.text.ETH_GetMACITStatus,"ax",@progbits
 1066              		.align	1
 1067              		.globl	ETH_GetMACITStatus
 1069              	ETH_GetMACITStatus:
 1070              	.LFB134:
 1071              		.cfi_startproc
 524:../Peripheral/src/ch32v30x_eth.c **** {
 1072              		.loc 1 524 10 is_stmt 1
 1073 0000 17030000 		tail	ETH_GetMACFlagStatus
 1073      67000300 
 1074              		.cfi_endproc
 1075              	.LFE134:
 1077              		.section	.text.ETH_MACITConfig,"ax",@progbits
 1078              		.align	1
 1079              		.globl	ETH_MACITConfig
 1081              	ETH_MACITConfig:
 1082              	.LFB46:
 551:../Peripheral/src/ch32v30x_eth.c ****     if(NewState != DISABLE)
 1083              		.loc 1 551 1
 1084              		.cfi_startproc
 1085              	.LVL67:
 552:../Peripheral/src/ch32v30x_eth.c ****     {
 1086              		.loc 1 552 5
 552:../Peripheral/src/ch32v30x_eth.c ****     {
 1087              		.loc 1 552 7 is_stmt 0
 1088 0000 89C9     		beq	a1,zero,.L91
 554:../Peripheral/src/ch32v30x_eth.c ****     }
 1089              		.loc 1 554 9 is_stmt 1
 554:../Peripheral/src/ch32v30x_eth.c ****     }
 1090              		.loc 1 554 12 is_stmt 0
 1091 0002 B7870240 		li	a5,1073905664
 1092 0006 D85F     		lw	a4,60(a5)
 554:../Peripheral/src/ch32v30x_eth.c ****     }
 1093              		.loc 1 554 25
 1094 0008 1345F5FF 		not	a0,a0
 1095              	.LVL68:
 554:../Peripheral/src/ch32v30x_eth.c ****     }
 1096              		.loc 1 554 21
 1097 000c 798D     		and	a0,a0,a4
 1098              	.LVL69:
 1099 000e C8DF     		sw	a0,60(a5)
 1100 0010 8280     		ret
 1101              	.LVL70:
 1102              	.L91:
 558:../Peripheral/src/ch32v30x_eth.c ****     }
 1103              		.loc 1 558 9 is_stmt 1
 558:../Peripheral/src/ch32v30x_eth.c ****     }
 1104              		.loc 1 558 12 is_stmt 0
 1105 0012 37870240 		li	a4,1073905664
 1106 0016 5C5F     		lw	a5,60(a4)
 558:../Peripheral/src/ch32v30x_eth.c ****     }
 1107              		.loc 1 558 21
 1108 0018 C98F     		or	a5,a5,a0
 1109 001a 5CDF     		sw	a5,60(a4)
 560:../Peripheral/src/ch32v30x_eth.c **** 
 1110              		.loc 1 560 1
 1111 001c 8280     		ret
 1112              		.cfi_endproc
 1113              	.LFE46:
 1115              		.section	.text.ETH_MACAddressConfig,"ax",@progbits
 1116              		.align	1
 1117              		.globl	ETH_MACAddressConfig
 1119              	ETH_MACAddressConfig:
 1120              	.LFB47:
 577:../Peripheral/src/ch32v30x_eth.c ****     uint32_t tmpreg;
 1121              		.loc 1 577 1 is_stmt 1
 1122              		.cfi_startproc
 1123              	.LVL71:
 578:../Peripheral/src/ch32v30x_eth.c **** 
 1124              		.loc 1 578 5
 580:../Peripheral/src/ch32v30x_eth.c ****     (*(__IO uint32_t *)(ETH_MAC_ADDR_HBASE + MacAddr)) = tmpreg;
 1125              		.loc 1 580 5
 580:../Peripheral/src/ch32v30x_eth.c ****     (*(__IO uint32_t *)(ETH_MAC_ADDR_HBASE + MacAddr)) = tmpreg;
 1126              		.loc 1 580 12 is_stmt 0
 1127 0000 DC31     		lbu	a5,5(a1)
 1128 0002 D821     		lbu	a4,4(a1)
 581:../Peripheral/src/ch32v30x_eth.c ****     tmpreg = ((uint32_t)Addr[3] << 24) | ((uint32_t)Addr[2] << 16) | ((uint32_t)Addr[1] << 8) | Add
 1129              		.loc 1 581 44
 1130 0004 B7860240 		li	a3,1073905664
 580:../Peripheral/src/ch32v30x_eth.c ****     (*(__IO uint32_t *)(ETH_MAC_ADDR_HBASE + MacAddr)) = tmpreg;
 1131              		.loc 1 580 12
 1132 0008 A207     		slli	a5,a5,8
 1133 000a D98F     		or	a5,a5,a4
 1134              	.LVL72:
 581:../Peripheral/src/ch32v30x_eth.c ****     tmpreg = ((uint32_t)Addr[3] << 24) | ((uint32_t)Addr[2] << 16) | ((uint32_t)Addr[1] << 8) | Add
 1135              		.loc 1 581 5 is_stmt 1
 581:../Peripheral/src/ch32v30x_eth.c ****     tmpreg = ((uint32_t)Addr[3] << 24) | ((uint32_t)Addr[2] << 16) | ((uint32_t)Addr[1] << 8) | Add
 1136              		.loc 1 581 44 is_stmt 0
 1137 000c 13870604 		addi	a4,a3,64
 1138 0010 2A97     		add	a4,a0,a4
 581:../Peripheral/src/ch32v30x_eth.c ****     tmpreg = ((uint32_t)Addr[3] << 24) | ((uint32_t)Addr[2] << 16) | ((uint32_t)Addr[1] << 8) | Add
 1139              		.loc 1 581 56
 1140 0012 1CC3     		sw	a5,0(a4)
 1141              	.LVL73:
 582:../Peripheral/src/ch32v30x_eth.c **** 
 1142              		.loc 1 582 5 is_stmt 1
 582:../Peripheral/src/ch32v30x_eth.c **** 
 1143              		.loc 1 582 12 is_stmt 0
 1144 0014 9C31     		lbu	a5,1(a1)
 1145 0016 9821     		lbu	a4,0(a1)
 584:../Peripheral/src/ch32v30x_eth.c **** }
 1146              		.loc 1 584 44
 1147 0018 93864604 		addi	a3,a3,68
 582:../Peripheral/src/ch32v30x_eth.c **** 
 1148              		.loc 1 582 12
 1149 001c A207     		slli	a5,a5,8
 1150 001e D98F     		or	a5,a5,a4
 1151 0020 B821     		lbu	a4,2(a1)
 584:../Peripheral/src/ch32v30x_eth.c **** }
 1152              		.loc 1 584 44
 1153 0022 3695     		add	a0,a0,a3
 1154              	.LVL74:
 582:../Peripheral/src/ch32v30x_eth.c **** 
 1155              		.loc 1 582 12
 1156 0024 4207     		slli	a4,a4,16
 1157 0026 5D8F     		or	a4,a4,a5
 1158 0028 BC31     		lbu	a5,3(a1)
 1159 002a E207     		slli	a5,a5,24
 1160 002c D98F     		or	a5,a5,a4
 1161              	.LVL75:
 584:../Peripheral/src/ch32v30x_eth.c **** }
 1162              		.loc 1 584 5 is_stmt 1
 584:../Peripheral/src/ch32v30x_eth.c **** }
 1163              		.loc 1 584 56 is_stmt 0
 1164 002e 1CC1     		sw	a5,0(a0)
 1165              	.LVL76:
 585:../Peripheral/src/ch32v30x_eth.c **** 
 1166              		.loc 1 585 1
 1167 0030 8280     		ret
 1168              		.cfi_endproc
 1169              	.LFE47:
 1171              		.section	.text.ETH_GetMACAddress,"ax",@progbits
 1172              		.align	1
 1173              		.globl	ETH_GetMACAddress
 1175              	ETH_GetMACAddress:
 1176              	.LFB48:
 602:../Peripheral/src/ch32v30x_eth.c ****     uint32_t tmpreg;
 1177              		.loc 1 602 1 is_stmt 1
 1178              		.cfi_startproc
 1179              	.LVL77:
 603:../Peripheral/src/ch32v30x_eth.c **** 
 1180              		.loc 1 603 5
 605:../Peripheral/src/ch32v30x_eth.c **** 
 1181              		.loc 1 605 5
 605:../Peripheral/src/ch32v30x_eth.c **** 
 1182              		.loc 1 605 53 is_stmt 0
 1183 0000 B7870240 		li	a5,1073905664
 1184 0004 13870704 		addi	a4,a5,64
 1185 0008 2A97     		add	a4,a0,a4
 605:../Peripheral/src/ch32v30x_eth.c **** 
 1186              		.loc 1 605 12
 1187 000a 1843     		lw	a4,0(a4)
 1188              	.LVL78:
 607:../Peripheral/src/ch32v30x_eth.c ****     Addr[4] = (tmpreg & (uint8_t)0xFF);
 1189              		.loc 1 607 5 is_stmt 1
 609:../Peripheral/src/ch32v30x_eth.c ****     Addr[3] = ((tmpreg >> 24) & (uint8_t)0xFF);
 1190              		.loc 1 609 53 is_stmt 0
 1191 000c 93874704 		addi	a5,a5,68
 1192 0010 3E95     		add	a0,a0,a5
 1193              	.LVL79:
 607:../Peripheral/src/ch32v30x_eth.c ****     Addr[4] = (tmpreg & (uint8_t)0xFF);
 1194              		.loc 1 607 24
 1195 0012 93568700 		srli	a3,a4,8
 608:../Peripheral/src/ch32v30x_eth.c ****     tmpreg = (*(__IO uint32_t *)(ETH_MAC_ADDR_LBASE + MacAddr));
 1196              		.loc 1 608 13
 1197 0016 D8A1     		sb	a4,4(a1)
 607:../Peripheral/src/ch32v30x_eth.c ****     Addr[4] = (tmpreg & (uint8_t)0xFF);
 1198              		.loc 1 607 13
 1199 0018 D4B1     		sb	a3,5(a1)
 608:../Peripheral/src/ch32v30x_eth.c ****     tmpreg = (*(__IO uint32_t *)(ETH_MAC_ADDR_LBASE + MacAddr));
 1200              		.loc 1 608 5 is_stmt 1
 609:../Peripheral/src/ch32v30x_eth.c ****     Addr[3] = ((tmpreg >> 24) & (uint8_t)0xFF);
 1201              		.loc 1 609 5
 609:../Peripheral/src/ch32v30x_eth.c ****     Addr[3] = ((tmpreg >> 24) & (uint8_t)0xFF);
 1202              		.loc 1 609 12 is_stmt 0
 1203 001a 1C41     		lw	a5,0(a0)
 1204              	.LVL80:
 610:../Peripheral/src/ch32v30x_eth.c ****     Addr[2] = ((tmpreg >> 16) & (uint8_t)0xFF);
 1205              		.loc 1 610 5 is_stmt 1
 610:../Peripheral/src/ch32v30x_eth.c ****     Addr[2] = ((tmpreg >> 16) & (uint8_t)0xFF);
 1206              		.loc 1 610 24 is_stmt 0
 1207 001c 13D78701 		srli	a4,a5,24
 610:../Peripheral/src/ch32v30x_eth.c ****     Addr[2] = ((tmpreg >> 16) & (uint8_t)0xFF);
 1208              		.loc 1 610 13
 1209 0020 B8B1     		sb	a4,3(a1)
 611:../Peripheral/src/ch32v30x_eth.c ****     Addr[1] = ((tmpreg >> 8) & (uint8_t)0xFF);
 1210              		.loc 1 611 5 is_stmt 1
 611:../Peripheral/src/ch32v30x_eth.c ****     Addr[1] = ((tmpreg >> 8) & (uint8_t)0xFF);
 1211              		.loc 1 611 24 is_stmt 0
 1212 0022 13D70701 		srli	a4,a5,16
 611:../Peripheral/src/ch32v30x_eth.c ****     Addr[1] = ((tmpreg >> 8) & (uint8_t)0xFF);
 1213              		.loc 1 611 13
 1214 0026 B8A1     		sb	a4,2(a1)
 612:../Peripheral/src/ch32v30x_eth.c ****     Addr[0] = (tmpreg & (uint8_t)0xFF);
 1215              		.loc 1 612 5 is_stmt 1
 612:../Peripheral/src/ch32v30x_eth.c ****     Addr[0] = (tmpreg & (uint8_t)0xFF);
 1216              		.loc 1 612 24 is_stmt 0
 1217 0028 13D78700 		srli	a4,a5,8
 612:../Peripheral/src/ch32v30x_eth.c ****     Addr[0] = (tmpreg & (uint8_t)0xFF);
 1218              		.loc 1 612 13
 1219 002c 98B1     		sb	a4,1(a1)
 613:../Peripheral/src/ch32v30x_eth.c **** }
 1220              		.loc 1 613 5 is_stmt 1
 613:../Peripheral/src/ch32v30x_eth.c **** }
 1221              		.loc 1 613 13 is_stmt 0
 1222 002e 9CA1     		sb	a5,0(a1)
 614:../Peripheral/src/ch32v30x_eth.c **** 
 1223              		.loc 1 614 1
 1224 0030 8280     		ret
 1225              		.cfi_endproc
 1226              	.LFE48:
 1228              		.section	.text.ETH_MACAddressPerfectFilterCmd,"ax",@progbits
 1229              		.align	1
 1230              		.globl	ETH_MACAddressPerfectFilterCmd
 1232              	ETH_MACAddressPerfectFilterCmd:
 1233              	.LFB49:
 631:../Peripheral/src/ch32v30x_eth.c ****     if(NewState != DISABLE)
 1234              		.loc 1 631 1 is_stmt 1
 1235              		.cfi_startproc
 1236              	.LVL81:
 632:../Peripheral/src/ch32v30x_eth.c ****     {
 1237              		.loc 1 632 5
 634:../Peripheral/src/ch32v30x_eth.c ****     }
 1238              		.loc 1 634 10 is_stmt 0
 1239 0000 B7870240 		li	a5,1073905664
 1240 0004 93870704 		addi	a5,a5,64
 1241 0008 3E95     		add	a0,a0,a5
 1242              	.LVL82:
 1243 000a 1C41     		lw	a5,0(a0)
 632:../Peripheral/src/ch32v30x_eth.c ****     {
 1244              		.loc 1 632 7
 1245 000c 91C5     		beq	a1,zero,.L96
 634:../Peripheral/src/ch32v30x_eth.c ****     }
 1246              		.loc 1 634 9 is_stmt 1
 634:../Peripheral/src/ch32v30x_eth.c ****     }
 1247              		.loc 1 634 60 is_stmt 0
 1248 000e 37070080 		li	a4,-2147483648
 1249 0012 D98F     		or	a5,a5,a4
 1250              	.L98:
 638:../Peripheral/src/ch32v30x_eth.c ****     }
 1251              		.loc 1 638 60
 1252 0014 1CC1     		sw	a5,0(a0)
 640:../Peripheral/src/ch32v30x_eth.c **** 
 1253              		.loc 1 640 1
 1254 0016 8280     		ret
 1255              	.L96:
 638:../Peripheral/src/ch32v30x_eth.c ****     }
 1256              		.loc 1 638 9 is_stmt 1
 638:../Peripheral/src/ch32v30x_eth.c ****     }
 1257              		.loc 1 638 60 is_stmt 0
 1258 0018 8607     		slli	a5,a5,1
 1259 001a 8583     		srli	a5,a5,1
 1260 001c E5BF     		j	.L98
 1261              		.cfi_endproc
 1262              	.LFE49:
 1264              		.section	.text.ETH_MACAddressFilterConfig,"ax",@progbits
 1265              		.align	1
 1266              		.globl	ETH_MACAddressFilterConfig
 1268              	ETH_MACAddressFilterConfig:
 1269              	.LFB50:
 661:../Peripheral/src/ch32v30x_eth.c ****     if(Filter != ETH_MAC_AddressFilter_DA)
 1270              		.loc 1 661 1 is_stmt 1
 1271              		.cfi_startproc
 1272              	.LVL83:
 662:../Peripheral/src/ch32v30x_eth.c ****     {
 1273              		.loc 1 662 5
 664:../Peripheral/src/ch32v30x_eth.c ****     }
 1274              		.loc 1 664 10 is_stmt 0
 1275 0000 B7870240 		li	a5,1073905664
 1276 0004 93870704 		addi	a5,a5,64
 1277 0008 3E95     		add	a0,a0,a5
 1278              	.LVL84:
 662:../Peripheral/src/ch32v30x_eth.c ****     {
 1279              		.loc 1 662 7
 1280 000a A147     		li	a5,8
 1281 000c 6388F500 		beq	a1,a5,.L100
 664:../Peripheral/src/ch32v30x_eth.c ****     }
 1282              		.loc 1 664 9 is_stmt 1
 664:../Peripheral/src/ch32v30x_eth.c ****     }
 1283              		.loc 1 664 10 is_stmt 0
 1284 0010 1C41     		lw	a5,0(a0)
 664:../Peripheral/src/ch32v30x_eth.c ****     }
 1285              		.loc 1 664 60
 1286 0012 37070040 		li	a4,1073741824
 1287 0016 D98F     		or	a5,a5,a4
 1288              	.L102:
 668:../Peripheral/src/ch32v30x_eth.c ****     }
 1289              		.loc 1 668 60
 1290 0018 1CC1     		sw	a5,0(a0)
 670:../Peripheral/src/ch32v30x_eth.c **** 
 1291              		.loc 1 670 1
 1292 001a 8280     		ret
 1293              	.L100:
 668:../Peripheral/src/ch32v30x_eth.c ****     }
 1294              		.loc 1 668 9 is_stmt 1
 668:../Peripheral/src/ch32v30x_eth.c ****     }
 1295              		.loc 1 668 10 is_stmt 0
 1296 001c 1C41     		lw	a5,0(a0)
 668:../Peripheral/src/ch32v30x_eth.c ****     }
 1297              		.loc 1 668 60
 1298 001e 370700C0 		li	a4,-1073741824
 1299 0022 7D17     		addi	a4,a4,-1
 1300 0024 F98F     		and	a5,a5,a4
 1301 0026 CDBF     		j	.L102
 1302              		.cfi_endproc
 1303              	.LFE50:
 1305              		.section	.text.ETH_MACAddressMaskBytesFilterConfig,"ax",@progbits
 1306              		.align	1
 1307              		.globl	ETH_MACAddressMaskBytesFilterConfig
 1309              	ETH_MACAddressMaskBytesFilterConfig:
 1310              	.LFB51:
 691:../Peripheral/src/ch32v30x_eth.c ****     (*(__IO uint32_t *)(ETH_MAC_ADDR_HBASE + MacAddr)) &= (~(uint32_t)ETH_MACA1HR_MBC);
 1311              		.loc 1 691 1 is_stmt 1
 1312              		.cfi_startproc
 1313              	.LVL85:
 692:../Peripheral/src/ch32v30x_eth.c ****     (*(__IO uint32_t *)(ETH_MAC_ADDR_HBASE + MacAddr)) |= MaskByte;
 1314              		.loc 1 692 5
 692:../Peripheral/src/ch32v30x_eth.c ****     (*(__IO uint32_t *)(ETH_MAC_ADDR_HBASE + MacAddr)) |= MaskByte;
 1315              		.loc 1 692 6 is_stmt 0
 1316 0000 B7870240 		li	a5,1073905664
 1317 0004 93870704 		addi	a5,a5,64
 1318 0008 3E95     		add	a0,a0,a5
 1319              	.LVL86:
 1320 000a 1C41     		lw	a5,0(a0)
 692:../Peripheral/src/ch32v30x_eth.c ****     (*(__IO uint32_t *)(ETH_MAC_ADDR_HBASE + MacAddr)) |= MaskByte;
 1321              		.loc 1 692 56
 1322 000c 370700C1 		li	a4,-1056964608
 1323 0010 7D17     		addi	a4,a4,-1
 1324 0012 F98F     		and	a5,a5,a4
 1325 0014 1CC1     		sw	a5,0(a0)
 693:../Peripheral/src/ch32v30x_eth.c **** }
 1326              		.loc 1 693 5 is_stmt 1
 693:../Peripheral/src/ch32v30x_eth.c **** }
 1327              		.loc 1 693 6 is_stmt 0
 1328 0016 1C41     		lw	a5,0(a0)
 693:../Peripheral/src/ch32v30x_eth.c **** }
 1329              		.loc 1 693 56
 1330 0018 CD8F     		or	a5,a5,a1
 1331 001a 1CC1     		sw	a5,0(a0)
 694:../Peripheral/src/ch32v30x_eth.c **** 
 1332              		.loc 1 694 1
 1333 001c 8280     		ret
 1334              		.cfi_endproc
 1335              	.LFE51:
 1337              		.section	.text.ETH_DMATxDescChainInit,"ax",@progbits
 1338              		.align	1
 1339              		.globl	ETH_DMATxDescChainInit
 1341              	ETH_DMATxDescChainInit:
 1342              	.LFB52:
 708:../Peripheral/src/ch32v30x_eth.c ****     uint32_t            i = 0;
 1343              		.loc 1 708 1 is_stmt 1
 1344              		.cfi_startproc
 1345              	.LVL87:
 709:../Peripheral/src/ch32v30x_eth.c ****     ETH_DMADESCTypeDef *DMATxDesc;
 1346              		.loc 1 709 5
 710:../Peripheral/src/ch32v30x_eth.c **** 
 1347              		.loc 1 710 5
 712:../Peripheral/src/ch32v30x_eth.c **** 
 1348              		.loc 1 712 5
 712:../Peripheral/src/ch32v30x_eth.c **** 
 1349              		.loc 1 712 20 is_stmt 0
 1350 0000 97070000 		sw	a0,DMATxDescToSet,a5
 1350      23A0A700 
 714:../Peripheral/src/ch32v30x_eth.c ****     {
 1351              		.loc 1 714 5 is_stmt 1
 1352 0008 2A87     		mv	a4,a0
 1353 000a 8147     		li	a5,0
 717:../Peripheral/src/ch32v30x_eth.c ****         DMATxDesc->Buffer1Addr = (uint32_t)(&TxBuff[i * ETH_MAX_PACKET_SIZE]);
 1354              		.loc 1 717 27 is_stmt 0
 1355 000c B7081040 		li	a7,1074790400
 718:../Peripheral/src/ch32v30x_eth.c **** 
 1356              		.loc 1 718 32
 1357 0010 13030060 		li	t1,1536
 720:../Peripheral/src/ch32v30x_eth.c ****         {
 1358              		.loc 1 720 29
 1359 0014 130EF6FF 		addi	t3,a2,-1
 1360              	.LVL88:
 1361              	.L105:
 714:../Peripheral/src/ch32v30x_eth.c ****     {
 1362              		.loc 1 714 18 is_stmt 1 discriminator 1
 1363 0018 6316F600 		bne	a2,a5,.L107
 730:../Peripheral/src/ch32v30x_eth.c **** }
 1364              		.loc 1 730 5
 730:../Peripheral/src/ch32v30x_eth.c **** }
 1365              		.loc 1 730 19 is_stmt 0
 1366 001c B7970240 		li	a5,1073909760
 1367              	.LVL89:
 1368 0020 88CB     		sw	a0,16(a5)
 731:../Peripheral/src/ch32v30x_eth.c **** 
 1369              		.loc 1 731 1
 1370 0022 8280     		ret
 1371              	.LVL90:
 1372              	.L107:
 716:../Peripheral/src/ch32v30x_eth.c ****         DMATxDesc->Status = ETH_DMATxDesc_TCH | ETH_DMATxDesc_IC;
 1373              		.loc 1 716 9 is_stmt 1
 717:../Peripheral/src/ch32v30x_eth.c ****         DMATxDesc->Buffer1Addr = (uint32_t)(&TxBuff[i * ETH_MAX_PACKET_SIZE]);
 1374              		.loc 1 717 9
 718:../Peripheral/src/ch32v30x_eth.c **** 
 1375              		.loc 1 718 32 is_stmt 0
 1376 0024 B3866702 		mul	a3,a5,t1
 717:../Peripheral/src/ch32v30x_eth.c ****         DMATxDesc->Buffer1Addr = (uint32_t)(&TxBuff[i * ETH_MAX_PACKET_SIZE]);
 1377              		.loc 1 717 27
 1378 0028 23201701 		sw	a7,0(a4)
 718:../Peripheral/src/ch32v30x_eth.c **** 
 1379              		.loc 1 718 9 is_stmt 1
 726:../Peripheral/src/ch32v30x_eth.c ****         }
 1380              		.loc 1 726 46 is_stmt 0
 1381 002c 2A88     		mv	a6,a0
 718:../Peripheral/src/ch32v30x_eth.c **** 
 1382              		.loc 1 718 32
 1383 002e AE96     		add	a3,a1,a3
 1384 0030 14C7     		sw	a3,8(a4)
 720:../Peripheral/src/ch32v30x_eth.c ****         {
 1385              		.loc 1 720 9 is_stmt 1
 1386 0032 93060701 		addi	a3,a4,16
 720:../Peripheral/src/ch32v30x_eth.c ****         {
 1387              		.loc 1 720 11 is_stmt 0
 1388 0036 63F3C701 		bleu	t3,a5,.L106
 722:../Peripheral/src/ch32v30x_eth.c ****         }
 1389              		.loc 1 722 13 is_stmt 1
 1390 003a 3688     		mv	a6,a3
 1391              	.L106:
 1392 003c 23260701 		sw	a6,12(a4)
 714:../Peripheral/src/ch32v30x_eth.c ****     {
 1393              		.loc 1 714 34 discriminator 2
 1394              	.LVL91:
 1395 0040 8507     		addi	a5,a5,1
 1396              	.LVL92:
 1397 0042 3687     		mv	a4,a3
 1398              	.LVL93:
 1399 0044 D1BF     		j	.L105
 1400              		.cfi_endproc
 1401              	.LFE52:
 1403              		.section	.text.ETH_DMATxDescRingInit,"ax",@progbits
 1404              		.align	1
 1405              		.globl	ETH_DMATxDescRingInit
 1407              	ETH_DMATxDescRingInit:
 1408              	.LFB53:
 746:../Peripheral/src/ch32v30x_eth.c ****     uint32_t            i = 0;
 1409              		.loc 1 746 1
 1410              		.cfi_startproc
 1411              	.LVL94:
 747:../Peripheral/src/ch32v30x_eth.c ****     ETH_DMADESCTypeDef *DMATxDesc;
 1412              		.loc 1 747 5
 748:../Peripheral/src/ch32v30x_eth.c **** 
 1413              		.loc 1 748 5
 750:../Peripheral/src/ch32v30x_eth.c **** 
 1414              		.loc 1 750 5
 750:../Peripheral/src/ch32v30x_eth.c **** 
 1415              		.loc 1 750 20 is_stmt 0
 1416 0000 97070000 		sw	a0,DMATxDescToSet,a5
 1416      23A0A700 
 752:../Peripheral/src/ch32v30x_eth.c ****     {
 1417              		.loc 1 752 5 is_stmt 1
 1418 0008 2A87     		mv	a4,a0
 752:../Peripheral/src/ch32v30x_eth.c ****     {
 1419              		.loc 1 752 11 is_stmt 0
 1420 000a 8147     		li	a5,0
 1421 000c 93080060 		li	a7,1536
 758:../Peripheral/src/ch32v30x_eth.c ****         {
 1422              		.loc 1 758 30
 1423 0010 1383F6FF 		addi	t1,a3,-1
 760:../Peripheral/src/ch32v30x_eth.c ****         }
 1424              		.loc 1 760 31
 1425 0014 370E2000 		li	t3,2097152
 1426              	.LVL95:
 1427              	.L110:
 752:../Peripheral/src/ch32v30x_eth.c ****     {
 1428              		.loc 1 752 18 is_stmt 1 discriminator 1
 1429 0018 6396D700 		bne	a5,a3,.L112
 764:../Peripheral/src/ch32v30x_eth.c **** }
 1430              		.loc 1 764 5
 764:../Peripheral/src/ch32v30x_eth.c **** }
 1431              		.loc 1 764 19 is_stmt 0
 1432 001c B7970240 		li	a5,1073909760
 1433              	.LVL96:
 1434 0020 88CB     		sw	a0,16(a5)
 765:../Peripheral/src/ch32v30x_eth.c **** 
 1435              		.loc 1 765 1
 1436 0022 8280     		ret
 1437              	.LVL97:
 1438              	.L112:
 754:../Peripheral/src/ch32v30x_eth.c ****         DMATxDesc->Buffer1Addr = (uint32_t)(&TxBuff1[i * ETH_MAX_PACKET_SIZE]);
 1439              		.loc 1 754 9 is_stmt 1
 755:../Peripheral/src/ch32v30x_eth.c ****         DMATxDesc->Buffer2NextDescAddr = (uint32_t)(&TxBuff2[i * ETH_MAX_PACKET_SIZE]);
 1440              		.loc 1 755 9
 1441 0024 33881703 		mul	a6,a5,a7
 755:../Peripheral/src/ch32v30x_eth.c ****         DMATxDesc->Buffer2NextDescAddr = (uint32_t)(&TxBuff2[i * ETH_MAX_PACKET_SIZE]);
 1442              		.loc 1 755 32 is_stmt 0
 1443 0028 B38E0501 		add	t4,a1,a6
 756:../Peripheral/src/ch32v30x_eth.c **** 
 1444              		.loc 1 756 40
 1445 002c 3298     		add	a6,a2,a6
 755:../Peripheral/src/ch32v30x_eth.c ****         DMATxDesc->Buffer2NextDescAddr = (uint32_t)(&TxBuff2[i * ETH_MAX_PACKET_SIZE]);
 1446              		.loc 1 755 32
 1447 002e 2324D701 		sw	t4,8(a4)
 756:../Peripheral/src/ch32v30x_eth.c **** 
 1448              		.loc 1 756 9 is_stmt 1
 756:../Peripheral/src/ch32v30x_eth.c **** 
 1449              		.loc 1 756 40 is_stmt 0
 1450 0032 23260701 		sw	a6,12(a4)
 758:../Peripheral/src/ch32v30x_eth.c ****         {
 1451              		.loc 1 758 9 is_stmt 1
 758:../Peripheral/src/ch32v30x_eth.c ****         {
 1452              		.loc 1 758 11 is_stmt 0
 1453 0036 6314F300 		bne	t1,a5,.L111
 760:../Peripheral/src/ch32v30x_eth.c ****         }
 1454              		.loc 1 760 13 is_stmt 1
 760:../Peripheral/src/ch32v30x_eth.c ****         }
 1455              		.loc 1 760 31 is_stmt 0
 1456 003a 2320C701 		sw	t3,0(a4)
 1457              	.L111:
 752:../Peripheral/src/ch32v30x_eth.c ****     {
 1458              		.loc 1 752 34 is_stmt 1 discriminator 2
 1459 003e 8507     		addi	a5,a5,1
 1460              	.LVL98:
 1461 0040 4107     		addi	a4,a4,16
 1462              	.LVL99:
 1463 0042 D9BF     		j	.L110
 1464              		.cfi_endproc
 1465              	.LFE53:
 1467              		.section	.text.ETH_GetDMATxDescFlagStatus,"ax",@progbits
 1468              		.align	1
 1469              		.globl	ETH_GetDMATxDescFlagStatus
 1471              	ETH_GetDMATxDescFlagStatus:
 1472              	.LFB54:
 802:../Peripheral/src/ch32v30x_eth.c ****     FlagStatus bitstatus = RESET;
 1473              		.loc 1 802 1
 1474              		.cfi_startproc
 1475              	.LVL100:
 803:../Peripheral/src/ch32v30x_eth.c **** 
 1476              		.loc 1 803 5
 805:../Peripheral/src/ch32v30x_eth.c ****     {
 1477              		.loc 1 805 5
 805:../Peripheral/src/ch32v30x_eth.c ****     {
 1478              		.loc 1 805 18 is_stmt 0
 1479 0000 0841     		lw	a0,0(a0)
 1480              	.LVL101:
 814:../Peripheral/src/ch32v30x_eth.c **** }
 1481              		.loc 1 814 5 is_stmt 1
 805:../Peripheral/src/ch32v30x_eth.c ****     {
 1482              		.loc 1 805 27 is_stmt 0
 1483 0002 6D8D     		and	a0,a0,a1
 1484              	.LVL102:
 815:../Peripheral/src/ch32v30x_eth.c **** 
 1485              		.loc 1 815 1
 1486 0004 3335A000 		snez	a0,a0
 1487 0008 8280     		ret
 1488              		.cfi_endproc
 1489              	.LFE54:
 1491              		.section	.text.ETH_GetDMATxDescCollisionCount,"ax",@progbits
 1492              		.align	1
 1493              		.globl	ETH_GetDMATxDescCollisionCount
 1495              	ETH_GetDMATxDescCollisionCount:
 1496              	.LFB55:
 827:../Peripheral/src/ch32v30x_eth.c ****     return ((DMATxDesc->Status & ETH_DMATxDesc_CC) >> ETH_DMATXDESC_COLLISION_COUNTSHIFT);
 1497              		.loc 1 827 1 is_stmt 1
 1498              		.cfi_startproc
 1499              	.LVL103:
 828:../Peripheral/src/ch32v30x_eth.c **** }
 1500              		.loc 1 828 5
 828:../Peripheral/src/ch32v30x_eth.c **** }
 1501              		.loc 1 828 23 is_stmt 0
 1502 0000 0841     		lw	a0,0(a0)
 1503              	.LVL104:
 828:../Peripheral/src/ch32v30x_eth.c **** }
 1504              		.loc 1 828 52
 1505 0002 0D81     		srli	a0,a0,3
 829:../Peripheral/src/ch32v30x_eth.c **** 
 1506              		.loc 1 829 1
 1507 0004 3D89     		andi	a0,a0,15
 1508 0006 8280     		ret
 1509              		.cfi_endproc
 1510              	.LFE55:
 1512              		.section	.text.ETH_SetDMATxDescOwnBit,"ax",@progbits
 1513              		.align	1
 1514              		.globl	ETH_SetDMATxDescOwnBit
 1516              	ETH_SetDMATxDescOwnBit:
 1517              	.LFB56:
 841:../Peripheral/src/ch32v30x_eth.c ****     DMATxDesc->Status |= ETH_DMATxDesc_OWN;
 1518              		.loc 1 841 1 is_stmt 1
 1519              		.cfi_startproc
 1520              	.LVL105:
 842:../Peripheral/src/ch32v30x_eth.c **** }
 1521              		.loc 1 842 5
 842:../Peripheral/src/ch32v30x_eth.c **** }
 1522              		.loc 1 842 14 is_stmt 0
 1523 0000 1C41     		lw	a5,0(a0)
 842:../Peripheral/src/ch32v30x_eth.c **** }
 1524              		.loc 1 842 23
 1525 0002 37070080 		li	a4,-2147483648
 1526 0006 D98F     		or	a5,a5,a4
 1527 0008 1CC1     		sw	a5,0(a0)
 843:../Peripheral/src/ch32v30x_eth.c **** 
 1528              		.loc 1 843 1
 1529 000a 8280     		ret
 1530              		.cfi_endproc
 1531              	.LFE56:
 1533              		.section	.text.ETH_DMATxDescTransmitITConfig,"ax",@progbits
 1534              		.align	1
 1535              		.globl	ETH_DMATxDescTransmitITConfig
 1537              	ETH_DMATxDescTransmitITConfig:
 1538              	.LFB57:
 856:../Peripheral/src/ch32v30x_eth.c ****     if(NewState != DISABLE)
 1539              		.loc 1 856 1 is_stmt 1
 1540              		.cfi_startproc
 1541              	.LVL106:
 857:../Peripheral/src/ch32v30x_eth.c ****     {
 1542              		.loc 1 857 5
 859:../Peripheral/src/ch32v30x_eth.c ****     }
 1543              		.loc 1 859 18 is_stmt 0
 1544 0000 1C41     		lw	a5,0(a0)
 857:../Peripheral/src/ch32v30x_eth.c ****     {
 1545              		.loc 1 857 7
 1546 0002 91C5     		beq	a1,zero,.L117
 859:../Peripheral/src/ch32v30x_eth.c ****     }
 1547              		.loc 1 859 9 is_stmt 1
 859:../Peripheral/src/ch32v30x_eth.c ****     }
 1548              		.loc 1 859 27 is_stmt 0
 1549 0004 37070040 		li	a4,1073741824
 1550 0008 D98F     		or	a5,a5,a4
 1551              	.L119:
 863:../Peripheral/src/ch32v30x_eth.c ****     }
 1552              		.loc 1 863 27
 1553 000a 1CC1     		sw	a5,0(a0)
 865:../Peripheral/src/ch32v30x_eth.c **** 
 1554              		.loc 1 865 1
 1555 000c 8280     		ret
 1556              	.L117:
 863:../Peripheral/src/ch32v30x_eth.c ****     }
 1557              		.loc 1 863 9 is_stmt 1
 863:../Peripheral/src/ch32v30x_eth.c ****     }
 1558              		.loc 1 863 27 is_stmt 0
 1559 000e 370700C0 		li	a4,-1073741824
 1560 0012 7D17     		addi	a4,a4,-1
 1561 0014 F98F     		and	a5,a5,a4
 1562 0016 D5BF     		j	.L119
 1563              		.cfi_endproc
 1564              	.LFE57:
 1566              		.section	.text.ETH_DMATxDescFrameSegmentConfig,"ax",@progbits
 1567              		.align	1
 1568              		.globl	ETH_DMATxDescFrameSegmentConfig
 1570              	ETH_DMATxDescFrameSegmentConfig:
 1571              	.LFB58:
 878:../Peripheral/src/ch32v30x_eth.c ****     DMATxDesc->Status |= DMATxDesc_FrameSegment;
 1572              		.loc 1 878 1 is_stmt 1
 1573              		.cfi_startproc
 1574              	.LVL107:
 879:../Peripheral/src/ch32v30x_eth.c **** }
 1575              		.loc 1 879 5
 879:../Peripheral/src/ch32v30x_eth.c **** }
 1576              		.loc 1 879 14 is_stmt 0
 1577 0000 1C41     		lw	a5,0(a0)
 879:../Peripheral/src/ch32v30x_eth.c **** }
 1578              		.loc 1 879 23
 1579 0002 CD8F     		or	a5,a5,a1
 1580 0004 1CC1     		sw	a5,0(a0)
 880:../Peripheral/src/ch32v30x_eth.c **** 
 1581              		.loc 1 880 1
 1582 0006 8280     		ret
 1583              		.cfi_endproc
 1584              	.LFE58:
 1586              		.section	.text.ETH_DMATxDescChecksumInsertionConfig,"ax",@progbits
 1587              		.align	1
 1588              		.globl	ETH_DMATxDescChecksumInsertionConfig
 1590              	ETH_DMATxDescChecksumInsertionConfig:
 1591              	.LFB140:
 1592              		.cfi_startproc
 892:../Peripheral/src/ch32v30x_eth.c **** {
 1593              		.loc 1 892 6 is_stmt 1
 1594 0000 1C41     		lw	a5,0(a0)
 1595 0002 DD8D     		or	a1,a1,a5
 1596 0004 0CC1     		sw	a1,0(a0)
 1597 0006 8280     		ret
 1598              		.cfi_endproc
 1599              	.LFE140:
 1601              		.section	.text.ETH_DMATxDescCRCCmd,"ax",@progbits
 1602              		.align	1
 1603              		.globl	ETH_DMATxDescCRCCmd
 1605              	ETH_DMATxDescCRCCmd:
 1606              	.LFB60:
 908:../Peripheral/src/ch32v30x_eth.c ****     if(NewState != DISABLE)
 1607              		.loc 1 908 1
 1608              		.cfi_startproc
 1609              	.LVL108:
 909:../Peripheral/src/ch32v30x_eth.c ****     {
 1610              		.loc 1 909 5
 911:../Peripheral/src/ch32v30x_eth.c ****     }
 1611              		.loc 1 911 18 is_stmt 0
 1612 0000 1C41     		lw	a5,0(a0)
 909:../Peripheral/src/ch32v30x_eth.c ****     {
 1613              		.loc 1 909 7
 1614 0002 99C5     		beq	a1,zero,.L123
 911:../Peripheral/src/ch32v30x_eth.c ****     }
 1615              		.loc 1 911 9 is_stmt 1
 911:../Peripheral/src/ch32v30x_eth.c ****     }
 1616              		.loc 1 911 27 is_stmt 0
 1617 0004 370700F8 		li	a4,-134217728
 1618 0008 7D17     		addi	a4,a4,-1
 1619 000a F98F     		and	a5,a5,a4
 1620              	.L125:
 915:../Peripheral/src/ch32v30x_eth.c ****     }
 1621              		.loc 1 915 27
 1622 000c 1CC1     		sw	a5,0(a0)
 917:../Peripheral/src/ch32v30x_eth.c **** 
 1623              		.loc 1 917 1
 1624 000e 8280     		ret
 1625              	.L123:
 915:../Peripheral/src/ch32v30x_eth.c ****     }
 1626              		.loc 1 915 9 is_stmt 1
 915:../Peripheral/src/ch32v30x_eth.c ****     }
 1627              		.loc 1 915 27 is_stmt 0
 1628 0010 37070008 		li	a4,134217728
 1629 0014 D98F     		or	a5,a5,a4
 1630 0016 DDBF     		j	.L125
 1631              		.cfi_endproc
 1632              	.LFE60:
 1634              		.section	.text.ETH_DMATxDescEndOfRingCmd,"ax",@progbits
 1635              		.align	1
 1636              		.globl	ETH_DMATxDescEndOfRingCmd
 1638              	ETH_DMATxDescEndOfRingCmd:
 1639              	.LFB61:
 930:../Peripheral/src/ch32v30x_eth.c ****     if(NewState != DISABLE)
 1640              		.loc 1 930 1 is_stmt 1
 1641              		.cfi_startproc
 1642              	.LVL109:
 931:../Peripheral/src/ch32v30x_eth.c ****     {
 1643              		.loc 1 931 5
 933:../Peripheral/src/ch32v30x_eth.c ****     }
 1644              		.loc 1 933 18 is_stmt 0
 1645 0000 1C41     		lw	a5,0(a0)
 931:../Peripheral/src/ch32v30x_eth.c ****     {
 1646              		.loc 1 931 7
 1647 0002 91C5     		beq	a1,zero,.L127
 933:../Peripheral/src/ch32v30x_eth.c ****     }
 1648              		.loc 1 933 9 is_stmt 1
 933:../Peripheral/src/ch32v30x_eth.c ****     }
 1649              		.loc 1 933 27 is_stmt 0
 1650 0004 37072000 		li	a4,2097152
 1651 0008 D98F     		or	a5,a5,a4
 1652              	.L129:
 937:../Peripheral/src/ch32v30x_eth.c ****     }
 1653              		.loc 1 937 27
 1654 000a 1CC1     		sw	a5,0(a0)
 939:../Peripheral/src/ch32v30x_eth.c **** 
 1655              		.loc 1 939 1
 1656 000c 8280     		ret
 1657              	.L127:
 937:../Peripheral/src/ch32v30x_eth.c ****     }
 1658              		.loc 1 937 9 is_stmt 1
 937:../Peripheral/src/ch32v30x_eth.c ****     }
 1659              		.loc 1 937 27 is_stmt 0
 1660 000e 3707E0FF 		li	a4,-2097152
 1661 0012 7D17     		addi	a4,a4,-1
 1662 0014 F98F     		and	a5,a5,a4
 1663 0016 D5BF     		j	.L129
 1664              		.cfi_endproc
 1665              	.LFE61:
 1667              		.section	.text.ETH_DMATxDescSecondAddressChainedCmd,"ax",@progbits
 1668              		.align	1
 1669              		.globl	ETH_DMATxDescSecondAddressChainedCmd
 1671              	ETH_DMATxDescSecondAddressChainedCmd:
 1672              	.LFB62:
 952:../Peripheral/src/ch32v30x_eth.c ****     if(NewState != DISABLE)
 1673              		.loc 1 952 1 is_stmt 1
 1674              		.cfi_startproc
 1675              	.LVL110:
 953:../Peripheral/src/ch32v30x_eth.c ****     {
 1676              		.loc 1 953 5
 955:../Peripheral/src/ch32v30x_eth.c ****     }
 1677              		.loc 1 955 18 is_stmt 0
 1678 0000 1C41     		lw	a5,0(a0)
 953:../Peripheral/src/ch32v30x_eth.c ****     {
 1679              		.loc 1 953 7
 1680 0002 91C5     		beq	a1,zero,.L131
 955:../Peripheral/src/ch32v30x_eth.c ****     }
 1681              		.loc 1 955 9 is_stmt 1
 955:../Peripheral/src/ch32v30x_eth.c ****     }
 1682              		.loc 1 955 27 is_stmt 0
 1683 0004 37071000 		li	a4,1048576
 1684 0008 D98F     		or	a5,a5,a4
 1685              	.L133:
 959:../Peripheral/src/ch32v30x_eth.c ****     }
 1686              		.loc 1 959 27
 1687 000a 1CC1     		sw	a5,0(a0)
 961:../Peripheral/src/ch32v30x_eth.c **** 
 1688              		.loc 1 961 1
 1689 000c 8280     		ret
 1690              	.L131:
 959:../Peripheral/src/ch32v30x_eth.c ****     }
 1691              		.loc 1 959 9 is_stmt 1
 959:../Peripheral/src/ch32v30x_eth.c ****     }
 1692              		.loc 1 959 27 is_stmt 0
 1693 000e 3707F0FF 		li	a4,-1048576
 1694 0012 7D17     		addi	a4,a4,-1
 1695 0014 F98F     		and	a5,a5,a4
 1696 0016 D5BF     		j	.L133
 1697              		.cfi_endproc
 1698              	.LFE62:
 1700              		.section	.text.ETH_DMATxDescShortFramePaddingCmd,"ax",@progbits
 1701              		.align	1
 1702              		.globl	ETH_DMATxDescShortFramePaddingCmd
 1704              	ETH_DMATxDescShortFramePaddingCmd:
 1705              	.LFB63:
 974:../Peripheral/src/ch32v30x_eth.c ****     if(NewState != DISABLE)
 1706              		.loc 1 974 1 is_stmt 1
 1707              		.cfi_startproc
 1708              	.LVL111:
 975:../Peripheral/src/ch32v30x_eth.c ****     {
 1709              		.loc 1 975 5
 977:../Peripheral/src/ch32v30x_eth.c ****     }
 1710              		.loc 1 977 18 is_stmt 0
 1711 0000 1C41     		lw	a5,0(a0)
 975:../Peripheral/src/ch32v30x_eth.c ****     {
 1712              		.loc 1 975 7
 1713 0002 99C5     		beq	a1,zero,.L135
 977:../Peripheral/src/ch32v30x_eth.c ****     }
 1714              		.loc 1 977 9 is_stmt 1
 977:../Peripheral/src/ch32v30x_eth.c ****     }
 1715              		.loc 1 977 27 is_stmt 0
 1716 0004 370700FC 		li	a4,-67108864
 1717 0008 7D17     		addi	a4,a4,-1
 1718 000a F98F     		and	a5,a5,a4
 1719              	.L137:
 981:../Peripheral/src/ch32v30x_eth.c ****     }
 1720              		.loc 1 981 27
 1721 000c 1CC1     		sw	a5,0(a0)
 983:../Peripheral/src/ch32v30x_eth.c **** 
 1722              		.loc 1 983 1
 1723 000e 8280     		ret
 1724              	.L135:
 981:../Peripheral/src/ch32v30x_eth.c ****     }
 1725              		.loc 1 981 9 is_stmt 1
 981:../Peripheral/src/ch32v30x_eth.c ****     }
 1726              		.loc 1 981 27 is_stmt 0
 1727 0010 37070004 		li	a4,67108864
 1728 0014 D98F     		or	a5,a5,a4
 1729 0016 DDBF     		j	.L137
 1730              		.cfi_endproc
 1731              	.LFE63:
 1733              		.section	.text.ETH_DMATxDescTimeStampCmd,"ax",@progbits
 1734              		.align	1
 1735              		.globl	ETH_DMATxDescTimeStampCmd
 1737              	ETH_DMATxDescTimeStampCmd:
 1738              	.LFB64:
 996:../Peripheral/src/ch32v30x_eth.c ****     if(NewState != DISABLE)
 1739              		.loc 1 996 1 is_stmt 1
 1740              		.cfi_startproc
 1741              	.LVL112:
 997:../Peripheral/src/ch32v30x_eth.c ****     {
 1742              		.loc 1 997 5
 999:../Peripheral/src/ch32v30x_eth.c ****     }
 1743              		.loc 1 999 18 is_stmt 0
 1744 0000 1C41     		lw	a5,0(a0)
 997:../Peripheral/src/ch32v30x_eth.c ****     {
 1745              		.loc 1 997 7
 1746 0002 91C5     		beq	a1,zero,.L139
 999:../Peripheral/src/ch32v30x_eth.c ****     }
 1747              		.loc 1 999 9 is_stmt 1
 999:../Peripheral/src/ch32v30x_eth.c ****     }
 1748              		.loc 1 999 27 is_stmt 0
 1749 0004 37070002 		li	a4,33554432
 1750 0008 D98F     		or	a5,a5,a4
 1751              	.L141:
1003:../Peripheral/src/ch32v30x_eth.c ****     }
 1752              		.loc 1 1003 27
 1753 000a 1CC1     		sw	a5,0(a0)
1005:../Peripheral/src/ch32v30x_eth.c **** 
 1754              		.loc 1 1005 1
 1755 000c 8280     		ret
 1756              	.L139:
1003:../Peripheral/src/ch32v30x_eth.c ****     }
 1757              		.loc 1 1003 9 is_stmt 1
1003:../Peripheral/src/ch32v30x_eth.c ****     }
 1758              		.loc 1 1003 27 is_stmt 0
 1759 000e 370700FE 		li	a4,-33554432
 1760 0012 7D17     		addi	a4,a4,-1
 1761 0014 F98F     		and	a5,a5,a4
 1762 0016 D5BF     		j	.L141
 1763              		.cfi_endproc
 1764              	.LFE64:
 1766              		.section	.text.ETH_DMATxDescBufferSizeConfig,"ax",@progbits
 1767              		.align	1
 1768              		.globl	ETH_DMATxDescBufferSizeConfig
 1770              	ETH_DMATxDescBufferSizeConfig:
 1771              	.LFB65:
1020:../Peripheral/src/ch32v30x_eth.c ****     DMATxDesc->ControlBufferSize |= (BufferSize1 | (BufferSize2 << ETH_DMATXDESC_BUFFER2_SIZESHIFT)
 1772              		.loc 1 1020 1 is_stmt 1
 1773              		.cfi_startproc
 1774              	.LVL113:
1021:../Peripheral/src/ch32v30x_eth.c **** }
 1775              		.loc 1 1021 5
1021:../Peripheral/src/ch32v30x_eth.c **** }
 1776              		.loc 1 1021 34 is_stmt 0
 1777 0000 5C41     		lw	a5,4(a0)
1021:../Peripheral/src/ch32v30x_eth.c **** }
 1778              		.loc 1 1021 65
 1779 0002 4206     		slli	a2,a2,16
 1780              	.LVL114:
1021:../Peripheral/src/ch32v30x_eth.c **** }
 1781              		.loc 1 1021 50
 1782 0004 4D8E     		or	a2,a2,a1
1021:../Peripheral/src/ch32v30x_eth.c **** }
 1783              		.loc 1 1021 34
 1784 0006 D18F     		or	a5,a5,a2
 1785 0008 5CC1     		sw	a5,4(a0)
1022:../Peripheral/src/ch32v30x_eth.c **** 
 1786              		.loc 1 1022 1
 1787 000a 8280     		ret
 1788              		.cfi_endproc
 1789              	.LFE65:
 1791              		.section	.text.ETH_DMARxDescChainInit,"ax",@progbits
 1792              		.align	1
 1793              		.globl	ETH_DMARxDescChainInit
 1795              	ETH_DMARxDescChainInit:
 1796              	.LFB66:
1036:../Peripheral/src/ch32v30x_eth.c ****     uint32_t            i = 0;
 1797              		.loc 1 1036 1 is_stmt 1
 1798              		.cfi_startproc
 1799              	.LVL115:
1037:../Peripheral/src/ch32v30x_eth.c ****     ETH_DMADESCTypeDef *DMARxDesc;
 1800              		.loc 1 1037 5
1038:../Peripheral/src/ch32v30x_eth.c **** 
 1801              		.loc 1 1038 5
1040:../Peripheral/src/ch32v30x_eth.c **** 
 1802              		.loc 1 1040 5
1040:../Peripheral/src/ch32v30x_eth.c **** 
 1803              		.loc 1 1040 20 is_stmt 0
 1804 0000 97070000 		sw	a0,DMARxDescToGet,a5
 1804      23A0A700 
1042:../Peripheral/src/ch32v30x_eth.c ****     {
 1805              		.loc 1 1042 5 is_stmt 1
1046:../Peripheral/src/ch32v30x_eth.c ****         DMARxDesc->Buffer1Addr = (uint32_t)(&RxBuff[i * ETH_MAX_PACKET_SIZE]);
 1806              		.loc 1 1046 38 is_stmt 0
 1807 0008 9166     		li	a3,16384
1042:../Peripheral/src/ch32v30x_eth.c ****     {
 1808              		.loc 1 1042 5
 1809 000a AA87     		mv	a5,a0
 1810 000c 0147     		li	a4,0
1045:../Peripheral/src/ch32v30x_eth.c ****         DMARxDesc->ControlBufferSize = ETH_DMARxDesc_RCH | (uint32_t)ETH_MAX_PACKET_SIZE;
 1811              		.loc 1 1045 27
 1812 000e 37030080 		li	t1,-2147483648
1046:../Peripheral/src/ch32v30x_eth.c ****         DMARxDesc->Buffer1Addr = (uint32_t)(&RxBuff[i * ETH_MAX_PACKET_SIZE]);
 1813              		.loc 1 1046 38
 1814 0012 93860660 		addi	a3,a3,1536
1047:../Peripheral/src/ch32v30x_eth.c **** 
 1815              		.loc 1 1047 32
 1816 0016 130E0060 		li	t3,1536
1049:../Peripheral/src/ch32v30x_eth.c ****         {
 1817              		.loc 1 1049 29
 1818 001a 930EF6FF 		addi	t4,a2,-1
 1819              	.LVL116:
 1820              	.L144:
1042:../Peripheral/src/ch32v30x_eth.c ****     {
 1821              		.loc 1 1042 18 is_stmt 1 discriminator 1
 1822 001e 6316E600 		bne	a2,a4,.L146
1059:../Peripheral/src/ch32v30x_eth.c **** }
 1823              		.loc 1 1059 5
1059:../Peripheral/src/ch32v30x_eth.c **** }
 1824              		.loc 1 1059 19 is_stmt 0
 1825 0022 B7970240 		li	a5,1073909760
 1826 0026 C8C7     		sw	a0,12(a5)
1060:../Peripheral/src/ch32v30x_eth.c **** 
 1827              		.loc 1 1060 1
 1828 0028 8280     		ret
 1829              	.L146:
1044:../Peripheral/src/ch32v30x_eth.c ****         DMARxDesc->Status = ETH_DMARxDesc_OWN;
 1830              		.loc 1 1044 9 is_stmt 1
 1831              	.LVL117:
1045:../Peripheral/src/ch32v30x_eth.c ****         DMARxDesc->ControlBufferSize = ETH_DMARxDesc_RCH | (uint32_t)ETH_MAX_PACKET_SIZE;
 1832              		.loc 1 1045 9
1047:../Peripheral/src/ch32v30x_eth.c **** 
 1833              		.loc 1 1047 32 is_stmt 0
 1834 002a 3308C703 		mul	a6,a4,t3
1045:../Peripheral/src/ch32v30x_eth.c ****         DMARxDesc->ControlBufferSize = ETH_DMARxDesc_RCH | (uint32_t)ETH_MAX_PACKET_SIZE;
 1835              		.loc 1 1045 27
 1836 002e 23A06700 		sw	t1,0(a5)
1046:../Peripheral/src/ch32v30x_eth.c ****         DMARxDesc->Buffer1Addr = (uint32_t)(&RxBuff[i * ETH_MAX_PACKET_SIZE]);
 1837              		.loc 1 1046 9 is_stmt 1
1046:../Peripheral/src/ch32v30x_eth.c ****         DMARxDesc->Buffer1Addr = (uint32_t)(&RxBuff[i * ETH_MAX_PACKET_SIZE]);
 1838              		.loc 1 1046 38 is_stmt 0
 1839 0032 D4C3     		sw	a3,4(a5)
1047:../Peripheral/src/ch32v30x_eth.c **** 
 1840              		.loc 1 1047 9 is_stmt 1
1055:../Peripheral/src/ch32v30x_eth.c ****         }
 1841              		.loc 1 1055 46 is_stmt 0
 1842 0034 AA88     		mv	a7,a0
1047:../Peripheral/src/ch32v30x_eth.c **** 
 1843              		.loc 1 1047 32
 1844 0036 2E98     		add	a6,a1,a6
 1845 0038 23A40701 		sw	a6,8(a5)
1049:../Peripheral/src/ch32v30x_eth.c ****         {
 1846              		.loc 1 1049 9 is_stmt 1
 1847 003c 13880701 		addi	a6,a5,16
1049:../Peripheral/src/ch32v30x_eth.c ****         {
 1848              		.loc 1 1049 11 is_stmt 0
 1849 0040 6373D701 		bleu	t4,a4,.L145
1051:../Peripheral/src/ch32v30x_eth.c ****         }
 1850              		.loc 1 1051 13 is_stmt 1
 1851 0044 C288     		mv	a7,a6
 1852              	.L145:
 1853 0046 23A61701 		sw	a7,12(a5)
1042:../Peripheral/src/ch32v30x_eth.c ****     {
 1854              		.loc 1 1042 34 discriminator 2
 1855              	.LVL118:
 1856 004a 0507     		addi	a4,a4,1
 1857              	.LVL119:
 1858 004c C287     		mv	a5,a6
 1859              	.LVL120:
 1860 004e C1BF     		j	.L144
 1861              		.cfi_endproc
 1862              	.LFE66:
 1864              		.section	.text.ETH_DMARxDescRingInit,"ax",@progbits
 1865              		.align	1
 1866              		.globl	ETH_DMARxDescRingInit
 1868              	ETH_DMARxDescRingInit:
 1869              	.LFB67:
1075:../Peripheral/src/ch32v30x_eth.c ****     uint32_t            i = 0;
 1870              		.loc 1 1075 1
 1871              		.cfi_startproc
 1872              	.LVL121:
1076:../Peripheral/src/ch32v30x_eth.c ****     ETH_DMADESCTypeDef *DMARxDesc;
 1873              		.loc 1 1076 5
1077:../Peripheral/src/ch32v30x_eth.c **** 
 1874              		.loc 1 1077 5
1079:../Peripheral/src/ch32v30x_eth.c **** 
 1875              		.loc 1 1079 5
1079:../Peripheral/src/ch32v30x_eth.c **** 
 1876              		.loc 1 1079 20 is_stmt 0
 1877 0000 97070000 		sw	a0,DMARxDescToGet,a5
 1877      23A0A700 
1081:../Peripheral/src/ch32v30x_eth.c ****     {
 1878              		.loc 1 1081 5 is_stmt 1
1091:../Peripheral/src/ch32v30x_eth.c ****         }
 1879              		.loc 1 1091 42 is_stmt 0
 1880 0008 A168     		li	a7,32768
1081:../Peripheral/src/ch32v30x_eth.c ****     {
 1881              		.loc 1 1081 5
 1882 000a AA87     		mv	a5,a0
1081:../Peripheral/src/ch32v30x_eth.c ****     {
 1883              		.loc 1 1081 11
 1884 000c 0147     		li	a4,0
1084:../Peripheral/src/ch32v30x_eth.c ****         DMARxDesc->ControlBufferSize = ETH_MAX_PACKET_SIZE;
 1885              		.loc 1 1084 27
 1886 000e 37030080 		li	t1,-2147483648
 1887 0012 130E0060 		li	t3,1536
1089:../Peripheral/src/ch32v30x_eth.c ****         {
 1888              		.loc 1 1089 30
 1889 0016 938EF6FF 		addi	t4,a3,-1
1091:../Peripheral/src/ch32v30x_eth.c ****         }
 1890              		.loc 1 1091 42
 1891 001a 93880860 		addi	a7,a7,1536
 1892              	.LVL122:
 1893              	.L149:
1081:../Peripheral/src/ch32v30x_eth.c ****     {
 1894              		.loc 1 1081 18 is_stmt 1 discriminator 1
 1895 001e 6316D700 		bne	a4,a3,.L151
1095:../Peripheral/src/ch32v30x_eth.c **** }
 1896              		.loc 1 1095 5
1095:../Peripheral/src/ch32v30x_eth.c **** }
 1897              		.loc 1 1095 19 is_stmt 0
 1898 0022 B7970240 		li	a5,1073909760
 1899 0026 C8C7     		sw	a0,12(a5)
1096:../Peripheral/src/ch32v30x_eth.c **** 
 1900              		.loc 1 1096 1
 1901 0028 8280     		ret
 1902              	.L151:
1083:../Peripheral/src/ch32v30x_eth.c ****         DMARxDesc->Status = ETH_DMARxDesc_OWN;
 1903              		.loc 1 1083 9 is_stmt 1
 1904              	.LVL123:
1084:../Peripheral/src/ch32v30x_eth.c ****         DMARxDesc->ControlBufferSize = ETH_MAX_PACKET_SIZE;
 1905              		.loc 1 1084 9
 1906 002a 3308C703 		mul	a6,a4,t3
1084:../Peripheral/src/ch32v30x_eth.c ****         DMARxDesc->ControlBufferSize = ETH_MAX_PACKET_SIZE;
 1907              		.loc 1 1084 27 is_stmt 0
 1908 002e 23A06700 		sw	t1,0(a5)
1085:../Peripheral/src/ch32v30x_eth.c ****         DMARxDesc->Buffer1Addr = (uint32_t)(&RxBuff1[i * ETH_MAX_PACKET_SIZE]);
 1909              		.loc 1 1085 9 is_stmt 1
1086:../Peripheral/src/ch32v30x_eth.c ****         DMARxDesc->Buffer2NextDescAddr = (uint32_t)(&RxBuff2[i * ETH_MAX_PACKET_SIZE]);
 1910              		.loc 1 1086 9
1086:../Peripheral/src/ch32v30x_eth.c ****         DMARxDesc->Buffer2NextDescAddr = (uint32_t)(&RxBuff2[i * ETH_MAX_PACKET_SIZE]);
 1911              		.loc 1 1086 32 is_stmt 0
 1912 0032 338F0501 		add	t5,a1,a6
1087:../Peripheral/src/ch32v30x_eth.c **** 
 1913              		.loc 1 1087 40
 1914 0036 3298     		add	a6,a2,a6
 1915 0038 23A60701 		sw	a6,12(a5)
1086:../Peripheral/src/ch32v30x_eth.c ****         DMARxDesc->Buffer2NextDescAddr = (uint32_t)(&RxBuff2[i * ETH_MAX_PACKET_SIZE]);
 1916              		.loc 1 1086 32
 1917 003c 23A4E701 		sw	t5,8(a5)
1087:../Peripheral/src/ch32v30x_eth.c **** 
 1918              		.loc 1 1087 9 is_stmt 1
1089:../Peripheral/src/ch32v30x_eth.c ****         {
 1919              		.loc 1 1089 9
1091:../Peripheral/src/ch32v30x_eth.c ****         }
 1920              		.loc 1 1091 42 is_stmt 0
 1921 0040 13080060 		li	a6,1536
1089:../Peripheral/src/ch32v30x_eth.c ****         {
 1922              		.loc 1 1089 11
 1923 0044 6393EE00 		bne	t4,a4,.L150
1091:../Peripheral/src/ch32v30x_eth.c ****         }
 1924              		.loc 1 1091 42
 1925 0048 4688     		mv	a6,a7
 1926              	.L150:
 1927 004a 23A20701 		sw	a6,4(a5)
1081:../Peripheral/src/ch32v30x_eth.c ****     {
 1928              		.loc 1 1081 34 is_stmt 1 discriminator 2
 1929 004e 0507     		addi	a4,a4,1
 1930              	.LVL124:
 1931 0050 C107     		addi	a5,a5,16
 1932              	.LVL125:
 1933 0052 F1B7     		j	.L149
 1934              		.cfi_endproc
 1935              	.LFE67:
 1937              		.section	.text.ETH_GetDMARxDescFlagStatus,"ax",@progbits
 1938              		.align	1
 1939              		.globl	ETH_GetDMARxDescFlagStatus
 1941              	ETH_GetDMARxDescFlagStatus:
 1942              	.LFB136:
 1943              		.cfi_startproc
1126:../Peripheral/src/ch32v30x_eth.c **** {
 1944              		.loc 1 1126 12
 1945 0000 1C41     		lw	a5,0(a0)
 1946 0002 33F5F500 		and	a0,a1,a5
 1947 0006 3335A000 		snez	a0,a0
 1948 000a 8280     		ret
 1949              		.cfi_endproc
 1950              	.LFE136:
 1952              		.section	.text.ETH_SetDMARxDescOwnBit,"ax",@progbits
 1953              		.align	1
 1954              		.globl	ETH_SetDMARxDescOwnBit
 1956              	ETH_SetDMARxDescOwnBit:
 1957              	.LFB138:
 1958              		.cfi_startproc
1151:../Peripheral/src/ch32v30x_eth.c **** {
 1959              		.loc 1 1151 6
 1960 0000 1C41     		lw	a5,0(a0)
 1961 0002 37070080 		li	a4,-2147483648
 1962 0006 D98F     		or	a5,a5,a4
 1963 0008 1CC1     		sw	a5,0(a0)
 1964 000a 8280     		ret
 1965              		.cfi_endproc
 1966              	.LFE138:
 1968              		.section	.text.ETH_GetDMARxDescFrameLength,"ax",@progbits
 1969              		.align	1
 1970              		.globl	ETH_GetDMARxDescFrameLength
 1972              	ETH_GetDMARxDescFrameLength:
 1973              	.LFB70:
1166:../Peripheral/src/ch32v30x_eth.c ****     return ((DMARxDesc->Status & ETH_DMARxDesc_FL) >> ETH_DMARXDESC_FRAME_LENGTHSHIFT);
 1974              		.loc 1 1166 1
 1975              		.cfi_startproc
 1976              	.LVL126:
 1977              		.loc 1 1167 5
 1978              		.loc 1 1167 23 is_stmt 0
 1979 0000 0841     		lw	a0,0(a0)
 1980              	.LVL127:
 1981              		.loc 1 1167 52
 1982 0002 0A05     		slli	a0,a0,2
1168:../Peripheral/src/ch32v30x_eth.c **** }
 1983              		.loc 1 1168 1
 1984 0004 4981     		srli	a0,a0,18
 1985 0006 8280     		ret
 1986              		.cfi_endproc
 1987              	.LFE70:
 1989              		.section	.text.ETH_DMARxDescReceiveITConfig,"ax",@progbits
 1990              		.align	1
 1991              		.globl	ETH_DMARxDescReceiveITConfig
 1993              	ETH_DMARxDescReceiveITConfig:
 1994              	.LFB71:
1169:../Peripheral/src/ch32v30x_eth.c **** 
1170:../Peripheral/src/ch32v30x_eth.c **** /*********************************************************************
1171:../Peripheral/src/ch32v30x_eth.c ****  * @fn      ETH_DMARxDescReceiveITConfig
1172:../Peripheral/src/ch32v30x_eth.c ****  *
1173:../Peripheral/src/ch32v30x_eth.c ****  * @brief   Enables or disables the specified DMA Rx Desc receive interrupt.
1174:../Peripheral/src/ch32v30x_eth.c ****  *
1175:../Peripheral/src/ch32v30x_eth.c ****  * @param   DMARxDesc - Pointer on a Rx desc
1176:../Peripheral/src/ch32v30x_eth.c ****  *          NewState - ENABLE or DISABLE.
1177:../Peripheral/src/ch32v30x_eth.c ****  *
1178:../Peripheral/src/ch32v30x_eth.c ****  * @return  none
1179:../Peripheral/src/ch32v30x_eth.c ****  */
1180:../Peripheral/src/ch32v30x_eth.c **** void ETH_DMARxDescReceiveITConfig(ETH_DMADESCTypeDef *DMARxDesc, FunctionalState NewState)
1181:../Peripheral/src/ch32v30x_eth.c **** {
 1995              		.loc 1 1181 1 is_stmt 1
 1996              		.cfi_startproc
 1997              	.LVL128:
1182:../Peripheral/src/ch32v30x_eth.c ****     if(NewState != DISABLE)
 1998              		.loc 1 1182 5
1183:../Peripheral/src/ch32v30x_eth.c ****     {
1184:../Peripheral/src/ch32v30x_eth.c ****         DMARxDesc->ControlBufferSize &= (~(uint32_t)ETH_DMARxDesc_DIC);
 1999              		.loc 1 1184 18 is_stmt 0
 2000 0000 5C41     		lw	a5,4(a0)
1182:../Peripheral/src/ch32v30x_eth.c ****     if(NewState != DISABLE)
 2001              		.loc 1 1182 7
 2002 0002 89C5     		beq	a1,zero,.L157
 2003              		.loc 1 1184 9 is_stmt 1
 2004              		.loc 1 1184 38 is_stmt 0
 2005 0004 8607     		slli	a5,a5,1
 2006 0006 8583     		srli	a5,a5,1
 2007              	.L158:
 2008 0008 5CC1     		sw	a5,4(a0)
1185:../Peripheral/src/ch32v30x_eth.c ****     }
1186:../Peripheral/src/ch32v30x_eth.c ****     else
1187:../Peripheral/src/ch32v30x_eth.c ****     {
1188:../Peripheral/src/ch32v30x_eth.c ****         DMARxDesc->ControlBufferSize |= ETH_DMARxDesc_DIC;
1189:../Peripheral/src/ch32v30x_eth.c ****     }
1190:../Peripheral/src/ch32v30x_eth.c **** }
 2009              		.loc 1 1190 1
 2010 000a 8280     		ret
 2011              	.L157:
1188:../Peripheral/src/ch32v30x_eth.c ****     }
 2012              		.loc 1 1188 9 is_stmt 1
1188:../Peripheral/src/ch32v30x_eth.c ****     }
 2013              		.loc 1 1188 38 is_stmt 0
 2014 000c 37070080 		li	a4,-2147483648
 2015 0010 D98F     		or	a5,a5,a4
 2016 0012 DDBF     		j	.L158
 2017              		.cfi_endproc
 2018              	.LFE71:
 2020              		.section	.text.ETH_DMARxDescEndOfRingCmd,"ax",@progbits
 2021              		.align	1
 2022              		.globl	ETH_DMARxDescEndOfRingCmd
 2024              	ETH_DMARxDescEndOfRingCmd:
 2025              	.LFB72:
1191:../Peripheral/src/ch32v30x_eth.c **** 
1192:../Peripheral/src/ch32v30x_eth.c **** /*********************************************************************
1193:../Peripheral/src/ch32v30x_eth.c ****  * @fn      ETH_DMARxDescEndOfRingCmd
1194:../Peripheral/src/ch32v30x_eth.c ****  *
1195:../Peripheral/src/ch32v30x_eth.c ****  * @brief   Enables or disables the DMA Rx Desc end of ring.
1196:../Peripheral/src/ch32v30x_eth.c ****  *
1197:../Peripheral/src/ch32v30x_eth.c ****  * @param   DMARxDesc - pointer on a DMA Rx descriptor.
1198:../Peripheral/src/ch32v30x_eth.c ****  *          NewState - new state of the specified DMA Rx Desc end of ring.
1199:../Peripheral/src/ch32v30x_eth.c ****  *
1200:../Peripheral/src/ch32v30x_eth.c ****  * @return  none
1201:../Peripheral/src/ch32v30x_eth.c ****  */
1202:../Peripheral/src/ch32v30x_eth.c **** void ETH_DMARxDescEndOfRingCmd(ETH_DMADESCTypeDef *DMARxDesc, FunctionalState NewState)
1203:../Peripheral/src/ch32v30x_eth.c **** {
 2026              		.loc 1 1203 1 is_stmt 1
 2027              		.cfi_startproc
 2028              	.LVL129:
1204:../Peripheral/src/ch32v30x_eth.c ****     if(NewState != DISABLE)
 2029              		.loc 1 1204 5
1205:../Peripheral/src/ch32v30x_eth.c ****     {
1206:../Peripheral/src/ch32v30x_eth.c ****         DMARxDesc->ControlBufferSize |= ETH_DMARxDesc_RER;
 2030              		.loc 1 1206 18 is_stmt 0
 2031 0000 5C41     		lw	a5,4(a0)
1204:../Peripheral/src/ch32v30x_eth.c ****     if(NewState != DISABLE)
 2032              		.loc 1 1204 7
 2033 0002 89C5     		beq	a1,zero,.L160
 2034              		.loc 1 1206 9 is_stmt 1
 2035              		.loc 1 1206 38 is_stmt 0
 2036 0004 2167     		li	a4,32768
 2037 0006 D98F     		or	a5,a5,a4
 2038              	.L161:
 2039 0008 5CC1     		sw	a5,4(a0)
1207:../Peripheral/src/ch32v30x_eth.c ****     }
1208:../Peripheral/src/ch32v30x_eth.c ****     else
1209:../Peripheral/src/ch32v30x_eth.c ****     {
1210:../Peripheral/src/ch32v30x_eth.c ****         DMARxDesc->ControlBufferSize &= (~(uint32_t)ETH_DMARxDesc_RER);
1211:../Peripheral/src/ch32v30x_eth.c ****     }
1212:../Peripheral/src/ch32v30x_eth.c **** }
 2040              		.loc 1 1212 1
 2041 000a 8280     		ret
 2042              	.L160:
1210:../Peripheral/src/ch32v30x_eth.c ****     }
 2043              		.loc 1 1210 9 is_stmt 1
1210:../Peripheral/src/ch32v30x_eth.c ****     }
 2044              		.loc 1 1210 38 is_stmt 0
 2045 000c 6177     		li	a4,-32768
 2046 000e 7D17     		addi	a4,a4,-1
 2047 0010 F98F     		and	a5,a5,a4
 2048 0012 DDBF     		j	.L161
 2049              		.cfi_endproc
 2050              	.LFE72:
 2052              		.section	.text.ETH_DMARxDescSecondAddressChainedCmd,"ax",@progbits
 2053              		.align	1
 2054              		.globl	ETH_DMARxDescSecondAddressChainedCmd
 2056              	ETH_DMARxDescSecondAddressChainedCmd:
 2057              	.LFB73:
1213:../Peripheral/src/ch32v30x_eth.c **** 
1214:../Peripheral/src/ch32v30x_eth.c **** /*********************************************************************
1215:../Peripheral/src/ch32v30x_eth.c ****  * @fn      ETH_DMARxDescSecondAddressChainedCmd
1216:../Peripheral/src/ch32v30x_eth.c ****  *
1217:../Peripheral/src/ch32v30x_eth.c ****  * @brief   Returns the specified ETHERNET DMA Rx Desc buffer size.
1218:../Peripheral/src/ch32v30x_eth.c ****  *
1219:../Peripheral/src/ch32v30x_eth.c ****  * @param   DMARxDesc - pointer on a DMA Rx descriptor.
1220:../Peripheral/src/ch32v30x_eth.c ****  *          NewState - new state of the specified DMA Rx Desc second address chained.
1221:../Peripheral/src/ch32v30x_eth.c ****  *
1222:../Peripheral/src/ch32v30x_eth.c ****  * @return  none
1223:../Peripheral/src/ch32v30x_eth.c ****  */
1224:../Peripheral/src/ch32v30x_eth.c **** void ETH_DMARxDescSecondAddressChainedCmd(ETH_DMADESCTypeDef *DMARxDesc, FunctionalState NewState)
1225:../Peripheral/src/ch32v30x_eth.c **** {
 2058              		.loc 1 1225 1 is_stmt 1
 2059              		.cfi_startproc
 2060              	.LVL130:
1226:../Peripheral/src/ch32v30x_eth.c ****     if(NewState != DISABLE)
 2061              		.loc 1 1226 5
1227:../Peripheral/src/ch32v30x_eth.c ****     {
1228:../Peripheral/src/ch32v30x_eth.c ****         DMARxDesc->ControlBufferSize |= ETH_DMARxDesc_RCH;
 2062              		.loc 1 1228 18 is_stmt 0
 2063 0000 5C41     		lw	a5,4(a0)
1226:../Peripheral/src/ch32v30x_eth.c ****     if(NewState != DISABLE)
 2064              		.loc 1 1226 7
 2065 0002 89C5     		beq	a1,zero,.L163
 2066              		.loc 1 1228 9 is_stmt 1
 2067              		.loc 1 1228 38 is_stmt 0
 2068 0004 1167     		li	a4,16384
 2069 0006 D98F     		or	a5,a5,a4
 2070              	.L164:
 2071 0008 5CC1     		sw	a5,4(a0)
1229:../Peripheral/src/ch32v30x_eth.c ****     }
1230:../Peripheral/src/ch32v30x_eth.c ****     else
1231:../Peripheral/src/ch32v30x_eth.c ****     {
1232:../Peripheral/src/ch32v30x_eth.c ****         DMARxDesc->ControlBufferSize &= (~(uint32_t)ETH_DMARxDesc_RCH);
1233:../Peripheral/src/ch32v30x_eth.c ****     }
1234:../Peripheral/src/ch32v30x_eth.c **** }
 2072              		.loc 1 1234 1
 2073 000a 8280     		ret
 2074              	.L163:
1232:../Peripheral/src/ch32v30x_eth.c ****     }
 2075              		.loc 1 1232 9 is_stmt 1
1232:../Peripheral/src/ch32v30x_eth.c ****     }
 2076              		.loc 1 1232 38 is_stmt 0
 2077 000c 7177     		li	a4,-16384
 2078 000e 7D17     		addi	a4,a4,-1
 2079 0010 F98F     		and	a5,a5,a4
 2080 0012 DDBF     		j	.L164
 2081              		.cfi_endproc
 2082              	.LFE73:
 2084              		.section	.text.ETH_GetDMARxDescBufferSize,"ax",@progbits
 2085              		.align	1
 2086              		.globl	ETH_GetDMARxDescBufferSize
 2088              	ETH_GetDMARxDescBufferSize:
 2089              	.LFB74:
1235:../Peripheral/src/ch32v30x_eth.c **** 
1236:../Peripheral/src/ch32v30x_eth.c **** /*********************************************************************
1237:../Peripheral/src/ch32v30x_eth.c ****  * @fn      ETH_GetDMARxDescBufferSize
1238:../Peripheral/src/ch32v30x_eth.c ****  *
1239:../Peripheral/src/ch32v30x_eth.c ****  * @brief   Returns the specified ETHERNET DMA Rx Desc buffer size.
1240:../Peripheral/src/ch32v30x_eth.c ****  *
1241:../Peripheral/src/ch32v30x_eth.c ****  * @param   DMARxDesc - pointer on a DMA Rx descriptor.
1242:../Peripheral/src/ch32v30x_eth.c ****  *          DMARxDesc_Buffer - specifies the DMA Rx Desc buffer.
1243:../Peripheral/src/ch32v30x_eth.c ****  *          ETH_DMARxDesc_Buffer1 - DMA Rx Desc Buffer1
1244:../Peripheral/src/ch32v30x_eth.c ****  *          ETH_DMARxDesc_Buffer2 - DMA Rx Desc Buffer2
1245:../Peripheral/src/ch32v30x_eth.c ****  *
1246:../Peripheral/src/ch32v30x_eth.c ****  * @return  The Receive descriptor frame length.
1247:../Peripheral/src/ch32v30x_eth.c ****  */
1248:../Peripheral/src/ch32v30x_eth.c **** uint32_t ETH_GetDMARxDescBufferSize(ETH_DMADESCTypeDef *DMARxDesc, uint32_t DMARxDesc_Buffer)
1249:../Peripheral/src/ch32v30x_eth.c **** {
 2090              		.loc 1 1249 1 is_stmt 1
 2091              		.cfi_startproc
 2092              	.LVL131:
1250:../Peripheral/src/ch32v30x_eth.c ****     if(DMARxDesc_Buffer != ETH_DMARxDesc_Buffer1)
 2093              		.loc 1 1250 5
1251:../Peripheral/src/ch32v30x_eth.c ****     {
1252:../Peripheral/src/ch32v30x_eth.c ****         return ((DMARxDesc->ControlBufferSize & ETH_DMARxDesc_RBS2) >> ETH_DMARXDESC_BUFFER2_SIZESH
 2094              		.loc 1 1252 27 is_stmt 0
 2095 0000 5C41     		lw	a5,4(a0)
 2096 0002 0965     		li	a0,8192
 2097              	.LVL132:
 2098 0004 7D15     		addi	a0,a0,-1
1250:../Peripheral/src/ch32v30x_eth.c ****     if(DMARxDesc_Buffer != ETH_DMARxDesc_Buffer1)
 2099              		.loc 1 1250 7
 2100 0006 91C1     		beq	a1,zero,.L166
 2101              		.loc 1 1252 9 is_stmt 1
 2102              		.loc 1 1252 69 is_stmt 0
 2103 0008 C183     		srli	a5,a5,16
 2104              	.L166:
1253:../Peripheral/src/ch32v30x_eth.c ****     }
1254:../Peripheral/src/ch32v30x_eth.c ****     else
1255:../Peripheral/src/ch32v30x_eth.c ****     {
1256:../Peripheral/src/ch32v30x_eth.c ****         return (DMARxDesc->ControlBufferSize & ETH_DMARxDesc_RBS1);
 2105              		.loc 1 1256 9 is_stmt 1
 2106              		.loc 1 1256 46 is_stmt 0
 2107 000a 7D8D     		and	a0,a5,a0
1257:../Peripheral/src/ch32v30x_eth.c ****     }
1258:../Peripheral/src/ch32v30x_eth.c **** }
 2108              		.loc 1 1258 1
 2109 000c 8280     		ret
 2110              		.cfi_endproc
 2111              	.LFE74:
 2113              		.section	.text.ETH_SoftwareReset,"ax",@progbits
 2114              		.align	1
 2115              		.globl	ETH_SoftwareReset
 2117              	ETH_SoftwareReset:
 2118              	.LFB75:
1259:../Peripheral/src/ch32v30x_eth.c **** 
1260:../Peripheral/src/ch32v30x_eth.c **** /*********************************************************************
1261:../Peripheral/src/ch32v30x_eth.c ****  * @fn      ETH_SoftwareReset
1262:../Peripheral/src/ch32v30x_eth.c ****  *
1263:../Peripheral/src/ch32v30x_eth.c ****  * @brief   Resets all MAC subsystem internal registers and logic.
1264:../Peripheral/src/ch32v30x_eth.c ****  *
1265:../Peripheral/src/ch32v30x_eth.c ****  * @return  none
1266:../Peripheral/src/ch32v30x_eth.c ****  */
1267:../Peripheral/src/ch32v30x_eth.c **** void ETH_SoftwareReset(void)
1268:../Peripheral/src/ch32v30x_eth.c **** {
 2119              		.loc 1 1268 1 is_stmt 1
 2120              		.cfi_startproc
1269:../Peripheral/src/ch32v30x_eth.c ****     ETH->DMABMR |= ETH_DMABMR_SR;
 2121              		.loc 1 1269 5
 2122              		.loc 1 1269 8 is_stmt 0
 2123 0000 37970240 		li	a4,1073909760
 2124 0004 1C43     		lw	a5,0(a4)
 2125              		.loc 1 1269 17
 2126 0006 93E71700 		ori	a5,a5,1
 2127 000a 1CC3     		sw	a5,0(a4)
1270:../Peripheral/src/ch32v30x_eth.c **** }
 2128              		.loc 1 1270 1
 2129 000c 8280     		ret
 2130              		.cfi_endproc
 2131              	.LFE75:
 2133              		.section	.text.ETH_GetSoftwareResetStatus,"ax",@progbits
 2134              		.align	1
 2135              		.globl	ETH_GetSoftwareResetStatus
 2137              	ETH_GetSoftwareResetStatus:
 2138              	.LFB76:
1271:../Peripheral/src/ch32v30x_eth.c **** 
1272:../Peripheral/src/ch32v30x_eth.c **** /*********************************************************************
1273:../Peripheral/src/ch32v30x_eth.c ****  * @fn      ETH_GetSoftwareResetStatus
1274:../Peripheral/src/ch32v30x_eth.c ****  *
1275:../Peripheral/src/ch32v30x_eth.c ****  * @brief   Checks whether the ETHERNET software reset bit is set or not.
1276:../Peripheral/src/ch32v30x_eth.c ****  *
1277:../Peripheral/src/ch32v30x_eth.c ****  * @return  The new state of DMA Bus Mode register SR bit (SET or RESET).
1278:../Peripheral/src/ch32v30x_eth.c ****  */
1279:../Peripheral/src/ch32v30x_eth.c **** FlagStatus ETH_GetSoftwareResetStatus(void)
1280:../Peripheral/src/ch32v30x_eth.c **** {
 2139              		.loc 1 1280 1 is_stmt 1
 2140              		.cfi_startproc
1281:../Peripheral/src/ch32v30x_eth.c ****     FlagStatus bitstatus = RESET;
 2141              		.loc 1 1281 5
 2142              	.LVL133:
1282:../Peripheral/src/ch32v30x_eth.c ****     if((ETH->DMABMR & ETH_DMABMR_SR) != (uint32_t)RESET)
 2143              		.loc 1 1282 5
 2144              		.loc 1 1282 12 is_stmt 0
 2145 0000 B7970240 		li	a5,1073909760
 2146 0004 8843     		lw	a0,0(a5)
 2147              	.LVL134:
1283:../Peripheral/src/ch32v30x_eth.c ****     {
1284:../Peripheral/src/ch32v30x_eth.c ****         bitstatus = SET;
1285:../Peripheral/src/ch32v30x_eth.c ****     }
1286:../Peripheral/src/ch32v30x_eth.c ****     else
1287:../Peripheral/src/ch32v30x_eth.c ****     {
1288:../Peripheral/src/ch32v30x_eth.c ****         bitstatus = RESET;
1289:../Peripheral/src/ch32v30x_eth.c ****     }
1290:../Peripheral/src/ch32v30x_eth.c **** 
1291:../Peripheral/src/ch32v30x_eth.c ****     return bitstatus;
 2148              		.loc 1 1291 5 is_stmt 1
1292:../Peripheral/src/ch32v30x_eth.c **** }
 2149              		.loc 1 1292 1 is_stmt 0
 2150 0006 0589     		andi	a0,a0,1
 2151              	.LVL135:
 2152 0008 8280     		ret
 2153              		.cfi_endproc
 2154              	.LFE76:
 2156              		.section	.text.ETH_GetlinkStaus,"ax",@progbits
 2157              		.align	1
 2158              		.globl	ETH_GetlinkStaus
 2160              	ETH_GetlinkStaus:
 2161              	.LFB77:
1293:../Peripheral/src/ch32v30x_eth.c **** 
1294:../Peripheral/src/ch32v30x_eth.c **** /*********************************************************************
1295:../Peripheral/src/ch32v30x_eth.c ****  * @fn      ETH_GetlinkStaus
1296:../Peripheral/src/ch32v30x_eth.c ****  *
1297:../Peripheral/src/ch32v30x_eth.c ****  * @brief   Checks whether the internal 10BASE-T PHY is link or not.
1298:../Peripheral/src/ch32v30x_eth.c ****  *
1299:../Peripheral/src/ch32v30x_eth.c ****  * @return  Internal 10BASE-T PHY is link or not.
1300:../Peripheral/src/ch32v30x_eth.c ****  */
1301:../Peripheral/src/ch32v30x_eth.c **** FlagStatus ETH_GetlinkStaus(void)
1302:../Peripheral/src/ch32v30x_eth.c **** {
 2162              		.loc 1 1302 1 is_stmt 1
 2163              		.cfi_startproc
1303:../Peripheral/src/ch32v30x_eth.c ****     FlagStatus bitstatus = RESET;
 2164              		.loc 1 1303 5
 2165              	.LVL136:
1304:../Peripheral/src/ch32v30x_eth.c **** 
1305:../Peripheral/src/ch32v30x_eth.c ****     if((ETH->DMASR & 0x80000000) != (uint32_t)RESET)
 2166              		.loc 1 1305 5
 2167              		.loc 1 1305 12 is_stmt 0
 2168 0000 B7970240 		li	a5,1073909760
 2169 0004 C84B     		lw	a0,20(a5)
 2170              	.LVL137:
1306:../Peripheral/src/ch32v30x_eth.c ****     {
1307:../Peripheral/src/ch32v30x_eth.c ****         bitstatus = PHY_10BASE_T_LINKED;
1308:../Peripheral/src/ch32v30x_eth.c ****     }
1309:../Peripheral/src/ch32v30x_eth.c ****     else
1310:../Peripheral/src/ch32v30x_eth.c ****     {
1311:../Peripheral/src/ch32v30x_eth.c ****         bitstatus = PHY_10BASE_T_NOT_LINKED;
1312:../Peripheral/src/ch32v30x_eth.c ****     }
1313:../Peripheral/src/ch32v30x_eth.c **** 
1314:../Peripheral/src/ch32v30x_eth.c ****     return bitstatus;
 2171              		.loc 1 1314 5 is_stmt 1
1315:../Peripheral/src/ch32v30x_eth.c **** }
 2172              		.loc 1 1315 1 is_stmt 0
 2173 0006 7D81     		srli	a0,a0,31
 2174              	.LVL138:
 2175 0008 8280     		ret
 2176              		.cfi_endproc
 2177              	.LFE77:
 2179              		.section	.text.ETH_GetDMAFlagStatus,"ax",@progbits
 2180              		.align	1
 2181              		.globl	ETH_GetDMAFlagStatus
 2183              	ETH_GetDMAFlagStatus:
 2184              	.LFB78:
1316:../Peripheral/src/ch32v30x_eth.c **** 
1317:../Peripheral/src/ch32v30x_eth.c **** /*********************************************************************
1318:../Peripheral/src/ch32v30x_eth.c ****  * @fn      ETH_GetDMAFlagStatus
1319:../Peripheral/src/ch32v30x_eth.c ****  *
1320:../Peripheral/src/ch32v30x_eth.c ****  * @brief   Checks whether the specified ETHERNET DMA flag is set or not.
1321:../Peripheral/src/ch32v30x_eth.c ****  *
1322:../Peripheral/src/ch32v30x_eth.c ****  * @param   ETH_DMA_FLAG - specifies the flag to check.
1323:../Peripheral/src/ch32v30x_eth.c ****  *            ETH_DMA_FLAG_TST - Time-stamp trigger flag
1324:../Peripheral/src/ch32v30x_eth.c ****  *            ETH_DMA_FLAG_PMT - PMT flag
1325:../Peripheral/src/ch32v30x_eth.c ****  *            ETH_DMA_FLAG_MMC - MMC flag
1326:../Peripheral/src/ch32v30x_eth.c ****  *            ETH_DMA_FLAG_DataTransferError - Error bits 0-data buffer, 1-desc. access
1327:../Peripheral/src/ch32v30x_eth.c ****  *            ETH_DMA_FLAG_ReadWriteError - Error bits 0-write trnsf, 1-read transfr
1328:../Peripheral/src/ch32v30x_eth.c ****  *            ETH_DMA_FLAG_AccessError - Error bits 0-Rx DMA, 1-Tx DMA
1329:../Peripheral/src/ch32v30x_eth.c ****  *            ETH_DMA_FLAG_NIS - Normal interrupt summary flag
1330:../Peripheral/src/ch32v30x_eth.c ****  *            ETH_DMA_FLAG_AIS - Abnormal interrupt summary flag
1331:../Peripheral/src/ch32v30x_eth.c ****  *            ETH_DMA_FLAG_ER - Early receive flag
1332:../Peripheral/src/ch32v30x_eth.c ****  *            ETH_DMA_FLAG_FBE - Fatal bus error flag
1333:../Peripheral/src/ch32v30x_eth.c ****  *            ETH_DMA_FLAG_ET - Early transmit flag
1334:../Peripheral/src/ch32v30x_eth.c ****  *            ETH_DMA_FLAG_RWT - Receive watchdog timeout flag
1335:../Peripheral/src/ch32v30x_eth.c ****  *            ETH_DMA_FLAG_RPS - Receive process stopped flag
1336:../Peripheral/src/ch32v30x_eth.c ****  *            ETH_DMA_FLAG_RBU - Receive buffer unavailable flag
1337:../Peripheral/src/ch32v30x_eth.c ****  *            ETH_DMA_FLAG_R - Receive flag
1338:../Peripheral/src/ch32v30x_eth.c ****  *            ETH_DMA_FLAG_TU - Underflow flag
1339:../Peripheral/src/ch32v30x_eth.c ****  *            ETH_DMA_FLAG_RO - Overflow flag
1340:../Peripheral/src/ch32v30x_eth.c ****  *            ETH_DMA_FLAG_TJT - Transmit jabber timeout flag
1341:../Peripheral/src/ch32v30x_eth.c ****  *            ETH_DMA_FLAG_TBU - Transmit buffer unavailable flag
1342:../Peripheral/src/ch32v30x_eth.c ****  *            ETH_DMA_FLAG_TPS - Transmit process stopped flag
1343:../Peripheral/src/ch32v30x_eth.c ****  *            ETH_DMA_FLAG_T - Transmit flag
1344:../Peripheral/src/ch32v30x_eth.c ****  *
1345:../Peripheral/src/ch32v30x_eth.c ****  * @return  Internal 10BASE-T PHY is link or not.
1346:../Peripheral/src/ch32v30x_eth.c ****  */
1347:../Peripheral/src/ch32v30x_eth.c **** FlagStatus ETH_GetDMAFlagStatus(uint32_t ETH_DMA_FLAG)
1348:../Peripheral/src/ch32v30x_eth.c **** {
 2185              		.loc 1 1348 1 is_stmt 1
 2186              		.cfi_startproc
 2187              	.LVL139:
1349:../Peripheral/src/ch32v30x_eth.c ****     FlagStatus bitstatus = RESET;
 2188              		.loc 1 1349 5
1350:../Peripheral/src/ch32v30x_eth.c **** 
1351:../Peripheral/src/ch32v30x_eth.c ****     if((ETH->DMASR & ETH_DMA_FLAG) != (uint32_t)RESET)
 2189              		.loc 1 1351 5
 2190              		.loc 1 1351 12 is_stmt 0
 2191 0000 B7970240 		li	a5,1073909760
 2192 0004 DC4B     		lw	a5,20(a5)
 2193              	.LVL140:
1352:../Peripheral/src/ch32v30x_eth.c ****     {
1353:../Peripheral/src/ch32v30x_eth.c ****         bitstatus = SET;
1354:../Peripheral/src/ch32v30x_eth.c ****     }
1355:../Peripheral/src/ch32v30x_eth.c ****     else
1356:../Peripheral/src/ch32v30x_eth.c ****     {
1357:../Peripheral/src/ch32v30x_eth.c ****         bitstatus = RESET;
1358:../Peripheral/src/ch32v30x_eth.c ****     }
1359:../Peripheral/src/ch32v30x_eth.c ****     return bitstatus;
 2194              		.loc 1 1359 5 is_stmt 1
1351:../Peripheral/src/ch32v30x_eth.c ****     {
 2195              		.loc 1 1351 20 is_stmt 0
 2196 0006 7D8D     		and	a0,a5,a0
 2197              	.LVL141:
1360:../Peripheral/src/ch32v30x_eth.c **** }
 2198              		.loc 1 1360 1
 2199 0008 3335A000 		snez	a0,a0
 2200 000c 8280     		ret
 2201              		.cfi_endproc
 2202              	.LFE78:
 2204              		.section	.text.ETH_DMAClearFlag,"ax",@progbits
 2205              		.align	1
 2206              		.globl	ETH_DMAClearFlag
 2208              	ETH_DMAClearFlag:
 2209              	.LFB79:
1361:../Peripheral/src/ch32v30x_eth.c **** 
1362:../Peripheral/src/ch32v30x_eth.c **** /*********************************************************************
1363:../Peripheral/src/ch32v30x_eth.c ****  * @fn      ETH_DMAClearFlag
1364:../Peripheral/src/ch32v30x_eth.c ****  *
1365:../Peripheral/src/ch32v30x_eth.c ****  * @brief   Checks whether the specified ETHERNET DMA interrupt has occured or not.
1366:../Peripheral/src/ch32v30x_eth.c ****  *
1367:../Peripheral/src/ch32v30x_eth.c ****  * @param   ETH_DMA_FLAG - specifies the flag to clear.
1368:../Peripheral/src/ch32v30x_eth.c ****  *            ETH_DMA_FLAG_NIS - Normal interrupt summary flag
1369:../Peripheral/src/ch32v30x_eth.c ****  *            ETH_DMA_FLAG_AIS - Abnormal interrupt summary  flag
1370:../Peripheral/src/ch32v30x_eth.c ****  *            ETH_DMA_FLAG_ER - Early receive flag
1371:../Peripheral/src/ch32v30x_eth.c ****  *            ETH_DMA_FLAG_FBE - Fatal bus error flag
1372:../Peripheral/src/ch32v30x_eth.c ****  *            ETH_DMA_FLAG_ETI - Early transmit flag
1373:../Peripheral/src/ch32v30x_eth.c ****  *            ETH_DMA_FLAG_RWT - Receive watchdog timeout flag
1374:../Peripheral/src/ch32v30x_eth.c ****  *            ETH_DMA_FLAG_RPS - Receive process stopped flag
1375:../Peripheral/src/ch32v30x_eth.c ****  *            ETH_DMA_FLAG_RBU - Receive buffer unavailable flag
1376:../Peripheral/src/ch32v30x_eth.c ****  *            ETH_DMA_FLAG_R - Receive flag
1377:../Peripheral/src/ch32v30x_eth.c ****  *            ETH_DMA_FLAG_TU - Transmit Underflow flag
1378:../Peripheral/src/ch32v30x_eth.c ****  *            ETH_DMA_FLAG_RO - Receive Overflow flag
1379:../Peripheral/src/ch32v30x_eth.c ****  *            ETH_DMA_FLAG_TJT - Transmit jabber timeout flag
1380:../Peripheral/src/ch32v30x_eth.c ****  *            ETH_DMA_FLAG_TBU - Transmit buffer unavailable flag
1381:../Peripheral/src/ch32v30x_eth.c ****  *            ETH_DMA_FLAG_TPS - Transmit process stopped flag
1382:../Peripheral/src/ch32v30x_eth.c ****  *            ETH_DMA_FLAG_T - Transmit flag
1383:../Peripheral/src/ch32v30x_eth.c ****  *
1384:../Peripheral/src/ch32v30x_eth.c ****  * @return  none
1385:../Peripheral/src/ch32v30x_eth.c ****  */
1386:../Peripheral/src/ch32v30x_eth.c **** void ETH_DMAClearFlag(uint32_t ETH_DMA_FLAG)
1387:../Peripheral/src/ch32v30x_eth.c **** {
 2210              		.loc 1 1387 1 is_stmt 1
 2211              		.cfi_startproc
 2212              	.LVL142:
1388:../Peripheral/src/ch32v30x_eth.c ****     ETH->DMASR = (uint32_t)ETH_DMA_FLAG;
 2213              		.loc 1 1388 5
 2214              		.loc 1 1388 16 is_stmt 0
 2215 0000 B7970240 		li	a5,1073909760
 2216 0004 C8CB     		sw	a0,20(a5)
1389:../Peripheral/src/ch32v30x_eth.c **** }
 2217              		.loc 1 1389 1
 2218 0006 8280     		ret
 2219              		.cfi_endproc
 2220              	.LFE79:
 2222              		.section	.text.ETH_GetDMAITStatus,"ax",@progbits
 2223              		.align	1
 2224              		.globl	ETH_GetDMAITStatus
 2226              	ETH_GetDMAITStatus:
 2227              	.LFB142:
 2228              		.cfi_startproc
1390:../Peripheral/src/ch32v30x_eth.c **** 
1391:../Peripheral/src/ch32v30x_eth.c **** /*********************************************************************
1392:../Peripheral/src/ch32v30x_eth.c ****  * @fn      ETH_GetDMAITStatus
1393:../Peripheral/src/ch32v30x_eth.c ****  *
1394:../Peripheral/src/ch32v30x_eth.c ****  * @brief   Checks whether the specified ETHERNET DMA interrupt has occured or not.
1395:../Peripheral/src/ch32v30x_eth.c ****  *
1396:../Peripheral/src/ch32v30x_eth.c ****  * @param   ETH_DMA_IT - specifies the interrupt pending bit to clear.
1397:../Peripheral/src/ch32v30x_eth.c ****  *            ETH_DMA_IT_TST - Time-stamp trigger interrupt
1398:../Peripheral/src/ch32v30x_eth.c ****  *            ETH_DMA_IT_PMT - PMT interrupt
1399:../Peripheral/src/ch32v30x_eth.c ****  *            ETH_DMA_IT_MMC - MMC interrupt
1400:../Peripheral/src/ch32v30x_eth.c ****  *            ETH_DMA_IT_NIS - Normal interrupt summary
1401:../Peripheral/src/ch32v30x_eth.c ****  *            ETH_DMA_IT_AIS - Abnormal interrupt summary
1402:../Peripheral/src/ch32v30x_eth.c ****  *            ETH_DMA_IT_ER  - Early receive interrupt
1403:../Peripheral/src/ch32v30x_eth.c ****  *            ETH_DMA_IT_FBE - Fatal bus error interrupt
1404:../Peripheral/src/ch32v30x_eth.c ****  *            ETH_DMA_IT_ET  - Early transmit interrupt
1405:../Peripheral/src/ch32v30x_eth.c ****  *            ETH_DMA_IT_RWT - Receive watchdog timeout interrupt
1406:../Peripheral/src/ch32v30x_eth.c ****  *            ETH_DMA_IT_RPS - Receive process stopped interrupt
1407:../Peripheral/src/ch32v30x_eth.c ****  *            ETH_DMA_IT_RBU - Receive buffer unavailable interrupt
1408:../Peripheral/src/ch32v30x_eth.c ****  *            ETH_DMA_IT_R - Receive interrupt
1409:../Peripheral/src/ch32v30x_eth.c ****  *            ETH_DMA_IT_TU - Underflow interrupt
1410:../Peripheral/src/ch32v30x_eth.c ****  *            ETH_DMA_IT_RO - Overflow interrupt
1411:../Peripheral/src/ch32v30x_eth.c ****  *            ETH_DMA_IT_TJT - Transmit jabber timeout interrupt
1412:../Peripheral/src/ch32v30x_eth.c ****  *            ETH_DMA_IT_TBU - Transmit buffer unavailable interrupt
1413:../Peripheral/src/ch32v30x_eth.c ****  *            ETH_DMA_IT_TPS - Transmit process stopped interrupt
1414:../Peripheral/src/ch32v30x_eth.c ****  *            ETH_DMA_IT_T - Transmit interrupt
1415:../Peripheral/src/ch32v30x_eth.c ****  *
1416:../Peripheral/src/ch32v30x_eth.c ****  * @return  The new state of ETH_DMA_IT (SET or RESET).
1417:../Peripheral/src/ch32v30x_eth.c ****  */
1418:../Peripheral/src/ch32v30x_eth.c **** ITStatus ETH_GetDMAITStatus(uint32_t ETH_DMA_IT)
 2229              		.loc 1 1418 10 is_stmt 1
 2230 0000 17030000 		tail	ETH_GetDMAFlagStatus
 2230      67000300 
 2231              		.cfi_endproc
 2232              	.LFE142:
 2234              		.section	.text.ETH_DMAClearITPendingBit,"ax",@progbits
 2235              		.align	1
 2236              		.globl	ETH_DMAClearITPendingBit
 2238              	ETH_DMAClearITPendingBit:
 2239              	.LFB144:
 2240              		.cfi_startproc
1419:../Peripheral/src/ch32v30x_eth.c **** {
1420:../Peripheral/src/ch32v30x_eth.c ****     ITStatus bitstatus = RESET;
1421:../Peripheral/src/ch32v30x_eth.c **** 
1422:../Peripheral/src/ch32v30x_eth.c ****     if((ETH->DMASR & ETH_DMA_IT) != (uint32_t)RESET)
1423:../Peripheral/src/ch32v30x_eth.c ****     {
1424:../Peripheral/src/ch32v30x_eth.c ****         bitstatus = SET;
1425:../Peripheral/src/ch32v30x_eth.c ****     }
1426:../Peripheral/src/ch32v30x_eth.c ****     else
1427:../Peripheral/src/ch32v30x_eth.c ****     {
1428:../Peripheral/src/ch32v30x_eth.c ****         bitstatus = RESET;
1429:../Peripheral/src/ch32v30x_eth.c ****     }
1430:../Peripheral/src/ch32v30x_eth.c ****     return bitstatus;
1431:../Peripheral/src/ch32v30x_eth.c **** }
1432:../Peripheral/src/ch32v30x_eth.c **** 
1433:../Peripheral/src/ch32v30x_eth.c **** /*********************************************************************
1434:../Peripheral/src/ch32v30x_eth.c ****  * @fn      ETH_DMAClearITPendingBit
1435:../Peripheral/src/ch32v30x_eth.c ****  *
1436:../Peripheral/src/ch32v30x_eth.c ****  * @brief   Clears the ETHERNET"s DMA IT pending bit.
1437:../Peripheral/src/ch32v30x_eth.c ****  *
1438:../Peripheral/src/ch32v30x_eth.c ****  * @param   ETH_DMA_IT - specifies the interrupt pending bit to clear.
1439:../Peripheral/src/ch32v30x_eth.c ****  *            ETH_DMA_IT_NIS - Normal interrupt summary
1440:../Peripheral/src/ch32v30x_eth.c ****  *            ETH_DMA_IT_AIS - Abnormal interrupt summary
1441:../Peripheral/src/ch32v30x_eth.c ****  *            ETH_DMA_IT_ER - Early receive interrupt
1442:../Peripheral/src/ch32v30x_eth.c ****  *            ETH_DMA_IT_FBE - Fatal bus error interrupt
1443:../Peripheral/src/ch32v30x_eth.c ****  *            ETH_DMA_IT_ETI - Early transmit interrupt
1444:../Peripheral/src/ch32v30x_eth.c ****  *            ETH_DMA_IT_RWT - Receive watchdog timeout interrupt
1445:../Peripheral/src/ch32v30x_eth.c ****  *            ETH_DMA_IT_RPS - Receive process stopped interrupt
1446:../Peripheral/src/ch32v30x_eth.c ****  *            ETH_DMA_IT_RBU - Receive buffer unavailable interrupt
1447:../Peripheral/src/ch32v30x_eth.c ****  *            ETH_DMA_IT_R - Receive interrupt
1448:../Peripheral/src/ch32v30x_eth.c ****  *            ETH_DMA_IT_TU - Transmit Underflow interrupt
1449:../Peripheral/src/ch32v30x_eth.c ****  *            ETH_DMA_IT_RO - Receive Overflow interrupt
1450:../Peripheral/src/ch32v30x_eth.c ****  *            ETH_DMA_IT_TJT - Transmit jabber timeout interrupt
1451:../Peripheral/src/ch32v30x_eth.c ****  *            ETH_DMA_IT_TBU - Transmit buffer unavailable interrupt
1452:../Peripheral/src/ch32v30x_eth.c ****  *            ETH_DMA_IT_TPS - Transmit process stopped interrupt
1453:../Peripheral/src/ch32v30x_eth.c ****  *            ETH_DMA_IT_T - Transmit interrupt
1454:../Peripheral/src/ch32v30x_eth.c ****  *
1455:../Peripheral/src/ch32v30x_eth.c ****  * @return  none
1456:../Peripheral/src/ch32v30x_eth.c ****  */
1457:../Peripheral/src/ch32v30x_eth.c **** void ETH_DMAClearITPendingBit(uint32_t ETH_DMA_IT)
 2241              		.loc 1 1457 6
 2242 0000 B7970240 		li	a5,1073909760
 2243 0004 C8CB     		sw	a0,20(a5)
 2244 0006 8280     		ret
 2245              		.cfi_endproc
 2246              	.LFE144:
 2248              		.section	.text.ETH_GetTransmitProcessState,"ax",@progbits
 2249              		.align	1
 2250              		.globl	ETH_GetTransmitProcessState
 2252              	ETH_GetTransmitProcessState:
 2253              	.LFB82:
1458:../Peripheral/src/ch32v30x_eth.c **** {
1459:../Peripheral/src/ch32v30x_eth.c ****     ETH->DMASR = (uint32_t)ETH_DMA_IT;
1460:../Peripheral/src/ch32v30x_eth.c **** }
1461:../Peripheral/src/ch32v30x_eth.c **** 
1462:../Peripheral/src/ch32v30x_eth.c **** /*********************************************************************
1463:../Peripheral/src/ch32v30x_eth.c ****  * @fn      ETH_GetTransmitProcessState
1464:../Peripheral/src/ch32v30x_eth.c ****  *
1465:../Peripheral/src/ch32v30x_eth.c ****  * @brief   Returns the ETHERNET DMA Transmit Process State.
1466:../Peripheral/src/ch32v30x_eth.c ****  *
1467:../Peripheral/src/ch32v30x_eth.c ****  * @return  The new ETHERNET DMA Transmit Process State -
1468:../Peripheral/src/ch32v30x_eth.c ****  *            ETH_DMA_TransmitProcess_Stopped - Stopped - Reset or Stop Tx Command issued
1469:../Peripheral/src/ch32v30x_eth.c ****  *            ETH_DMA_TransmitProcess_Fetching - Running - fetching the Tx descriptor
1470:../Peripheral/src/ch32v30x_eth.c ****  *            ETH_DMA_TransmitProcess_Waiting - Running - waiting for status
1471:../Peripheral/src/ch32v30x_eth.c ****  *            ETH_DMA_TransmitProcess_Reading - unning - reading the data from host memory
1472:../Peripheral/src/ch32v30x_eth.c ****  *            ETH_DMA_TransmitProcess_Suspended - Suspended - Tx Desciptor unavailabe
1473:../Peripheral/src/ch32v30x_eth.c ****  *            ETH_DMA_TransmitProcess_Closing - Running - closing Rx descriptor
1474:../Peripheral/src/ch32v30x_eth.c ****  */
1475:../Peripheral/src/ch32v30x_eth.c **** uint32_t ETH_GetTransmitProcessState(void)
1476:../Peripheral/src/ch32v30x_eth.c **** {
 2254              		.loc 1 1476 1
 2255              		.cfi_startproc
1477:../Peripheral/src/ch32v30x_eth.c ****     return ((uint32_t)(ETH->DMASR & ETH_DMASR_TS));
 2256              		.loc 1 1477 5
 2257              		.loc 1 1477 27 is_stmt 0
 2258 0000 B7970240 		li	a5,1073909760
 2259 0004 C84B     		lw	a0,20(a5)
1478:../Peripheral/src/ch32v30x_eth.c **** }
 2260              		.loc 1 1478 1
 2261 0006 0589     		andi	a0,a0,1
 2262 0008 8280     		ret
 2263              		.cfi_endproc
 2264              	.LFE82:
 2266              		.section	.text.ETH_GetReceiveProcessState,"ax",@progbits
 2267              		.align	1
 2268              		.globl	ETH_GetReceiveProcessState
 2270              	ETH_GetReceiveProcessState:
 2271              	.LFB83:
1479:../Peripheral/src/ch32v30x_eth.c **** 
1480:../Peripheral/src/ch32v30x_eth.c **** /*********************************************************************
1481:../Peripheral/src/ch32v30x_eth.c ****  * @fn      ETH_GetReceiveProcessState
1482:../Peripheral/src/ch32v30x_eth.c ****  *
1483:../Peripheral/src/ch32v30x_eth.c ****  * @brief   Returns the ETHERNET DMA Receive Process State.
1484:../Peripheral/src/ch32v30x_eth.c ****  *
1485:../Peripheral/src/ch32v30x_eth.c ****  * @return  The new ETHERNET DMA Receive Process State:
1486:../Peripheral/src/ch32v30x_eth.c ****  *            ETH_DMA_ReceiveProcess_Stopped - Stopped - Reset or Stop Rx Command issued
1487:../Peripheral/src/ch32v30x_eth.c ****  *            ETH_DMA_ReceiveProcess_Fetching - Running - fetching the Rx descriptor
1488:../Peripheral/src/ch32v30x_eth.c ****  *            ETH_DMA_ReceiveProcess_Waiting - Running - waiting for packet
1489:../Peripheral/src/ch32v30x_eth.c ****  *            ETH_DMA_ReceiveProcess_Suspended - Suspended - Rx Desciptor unavailable
1490:../Peripheral/src/ch32v30x_eth.c ****  *            ETH_DMA_ReceiveProcess_Closing - Running - closing descriptor
1491:../Peripheral/src/ch32v30x_eth.c ****  *            ETH_DMA_ReceiveProcess_Queuing - Running - queuing the recieve frame into host memory
1492:../Peripheral/src/ch32v30x_eth.c ****  */
1493:../Peripheral/src/ch32v30x_eth.c **** uint32_t ETH_GetReceiveProcessState(void)
1494:../Peripheral/src/ch32v30x_eth.c **** {
 2272              		.loc 1 1494 1 is_stmt 1
 2273              		.cfi_startproc
1495:../Peripheral/src/ch32v30x_eth.c ****     return ((uint32_t)(ETH->DMASR & ETH_DMASR_RS));
 2274              		.loc 1 1495 5
 2275              		.loc 1 1495 27 is_stmt 0
 2276 0000 B7970240 		li	a5,1073909760
 2277 0004 C84B     		lw	a0,20(a5)
1496:../Peripheral/src/ch32v30x_eth.c **** }
 2278              		.loc 1 1496 1
 2279 0006 13750504 		andi	a0,a0,64
 2280 000a 8280     		ret
 2281              		.cfi_endproc
 2282              	.LFE83:
 2284              		.section	.text.ETH_FlushTransmitFIFO,"ax",@progbits
 2285              		.align	1
 2286              		.globl	ETH_FlushTransmitFIFO
 2288              	ETH_FlushTransmitFIFO:
 2289              	.LFB84:
1497:../Peripheral/src/ch32v30x_eth.c **** 
1498:../Peripheral/src/ch32v30x_eth.c **** /*********************************************************************
1499:../Peripheral/src/ch32v30x_eth.c ****  * @fn      ETH_FlushTransmitFIFO
1500:../Peripheral/src/ch32v30x_eth.c ****  *
1501:../Peripheral/src/ch32v30x_eth.c ****  * @brief   Clears the ETHERNET transmit FIFO.
1502:../Peripheral/src/ch32v30x_eth.c ****  *
1503:../Peripheral/src/ch32v30x_eth.c ****  * @return  none
1504:../Peripheral/src/ch32v30x_eth.c ****  */
1505:../Peripheral/src/ch32v30x_eth.c **** void ETH_FlushTransmitFIFO(void)
1506:../Peripheral/src/ch32v30x_eth.c **** {
 2290              		.loc 1 1506 1 is_stmt 1
 2291              		.cfi_startproc
1507:../Peripheral/src/ch32v30x_eth.c ****     ETH->DMAOMR |= ETH_DMAOMR_FTF;
 2292              		.loc 1 1507 5
 2293              		.loc 1 1507 8 is_stmt 0
 2294 0000 37970240 		li	a4,1073909760
 2295 0004 1C4F     		lw	a5,24(a4)
 2296              		.loc 1 1507 17
 2297 0006 B7061000 		li	a3,1048576
 2298 000a D58F     		or	a5,a5,a3
 2299 000c 1CCF     		sw	a5,24(a4)
1508:../Peripheral/src/ch32v30x_eth.c **** }
 2300              		.loc 1 1508 1
 2301 000e 8280     		ret
 2302              		.cfi_endproc
 2303              	.LFE84:
 2305              		.section	.text.ETH_Start,"ax",@progbits
 2306              		.align	1
 2307              		.globl	ETH_Start
 2309              	ETH_Start:
 2310              	.LFB31:
 107:../Peripheral/src/ch32v30x_eth.c ****     ETH_MACTransmissionCmd(ENABLE);
 2311              		.loc 1 107 1 is_stmt 1
 2312              		.cfi_startproc
 2313 0000 17030000 		call	t0,__riscv_save_1
 2313      E7020300 
 2314              		.cfi_offset 8, -8
 2315              		.cfi_offset 1, -4
 2316              		.cfi_def_cfa_offset 16
 108:../Peripheral/src/ch32v30x_eth.c ****     ETH_FlushTransmitFIFO();
 2317              		.loc 1 108 5
 2318              	.LVL143:
 2319              	.LBB42:
 405:../Peripheral/src/ch32v30x_eth.c ****     {
 2320              		.loc 1 405 5
 2321              	.LBB43:
 2322              	.LBB44:
 407:../Peripheral/src/ch32v30x_eth.c ****     }
 2323              		.loc 1 407 9
 407:../Peripheral/src/ch32v30x_eth.c ****     }
 2324              		.loc 1 407 12 is_stmt 0
 2325 0008 37840240 		li	s0,1073905664
 2326 000c 1C40     		lw	a5,0(s0)
 407:../Peripheral/src/ch32v30x_eth.c ****     }
 2327              		.loc 1 407 20
 2328 000e 93E78700 		ori	a5,a5,8
 2329 0012 1CC0     		sw	a5,0(s0)
 2330              	.LVL144:
 2331              	.LBE44:
 2332              	.LBE43:
 2333              	.LBE42:
 109:../Peripheral/src/ch32v30x_eth.c ****     ETH_MACReceptionCmd(ENABLE);
 2334              		.loc 1 109 5 is_stmt 1
 2335 0014 97000000 		call	ETH_FlushTransmitFIFO
 2335      E7800000 
 2336              	.LVL145:
 110:../Peripheral/src/ch32v30x_eth.c ****     ETH_DMATransmissionCmd(ENABLE);
 2337              		.loc 1 110 5
 2338              	.LBB45:
 426:../Peripheral/src/ch32v30x_eth.c ****     {
 2339              		.loc 1 426 5
 2340              	.LBB46:
 2341              	.LBB47:
 428:../Peripheral/src/ch32v30x_eth.c ****     }
 2342              		.loc 1 428 9
 428:../Peripheral/src/ch32v30x_eth.c ****     }
 2343              		.loc 1 428 12 is_stmt 0
 2344 001c 1C40     		lw	a5,0(s0)
 2345              	.LBE47:
 2346              	.LBE46:
 2347              	.LBE45:
 2348              	.LBB50:
 2349              	.LBB51:
 2350              	.LBB52:
1509:../Peripheral/src/ch32v30x_eth.c **** 
1510:../Peripheral/src/ch32v30x_eth.c **** /*********************************************************************
1511:../Peripheral/src/ch32v30x_eth.c ****  * @fn      ETH_GetFlushTransmitFIFOStatus
1512:../Peripheral/src/ch32v30x_eth.c ****  *
1513:../Peripheral/src/ch32v30x_eth.c ****  * @brief   Checks whether the ETHERNET transmit FIFO bit is cleared or not.
1514:../Peripheral/src/ch32v30x_eth.c ****  *
1515:../Peripheral/src/ch32v30x_eth.c ****  * @return  The new state of ETHERNET flush transmit FIFO bit (SET or RESET).
1516:../Peripheral/src/ch32v30x_eth.c ****  */
1517:../Peripheral/src/ch32v30x_eth.c **** FlagStatus ETH_GetFlushTransmitFIFOStatus(void)
1518:../Peripheral/src/ch32v30x_eth.c **** {
1519:../Peripheral/src/ch32v30x_eth.c ****     FlagStatus bitstatus = RESET;
1520:../Peripheral/src/ch32v30x_eth.c ****     if((ETH->DMAOMR & ETH_DMAOMR_FTF) != (uint32_t)RESET)
1521:../Peripheral/src/ch32v30x_eth.c ****     {
1522:../Peripheral/src/ch32v30x_eth.c ****         bitstatus = SET;
1523:../Peripheral/src/ch32v30x_eth.c ****     }
1524:../Peripheral/src/ch32v30x_eth.c ****     else
1525:../Peripheral/src/ch32v30x_eth.c ****     {
1526:../Peripheral/src/ch32v30x_eth.c ****         bitstatus = RESET;
1527:../Peripheral/src/ch32v30x_eth.c ****     }
1528:../Peripheral/src/ch32v30x_eth.c ****     return bitstatus;
1529:../Peripheral/src/ch32v30x_eth.c **** }
1530:../Peripheral/src/ch32v30x_eth.c **** 
1531:../Peripheral/src/ch32v30x_eth.c **** /*********************************************************************
1532:../Peripheral/src/ch32v30x_eth.c ****  * @fn      ETH_DMATransmissionCmd
1533:../Peripheral/src/ch32v30x_eth.c ****  *
1534:../Peripheral/src/ch32v30x_eth.c ****  * @brief   Enables or disables the DMA transmission.
1535:../Peripheral/src/ch32v30x_eth.c ****  *
1536:../Peripheral/src/ch32v30x_eth.c ****  * @param   NewState - new state of the DMA transmission.
1537:../Peripheral/src/ch32v30x_eth.c ****  *
1538:../Peripheral/src/ch32v30x_eth.c ****  * @return  none
1539:../Peripheral/src/ch32v30x_eth.c ****  */
1540:../Peripheral/src/ch32v30x_eth.c **** void ETH_DMATransmissionCmd(FunctionalState NewState)
1541:../Peripheral/src/ch32v30x_eth.c **** {
1542:../Peripheral/src/ch32v30x_eth.c ****     if(NewState != DISABLE)
1543:../Peripheral/src/ch32v30x_eth.c ****     {
1544:../Peripheral/src/ch32v30x_eth.c ****         ETH->DMAOMR |= ETH_DMAOMR_ST;
 2351              		.loc 1 1544 21
 2352 001e 8966     		li	a3,8192
 2353              	.LBE52:
 2354              	.LBE51:
 2355              	.LBE50:
 2356              	.LBB55:
 2357              	.LBB49:
 2358              	.LBB48:
 428:../Peripheral/src/ch32v30x_eth.c ****     }
 2359              		.loc 1 428 20
 2360 0020 93E74700 		ori	a5,a5,4
 2361 0024 1CC0     		sw	a5,0(s0)
 2362              	.LVL146:
 2363              	.LBE48:
 2364              	.LBE49:
 2365              	.LBE55:
 111:../Peripheral/src/ch32v30x_eth.c ****     ETH_DMAReceptionCmd(ENABLE);
 2366              		.loc 1 111 5 is_stmt 1
 2367              	.LBB56:
1542:../Peripheral/src/ch32v30x_eth.c ****     {
 2368              		.loc 1 1542 5
 2369              	.LBB54:
 2370              	.LBB53:
 2371              		.loc 1 1544 9
 2372              		.loc 1 1544 12 is_stmt 0
 2373 0026 B7970240 		li	a5,1073909760
 2374 002a 984F     		lw	a4,24(a5)
 2375              		.loc 1 1544 21
 2376 002c 558F     		or	a4,a4,a3
 2377 002e 98CF     		sw	a4,24(a5)
 2378              	.LVL147:
 2379              	.LBE53:
 2380              	.LBE54:
 2381              	.LBE56:
 112:../Peripheral/src/ch32v30x_eth.c **** }
 2382              		.loc 1 112 5 is_stmt 1
 2383              	.LBB57:
1545:../Peripheral/src/ch32v30x_eth.c ****     }
1546:../Peripheral/src/ch32v30x_eth.c ****     else
1547:../Peripheral/src/ch32v30x_eth.c ****     {
1548:../Peripheral/src/ch32v30x_eth.c ****         ETH->DMAOMR &= ~ETH_DMAOMR_ST;
1549:../Peripheral/src/ch32v30x_eth.c ****     }
1550:../Peripheral/src/ch32v30x_eth.c **** }
1551:../Peripheral/src/ch32v30x_eth.c **** 
1552:../Peripheral/src/ch32v30x_eth.c **** /*********************************************************************
1553:../Peripheral/src/ch32v30x_eth.c ****  * @fn      ETH_DMAReceptionCmd
1554:../Peripheral/src/ch32v30x_eth.c ****  *
1555:../Peripheral/src/ch32v30x_eth.c ****  * @brief   Enables or disables the DMA reception.
1556:../Peripheral/src/ch32v30x_eth.c ****  *
1557:../Peripheral/src/ch32v30x_eth.c ****  * @param   NewState - new state of the DMA reception.
1558:../Peripheral/src/ch32v30x_eth.c ****  *
1559:../Peripheral/src/ch32v30x_eth.c ****  * @return  none
1560:../Peripheral/src/ch32v30x_eth.c ****  */
1561:../Peripheral/src/ch32v30x_eth.c **** void ETH_DMAReceptionCmd(FunctionalState NewState)
1562:../Peripheral/src/ch32v30x_eth.c **** {
1563:../Peripheral/src/ch32v30x_eth.c ****     if(NewState != DISABLE)
 2384              		.loc 1 1563 5
 2385              	.LBB58:
 2386              	.LBB59:
1564:../Peripheral/src/ch32v30x_eth.c ****     {
1565:../Peripheral/src/ch32v30x_eth.c ****         ETH->DMAOMR |= ETH_DMAOMR_SR;
 2387              		.loc 1 1565 9
 2388              		.loc 1 1565 12 is_stmt 0
 2389 0030 984F     		lw	a4,24(a5)
 2390              		.loc 1 1565 21
 2391 0032 13672700 		ori	a4,a4,2
 2392 0036 98CF     		sw	a4,24(a5)
 2393              	.LVL148:
 2394              	.LBE59:
 2395              	.LBE58:
 2396              	.LBE57:
 113:../Peripheral/src/ch32v30x_eth.c **** 
 2397              		.loc 1 113 1
 2398 0038 17030000 		tail	__riscv_restore_1
 2398      67000300 
 2399              		.cfi_restore 8
 2400              		.cfi_restore 1
 2401              		.cfi_def_cfa_offset 0
 2402              		.cfi_endproc
 2403              	.LFE31:
 2405              		.section	.text.ETH_GetFlushTransmitFIFOStatus,"ax",@progbits
 2406              		.align	1
 2407              		.globl	ETH_GetFlushTransmitFIFOStatus
 2409              	ETH_GetFlushTransmitFIFOStatus:
 2410              	.LFB85:
1518:../Peripheral/src/ch32v30x_eth.c ****     FlagStatus bitstatus = RESET;
 2411              		.loc 1 1518 1 is_stmt 1
 2412              		.cfi_startproc
1519:../Peripheral/src/ch32v30x_eth.c ****     if((ETH->DMAOMR & ETH_DMAOMR_FTF) != (uint32_t)RESET)
 2413              		.loc 1 1519 5
 2414              	.LVL149:
1520:../Peripheral/src/ch32v30x_eth.c ****     {
 2415              		.loc 1 1520 5
1520:../Peripheral/src/ch32v30x_eth.c ****     {
 2416              		.loc 1 1520 12 is_stmt 0
 2417 0000 B7970240 		li	a5,1073909760
 2418 0004 884F     		lw	a0,24(a5)
 2419              	.LVL150:
1528:../Peripheral/src/ch32v30x_eth.c **** }
 2420              		.loc 1 1528 5 is_stmt 1
1520:../Peripheral/src/ch32v30x_eth.c ****     {
 2421              		.loc 1 1520 7 is_stmt 0
 2422 0006 5181     		srli	a0,a0,20
 2423              	.LVL151:
1529:../Peripheral/src/ch32v30x_eth.c **** 
 2424              		.loc 1 1529 1
 2425 0008 0589     		andi	a0,a0,1
 2426 000a 8280     		ret
 2427              		.cfi_endproc
 2428              	.LFE85:
 2430              		.section	.text.ETH_DMATransmissionCmd,"ax",@progbits
 2431              		.align	1
 2432              		.globl	ETH_DMATransmissionCmd
 2434              	ETH_DMATransmissionCmd:
 2435              	.LFB86:
1541:../Peripheral/src/ch32v30x_eth.c ****     if(NewState != DISABLE)
 2436              		.loc 1 1541 1 is_stmt 1
 2437              		.cfi_startproc
 2438              	.LVL152:
1542:../Peripheral/src/ch32v30x_eth.c ****     {
 2439              		.loc 1 1542 5
1542:../Peripheral/src/ch32v30x_eth.c ****     {
 2440              		.loc 1 1542 7 is_stmt 0
 2441 0000 01C9     		beq	a0,zero,.L183
 2442              	.LVL153:
 2443              	.LBB62:
 2444              	.LBB63:
1544:../Peripheral/src/ch32v30x_eth.c ****     }
 2445              		.loc 1 1544 9 is_stmt 1
1544:../Peripheral/src/ch32v30x_eth.c ****     }
 2446              		.loc 1 1544 12 is_stmt 0
 2447 0002 37970240 		li	a4,1073909760
 2448 0006 1C4F     		lw	a5,24(a4)
1544:../Peripheral/src/ch32v30x_eth.c ****     }
 2449              		.loc 1 1544 21
 2450 0008 8966     		li	a3,8192
 2451 000a D58F     		or	a5,a5,a3
 2452 000c 1CCF     		sw	a5,24(a4)
1550:../Peripheral/src/ch32v30x_eth.c **** 
 2453              		.loc 1 1550 1
 2454 000e 8280     		ret
 2455              	.LVL154:
 2456              	.L183:
 2457              	.LBE63:
 2458              	.LBE62:
1548:../Peripheral/src/ch32v30x_eth.c ****     }
 2459              		.loc 1 1548 9 is_stmt 1
1548:../Peripheral/src/ch32v30x_eth.c ****     }
 2460              		.loc 1 1548 12 is_stmt 0
 2461 0010 B7960240 		li	a3,1073909760
 2462 0014 9C4E     		lw	a5,24(a3)
1548:../Peripheral/src/ch32v30x_eth.c ****     }
 2463              		.loc 1 1548 21
 2464 0016 7977     		li	a4,-8192
 2465 0018 7D17     		addi	a4,a4,-1
 2466 001a F98F     		and	a5,a5,a4
 2467 001c 9CCE     		sw	a5,24(a3)
1550:../Peripheral/src/ch32v30x_eth.c **** 
 2468              		.loc 1 1550 1
 2469 001e 8280     		ret
 2470              		.cfi_endproc
 2471              	.LFE86:
 2473              		.section	.text.ETH_DMAReceptionCmd,"ax",@progbits
 2474              		.align	1
 2475              		.globl	ETH_DMAReceptionCmd
 2477              	ETH_DMAReceptionCmd:
 2478              	.LFB87:
1562:../Peripheral/src/ch32v30x_eth.c ****     if(NewState != DISABLE)
 2479              		.loc 1 1562 1 is_stmt 1
 2480              		.cfi_startproc
 2481              	.LVL155:
1563:../Peripheral/src/ch32v30x_eth.c ****     {
 2482              		.loc 1 1563 5
 2483              	.LBB66:
 2484              	.LBB67:
 2485              		.loc 1 1565 12 is_stmt 0
 2486 0000 37970240 		li	a4,1073909760
 2487 0004 1C4F     		lw	a5,24(a4)
 2488              	.LBE67:
 2489              	.LBE66:
1563:../Peripheral/src/ch32v30x_eth.c ****     {
 2490              		.loc 1 1563 7
 2491 0006 09C5     		beq	a0,zero,.L186
 2492              	.LVL156:
 2493              	.LBB69:
 2494              	.LBB68:
 2495              		.loc 1 1565 9 is_stmt 1
 2496              		.loc 1 1565 21 is_stmt 0
 2497 0008 93E72700 		ori	a5,a5,2
 2498              	.LVL157:
 2499              	.L188:
 2500              	.LBE68:
 2501              	.LBE69:
1566:../Peripheral/src/ch32v30x_eth.c ****     }
1567:../Peripheral/src/ch32v30x_eth.c ****     else
1568:../Peripheral/src/ch32v30x_eth.c ****     {
1569:../Peripheral/src/ch32v30x_eth.c ****         ETH->DMAOMR &= ~ETH_DMAOMR_SR;
 2502              		.loc 1 1569 21
 2503 000c 1CCF     		sw	a5,24(a4)
1570:../Peripheral/src/ch32v30x_eth.c ****     }
1571:../Peripheral/src/ch32v30x_eth.c **** }
 2504              		.loc 1 1571 1
 2505 000e 8280     		ret
 2506              	.L186:
1569:../Peripheral/src/ch32v30x_eth.c ****     }
 2507              		.loc 1 1569 9 is_stmt 1
1569:../Peripheral/src/ch32v30x_eth.c ****     }
 2508              		.loc 1 1569 21 is_stmt 0
 2509 0010 F59B     		andi	a5,a5,-3
 2510 0012 EDBF     		j	.L188
 2511              		.cfi_endproc
 2512              	.LFE87:
 2514              		.section	.text.ETH_DMAITConfig,"ax",@progbits
 2515              		.align	1
 2516              		.globl	ETH_DMAITConfig
 2518              	ETH_DMAITConfig:
 2519              	.LFB88:
1572:../Peripheral/src/ch32v30x_eth.c **** 
1573:../Peripheral/src/ch32v30x_eth.c **** /*********************************************************************
1574:../Peripheral/src/ch32v30x_eth.c ****  * @fn      ETH_DMAITConfig
1575:../Peripheral/src/ch32v30x_eth.c ****  *
1576:../Peripheral/src/ch32v30x_eth.c ****  * @brief   Enables or disables the specified ETHERNET DMA interrupts.
1577:../Peripheral/src/ch32v30x_eth.c ****  *
1578:../Peripheral/src/ch32v30x_eth.c ****  * @param   ETH_DMA_IT - specifies the ETHERNET DMA interrupt sources to be enabled or disabled.
1579:../Peripheral/src/ch32v30x_eth.c ****  *            ETH_DMA_IT_NIS - Normal interrupt summary
1580:../Peripheral/src/ch32v30x_eth.c ****  *            ETH_DMA_IT_AIS - Abnormal interrupt summary
1581:../Peripheral/src/ch32v30x_eth.c ****  *            ETH_DMA_IT_ER - Early receive interrupt
1582:../Peripheral/src/ch32v30x_eth.c ****  *            ETH_DMA_IT_FBE - Fatal bus error interrupt
1583:../Peripheral/src/ch32v30x_eth.c ****  *            ETH_DMA_IT_ET - Early transmit interrupt
1584:../Peripheral/src/ch32v30x_eth.c ****  *            ETH_DMA_IT_RWT - Receive watchdog timeout interrupt
1585:../Peripheral/src/ch32v30x_eth.c ****  *            ETH_DMA_IT_RPS - Receive process stopped interrupt
1586:../Peripheral/src/ch32v30x_eth.c ****  *            ETH_DMA_IT_RBU - Receive buffer unavailable interrupt
1587:../Peripheral/src/ch32v30x_eth.c ****  *            ETH_DMA_IT_R - Receive interrupt
1588:../Peripheral/src/ch32v30x_eth.c ****  *            ETH_DMA_IT_TU - Underflow interrupt
1589:../Peripheral/src/ch32v30x_eth.c ****  *            ETH_DMA_IT_RO - Overflow interrupt
1590:../Peripheral/src/ch32v30x_eth.c ****  *            ETH_DMA_IT_TJT - Transmit jabber timeout interrupt
1591:../Peripheral/src/ch32v30x_eth.c ****  *            ETH_DMA_IT_TBU - Transmit buffer unavailable interrupt
1592:../Peripheral/src/ch32v30x_eth.c ****  *            ETH_DMA_IT_TPS - Transmit process stopped interrupt
1593:../Peripheral/src/ch32v30x_eth.c ****  *            ETH_DMA_IT_T - Transmit interrupt
1594:../Peripheral/src/ch32v30x_eth.c ****  *            ETH_DMA_Overflow_RxFIFOCounter - Overflow for FIFO Overflow Counter
1595:../Peripheral/src/ch32v30x_eth.c ****  *            ETH_DMA_Overflow_MissedFrameCounter - Overflow for Missed Frame Counter
1596:../Peripheral/src/ch32v30x_eth.c ****  *            NewState - new state of the specified ETHERNET DMA interrupts.
1597:../Peripheral/src/ch32v30x_eth.c ****  *
1598:../Peripheral/src/ch32v30x_eth.c ****  * @return  new state of the specified ETHERNET DMA interrupts.
1599:../Peripheral/src/ch32v30x_eth.c ****  */
1600:../Peripheral/src/ch32v30x_eth.c **** void ETH_DMAITConfig(uint32_t ETH_DMA_IT, FunctionalState NewState)
1601:../Peripheral/src/ch32v30x_eth.c **** {
 2520              		.loc 1 1601 1 is_stmt 1
 2521              		.cfi_startproc
 2522              	.LVL158:
1602:../Peripheral/src/ch32v30x_eth.c ****     if(NewState != DISABLE)
 2523              		.loc 1 1602 5
 2524              		.loc 1 1602 7 is_stmt 0
 2525 0000 99C5     		beq	a1,zero,.L190
1603:../Peripheral/src/ch32v30x_eth.c ****     {
1604:../Peripheral/src/ch32v30x_eth.c ****         ETH->DMAIER |= ETH_DMA_IT;
 2526              		.loc 1 1604 9 is_stmt 1
 2527              		.loc 1 1604 12 is_stmt 0
 2528 0002 37970240 		li	a4,1073909760
 2529 0006 5C4F     		lw	a5,28(a4)
 2530              		.loc 1 1604 21
 2531 0008 C98F     		or	a5,a5,a0
 2532 000a 5CCF     		sw	a5,28(a4)
 2533 000c 8280     		ret
 2534              	.L190:
1605:../Peripheral/src/ch32v30x_eth.c ****     }
1606:../Peripheral/src/ch32v30x_eth.c ****     else
1607:../Peripheral/src/ch32v30x_eth.c ****     {
1608:../Peripheral/src/ch32v30x_eth.c ****         ETH->DMAIER &= (~(uint32_t)ETH_DMA_IT);
 2535              		.loc 1 1608 9 is_stmt 1
 2536              		.loc 1 1608 12 is_stmt 0
 2537 000e B7970240 		li	a5,1073909760
 2538 0012 D84F     		lw	a4,28(a5)
 2539              		.loc 1 1608 25
 2540 0014 1345F5FF 		not	a0,a0
 2541              	.LVL159:
 2542              		.loc 1 1608 21
 2543 0018 798D     		and	a0,a0,a4
 2544              	.LVL160:
 2545 001a C8CF     		sw	a0,28(a5)
1609:../Peripheral/src/ch32v30x_eth.c ****     }
1610:../Peripheral/src/ch32v30x_eth.c **** }
 2546              		.loc 1 1610 1
 2547 001c 8280     		ret
 2548              		.cfi_endproc
 2549              	.LFE88:
 2551              		.section	.text.ETH_GetDMAOverflowStatus,"ax",@progbits
 2552              		.align	1
 2553              		.globl	ETH_GetDMAOverflowStatus
 2555              	ETH_GetDMAOverflowStatus:
 2556              	.LFB89:
1611:../Peripheral/src/ch32v30x_eth.c **** 
1612:../Peripheral/src/ch32v30x_eth.c **** /*********************************************************************
1613:../Peripheral/src/ch32v30x_eth.c ****  * @fn      ETH_GetDMAOverflowStatus
1614:../Peripheral/src/ch32v30x_eth.c ****  *
1615:../Peripheral/src/ch32v30x_eth.c ****  * @brief   Checks whether the specified ETHERNET DMA overflow flag is set or not.
1616:../Peripheral/src/ch32v30x_eth.c ****  *
1617:../Peripheral/src/ch32v30x_eth.c ****  * @param   ETH_DMA_Overflow - specifies the DMA overflow flag to check.
1618:../Peripheral/src/ch32v30x_eth.c ****  *            ETH_DMA_Overflow_RxFIFOCounter - Overflow for FIFO Overflow Counter
1619:../Peripheral/src/ch32v30x_eth.c ****  *            ETH_DMA_Overflow_MissedFrameCounter - Overflow for Missed Frame Counter
1620:../Peripheral/src/ch32v30x_eth.c ****  *
1621:../Peripheral/src/ch32v30x_eth.c ****  * @return  The new state of ETHERNET DMA overflow Flag (SET or RESET).
1622:../Peripheral/src/ch32v30x_eth.c ****  */
1623:../Peripheral/src/ch32v30x_eth.c **** FlagStatus ETH_GetDMAOverflowStatus(uint32_t ETH_DMA_Overflow)
1624:../Peripheral/src/ch32v30x_eth.c **** {
 2557              		.loc 1 1624 1 is_stmt 1
 2558              		.cfi_startproc
 2559              	.LVL161:
1625:../Peripheral/src/ch32v30x_eth.c ****     FlagStatus bitstatus = RESET;
 2560              		.loc 1 1625 5
1626:../Peripheral/src/ch32v30x_eth.c **** 
1627:../Peripheral/src/ch32v30x_eth.c ****     if((ETH->DMAMFBOCR & ETH_DMA_Overflow) != (uint32_t)RESET)
 2561              		.loc 1 1627 5
 2562              		.loc 1 1627 12 is_stmt 0
 2563 0000 B7970240 		li	a5,1073909760
 2564 0004 9C53     		lw	a5,32(a5)
 2565              	.LVL162:
1628:../Peripheral/src/ch32v30x_eth.c ****     {
1629:../Peripheral/src/ch32v30x_eth.c ****         bitstatus = SET;
1630:../Peripheral/src/ch32v30x_eth.c ****     }
1631:../Peripheral/src/ch32v30x_eth.c ****     else
1632:../Peripheral/src/ch32v30x_eth.c ****     {
1633:../Peripheral/src/ch32v30x_eth.c ****         bitstatus = RESET;
1634:../Peripheral/src/ch32v30x_eth.c ****     }
1635:../Peripheral/src/ch32v30x_eth.c ****     return bitstatus;
 2566              		.loc 1 1635 5 is_stmt 1
1627:../Peripheral/src/ch32v30x_eth.c ****     {
 2567              		.loc 1 1627 24 is_stmt 0
 2568 0006 7D8D     		and	a0,a5,a0
 2569              	.LVL163:
1636:../Peripheral/src/ch32v30x_eth.c **** }
 2570              		.loc 1 1636 1
 2571 0008 3335A000 		snez	a0,a0
 2572 000c 8280     		ret
 2573              		.cfi_endproc
 2574              	.LFE89:
 2576              		.section	.text.ETH_GetRxOverflowMissedFrameCounter,"ax",@progbits
 2577              		.align	1
 2578              		.globl	ETH_GetRxOverflowMissedFrameCounter
 2580              	ETH_GetRxOverflowMissedFrameCounter:
 2581              	.LFB90:
1637:../Peripheral/src/ch32v30x_eth.c **** 
1638:../Peripheral/src/ch32v30x_eth.c **** /*********************************************************************
1639:../Peripheral/src/ch32v30x_eth.c ****  * @fn      ETH_GetRxOverflowMissedFrameCounter
1640:../Peripheral/src/ch32v30x_eth.c ****  *
1641:../Peripheral/src/ch32v30x_eth.c ****  * @brief   Get the ETHERNET DMA Rx Overflow Missed Frame Counter value.
1642:../Peripheral/src/ch32v30x_eth.c ****  *
1643:../Peripheral/src/ch32v30x_eth.c ****  * @return  The value of Rx overflow Missed Frame Counter.
1644:../Peripheral/src/ch32v30x_eth.c ****  */
1645:../Peripheral/src/ch32v30x_eth.c **** uint32_t ETH_GetRxOverflowMissedFrameCounter(void)
1646:../Peripheral/src/ch32v30x_eth.c **** {
 2582              		.loc 1 1646 1 is_stmt 1
 2583              		.cfi_startproc
1647:../Peripheral/src/ch32v30x_eth.c ****     return ((uint32_t)((ETH->DMAMFBOCR & ETH_DMAMFBOCR_MFA) >> ETH_DMA_RX_OVERFLOW_MISSEDFRAMES_COU
 2584              		.loc 1 1647 5
 2585              		.loc 1 1647 28 is_stmt 0
 2586 0000 B7970240 		li	a5,1073909760
 2587 0004 8853     		lw	a0,32(a5)
 2588              		.loc 1 1647 13
 2589 0006 4581     		srli	a0,a0,17
1648:../Peripheral/src/ch32v30x_eth.c **** }
 2590              		.loc 1 1648 1
 2591 0008 1375F57F 		andi	a0,a0,2047
 2592 000c 8280     		ret
 2593              		.cfi_endproc
 2594              	.LFE90:
 2596              		.section	.text.ETH_GetBufferUnavailableMissedFrameCounter,"ax",@progbits
 2597              		.align	1
 2598              		.globl	ETH_GetBufferUnavailableMissedFrameCounter
 2600              	ETH_GetBufferUnavailableMissedFrameCounter:
 2601              	.LFB91:
1649:../Peripheral/src/ch32v30x_eth.c **** 
1650:../Peripheral/src/ch32v30x_eth.c **** /*********************************************************************
1651:../Peripheral/src/ch32v30x_eth.c ****  * @fn      ETH_GetBufferUnavailableMissedFrameCounter
1652:../Peripheral/src/ch32v30x_eth.c ****  *
1653:../Peripheral/src/ch32v30x_eth.c ****  * @brief   Get the ETHERNET DMA Buffer Unavailable Missed Frame Counter value.
1654:../Peripheral/src/ch32v30x_eth.c ****  *
1655:../Peripheral/src/ch32v30x_eth.c ****  * @return  The value of Buffer unavailable Missed Frame Counter.
1656:../Peripheral/src/ch32v30x_eth.c ****  */
1657:../Peripheral/src/ch32v30x_eth.c **** uint32_t ETH_GetBufferUnavailableMissedFrameCounter(void)
1658:../Peripheral/src/ch32v30x_eth.c **** {
 2602              		.loc 1 1658 1 is_stmt 1
 2603              		.cfi_startproc
1659:../Peripheral/src/ch32v30x_eth.c ****     return ((uint32_t)(ETH->DMAMFBOCR) & ETH_DMAMFBOCR_MFC);
 2604              		.loc 1 1659 5
 2605              		.loc 1 1659 27 is_stmt 0
 2606 0000 B7970240 		li	a5,1073909760
 2607 0004 8853     		lw	a0,32(a5)
1660:../Peripheral/src/ch32v30x_eth.c **** }
 2608              		.loc 1 1660 1
 2609 0006 4205     		slli	a0,a0,16
 2610 0008 4181     		srli	a0,a0,16
 2611 000a 8280     		ret
 2612              		.cfi_endproc
 2613              	.LFE91:
 2615              		.section	.text.ETH_GetCurrentTxDescStartAddress,"ax",@progbits
 2616              		.align	1
 2617              		.globl	ETH_GetCurrentTxDescStartAddress
 2619              	ETH_GetCurrentTxDescStartAddress:
 2620              	.LFB92:
1661:../Peripheral/src/ch32v30x_eth.c **** 
1662:../Peripheral/src/ch32v30x_eth.c **** /*********************************************************************
1663:../Peripheral/src/ch32v30x_eth.c ****  * @fn      ETH_GetCurrentTxDescStartAddress
1664:../Peripheral/src/ch32v30x_eth.c ****  *
1665:../Peripheral/src/ch32v30x_eth.c ****  * @brief   Get the ETHERNET DMA DMACHTDR register value.
1666:../Peripheral/src/ch32v30x_eth.c ****  *
1667:../Peripheral/src/ch32v30x_eth.c ****  * @return  The value of the current Tx desc start address.
1668:../Peripheral/src/ch32v30x_eth.c ****  */
1669:../Peripheral/src/ch32v30x_eth.c **** uint32_t ETH_GetCurrentTxDescStartAddress(void)
1670:../Peripheral/src/ch32v30x_eth.c **** {
 2621              		.loc 1 1670 1 is_stmt 1
 2622              		.cfi_startproc
1671:../Peripheral/src/ch32v30x_eth.c ****     return ((uint32_t)(ETH->DMACHTDR));
 2623              		.loc 1 1671 5
 2624              		.loc 1 1671 13 is_stmt 0
 2625 0000 B7970240 		li	a5,1073909760
 2626 0004 A847     		lw	a0,72(a5)
1672:../Peripheral/src/ch32v30x_eth.c **** }
 2627              		.loc 1 1672 1
 2628 0006 8280     		ret
 2629              		.cfi_endproc
 2630              	.LFE92:
 2632              		.section	.text.ETH_GetCurrentRxDescStartAddress,"ax",@progbits
 2633              		.align	1
 2634              		.globl	ETH_GetCurrentRxDescStartAddress
 2636              	ETH_GetCurrentRxDescStartAddress:
 2637              	.LFB93:
1673:../Peripheral/src/ch32v30x_eth.c **** 
1674:../Peripheral/src/ch32v30x_eth.c **** /*********************************************************************
1675:../Peripheral/src/ch32v30x_eth.c ****  * @fn      ETH_GetCurrentRxDescStartAddress
1676:../Peripheral/src/ch32v30x_eth.c ****  *
1677:../Peripheral/src/ch32v30x_eth.c ****  * @brief   Get the ETHERNET DMA DMACHRDR register value.
1678:../Peripheral/src/ch32v30x_eth.c ****  *
1679:../Peripheral/src/ch32v30x_eth.c ****  * @return  The value of the current Rx desc start address.
1680:../Peripheral/src/ch32v30x_eth.c ****  */
1681:../Peripheral/src/ch32v30x_eth.c **** uint32_t ETH_GetCurrentRxDescStartAddress(void)
1682:../Peripheral/src/ch32v30x_eth.c **** {
 2638              		.loc 1 1682 1 is_stmt 1
 2639              		.cfi_startproc
1683:../Peripheral/src/ch32v30x_eth.c ****     return ((uint32_t)(ETH->DMACHRDR));
 2640              		.loc 1 1683 5
 2641              		.loc 1 1683 13 is_stmt 0
 2642 0000 B7970240 		li	a5,1073909760
 2643 0004 E847     		lw	a0,76(a5)
1684:../Peripheral/src/ch32v30x_eth.c **** }
 2644              		.loc 1 1684 1
 2645 0006 8280     		ret
 2646              		.cfi_endproc
 2647              	.LFE93:
 2649              		.section	.text.ETH_GetCurrentTxBufferAddress,"ax",@progbits
 2650              		.align	1
 2651              		.globl	ETH_GetCurrentTxBufferAddress
 2653              	ETH_GetCurrentTxBufferAddress:
 2654              	.LFB94:
1685:../Peripheral/src/ch32v30x_eth.c **** 
1686:../Peripheral/src/ch32v30x_eth.c **** /*********************************************************************
1687:../Peripheral/src/ch32v30x_eth.c ****  * @fn      ETH_GetCurrentTxBufferAddress
1688:../Peripheral/src/ch32v30x_eth.c ****  *
1689:../Peripheral/src/ch32v30x_eth.c ****  * @brief   Get the ETHERNET DMA DMACHTBAR register value.
1690:../Peripheral/src/ch32v30x_eth.c ****  *
1691:../Peripheral/src/ch32v30x_eth.c ****  * @return  The value of the current Tx buffer address.
1692:../Peripheral/src/ch32v30x_eth.c ****  */
1693:../Peripheral/src/ch32v30x_eth.c **** uint32_t ETH_GetCurrentTxBufferAddress(void)
1694:../Peripheral/src/ch32v30x_eth.c **** {
 2655              		.loc 1 1694 1 is_stmt 1
 2656              		.cfi_startproc
1695:../Peripheral/src/ch32v30x_eth.c ****     return (DMATxDescToSet->Buffer1Addr);
 2657              		.loc 1 1695 5
 2658              		.loc 1 1695 27 is_stmt 0
 2659 0000 97070000 		lw	a5,DMATxDescToSet
 2659      83A70700 
1696:../Peripheral/src/ch32v30x_eth.c **** }
 2660              		.loc 1 1696 1
 2661 0008 8847     		lw	a0,8(a5)
 2662 000a 8280     		ret
 2663              		.cfi_endproc
 2664              	.LFE94:
 2666              		.section	.text.ETH_GetCurrentRxBufferAddress,"ax",@progbits
 2667              		.align	1
 2668              		.globl	ETH_GetCurrentRxBufferAddress
 2670              	ETH_GetCurrentRxBufferAddress:
 2671              	.LFB95:
1697:../Peripheral/src/ch32v30x_eth.c **** 
1698:../Peripheral/src/ch32v30x_eth.c **** /*********************************************************************
1699:../Peripheral/src/ch32v30x_eth.c ****  * @fn      ETH_GetCurrentRxBufferAddress
1700:../Peripheral/src/ch32v30x_eth.c ****  *
1701:../Peripheral/src/ch32v30x_eth.c ****  * @brief   Get the ETHERNET DMA DMACHRBAR register value.
1702:../Peripheral/src/ch32v30x_eth.c ****  *
1703:../Peripheral/src/ch32v30x_eth.c ****  * @return  The value of the current Rx buffer address.
1704:../Peripheral/src/ch32v30x_eth.c ****  */
1705:../Peripheral/src/ch32v30x_eth.c **** uint32_t ETH_GetCurrentRxBufferAddress(void)
1706:../Peripheral/src/ch32v30x_eth.c **** {
 2672              		.loc 1 1706 1 is_stmt 1
 2673              		.cfi_startproc
1707:../Peripheral/src/ch32v30x_eth.c ****     return ((uint32_t)(ETH->DMACHRBAR));
 2674              		.loc 1 1707 5
 2675              		.loc 1 1707 13 is_stmt 0
 2676 0000 B7970240 		li	a5,1073909760
 2677 0004 E84B     		lw	a0,84(a5)
1708:../Peripheral/src/ch32v30x_eth.c **** }
 2678              		.loc 1 1708 1
 2679 0006 8280     		ret
 2680              		.cfi_endproc
 2681              	.LFE95:
 2683              		.section	.text.ETH_ResumeDMATransmission,"ax",@progbits
 2684              		.align	1
 2685              		.globl	ETH_ResumeDMATransmission
 2687              	ETH_ResumeDMATransmission:
 2688              	.LFB96:
1709:../Peripheral/src/ch32v30x_eth.c **** 
1710:../Peripheral/src/ch32v30x_eth.c **** /*********************************************************************
1711:../Peripheral/src/ch32v30x_eth.c ****  * @fn      ETH_ResumeDMATransmission
1712:../Peripheral/src/ch32v30x_eth.c ****  *
1713:../Peripheral/src/ch32v30x_eth.c ****  * @brief   Resumes the DMA Transmission by writing to the DmaTxPollDemand register
1714:../Peripheral/src/ch32v30x_eth.c ****  *
1715:../Peripheral/src/ch32v30x_eth.c ****  * @return  none
1716:../Peripheral/src/ch32v30x_eth.c ****  */
1717:../Peripheral/src/ch32v30x_eth.c **** void ETH_ResumeDMATransmission(void)
1718:../Peripheral/src/ch32v30x_eth.c **** {
 2689              		.loc 1 1718 1 is_stmt 1
 2690              		.cfi_startproc
1719:../Peripheral/src/ch32v30x_eth.c ****     ETH->DMATPDR = 0;
 2691              		.loc 1 1719 5
 2692              		.loc 1 1719 18 is_stmt 0
 2693 0000 B7970240 		li	a5,1073909760
 2694 0004 23A20700 		sw	zero,4(a5)
1720:../Peripheral/src/ch32v30x_eth.c **** }
 2695              		.loc 1 1720 1
 2696 0008 8280     		ret
 2697              		.cfi_endproc
 2698              	.LFE96:
 2700              		.section	.text.ETH_ResumeDMAReception,"ax",@progbits
 2701              		.align	1
 2702              		.globl	ETH_ResumeDMAReception
 2704              	ETH_ResumeDMAReception:
 2705              	.LFB97:
1721:../Peripheral/src/ch32v30x_eth.c **** 
1722:../Peripheral/src/ch32v30x_eth.c **** /*********************************************************************
1723:../Peripheral/src/ch32v30x_eth.c ****  * @fn      ETH_ResumeDMAReception
1724:../Peripheral/src/ch32v30x_eth.c ****  *
1725:../Peripheral/src/ch32v30x_eth.c ****  * @brief   Resumes the DMA Transmission by writing to the DmaRxPollDemand register.
1726:../Peripheral/src/ch32v30x_eth.c ****  *
1727:../Peripheral/src/ch32v30x_eth.c ****  * @return  none
1728:../Peripheral/src/ch32v30x_eth.c ****  */
1729:../Peripheral/src/ch32v30x_eth.c **** void ETH_ResumeDMAReception(void)
1730:../Peripheral/src/ch32v30x_eth.c **** {
 2706              		.loc 1 1730 1 is_stmt 1
 2707              		.cfi_startproc
1731:../Peripheral/src/ch32v30x_eth.c ****     ETH->DMARPDR = 0;
 2708              		.loc 1 1731 5
 2709              		.loc 1 1731 18 is_stmt 0
 2710 0000 B7970240 		li	a5,1073909760
 2711 0004 23A40700 		sw	zero,8(a5)
1732:../Peripheral/src/ch32v30x_eth.c **** }
 2712              		.loc 1 1732 1
 2713 0008 8280     		ret
 2714              		.cfi_endproc
 2715              	.LFE97:
 2717              		.section	.text.ETH_ResetWakeUpFrameFilterRegisterPointer,"ax",@progbits
 2718              		.align	1
 2719              		.globl	ETH_ResetWakeUpFrameFilterRegisterPointer
 2721              	ETH_ResetWakeUpFrameFilterRegisterPointer:
 2722              	.LFB98:
1733:../Peripheral/src/ch32v30x_eth.c **** 
1734:../Peripheral/src/ch32v30x_eth.c **** /*********************************************************************
1735:../Peripheral/src/ch32v30x_eth.c ****  * @fn      ETH_ResetWakeUpFrameFilterRegisterPointer
1736:../Peripheral/src/ch32v30x_eth.c ****  *
1737:../Peripheral/src/ch32v30x_eth.c ****  * @brief   Reset Wakeup frame filter register pointer.
1738:../Peripheral/src/ch32v30x_eth.c ****  *
1739:../Peripheral/src/ch32v30x_eth.c ****  * @return  none
1740:../Peripheral/src/ch32v30x_eth.c ****  */
1741:../Peripheral/src/ch32v30x_eth.c **** void ETH_ResetWakeUpFrameFilterRegisterPointer(void)
1742:../Peripheral/src/ch32v30x_eth.c **** {
 2723              		.loc 1 1742 1 is_stmt 1
 2724              		.cfi_startproc
1743:../Peripheral/src/ch32v30x_eth.c ****     ETH->MACPMTCSR |= ETH_MACPMTCSR_WFFRPR;
 2725              		.loc 1 1743 5
 2726              		.loc 1 1743 8 is_stmt 0
 2727 0000 37870240 		li	a4,1073905664
 2728 0004 5C57     		lw	a5,44(a4)
 2729              		.loc 1 1743 20
 2730 0006 B7060080 		li	a3,-2147483648
 2731 000a D58F     		or	a5,a5,a3
 2732 000c 5CD7     		sw	a5,44(a4)
1744:../Peripheral/src/ch32v30x_eth.c **** }
 2733              		.loc 1 1744 1
 2734 000e 8280     		ret
 2735              		.cfi_endproc
 2736              	.LFE98:
 2738              		.section	.text.ETH_SetWakeUpFrameFilterRegister,"ax",@progbits
 2739              		.align	1
 2740              		.globl	ETH_SetWakeUpFrameFilterRegister
 2742              	ETH_SetWakeUpFrameFilterRegister:
 2743              	.LFB99:
1745:../Peripheral/src/ch32v30x_eth.c **** 
1746:../Peripheral/src/ch32v30x_eth.c **** /*********************************************************************
1747:../Peripheral/src/ch32v30x_eth.c ****  * @fn      ETH_SetWakeUpFrameFilterRegister
1748:../Peripheral/src/ch32v30x_eth.c ****  *
1749:../Peripheral/src/ch32v30x_eth.c ****  * @brief   Populates the remote wakeup frame registers.
1750:../Peripheral/src/ch32v30x_eth.c ****  *
1751:../Peripheral/src/ch32v30x_eth.c ****  * @param   Buffer - Pointer on remote WakeUp Frame Filter Register buffer data (8 words).
1752:../Peripheral/src/ch32v30x_eth.c ****  *
1753:../Peripheral/src/ch32v30x_eth.c ****  * @return  none
1754:../Peripheral/src/ch32v30x_eth.c ****  */
1755:../Peripheral/src/ch32v30x_eth.c **** void ETH_SetWakeUpFrameFilterRegister(uint32_t *Buffer)
1756:../Peripheral/src/ch32v30x_eth.c **** {
 2744              		.loc 1 1756 1 is_stmt 1
 2745              		.cfi_startproc
 2746              	.LVL164:
1757:../Peripheral/src/ch32v30x_eth.c ****     uint32_t i = 0;
 2747              		.loc 1 1757 5
1758:../Peripheral/src/ch32v30x_eth.c **** 
1759:../Peripheral/src/ch32v30x_eth.c ****     for(i = 0; i < ETH_WAKEUP_REGISTER_LENGTH; i++)
 2748              		.loc 1 1759 5
 2749              		.loc 1 1759 18
 2750 0000 93070502 		addi	a5,a0,32
1760:../Peripheral/src/ch32v30x_eth.c ****     {
1761:../Peripheral/src/ch32v30x_eth.c ****         ETH->MACRWUFFR = Buffer[i];
 2751              		.loc 1 1761 24 is_stmt 0
 2752 0004 37870240 		li	a4,1073905664
 2753              	.LVL165:
 2754              	.L203:
 2755              		.loc 1 1761 9 is_stmt 1 discriminator 3
 2756              		.loc 1 1761 32 is_stmt 0 discriminator 3
 2757 0008 1441     		lw	a3,0(a0)
1759:../Peripheral/src/ch32v30x_eth.c ****     {
 2758              		.loc 1 1759 18 discriminator 3
 2759 000a 1105     		addi	a0,a0,4
 2760              		.loc 1 1761 24 discriminator 3
 2761 000c 14D7     		sw	a3,40(a4)
1759:../Peripheral/src/ch32v30x_eth.c ****     {
 2762              		.loc 1 1759 49 is_stmt 1 discriminator 3
1759:../Peripheral/src/ch32v30x_eth.c ****     {
 2763              		.loc 1 1759 18 discriminator 3
 2764 000e E31DF5FE 		bne	a0,a5,.L203
1762:../Peripheral/src/ch32v30x_eth.c ****     }
1763:../Peripheral/src/ch32v30x_eth.c **** }
 2765              		.loc 1 1763 1 is_stmt 0
 2766 0012 8280     		ret
 2767              		.cfi_endproc
 2768              	.LFE99:
 2770              		.section	.text.ETH_GlobalUnicastWakeUpCmd,"ax",@progbits
 2771              		.align	1
 2772              		.globl	ETH_GlobalUnicastWakeUpCmd
 2774              	ETH_GlobalUnicastWakeUpCmd:
 2775              	.LFB100:
1764:../Peripheral/src/ch32v30x_eth.c **** 
1765:../Peripheral/src/ch32v30x_eth.c **** /*********************************************************************
1766:../Peripheral/src/ch32v30x_eth.c ****  * @fn      ETH_GlobalUnicastWakeUpCmd
1767:../Peripheral/src/ch32v30x_eth.c ****  *
1768:../Peripheral/src/ch32v30x_eth.c ****  * @brief   Enables or disables any unicast packet filtered by the MAC address.
1769:../Peripheral/src/ch32v30x_eth.c ****  *
1770:../Peripheral/src/ch32v30x_eth.c ****  * @param   NewState - new state of the MAC Global Unicast Wake-Up.
1771:../Peripheral/src/ch32v30x_eth.c ****  *
1772:../Peripheral/src/ch32v30x_eth.c ****  * @return  none
1773:../Peripheral/src/ch32v30x_eth.c ****  */
1774:../Peripheral/src/ch32v30x_eth.c **** void ETH_GlobalUnicastWakeUpCmd(FunctionalState NewState)
1775:../Peripheral/src/ch32v30x_eth.c **** {
 2776              		.loc 1 1775 1 is_stmt 1
 2777              		.cfi_startproc
 2778              	.LVL166:
1776:../Peripheral/src/ch32v30x_eth.c ****     if(NewState != DISABLE)
 2779              		.loc 1 1776 5
1777:../Peripheral/src/ch32v30x_eth.c ****     {
1778:../Peripheral/src/ch32v30x_eth.c ****         ETH->MACPMTCSR |= ETH_MACPMTCSR_GU;
 2780              		.loc 1 1778 12 is_stmt 0
 2781 0000 37870240 		li	a4,1073905664
 2782 0004 5C57     		lw	a5,44(a4)
1776:../Peripheral/src/ch32v30x_eth.c ****     if(NewState != DISABLE)
 2783              		.loc 1 1776 7
 2784 0006 09C5     		beq	a0,zero,.L206
 2785              		.loc 1 1778 9 is_stmt 1
 2786              		.loc 1 1778 24 is_stmt 0
 2787 0008 93E70720 		ori	a5,a5,512
 2788              	.L208:
1779:../Peripheral/src/ch32v30x_eth.c ****     }
1780:../Peripheral/src/ch32v30x_eth.c ****     else
1781:../Peripheral/src/ch32v30x_eth.c ****     {
1782:../Peripheral/src/ch32v30x_eth.c ****         ETH->MACPMTCSR &= ~ETH_MACPMTCSR_GU;
 2789              		.loc 1 1782 24
 2790 000c 5CD7     		sw	a5,44(a4)
1783:../Peripheral/src/ch32v30x_eth.c ****     }
1784:../Peripheral/src/ch32v30x_eth.c **** }
 2791              		.loc 1 1784 1
 2792 000e 8280     		ret
 2793              	.L206:
1782:../Peripheral/src/ch32v30x_eth.c ****     }
 2794              		.loc 1 1782 9 is_stmt 1
1782:../Peripheral/src/ch32v30x_eth.c ****     }
 2795              		.loc 1 1782 24 is_stmt 0
 2796 0010 93F7F7DF 		andi	a5,a5,-513
 2797 0014 E5BF     		j	.L208
 2798              		.cfi_endproc
 2799              	.LFE100:
 2801              		.section	.text.ETH_GetPMTFlagStatus,"ax",@progbits
 2802              		.align	1
 2803              		.globl	ETH_GetPMTFlagStatus
 2805              	ETH_GetPMTFlagStatus:
 2806              	.LFB101:
1785:../Peripheral/src/ch32v30x_eth.c **** 
1786:../Peripheral/src/ch32v30x_eth.c **** /*********************************************************************
1787:../Peripheral/src/ch32v30x_eth.c ****  * @fn      ETH_GetPMTFlagStatus
1788:../Peripheral/src/ch32v30x_eth.c ****  *
1789:../Peripheral/src/ch32v30x_eth.c ****  * @brief   Checks whether the specified ETHERNET PMT flag is set or not.
1790:../Peripheral/src/ch32v30x_eth.c ****  *
1791:../Peripheral/src/ch32v30x_eth.c ****  * @param   ETH_PMT_FLAG - specifies the flag to check.
1792:../Peripheral/src/ch32v30x_eth.c ****  *
1793:../Peripheral/src/ch32v30x_eth.c ****  * @return  The new state of ETHERNET PMT Flag (SET or RESET).
1794:../Peripheral/src/ch32v30x_eth.c ****  */
1795:../Peripheral/src/ch32v30x_eth.c **** FlagStatus ETH_GetPMTFlagStatus(uint32_t ETH_PMT_FLAG)
1796:../Peripheral/src/ch32v30x_eth.c **** {
 2807              		.loc 1 1796 1 is_stmt 1
 2808              		.cfi_startproc
 2809              	.LVL167:
1797:../Peripheral/src/ch32v30x_eth.c ****     FlagStatus bitstatus = RESET;
 2810              		.loc 1 1797 5
1798:../Peripheral/src/ch32v30x_eth.c **** 
1799:../Peripheral/src/ch32v30x_eth.c ****     if((ETH->MACPMTCSR & ETH_PMT_FLAG) != (uint32_t)RESET)
 2811              		.loc 1 1799 5
 2812              		.loc 1 1799 12 is_stmt 0
 2813 0000 B7870240 		li	a5,1073905664
 2814 0004 DC57     		lw	a5,44(a5)
 2815              	.LVL168:
1800:../Peripheral/src/ch32v30x_eth.c ****     {
1801:../Peripheral/src/ch32v30x_eth.c ****         bitstatus = SET;
1802:../Peripheral/src/ch32v30x_eth.c ****     }
1803:../Peripheral/src/ch32v30x_eth.c ****     else
1804:../Peripheral/src/ch32v30x_eth.c ****     {
1805:../Peripheral/src/ch32v30x_eth.c ****         bitstatus = RESET;
1806:../Peripheral/src/ch32v30x_eth.c ****     }
1807:../Peripheral/src/ch32v30x_eth.c **** 
1808:../Peripheral/src/ch32v30x_eth.c ****     return bitstatus;
 2816              		.loc 1 1808 5 is_stmt 1
1799:../Peripheral/src/ch32v30x_eth.c ****     {
 2817              		.loc 1 1799 24 is_stmt 0
 2818 0006 7D8D     		and	a0,a5,a0
 2819              	.LVL169:
1809:../Peripheral/src/ch32v30x_eth.c **** }
 2820              		.loc 1 1809 1
 2821 0008 3335A000 		snez	a0,a0
 2822 000c 8280     		ret
 2823              		.cfi_endproc
 2824              	.LFE101:
 2826              		.section	.text.ETH_WakeUpFrameDetectionCmd,"ax",@progbits
 2827              		.align	1
 2828              		.globl	ETH_WakeUpFrameDetectionCmd
 2830              	ETH_WakeUpFrameDetectionCmd:
 2831              	.LFB102:
1810:../Peripheral/src/ch32v30x_eth.c **** 
1811:../Peripheral/src/ch32v30x_eth.c **** /*********************************************************************
1812:../Peripheral/src/ch32v30x_eth.c ****  * @fn      ETH_WakeUpFrameDetectionCmd
1813:../Peripheral/src/ch32v30x_eth.c ****  *
1814:../Peripheral/src/ch32v30x_eth.c ****  * @brief   Enables or disables the MAC Wake-Up Frame Detection.
1815:../Peripheral/src/ch32v30x_eth.c ****  *
1816:../Peripheral/src/ch32v30x_eth.c ****  * @param   NewState - new state of the MAC Wake-Up Frame Detection.
1817:../Peripheral/src/ch32v30x_eth.c ****  *
1818:../Peripheral/src/ch32v30x_eth.c ****  * @return  none
1819:../Peripheral/src/ch32v30x_eth.c ****  */
1820:../Peripheral/src/ch32v30x_eth.c **** void ETH_WakeUpFrameDetectionCmd(FunctionalState NewState)
1821:../Peripheral/src/ch32v30x_eth.c **** {
 2832              		.loc 1 1821 1 is_stmt 1
 2833              		.cfi_startproc
 2834              	.LVL170:
1822:../Peripheral/src/ch32v30x_eth.c ****     if(NewState != DISABLE)
 2835              		.loc 1 1822 5
1823:../Peripheral/src/ch32v30x_eth.c ****     {
1824:../Peripheral/src/ch32v30x_eth.c ****         ETH->MACPMTCSR |= ETH_MACPMTCSR_WFE;
 2836              		.loc 1 1824 12 is_stmt 0
 2837 0000 37870240 		li	a4,1073905664
 2838 0004 5C57     		lw	a5,44(a4)
1822:../Peripheral/src/ch32v30x_eth.c ****     if(NewState != DISABLE)
 2839              		.loc 1 1822 7
 2840 0006 09C5     		beq	a0,zero,.L211
 2841              		.loc 1 1824 9 is_stmt 1
 2842              		.loc 1 1824 24 is_stmt 0
 2843 0008 93E74700 		ori	a5,a5,4
 2844              	.L213:
1825:../Peripheral/src/ch32v30x_eth.c ****     }
1826:../Peripheral/src/ch32v30x_eth.c ****     else
1827:../Peripheral/src/ch32v30x_eth.c ****     {
1828:../Peripheral/src/ch32v30x_eth.c ****         ETH->MACPMTCSR &= ~ETH_MACPMTCSR_WFE;
 2845              		.loc 1 1828 24
 2846 000c 5CD7     		sw	a5,44(a4)
1829:../Peripheral/src/ch32v30x_eth.c ****     }
1830:../Peripheral/src/ch32v30x_eth.c **** }
 2847              		.loc 1 1830 1
 2848 000e 8280     		ret
 2849              	.L211:
1828:../Peripheral/src/ch32v30x_eth.c ****     }
 2850              		.loc 1 1828 9 is_stmt 1
1828:../Peripheral/src/ch32v30x_eth.c ****     }
 2851              		.loc 1 1828 24 is_stmt 0
 2852 0010 ED9B     		andi	a5,a5,-5
 2853 0012 EDBF     		j	.L213
 2854              		.cfi_endproc
 2855              	.LFE102:
 2857              		.section	.text.ETH_MagicPacketDetectionCmd,"ax",@progbits
 2858              		.align	1
 2859              		.globl	ETH_MagicPacketDetectionCmd
 2861              	ETH_MagicPacketDetectionCmd:
 2862              	.LFB103:
1831:../Peripheral/src/ch32v30x_eth.c **** 
1832:../Peripheral/src/ch32v30x_eth.c **** /*********************************************************************
1833:../Peripheral/src/ch32v30x_eth.c ****  * @fn      ETH_MagicPacketDetectionCmd
1834:../Peripheral/src/ch32v30x_eth.c ****  *
1835:../Peripheral/src/ch32v30x_eth.c ****  * @brief   Enables or disables the MAC Magic Packet Detection.
1836:../Peripheral/src/ch32v30x_eth.c ****  *
1837:../Peripheral/src/ch32v30x_eth.c ****  * @param   NewState - new state of the MAC Magic Packet Detection.
1838:../Peripheral/src/ch32v30x_eth.c ****  *
1839:../Peripheral/src/ch32v30x_eth.c ****  * @return  none
1840:../Peripheral/src/ch32v30x_eth.c ****  */
1841:../Peripheral/src/ch32v30x_eth.c **** void ETH_MagicPacketDetectionCmd(FunctionalState NewState)
1842:../Peripheral/src/ch32v30x_eth.c **** {
 2863              		.loc 1 1842 1 is_stmt 1
 2864              		.cfi_startproc
 2865              	.LVL171:
1843:../Peripheral/src/ch32v30x_eth.c ****     if(NewState != DISABLE)
 2866              		.loc 1 1843 5
1844:../Peripheral/src/ch32v30x_eth.c ****     {
1845:../Peripheral/src/ch32v30x_eth.c ****         ETH->MACPMTCSR |= ETH_MACPMTCSR_MPE;
 2867              		.loc 1 1845 12 is_stmt 0
 2868 0000 37870240 		li	a4,1073905664
 2869 0004 5C57     		lw	a5,44(a4)
1843:../Peripheral/src/ch32v30x_eth.c ****     if(NewState != DISABLE)
 2870              		.loc 1 1843 7
 2871 0006 09C5     		beq	a0,zero,.L215
 2872              		.loc 1 1845 9 is_stmt 1
 2873              		.loc 1 1845 24 is_stmt 0
 2874 0008 93E72700 		ori	a5,a5,2
 2875              	.L217:
1846:../Peripheral/src/ch32v30x_eth.c ****     }
1847:../Peripheral/src/ch32v30x_eth.c ****     else
1848:../Peripheral/src/ch32v30x_eth.c ****     {
1849:../Peripheral/src/ch32v30x_eth.c ****         ETH->MACPMTCSR &= ~ETH_MACPMTCSR_MPE;
 2876              		.loc 1 1849 24
 2877 000c 5CD7     		sw	a5,44(a4)
1850:../Peripheral/src/ch32v30x_eth.c ****     }
1851:../Peripheral/src/ch32v30x_eth.c **** }
 2878              		.loc 1 1851 1
 2879 000e 8280     		ret
 2880              	.L215:
1849:../Peripheral/src/ch32v30x_eth.c ****     }
 2881              		.loc 1 1849 9 is_stmt 1
1849:../Peripheral/src/ch32v30x_eth.c ****     }
 2882              		.loc 1 1849 24 is_stmt 0
 2883 0010 F59B     		andi	a5,a5,-3
 2884 0012 EDBF     		j	.L217
 2885              		.cfi_endproc
 2886              	.LFE103:
 2888              		.section	.text.ETH_PowerDownCmd,"ax",@progbits
 2889              		.align	1
 2890              		.globl	ETH_PowerDownCmd
 2892              	ETH_PowerDownCmd:
 2893              	.LFB104:
1852:../Peripheral/src/ch32v30x_eth.c **** 
1853:../Peripheral/src/ch32v30x_eth.c **** /*********************************************************************
1854:../Peripheral/src/ch32v30x_eth.c ****  * @fn      ETH_PowerDownCmd
1855:../Peripheral/src/ch32v30x_eth.c ****  *
1856:../Peripheral/src/ch32v30x_eth.c ****  * @brief   Enables or disables the MAC Power Down.
1857:../Peripheral/src/ch32v30x_eth.c ****  *
1858:../Peripheral/src/ch32v30x_eth.c ****  * @param   NewState - new state of the MAC Power Down.
1859:../Peripheral/src/ch32v30x_eth.c ****  *
1860:../Peripheral/src/ch32v30x_eth.c ****  * @return  none
1861:../Peripheral/src/ch32v30x_eth.c ****  */
1862:../Peripheral/src/ch32v30x_eth.c **** void ETH_PowerDownCmd(FunctionalState NewState)
1863:../Peripheral/src/ch32v30x_eth.c **** {
 2894              		.loc 1 1863 1 is_stmt 1
 2895              		.cfi_startproc
 2896              	.LVL172:
1864:../Peripheral/src/ch32v30x_eth.c ****     if(NewState != DISABLE)
 2897              		.loc 1 1864 5
1865:../Peripheral/src/ch32v30x_eth.c ****     {
1866:../Peripheral/src/ch32v30x_eth.c ****         ETH->MACPMTCSR |= ETH_MACPMTCSR_PD;
 2898              		.loc 1 1866 12 is_stmt 0
 2899 0000 37870240 		li	a4,1073905664
 2900 0004 5C57     		lw	a5,44(a4)
1864:../Peripheral/src/ch32v30x_eth.c ****     if(NewState != DISABLE)
 2901              		.loc 1 1864 7
 2902 0006 09C5     		beq	a0,zero,.L219
 2903              		.loc 1 1866 9 is_stmt 1
 2904              		.loc 1 1866 24 is_stmt 0
 2905 0008 93E71700 		ori	a5,a5,1
 2906              	.L221:
1867:../Peripheral/src/ch32v30x_eth.c ****     }
1868:../Peripheral/src/ch32v30x_eth.c ****     else
1869:../Peripheral/src/ch32v30x_eth.c ****     {
1870:../Peripheral/src/ch32v30x_eth.c ****         ETH->MACPMTCSR &= ~ETH_MACPMTCSR_PD;
 2907              		.loc 1 1870 24
 2908 000c 5CD7     		sw	a5,44(a4)
1871:../Peripheral/src/ch32v30x_eth.c ****     }
1872:../Peripheral/src/ch32v30x_eth.c **** }
 2909              		.loc 1 1872 1
 2910 000e 8280     		ret
 2911              	.L219:
1870:../Peripheral/src/ch32v30x_eth.c ****     }
 2912              		.loc 1 1870 9 is_stmt 1
1870:../Peripheral/src/ch32v30x_eth.c ****     }
 2913              		.loc 1 1870 24 is_stmt 0
 2914 0010 F99B     		andi	a5,a5,-2
 2915 0012 EDBF     		j	.L221
 2916              		.cfi_endproc
 2917              	.LFE104:
 2919              		.section	.text.ETH_MMCCounterFreezeCmd,"ax",@progbits
 2920              		.align	1
 2921              		.globl	ETH_MMCCounterFreezeCmd
 2923              	ETH_MMCCounterFreezeCmd:
 2924              	.LFB105:
1873:../Peripheral/src/ch32v30x_eth.c **** 
1874:../Peripheral/src/ch32v30x_eth.c **** /*********************************************************************
1875:../Peripheral/src/ch32v30x_eth.c ****  * @fn      ETH_MMCCounterFreezeCmd
1876:../Peripheral/src/ch32v30x_eth.c ****  *
1877:../Peripheral/src/ch32v30x_eth.c ****  * @brief   Enables or disables the MMC Counter Freeze.
1878:../Peripheral/src/ch32v30x_eth.c ****  *
1879:../Peripheral/src/ch32v30x_eth.c ****  * @param   NewState - new state of the MMC Counter Freeze.
1880:../Peripheral/src/ch32v30x_eth.c ****  *
1881:../Peripheral/src/ch32v30x_eth.c ****  * @return  none
1882:../Peripheral/src/ch32v30x_eth.c ****  */
1883:../Peripheral/src/ch32v30x_eth.c **** void ETH_MMCCounterFreezeCmd(FunctionalState NewState)
1884:../Peripheral/src/ch32v30x_eth.c **** {
 2925              		.loc 1 1884 1 is_stmt 1
 2926              		.cfi_startproc
 2927              	.LVL173:
1885:../Peripheral/src/ch32v30x_eth.c ****     if(NewState != DISABLE)
 2928              		.loc 1 1885 5
1886:../Peripheral/src/ch32v30x_eth.c ****     {
1887:../Peripheral/src/ch32v30x_eth.c ****         ETH->MMCCR |= ETH_MMCCR_MCF;
 2929              		.loc 1 1887 12 is_stmt 0
 2930 0000 37870240 		li	a4,1073905664
 2931 0004 83270710 		lw	a5,256(a4)
1885:../Peripheral/src/ch32v30x_eth.c ****     if(NewState != DISABLE)
 2932              		.loc 1 1885 7
 2933 0008 11C5     		beq	a0,zero,.L223
 2934              		.loc 1 1887 9 is_stmt 1
 2935              		.loc 1 1887 20 is_stmt 0
 2936 000a 93E78700 		ori	a5,a5,8
 2937              	.L225:
1888:../Peripheral/src/ch32v30x_eth.c ****     }
1889:../Peripheral/src/ch32v30x_eth.c ****     else
1890:../Peripheral/src/ch32v30x_eth.c ****     {
1891:../Peripheral/src/ch32v30x_eth.c ****         ETH->MMCCR &= ~ETH_MMCCR_MCF;
 2938              		.loc 1 1891 20
 2939 000e 2320F710 		sw	a5,256(a4)
1892:../Peripheral/src/ch32v30x_eth.c ****     }
1893:../Peripheral/src/ch32v30x_eth.c **** }
 2940              		.loc 1 1893 1
 2941 0012 8280     		ret
 2942              	.L223:
1891:../Peripheral/src/ch32v30x_eth.c ****     }
 2943              		.loc 1 1891 9 is_stmt 1
1891:../Peripheral/src/ch32v30x_eth.c ****     }
 2944              		.loc 1 1891 20 is_stmt 0
 2945 0014 DD9B     		andi	a5,a5,-9
 2946 0016 E5BF     		j	.L225
 2947              		.cfi_endproc
 2948              	.LFE105:
 2950              		.section	.text.ETH_MMCResetOnReadCmd,"ax",@progbits
 2951              		.align	1
 2952              		.globl	ETH_MMCResetOnReadCmd
 2954              	ETH_MMCResetOnReadCmd:
 2955              	.LFB106:
1894:../Peripheral/src/ch32v30x_eth.c **** 
1895:../Peripheral/src/ch32v30x_eth.c **** /*********************************************************************
1896:../Peripheral/src/ch32v30x_eth.c ****  * @fn      ETH_MMCResetOnReadCmd
1897:../Peripheral/src/ch32v30x_eth.c ****  *
1898:../Peripheral/src/ch32v30x_eth.c ****  * @brief   Enables or disables the MMC Reset On Read.
1899:../Peripheral/src/ch32v30x_eth.c ****  *
1900:../Peripheral/src/ch32v30x_eth.c ****  * @param   NewState - new state of the MMC Reset On Read.
1901:../Peripheral/src/ch32v30x_eth.c ****  *
1902:../Peripheral/src/ch32v30x_eth.c ****  * @return  none
1903:../Peripheral/src/ch32v30x_eth.c ****  */
1904:../Peripheral/src/ch32v30x_eth.c **** void ETH_MMCResetOnReadCmd(FunctionalState NewState)
1905:../Peripheral/src/ch32v30x_eth.c **** {
 2956              		.loc 1 1905 1 is_stmt 1
 2957              		.cfi_startproc
 2958              	.LVL174:
1906:../Peripheral/src/ch32v30x_eth.c ****     if(NewState != DISABLE)
 2959              		.loc 1 1906 5
1907:../Peripheral/src/ch32v30x_eth.c ****     {
1908:../Peripheral/src/ch32v30x_eth.c ****         ETH->MMCCR |= ETH_MMCCR_ROR;
 2960              		.loc 1 1908 12 is_stmt 0
 2961 0000 37870240 		li	a4,1073905664
 2962 0004 83270710 		lw	a5,256(a4)
1906:../Peripheral/src/ch32v30x_eth.c ****     if(NewState != DISABLE)
 2963              		.loc 1 1906 7
 2964 0008 11C5     		beq	a0,zero,.L227
 2965              		.loc 1 1908 9 is_stmt 1
 2966              		.loc 1 1908 20 is_stmt 0
 2967 000a 93E74700 		ori	a5,a5,4
 2968              	.L229:
1909:../Peripheral/src/ch32v30x_eth.c ****     }
1910:../Peripheral/src/ch32v30x_eth.c ****     else
1911:../Peripheral/src/ch32v30x_eth.c ****     {
1912:../Peripheral/src/ch32v30x_eth.c ****         ETH->MMCCR &= ~ETH_MMCCR_ROR;
 2969              		.loc 1 1912 20
 2970 000e 2320F710 		sw	a5,256(a4)
1913:../Peripheral/src/ch32v30x_eth.c ****     }
1914:../Peripheral/src/ch32v30x_eth.c **** }
 2971              		.loc 1 1914 1
 2972 0012 8280     		ret
 2973              	.L227:
1912:../Peripheral/src/ch32v30x_eth.c ****     }
 2974              		.loc 1 1912 9 is_stmt 1
1912:../Peripheral/src/ch32v30x_eth.c ****     }
 2975              		.loc 1 1912 20 is_stmt 0
 2976 0014 ED9B     		andi	a5,a5,-5
 2977 0016 E5BF     		j	.L229
 2978              		.cfi_endproc
 2979              	.LFE106:
 2981              		.section	.text.ETH_MMCCounterRolloverCmd,"ax",@progbits
 2982              		.align	1
 2983              		.globl	ETH_MMCCounterRolloverCmd
 2985              	ETH_MMCCounterRolloverCmd:
 2986              	.LFB107:
1915:../Peripheral/src/ch32v30x_eth.c **** 
1916:../Peripheral/src/ch32v30x_eth.c **** /*********************************************************************
1917:../Peripheral/src/ch32v30x_eth.c ****  * @fn      ETH_MMCCounterRolloverCmd
1918:../Peripheral/src/ch32v30x_eth.c ****  *
1919:../Peripheral/src/ch32v30x_eth.c ****  * @brief   Enables or disables the MMC Counter Stop Rollover.
1920:../Peripheral/src/ch32v30x_eth.c ****  *
1921:../Peripheral/src/ch32v30x_eth.c ****  * @param   NewState - new state of the MMC Counter Stop Rollover.
1922:../Peripheral/src/ch32v30x_eth.c ****  *
1923:../Peripheral/src/ch32v30x_eth.c ****  * @return  none
1924:../Peripheral/src/ch32v30x_eth.c ****  */
1925:../Peripheral/src/ch32v30x_eth.c **** void ETH_MMCCounterRolloverCmd(FunctionalState NewState)
1926:../Peripheral/src/ch32v30x_eth.c **** {
 2987              		.loc 1 1926 1 is_stmt 1
 2988              		.cfi_startproc
 2989              	.LVL175:
1927:../Peripheral/src/ch32v30x_eth.c ****     if(NewState != DISABLE)
 2990              		.loc 1 1927 5
1928:../Peripheral/src/ch32v30x_eth.c ****     {
1929:../Peripheral/src/ch32v30x_eth.c ****         ETH->MMCCR &= ~ETH_MMCCR_CSR;
 2991              		.loc 1 1929 12 is_stmt 0
 2992 0000 37870240 		li	a4,1073905664
 2993 0004 83270710 		lw	a5,256(a4)
1927:../Peripheral/src/ch32v30x_eth.c ****     if(NewState != DISABLE)
 2994              		.loc 1 1927 7
 2995 0008 09C5     		beq	a0,zero,.L231
 2996              		.loc 1 1929 9 is_stmt 1
 2997              		.loc 1 1929 20 is_stmt 0
 2998 000a F59B     		andi	a5,a5,-3
 2999              	.L233:
1930:../Peripheral/src/ch32v30x_eth.c ****     }
1931:../Peripheral/src/ch32v30x_eth.c ****     else
1932:../Peripheral/src/ch32v30x_eth.c ****     {
1933:../Peripheral/src/ch32v30x_eth.c ****         ETH->MMCCR |= ETH_MMCCR_CSR;
 3000              		.loc 1 1933 20
 3001 000c 2320F710 		sw	a5,256(a4)
1934:../Peripheral/src/ch32v30x_eth.c ****     }
1935:../Peripheral/src/ch32v30x_eth.c **** }
 3002              		.loc 1 1935 1
 3003 0010 8280     		ret
 3004              	.L231:
1933:../Peripheral/src/ch32v30x_eth.c ****     }
 3005              		.loc 1 1933 9 is_stmt 1
1933:../Peripheral/src/ch32v30x_eth.c ****     }
 3006              		.loc 1 1933 20 is_stmt 0
 3007 0012 93E72700 		ori	a5,a5,2
 3008 0016 DDBF     		j	.L233
 3009              		.cfi_endproc
 3010              	.LFE107:
 3012              		.section	.text.ETH_MMCCountersReset,"ax",@progbits
 3013              		.align	1
 3014              		.globl	ETH_MMCCountersReset
 3016              	ETH_MMCCountersReset:
 3017              	.LFB108:
1936:../Peripheral/src/ch32v30x_eth.c **** 
1937:../Peripheral/src/ch32v30x_eth.c **** /*********************************************************************
1938:../Peripheral/src/ch32v30x_eth.c ****  * @fn      ETH_MMCCountersReset
1939:../Peripheral/src/ch32v30x_eth.c ****  *
1940:../Peripheral/src/ch32v30x_eth.c ****  * @brief   Resets the MMC Counters.
1941:../Peripheral/src/ch32v30x_eth.c ****  *
1942:../Peripheral/src/ch32v30x_eth.c ****  * @return  none
1943:../Peripheral/src/ch32v30x_eth.c ****  */
1944:../Peripheral/src/ch32v30x_eth.c **** void ETH_MMCCountersReset(void)
1945:../Peripheral/src/ch32v30x_eth.c **** {
 3018              		.loc 1 1945 1 is_stmt 1
 3019              		.cfi_startproc
1946:../Peripheral/src/ch32v30x_eth.c ****     ETH->MMCCR |= ETH_MMCCR_CR;
 3020              		.loc 1 1946 5
 3021              		.loc 1 1946 8 is_stmt 0
 3022 0000 37870240 		li	a4,1073905664
 3023 0004 83270710 		lw	a5,256(a4)
 3024              		.loc 1 1946 16
 3025 0008 93E71700 		ori	a5,a5,1
 3026 000c 2320F710 		sw	a5,256(a4)
1947:../Peripheral/src/ch32v30x_eth.c **** }
 3027              		.loc 1 1947 1
 3028 0010 8280     		ret
 3029              		.cfi_endproc
 3030              	.LFE108:
 3032              		.section	.text.ETH_MMCITConfig,"ax",@progbits
 3033              		.align	1
 3034              		.globl	ETH_MMCITConfig
 3036              	ETH_MMCITConfig:
 3037              	.LFB109:
1948:../Peripheral/src/ch32v30x_eth.c **** 
1949:../Peripheral/src/ch32v30x_eth.c **** /*********************************************************************
1950:../Peripheral/src/ch32v30x_eth.c ****  * @fn      ETH_MMCITConfig
1951:../Peripheral/src/ch32v30x_eth.c ****  *
1952:../Peripheral/src/ch32v30x_eth.c ****  * @brief   Enables or disables the specified ETHERNET MMC interrupts.
1953:../Peripheral/src/ch32v30x_eth.c ****  *
1954:../Peripheral/src/ch32v30x_eth.c ****  * @param   ETH_MMC_IT - specifies the ETHERNET MMC interrupt.
1955:../Peripheral/src/ch32v30x_eth.c ****  *            ETH_MMC_IT_TGF - When Tx good frame counter reaches half the maximum value.
1956:../Peripheral/src/ch32v30x_eth.c ****  *            ETH_MMC_IT_TGFMSC - When Tx good multi col counter reaches half the maximum value.
1957:../Peripheral/src/ch32v30x_eth.c ****  *            ETH_MMC_IT_TGFSC - When Tx good single col counter reaches half the maximum value.
1958:../Peripheral/src/ch32v30x_eth.c ****  *            ETH_MMC_IT_RGUF - When Rx good unicast frames counter reaches half the maximum value.
1959:../Peripheral/src/ch32v30x_eth.c ****  *            ETH_MMC_IT_RFAE - When Rx alignment error counter reaches half the maximum value.
1960:../Peripheral/src/ch32v30x_eth.c ****  *            ETH_MMC_IT_RFCE - When Rx crc error counter reaches half the maximum value.
1961:../Peripheral/src/ch32v30x_eth.c ****  *          NewState - new state of the specified ETHERNET MMC interrupts.
1962:../Peripheral/src/ch32v30x_eth.c ****  *
1963:../Peripheral/src/ch32v30x_eth.c ****  * @return  none
1964:../Peripheral/src/ch32v30x_eth.c ****  */
1965:../Peripheral/src/ch32v30x_eth.c **** void ETH_MMCITConfig(uint32_t ETH_MMC_IT, FunctionalState NewState)
1966:../Peripheral/src/ch32v30x_eth.c **** {
 3038              		.loc 1 1966 1 is_stmt 1
 3039              		.cfi_startproc
 3040              	.LVL176:
1967:../Peripheral/src/ch32v30x_eth.c ****     if((ETH_MMC_IT & (uint32_t)0x10000000) != (uint32_t)RESET)
 3041              		.loc 1 1967 5
 3042              		.loc 1 1967 20 is_stmt 0
 3043 0000 B7070010 		li	a5,268435456
 3044 0004 E98F     		and	a5,a0,a5
 3045              		.loc 1 1967 7
 3046 0006 85CB     		beq	a5,zero,.L236
1968:../Peripheral/src/ch32v30x_eth.c ****     {
1969:../Peripheral/src/ch32v30x_eth.c ****         ETH_MMC_IT &= 0xEFFFFFFF;
 3047              		.loc 1 1969 9 is_stmt 1
 3048              		.loc 1 1969 20 is_stmt 0
 3049 0008 B70700F0 		li	a5,-268435456
 3050 000c FD17     		addi	a5,a5,-1
 3051 000e 7D8D     		and	a0,a0,a5
 3052              	.LVL177:
1970:../Peripheral/src/ch32v30x_eth.c **** 
1971:../Peripheral/src/ch32v30x_eth.c ****         if(NewState != DISABLE)
 3053              		.loc 1 1971 9 is_stmt 1
 3054              		.loc 1 1971 11 is_stmt 0
 3055 0010 99C9     		beq	a1,zero,.L237
1972:../Peripheral/src/ch32v30x_eth.c ****         {
1973:../Peripheral/src/ch32v30x_eth.c ****             ETH->MMCRIMR &= (~(uint32_t)ETH_MMC_IT);
 3056              		.loc 1 1973 13 is_stmt 1
 3057              		.loc 1 1973 16 is_stmt 0
 3058 0012 B7870240 		li	a5,1073905664
 3059 0016 03A7C710 		lw	a4,268(a5)
 3060              		.loc 1 1973 30
 3061 001a 1345F5FF 		not	a0,a0
 3062              	.LVL178:
 3063              		.loc 1 1973 26
 3064 001e 798D     		and	a0,a0,a4
 3065              	.LVL179:
 3066 0020 23A6A710 		sw	a0,268(a5)
 3067 0024 8280     		ret
 3068              	.LVL180:
 3069              	.L237:
1974:../Peripheral/src/ch32v30x_eth.c ****         }
1975:../Peripheral/src/ch32v30x_eth.c ****         else
1976:../Peripheral/src/ch32v30x_eth.c ****         {
1977:../Peripheral/src/ch32v30x_eth.c ****             ETH->MMCRIMR |= ETH_MMC_IT;
 3070              		.loc 1 1977 13 is_stmt 1
 3071              		.loc 1 1977 16 is_stmt 0
 3072 0026 37870240 		li	a4,1073905664
 3073 002a 8327C710 		lw	a5,268(a4)
 3074              		.loc 1 1977 26
 3075 002e C98F     		or	a5,a5,a0
 3076 0030 2326F710 		sw	a5,268(a4)
 3077 0034 8280     		ret
 3078              	.L236:
1978:../Peripheral/src/ch32v30x_eth.c ****         }
1979:../Peripheral/src/ch32v30x_eth.c ****     }
1980:../Peripheral/src/ch32v30x_eth.c ****     else
1981:../Peripheral/src/ch32v30x_eth.c ****     {
1982:../Peripheral/src/ch32v30x_eth.c ****         if(NewState != DISABLE)
 3079              		.loc 1 1982 9 is_stmt 1
 3080              		.loc 1 1982 11 is_stmt 0
 3081 0036 99C9     		beq	a1,zero,.L239
1983:../Peripheral/src/ch32v30x_eth.c ****         {
1984:../Peripheral/src/ch32v30x_eth.c ****             ETH->MMCTIMR &= (~(uint32_t)ETH_MMC_IT);
 3082              		.loc 1 1984 13 is_stmt 1
 3083              		.loc 1 1984 16 is_stmt 0
 3084 0038 B7870240 		li	a5,1073905664
 3085 003c 03A70711 		lw	a4,272(a5)
 3086              		.loc 1 1984 30
 3087 0040 1345F5FF 		not	a0,a0
 3088              	.LVL181:
 3089              		.loc 1 1984 26
 3090 0044 798D     		and	a0,a0,a4
 3091              	.LVL182:
 3092 0046 23A8A710 		sw	a0,272(a5)
 3093 004a 8280     		ret
 3094              	.LVL183:
 3095              	.L239:
1985:../Peripheral/src/ch32v30x_eth.c ****         }
1986:../Peripheral/src/ch32v30x_eth.c ****         else
1987:../Peripheral/src/ch32v30x_eth.c ****         {
1988:../Peripheral/src/ch32v30x_eth.c ****             ETH->MMCTIMR |= ETH_MMC_IT;
 3096              		.loc 1 1988 13 is_stmt 1
 3097              		.loc 1 1988 16 is_stmt 0
 3098 004c 37870240 		li	a4,1073905664
 3099 0050 83270711 		lw	a5,272(a4)
 3100              		.loc 1 1988 26
 3101 0054 C98F     		or	a5,a5,a0
 3102 0056 2328F710 		sw	a5,272(a4)
1989:../Peripheral/src/ch32v30x_eth.c ****         }
1990:../Peripheral/src/ch32v30x_eth.c ****     }
1991:../Peripheral/src/ch32v30x_eth.c **** }
 3103              		.loc 1 1991 1
 3104 005a 8280     		ret
 3105              		.cfi_endproc
 3106              	.LFE109:
 3108              		.section	.text.ETH_GetMMCITStatus,"ax",@progbits
 3109              		.align	1
 3110              		.globl	ETH_GetMMCITStatus
 3112              	ETH_GetMMCITStatus:
 3113              	.LFB110:
1992:../Peripheral/src/ch32v30x_eth.c **** 
1993:../Peripheral/src/ch32v30x_eth.c **** /*********************************************************************
1994:../Peripheral/src/ch32v30x_eth.c ****  * @fn      ETH_GetMMCITStatus
1995:../Peripheral/src/ch32v30x_eth.c ****  *
1996:../Peripheral/src/ch32v30x_eth.c ****  * @brief   Checks whether the specified ETHERNET MMC IT is set or not.
1997:../Peripheral/src/ch32v30x_eth.c ****  *
1998:../Peripheral/src/ch32v30x_eth.c ****  * @param   ETH_MMC_IT - specifies the ETHERNET MMC interrupt.
1999:../Peripheral/src/ch32v30x_eth.c ****  *            ETH_MMC_IT_TxFCGC - When Tx good frame counter reaches half the maximum value.
2000:../Peripheral/src/ch32v30x_eth.c ****  *            ETH_MMC_IT_TxMCGC - When Tx good multi col counter reaches half the maximum value.
2001:../Peripheral/src/ch32v30x_eth.c ****  *            ETH_MMC_IT_TxSCGC - When Tx good single col counter reaches half the maximum value .
2002:../Peripheral/src/ch32v30x_eth.c ****  *            ETH_MMC_IT_RxUGFC - When Rx good unicast frames counter reaches half the maximum valu
2003:../Peripheral/src/ch32v30x_eth.c ****  *            ETH_MMC_IT_RxAEC - When Rx alignment error counter reaches half the maximum value.
2004:../Peripheral/src/ch32v30x_eth.c ****  *            ETH_MMC_IT_RxCEC - When Rx crc error counter reaches half the maximum value.
2005:../Peripheral/src/ch32v30x_eth.c ****  *
2006:../Peripheral/src/ch32v30x_eth.c ****  * @return  The value of ETHERNET MMC IT (SET or RESET).
2007:../Peripheral/src/ch32v30x_eth.c ****  */
2008:../Peripheral/src/ch32v30x_eth.c **** ITStatus ETH_GetMMCITStatus(uint32_t ETH_MMC_IT)
2009:../Peripheral/src/ch32v30x_eth.c **** {
 3114              		.loc 1 2009 1 is_stmt 1
 3115              		.cfi_startproc
 3116              	.LVL184:
2010:../Peripheral/src/ch32v30x_eth.c ****     ITStatus bitstatus = RESET;
 3117              		.loc 1 2010 5
2011:../Peripheral/src/ch32v30x_eth.c **** 
2012:../Peripheral/src/ch32v30x_eth.c ****     if((ETH_MMC_IT & (uint32_t)0x10000000) != (uint32_t)RESET)
 3118              		.loc 1 2012 5
 3119              		.loc 1 2012 20 is_stmt 0
 3120 0000 B7070010 		li	a5,268435456
 3121 0004 E98F     		and	a5,a0,a5
2009:../Peripheral/src/ch32v30x_eth.c ****     ITStatus bitstatus = RESET;
 3122              		.loc 1 2009 1
 3123 0006 2A87     		mv	a4,a0
2013:../Peripheral/src/ch32v30x_eth.c ****     {
2014:../Peripheral/src/ch32v30x_eth.c ****         if((((ETH->MMCRIR & ETH_MMC_IT) != (uint32_t)RESET)) && ((ETH->MMCRIMR & ETH_MMC_IT) != (ui
 3124              		.loc 1 2014 18
 3125 0008 B7860240 		li	a3,1073905664
2012:../Peripheral/src/ch32v30x_eth.c ****     {
 3126              		.loc 1 2012 7
 3127 000c 89CF     		beq	a5,zero,.L241
 3128              		.loc 1 2014 9 is_stmt 1
 3129              		.loc 1 2014 18 is_stmt 0
 3130 000e 83A74610 		lw	a5,260(a3)
 3131              	.L251:
2015:../Peripheral/src/ch32v30x_eth.c ****         {
2016:../Peripheral/src/ch32v30x_eth.c ****             bitstatus = SET;
2017:../Peripheral/src/ch32v30x_eth.c ****         }
2018:../Peripheral/src/ch32v30x_eth.c ****         else
2019:../Peripheral/src/ch32v30x_eth.c ****         {
2020:../Peripheral/src/ch32v30x_eth.c ****             bitstatus = RESET;
2021:../Peripheral/src/ch32v30x_eth.c ****         }
2022:../Peripheral/src/ch32v30x_eth.c ****     }
2023:../Peripheral/src/ch32v30x_eth.c ****     else
2024:../Peripheral/src/ch32v30x_eth.c ****     {
2025:../Peripheral/src/ch32v30x_eth.c ****         if((((ETH->MMCTIR & ETH_MMC_IT) != (uint32_t)RESET)) && ((ETH->MMCRIMR & ETH_MMC_IT) != (ui
 3132              		.loc 1 2025 27
 3133 0012 33F5E700 		and	a0,a5,a4
 3134              	.LVL185:
 3135              		.loc 1 2025 11
 3136 0016 19C5     		beq	a0,zero,.L240
 3137              		.loc 1 2025 70 discriminator 1
 3138 0018 83A7C610 		lw	a5,268(a3)
 3139              		.loc 1 2025 80 discriminator 1
 3140 001c 33F5E700 		and	a0,a5,a4
 3141              		.loc 1 2025 62 discriminator 1
 3142 0020 3335A000 		snez	a0,a0
 3143              	.LVL186:
2026:../Peripheral/src/ch32v30x_eth.c ****         {
2027:../Peripheral/src/ch32v30x_eth.c ****             bitstatus = SET;
2028:../Peripheral/src/ch32v30x_eth.c ****         }
2029:../Peripheral/src/ch32v30x_eth.c ****         else
2030:../Peripheral/src/ch32v30x_eth.c ****         {
2031:../Peripheral/src/ch32v30x_eth.c ****             bitstatus = RESET;
2032:../Peripheral/src/ch32v30x_eth.c ****         }
2033:../Peripheral/src/ch32v30x_eth.c ****     }
2034:../Peripheral/src/ch32v30x_eth.c **** 
2035:../Peripheral/src/ch32v30x_eth.c ****     return bitstatus;
 3144              		.loc 1 2035 5 is_stmt 1 discriminator 1
 3145              	.L240:
2036:../Peripheral/src/ch32v30x_eth.c **** }
 3146              		.loc 1 2036 1 is_stmt 0
 3147 0024 8280     		ret
 3148              	.LVL187:
 3149              	.L241:
2025:../Peripheral/src/ch32v30x_eth.c ****         {
 3150              		.loc 1 2025 9 is_stmt 1
2025:../Peripheral/src/ch32v30x_eth.c ****         {
 3151              		.loc 1 2025 18 is_stmt 0
 3152 0026 83A78610 		lw	a5,264(a3)
 3153 002a E5B7     		j	.L251
 3154              		.cfi_endproc
 3155              	.LFE110:
 3157              		.section	.text.ETH_GetMMCRegister,"ax",@progbits
 3158              		.align	1
 3159              		.globl	ETH_GetMMCRegister
 3161              	ETH_GetMMCRegister:
 3162              	.LFB111:
2037:../Peripheral/src/ch32v30x_eth.c **** 
2038:../Peripheral/src/ch32v30x_eth.c **** /*********************************************************************
2039:../Peripheral/src/ch32v30x_eth.c ****  * @fn      ETH_GetMMCRegister
2040:../Peripheral/src/ch32v30x_eth.c ****  *
2041:../Peripheral/src/ch32v30x_eth.c ****  * @brief   Get the specified ETHERNET MMC register value.
2042:../Peripheral/src/ch32v30x_eth.c ****  *
2043:../Peripheral/src/ch32v30x_eth.c ****  * @param   ETH_MMCReg - specifies the ETHERNET MMC register.
2044:../Peripheral/src/ch32v30x_eth.c ****  *            ETH_MMCCR - MMC CR register
2045:../Peripheral/src/ch32v30x_eth.c ****  *            ETH_MMCRIR - MMC RIR register
2046:../Peripheral/src/ch32v30x_eth.c ****  *            ETH_MMCTIR - MMC TIR register
2047:../Peripheral/src/ch32v30x_eth.c ****  *            ETH_MMCRIMR - MMC RIMR register
2048:../Peripheral/src/ch32v30x_eth.c ****  *            ETH_MMCTIMR - MMC TIMR register
2049:../Peripheral/src/ch32v30x_eth.c ****  *            ETH_MMCTGFSCCR - MMC TGFSCCR register
2050:../Peripheral/src/ch32v30x_eth.c ****  *            ETH_MMCTGFMSCCR - MMC TGFMSCCR register
2051:../Peripheral/src/ch32v30x_eth.c ****  *            ETH_MMCTGFCR - MMC TGFCR register
2052:../Peripheral/src/ch32v30x_eth.c ****  *            ETH_MMCRFCECR - MMC RFCECR register
2053:../Peripheral/src/ch32v30x_eth.c ****  *            ETH_MMCRFAECR - MMC RFAECR register
2054:../Peripheral/src/ch32v30x_eth.c ****  *            ETH_MMCRGUFCR - MMC RGUFCRregister
2055:../Peripheral/src/ch32v30x_eth.c ****  *
2056:../Peripheral/src/ch32v30x_eth.c ****  * @return  The value of ETHERNET MMC Register value.
2057:../Peripheral/src/ch32v30x_eth.c ****  */
2058:../Peripheral/src/ch32v30x_eth.c **** uint32_t ETH_GetMMCRegister(uint32_t ETH_MMCReg)
2059:../Peripheral/src/ch32v30x_eth.c **** {
 3163              		.loc 1 2059 1 is_stmt 1
 3164              		.cfi_startproc
 3165              	.LVL188:
2060:../Peripheral/src/ch32v30x_eth.c ****     return (*(__IO uint32_t *)(ETH_MAC_BASE + ETH_MMCReg));
 3166              		.loc 1 2060 5
 3167              		.loc 1 2060 45 is_stmt 0
 3168 0000 B7870240 		li	a5,1073905664
 3169 0004 3E95     		add	a0,a0,a5
 3170              	.LVL189:
 3171              		.loc 1 2060 13
 3172 0006 0841     		lw	a0,0(a0)
 3173              	.LVL190:
2061:../Peripheral/src/ch32v30x_eth.c **** }
 3174              		.loc 1 2061 1
 3175 0008 8280     		ret
 3176              		.cfi_endproc
 3177              	.LFE111:
 3179              		.section	.text.ETH_EnablePTPTimeStampAddend,"ax",@progbits
 3180              		.align	1
 3181              		.globl	ETH_EnablePTPTimeStampAddend
 3183              	ETH_EnablePTPTimeStampAddend:
 3184              	.LFB112:
2062:../Peripheral/src/ch32v30x_eth.c **** 
2063:../Peripheral/src/ch32v30x_eth.c **** /*********************************************************************
2064:../Peripheral/src/ch32v30x_eth.c ****  * @fn      ETH_EnablePTPTimeStampAddend
2065:../Peripheral/src/ch32v30x_eth.c ****  *
2066:../Peripheral/src/ch32v30x_eth.c ****  * @brief   Updated the PTP block for fine correction with the Time Stamp Addend register value.
2067:../Peripheral/src/ch32v30x_eth.c ****  *
2068:../Peripheral/src/ch32v30x_eth.c ****  * @return  none
2069:../Peripheral/src/ch32v30x_eth.c ****  */
2070:../Peripheral/src/ch32v30x_eth.c **** void ETH_EnablePTPTimeStampAddend(void)
2071:../Peripheral/src/ch32v30x_eth.c **** {
 3185              		.loc 1 2071 1 is_stmt 1
 3186              		.cfi_startproc
2072:../Peripheral/src/ch32v30x_eth.c ****     ETH->PTPTSCR |= ETH_PTPTSCR_TSARU;
 3187              		.loc 1 2072 5
 3188              		.loc 1 2072 8 is_stmt 0
 3189 0000 37870240 		li	a4,1073905664
 3190 0004 83270770 		lw	a5,1792(a4)
 3191              		.loc 1 2072 18
 3192 0008 93E70702 		ori	a5,a5,32
 3193 000c 2320F770 		sw	a5,1792(a4)
2073:../Peripheral/src/ch32v30x_eth.c **** }
 3194              		.loc 1 2073 1
 3195 0010 8280     		ret
 3196              		.cfi_endproc
 3197              	.LFE112:
 3199              		.section	.text.ETH_EnablePTPTimeStampInterruptTrigger,"ax",@progbits
 3200              		.align	1
 3201              		.globl	ETH_EnablePTPTimeStampInterruptTrigger
 3203              	ETH_EnablePTPTimeStampInterruptTrigger:
 3204              	.LFB113:
2074:../Peripheral/src/ch32v30x_eth.c **** 
2075:../Peripheral/src/ch32v30x_eth.c **** /*********************************************************************
2076:../Peripheral/src/ch32v30x_eth.c ****  * @fn      ETH_EnablePTPTimeStampInterruptTrigger
2077:../Peripheral/src/ch32v30x_eth.c ****  *
2078:../Peripheral/src/ch32v30x_eth.c ****  * @brief   Enable the PTP Time Stamp interrupt trigger
2079:../Peripheral/src/ch32v30x_eth.c ****  *
2080:../Peripheral/src/ch32v30x_eth.c ****  * @return  none
2081:../Peripheral/src/ch32v30x_eth.c ****  */
2082:../Peripheral/src/ch32v30x_eth.c **** void ETH_EnablePTPTimeStampInterruptTrigger(void)
2083:../Peripheral/src/ch32v30x_eth.c **** {
 3205              		.loc 1 2083 1 is_stmt 1
 3206              		.cfi_startproc
2084:../Peripheral/src/ch32v30x_eth.c ****     ETH->PTPTSCR |= ETH_PTPTSCR_TSITE;
 3207              		.loc 1 2084 5
 3208              		.loc 1 2084 8 is_stmt 0
 3209 0000 37870240 		li	a4,1073905664
 3210 0004 83270770 		lw	a5,1792(a4)
 3211              		.loc 1 2084 18
 3212 0008 93E70701 		ori	a5,a5,16
 3213 000c 2320F770 		sw	a5,1792(a4)
2085:../Peripheral/src/ch32v30x_eth.c **** }
 3214              		.loc 1 2085 1
 3215 0010 8280     		ret
 3216              		.cfi_endproc
 3217              	.LFE113:
 3219              		.section	.text.ETH_EnablePTPTimeStampUpdate,"ax",@progbits
 3220              		.align	1
 3221              		.globl	ETH_EnablePTPTimeStampUpdate
 3223              	ETH_EnablePTPTimeStampUpdate:
 3224              	.LFB114:
2086:../Peripheral/src/ch32v30x_eth.c **** 
2087:../Peripheral/src/ch32v30x_eth.c **** /*********************************************************************
2088:../Peripheral/src/ch32v30x_eth.c ****  * @fn      ETH_EnablePTPTimeStampUpdate
2089:../Peripheral/src/ch32v30x_eth.c ****  *
2090:../Peripheral/src/ch32v30x_eth.c ****  * @brief   Updated the PTP system time with the Time Stamp Update register value.
2091:../Peripheral/src/ch32v30x_eth.c ****  *
2092:../Peripheral/src/ch32v30x_eth.c ****  * @return  none
2093:../Peripheral/src/ch32v30x_eth.c ****  */
2094:../Peripheral/src/ch32v30x_eth.c **** void ETH_EnablePTPTimeStampUpdate(void)
2095:../Peripheral/src/ch32v30x_eth.c **** {
 3225              		.loc 1 2095 1 is_stmt 1
 3226              		.cfi_startproc
2096:../Peripheral/src/ch32v30x_eth.c ****     ETH->PTPTSCR |= ETH_PTPTSCR_TSSTU;
 3227              		.loc 1 2096 5
 3228              		.loc 1 2096 8 is_stmt 0
 3229 0000 37870240 		li	a4,1073905664
 3230 0004 83270770 		lw	a5,1792(a4)
 3231              		.loc 1 2096 18
 3232 0008 93E78700 		ori	a5,a5,8
 3233 000c 2320F770 		sw	a5,1792(a4)
2097:../Peripheral/src/ch32v30x_eth.c **** }
 3234              		.loc 1 2097 1
 3235 0010 8280     		ret
 3236              		.cfi_endproc
 3237              	.LFE114:
 3239              		.section	.text.ETH_InitializePTPTimeStamp,"ax",@progbits
 3240              		.align	1
 3241              		.globl	ETH_InitializePTPTimeStamp
 3243              	ETH_InitializePTPTimeStamp:
 3244              	.LFB115:
2098:../Peripheral/src/ch32v30x_eth.c **** 
2099:../Peripheral/src/ch32v30x_eth.c **** /*********************************************************************
2100:../Peripheral/src/ch32v30x_eth.c ****  * @fn      ETH_InitializePTPTimeStamp
2101:../Peripheral/src/ch32v30x_eth.c ****  *
2102:../Peripheral/src/ch32v30x_eth.c ****  * @brief   Initialize the PTP Time Stamp.
2103:../Peripheral/src/ch32v30x_eth.c ****  *
2104:../Peripheral/src/ch32v30x_eth.c ****  * @return  none
2105:../Peripheral/src/ch32v30x_eth.c ****  */
2106:../Peripheral/src/ch32v30x_eth.c **** void ETH_InitializePTPTimeStamp(void)
2107:../Peripheral/src/ch32v30x_eth.c **** {
 3245              		.loc 1 2107 1 is_stmt 1
 3246              		.cfi_startproc
2108:../Peripheral/src/ch32v30x_eth.c ****     ETH->PTPTSCR |= ETH_PTPTSCR_TSSTI;
 3247              		.loc 1 2108 5
 3248              		.loc 1 2108 8 is_stmt 0
 3249 0000 37870240 		li	a4,1073905664
 3250 0004 83270770 		lw	a5,1792(a4)
 3251              		.loc 1 2108 18
 3252 0008 93E74700 		ori	a5,a5,4
 3253 000c 2320F770 		sw	a5,1792(a4)
2109:../Peripheral/src/ch32v30x_eth.c **** }
 3254              		.loc 1 2109 1
 3255 0010 8280     		ret
 3256              		.cfi_endproc
 3257              	.LFE115:
 3259              		.section	.text.ETH_PTPUpdateMethodConfig,"ax",@progbits
 3260              		.align	1
 3261              		.globl	ETH_PTPUpdateMethodConfig
 3263              	ETH_PTPUpdateMethodConfig:
 3264              	.LFB116:
2110:../Peripheral/src/ch32v30x_eth.c **** 
2111:../Peripheral/src/ch32v30x_eth.c **** /*********************************************************************
2112:../Peripheral/src/ch32v30x_eth.c ****  * @fn      ETH_PTPUpdateMethodConfig
2113:../Peripheral/src/ch32v30x_eth.c ****  *
2114:../Peripheral/src/ch32v30x_eth.c ****  * @brief   Selects the PTP Update method.
2115:../Peripheral/src/ch32v30x_eth.c ****  *
2116:../Peripheral/src/ch32v30x_eth.c ****  * @param   UpdateMethod - the PTP Update method.
2117:../Peripheral/src/ch32v30x_eth.c ****  *
2118:../Peripheral/src/ch32v30x_eth.c ****  * @return  none
2119:../Peripheral/src/ch32v30x_eth.c ****  */
2120:../Peripheral/src/ch32v30x_eth.c **** void ETH_PTPUpdateMethodConfig(uint32_t UpdateMethod)
2121:../Peripheral/src/ch32v30x_eth.c **** {
 3265              		.loc 1 2121 1 is_stmt 1
 3266              		.cfi_startproc
 3267              	.LVL191:
2122:../Peripheral/src/ch32v30x_eth.c ****     if(UpdateMethod != ETH_PTP_CoarseUpdate)
 3268              		.loc 1 2122 5
2123:../Peripheral/src/ch32v30x_eth.c ****     {
2124:../Peripheral/src/ch32v30x_eth.c ****         ETH->PTPTSCR |= ETH_PTPTSCR_TSFCU;
 3269              		.loc 1 2124 12 is_stmt 0
 3270 0000 37870240 		li	a4,1073905664
 3271 0004 83270770 		lw	a5,1792(a4)
2122:../Peripheral/src/ch32v30x_eth.c ****     if(UpdateMethod != ETH_PTP_CoarseUpdate)
 3272              		.loc 1 2122 7
 3273 0008 11C5     		beq	a0,zero,.L258
 3274              		.loc 1 2124 9 is_stmt 1
 3275              		.loc 1 2124 22 is_stmt 0
 3276 000a 93E72700 		ori	a5,a5,2
 3277              	.L260:
2125:../Peripheral/src/ch32v30x_eth.c ****     }
2126:../Peripheral/src/ch32v30x_eth.c ****     else
2127:../Peripheral/src/ch32v30x_eth.c ****     {
2128:../Peripheral/src/ch32v30x_eth.c ****         ETH->PTPTSCR &= (~(uint32_t)ETH_PTPTSCR_TSFCU);
 3278              		.loc 1 2128 22
 3279 000e 2320F770 		sw	a5,1792(a4)
2129:../Peripheral/src/ch32v30x_eth.c ****     }
2130:../Peripheral/src/ch32v30x_eth.c **** }
 3280              		.loc 1 2130 1
 3281 0012 8280     		ret
 3282              	.L258:
2128:../Peripheral/src/ch32v30x_eth.c ****     }
 3283              		.loc 1 2128 9 is_stmt 1
2128:../Peripheral/src/ch32v30x_eth.c ****     }
 3284              		.loc 1 2128 22 is_stmt 0
 3285 0014 F59B     		andi	a5,a5,-3
 3286 0016 E5BF     		j	.L260
 3287              		.cfi_endproc
 3288              	.LFE116:
 3290              		.section	.text.ETH_PTPTimeStampCmd,"ax",@progbits
 3291              		.align	1
 3292              		.globl	ETH_PTPTimeStampCmd
 3294              	ETH_PTPTimeStampCmd:
 3295              	.LFB117:
2131:../Peripheral/src/ch32v30x_eth.c **** 
2132:../Peripheral/src/ch32v30x_eth.c **** /*********************************************************************
2133:../Peripheral/src/ch32v30x_eth.c ****  * @fn      ETH_PTPTimeStampCmd
2134:../Peripheral/src/ch32v30x_eth.c ****  *
2135:../Peripheral/src/ch32v30x_eth.c ****  * @brief   Enables or disables the PTP time stamp for transmit and receive frames.
2136:../Peripheral/src/ch32v30x_eth.c ****  *
2137:../Peripheral/src/ch32v30x_eth.c ****  * @param   NewState - new state of the PTP time stamp for transmit and receive frames.
2138:../Peripheral/src/ch32v30x_eth.c ****  *
2139:../Peripheral/src/ch32v30x_eth.c ****  * @return  none
2140:../Peripheral/src/ch32v30x_eth.c ****  */
2141:../Peripheral/src/ch32v30x_eth.c **** void ETH_PTPTimeStampCmd(FunctionalState NewState)
2142:../Peripheral/src/ch32v30x_eth.c **** {
 3296              		.loc 1 2142 1 is_stmt 1
 3297              		.cfi_startproc
 3298              	.LVL192:
2143:../Peripheral/src/ch32v30x_eth.c ****     if(NewState != DISABLE)
 3299              		.loc 1 2143 5
2144:../Peripheral/src/ch32v30x_eth.c ****     {
2145:../Peripheral/src/ch32v30x_eth.c ****         ETH->PTPTSCR |= ETH_PTPTSCR_TSE;
 3300              		.loc 1 2145 12 is_stmt 0
 3301 0000 37870240 		li	a4,1073905664
 3302 0004 83270770 		lw	a5,1792(a4)
2143:../Peripheral/src/ch32v30x_eth.c ****     if(NewState != DISABLE)
 3303              		.loc 1 2143 7
 3304 0008 11C5     		beq	a0,zero,.L262
 3305              		.loc 1 2145 9 is_stmt 1
 3306              		.loc 1 2145 22 is_stmt 0
 3307 000a 93E71700 		ori	a5,a5,1
 3308              	.L264:
2146:../Peripheral/src/ch32v30x_eth.c ****     }
2147:../Peripheral/src/ch32v30x_eth.c ****     else
2148:../Peripheral/src/ch32v30x_eth.c ****     {
2149:../Peripheral/src/ch32v30x_eth.c ****         ETH->PTPTSCR &= (~(uint32_t)ETH_PTPTSCR_TSE);
 3309              		.loc 1 2149 22
 3310 000e 2320F770 		sw	a5,1792(a4)
2150:../Peripheral/src/ch32v30x_eth.c ****     }
2151:../Peripheral/src/ch32v30x_eth.c **** }
 3311              		.loc 1 2151 1
 3312 0012 8280     		ret
 3313              	.L262:
2149:../Peripheral/src/ch32v30x_eth.c ****     }
 3314              		.loc 1 2149 9 is_stmt 1
2149:../Peripheral/src/ch32v30x_eth.c ****     }
 3315              		.loc 1 2149 22 is_stmt 0
 3316 0014 F99B     		andi	a5,a5,-2
 3317 0016 E5BF     		j	.L264
 3318              		.cfi_endproc
 3319              	.LFE117:
 3321              		.section	.text.ETH_GetPTPFlagStatus,"ax",@progbits
 3322              		.align	1
 3323              		.globl	ETH_GetPTPFlagStatus
 3325              	ETH_GetPTPFlagStatus:
 3326              	.LFB118:
2152:../Peripheral/src/ch32v30x_eth.c **** 
2153:../Peripheral/src/ch32v30x_eth.c **** /*********************************************************************
2154:../Peripheral/src/ch32v30x_eth.c ****  * @fn      ETH_GetPTPFlagStatus
2155:../Peripheral/src/ch32v30x_eth.c ****  *
2156:../Peripheral/src/ch32v30x_eth.c ****  * @brief   Checks whether the specified ETHERNET PTP flag is set or not.
2157:../Peripheral/src/ch32v30x_eth.c ****  *
2158:../Peripheral/src/ch32v30x_eth.c ****  * @param   The new state of ETHERNET PTP Flag (SET or RESET).
2159:../Peripheral/src/ch32v30x_eth.c ****  *
2160:../Peripheral/src/ch32v30x_eth.c ****  * @return  none
2161:../Peripheral/src/ch32v30x_eth.c ****  */
2162:../Peripheral/src/ch32v30x_eth.c **** FlagStatus ETH_GetPTPFlagStatus(uint32_t ETH_PTP_FLAG)
2163:../Peripheral/src/ch32v30x_eth.c **** {
 3327              		.loc 1 2163 1 is_stmt 1
 3328              		.cfi_startproc
 3329              	.LVL193:
2164:../Peripheral/src/ch32v30x_eth.c ****     FlagStatus bitstatus = RESET;
 3330              		.loc 1 2164 5
2165:../Peripheral/src/ch32v30x_eth.c **** 
2166:../Peripheral/src/ch32v30x_eth.c ****     if((ETH->PTPTSCR & ETH_PTP_FLAG) != (uint32_t)RESET)
 3331              		.loc 1 2166 5
 3332              		.loc 1 2166 12 is_stmt 0
 3333 0000 B7870240 		li	a5,1073905664
 3334 0004 83A70770 		lw	a5,1792(a5)
 3335              	.LVL194:
2167:../Peripheral/src/ch32v30x_eth.c ****     {
2168:../Peripheral/src/ch32v30x_eth.c ****         bitstatus = SET;
2169:../Peripheral/src/ch32v30x_eth.c ****     }
2170:../Peripheral/src/ch32v30x_eth.c ****     else
2171:../Peripheral/src/ch32v30x_eth.c ****     {
2172:../Peripheral/src/ch32v30x_eth.c ****         bitstatus = RESET;
2173:../Peripheral/src/ch32v30x_eth.c ****     }
2174:../Peripheral/src/ch32v30x_eth.c ****     return bitstatus;
 3336              		.loc 1 2174 5 is_stmt 1
2166:../Peripheral/src/ch32v30x_eth.c ****     {
 3337              		.loc 1 2166 22 is_stmt 0
 3338 0008 7D8D     		and	a0,a5,a0
 3339              	.LVL195:
2175:../Peripheral/src/ch32v30x_eth.c **** }
 3340              		.loc 1 2175 1
 3341 000a 3335A000 		snez	a0,a0
 3342 000e 8280     		ret
 3343              		.cfi_endproc
 3344              	.LFE118:
 3346              		.section	.text.ETH_SetPTPSubSecondIncrement,"ax",@progbits
 3347              		.align	1
 3348              		.globl	ETH_SetPTPSubSecondIncrement
 3350              	ETH_SetPTPSubSecondIncrement:
 3351              	.LFB119:
2176:../Peripheral/src/ch32v30x_eth.c **** 
2177:../Peripheral/src/ch32v30x_eth.c **** /*********************************************************************
2178:../Peripheral/src/ch32v30x_eth.c ****  * @fn      ETH_SetPTPSubSecondIncrement
2179:../Peripheral/src/ch32v30x_eth.c ****  *
2180:../Peripheral/src/ch32v30x_eth.c ****  * @brief   Sets the system time Sub-Second Increment value.
2181:../Peripheral/src/ch32v30x_eth.c ****  *
2182:../Peripheral/src/ch32v30x_eth.c ****  * @param   SubSecondValue - specifies the PTP Sub-Second Increment Register value.
2183:../Peripheral/src/ch32v30x_eth.c ****  *
2184:../Peripheral/src/ch32v30x_eth.c ****  * @return  none
2185:../Peripheral/src/ch32v30x_eth.c ****  */
2186:../Peripheral/src/ch32v30x_eth.c **** void ETH_SetPTPSubSecondIncrement(uint32_t SubSecondValue)
2187:../Peripheral/src/ch32v30x_eth.c **** {
 3352              		.loc 1 2187 1 is_stmt 1
 3353              		.cfi_startproc
 3354              	.LVL196:
2188:../Peripheral/src/ch32v30x_eth.c ****     ETH->PTPSSIR = SubSecondValue;
 3355              		.loc 1 2188 5
 3356              		.loc 1 2188 18 is_stmt 0
 3357 0000 B7870240 		li	a5,1073905664
 3358 0004 23A2A770 		sw	a0,1796(a5)
2189:../Peripheral/src/ch32v30x_eth.c **** }
 3359              		.loc 1 2189 1
 3360 0008 8280     		ret
 3361              		.cfi_endproc
 3362              	.LFE119:
 3364              		.section	.text.ETH_SetPTPTimeStampUpdate,"ax",@progbits
 3365              		.align	1
 3366              		.globl	ETH_SetPTPTimeStampUpdate
 3368              	ETH_SetPTPTimeStampUpdate:
 3369              	.LFB120:
2190:../Peripheral/src/ch32v30x_eth.c **** 
2191:../Peripheral/src/ch32v30x_eth.c **** /*********************************************************************
2192:../Peripheral/src/ch32v30x_eth.c ****  * @fn      ETH_SetPTPTimeStampUpdate
2193:../Peripheral/src/ch32v30x_eth.c ****  *
2194:../Peripheral/src/ch32v30x_eth.c ****  * @brief   Sets the Time Stamp update sign and values.
2195:../Peripheral/src/ch32v30x_eth.c ****  *
2196:../Peripheral/src/ch32v30x_eth.c ****  * @param   Sign - specifies the PTP Time update value sign.
2197:../Peripheral/src/ch32v30x_eth.c ****  *          SecondValue - specifies the PTP Time update second value.
2198:../Peripheral/src/ch32v30x_eth.c ****  *          SubSecondValue - specifies the PTP Time update sub-second value.
2199:../Peripheral/src/ch32v30x_eth.c ****  *
2200:../Peripheral/src/ch32v30x_eth.c ****  * @return  none
2201:../Peripheral/src/ch32v30x_eth.c ****  */
2202:../Peripheral/src/ch32v30x_eth.c **** void ETH_SetPTPTimeStampUpdate(uint32_t Sign, uint32_t SecondValue, uint32_t SubSecondValue)
2203:../Peripheral/src/ch32v30x_eth.c **** {
 3370              		.loc 1 2203 1 is_stmt 1
 3371              		.cfi_startproc
 3372              	.LVL197:
2204:../Peripheral/src/ch32v30x_eth.c ****     ETH->PTPTSHUR = SecondValue;
 3373              		.loc 1 2204 5
 3374              		.loc 1 2204 19 is_stmt 0
 3375 0000 B7870240 		li	a5,1073905664
 3376 0004 23A8B770 		sw	a1,1808(a5)
2205:../Peripheral/src/ch32v30x_eth.c ****     ETH->PTPTSLUR = Sign | SubSecondValue;
 3377              		.loc 1 2205 5 is_stmt 1
 3378              		.loc 1 2205 26 is_stmt 0
 3379 0008 518D     		or	a0,a0,a2
 3380              	.LVL198:
 3381              		.loc 1 2205 19
 3382 000a 23AAA770 		sw	a0,1812(a5)
2206:../Peripheral/src/ch32v30x_eth.c **** }
 3383              		.loc 1 2206 1
 3384 000e 8280     		ret
 3385              		.cfi_endproc
 3386              	.LFE120:
 3388              		.section	.text.ETH_SetPTPTimeStampAddend,"ax",@progbits
 3389              		.align	1
 3390              		.globl	ETH_SetPTPTimeStampAddend
 3392              	ETH_SetPTPTimeStampAddend:
 3393              	.LFB121:
2207:../Peripheral/src/ch32v30x_eth.c **** 
2208:../Peripheral/src/ch32v30x_eth.c **** /*********************************************************************
2209:../Peripheral/src/ch32v30x_eth.c ****  * @fn      ETH_SetPTPTimeStampAddend
2210:../Peripheral/src/ch32v30x_eth.c ****  *
2211:../Peripheral/src/ch32v30x_eth.c ****  * @brief   Sets the Time Stamp Addend value.
2212:../Peripheral/src/ch32v30x_eth.c ****  *
2213:../Peripheral/src/ch32v30x_eth.c ****  * @param   Value - specifies the PTP Time Stamp Addend Register value.
2214:../Peripheral/src/ch32v30x_eth.c ****  *
2215:../Peripheral/src/ch32v30x_eth.c ****  * @return  none
2216:../Peripheral/src/ch32v30x_eth.c ****  */
2217:../Peripheral/src/ch32v30x_eth.c **** void ETH_SetPTPTimeStampAddend(uint32_t Value)
2218:../Peripheral/src/ch32v30x_eth.c **** {
 3394              		.loc 1 2218 1 is_stmt 1
 3395              		.cfi_startproc
 3396              	.LVL199:
2219:../Peripheral/src/ch32v30x_eth.c ****     /* Set the PTP Time Stamp Addend Register */
2220:../Peripheral/src/ch32v30x_eth.c ****     ETH->PTPTSAR = Value;
 3397              		.loc 1 2220 5
 3398              		.loc 1 2220 18 is_stmt 0
 3399 0000 B7870240 		li	a5,1073905664
 3400 0004 23ACA770 		sw	a0,1816(a5)
2221:../Peripheral/src/ch32v30x_eth.c **** }
 3401              		.loc 1 2221 1
 3402 0008 8280     		ret
 3403              		.cfi_endproc
 3404              	.LFE121:
 3406              		.section	.text.ETH_SetPTPTargetTime,"ax",@progbits
 3407              		.align	1
 3408              		.globl	ETH_SetPTPTargetTime
 3410              	ETH_SetPTPTargetTime:
 3411              	.LFB122:
2222:../Peripheral/src/ch32v30x_eth.c **** 
2223:../Peripheral/src/ch32v30x_eth.c **** /*********************************************************************
2224:../Peripheral/src/ch32v30x_eth.c ****  * @fn      ETH_SetPTPTargetTime
2225:../Peripheral/src/ch32v30x_eth.c ****  *
2226:../Peripheral/src/ch32v30x_eth.c ****  * @brief   Sets the Target Time registers values.
2227:../Peripheral/src/ch32v30x_eth.c ****  *
2228:../Peripheral/src/ch32v30x_eth.c ****  * @param   HighValue - specifies the PTP Target Time High Register value.
2229:../Peripheral/src/ch32v30x_eth.c ****  *          LowValue - specifies the PTP Target Time Low Register value.
2230:../Peripheral/src/ch32v30x_eth.c ****  *
2231:../Peripheral/src/ch32v30x_eth.c ****  * @return  none
2232:../Peripheral/src/ch32v30x_eth.c ****  */
2233:../Peripheral/src/ch32v30x_eth.c **** void ETH_SetPTPTargetTime(uint32_t HighValue, uint32_t LowValue)
2234:../Peripheral/src/ch32v30x_eth.c **** {
 3412              		.loc 1 2234 1 is_stmt 1
 3413              		.cfi_startproc
 3414              	.LVL200:
2235:../Peripheral/src/ch32v30x_eth.c ****     ETH->PTPTTHR = HighValue;
 3415              		.loc 1 2235 5
 3416              		.loc 1 2235 18 is_stmt 0
 3417 0000 B7870240 		li	a5,1073905664
 3418 0004 23AEA770 		sw	a0,1820(a5)
2236:../Peripheral/src/ch32v30x_eth.c ****     ETH->PTPTTLR = LowValue;
 3419              		.loc 1 2236 5 is_stmt 1
 3420              		.loc 1 2236 18 is_stmt 0
 3421 0008 23A0B772 		sw	a1,1824(a5)
2237:../Peripheral/src/ch32v30x_eth.c **** }
 3422              		.loc 1 2237 1
 3423 000c 8280     		ret
 3424              		.cfi_endproc
 3425              	.LFE122:
 3427              		.section	.text.ETH_GetPTPRegister,"ax",@progbits
 3428              		.align	1
 3429              		.globl	ETH_GetPTPRegister
 3431              	ETH_GetPTPRegister:
 3432              	.LFB146:
 3433              		.cfi_startproc
2238:../Peripheral/src/ch32v30x_eth.c **** 
2239:../Peripheral/src/ch32v30x_eth.c **** /*********************************************************************
2240:../Peripheral/src/ch32v30x_eth.c ****  * @fn      ETH_GetPTPRegister
2241:../Peripheral/src/ch32v30x_eth.c ****  *
2242:../Peripheral/src/ch32v30x_eth.c ****  * @brief   Get the specified ETHERNET PTP register value.
2243:../Peripheral/src/ch32v30x_eth.c ****  *
2244:../Peripheral/src/ch32v30x_eth.c ****  * @param   ETH_PTPReg - specifies the ETHERNET PTP register.
2245:../Peripheral/src/ch32v30x_eth.c ****  *            ETH_PTPTSCR - Sub-Second Increment Register
2246:../Peripheral/src/ch32v30x_eth.c ****  *            ETH_PTPSSIR - Sub-Second Increment Register
2247:../Peripheral/src/ch32v30x_eth.c ****  *            ETH_PTPTSHR - Time Stamp High Register
2248:../Peripheral/src/ch32v30x_eth.c ****  *            ETH_PTPTSLR - Time Stamp Low Register
2249:../Peripheral/src/ch32v30x_eth.c ****  *            ETH_PTPTSHUR - Time Stamp High Update Register
2250:../Peripheral/src/ch32v30x_eth.c ****  *            ETH_PTPTSLUR - Time Stamp Low Update Register
2251:../Peripheral/src/ch32v30x_eth.c ****  *            ETH_PTPTSAR - Time Stamp Addend Register
2252:../Peripheral/src/ch32v30x_eth.c ****  *            ETH_PTPTTHR - Target Time High Register
2253:../Peripheral/src/ch32v30x_eth.c ****  *            ETH_PTPTTLR - Target Time Low Register
2254:../Peripheral/src/ch32v30x_eth.c ****  *
2255:../Peripheral/src/ch32v30x_eth.c ****  * @return  The value of ETHERNET PTP Register value.
2256:../Peripheral/src/ch32v30x_eth.c ****  */
2257:../Peripheral/src/ch32v30x_eth.c **** uint32_t ETH_GetPTPRegister(uint32_t ETH_PTPReg)
 3434              		.loc 1 2257 10 is_stmt 1
 3435 0000 B7870240 		li	a5,1073905664
 3436 0004 3E95     		add	a0,a0,a5
 3437 0006 0841     		lw	a0,0(a0)
 3438 0008 8280     		ret
 3439              		.cfi_endproc
 3440              	.LFE146:
 3442              		.section	.text.ETH_DMAPTPTxDescChainInit,"ax",@progbits
 3443              		.align	1
 3444              		.globl	ETH_DMAPTPTxDescChainInit
 3446              	ETH_DMAPTPTxDescChainInit:
 3447              	.LFB124:
2258:../Peripheral/src/ch32v30x_eth.c **** {
2259:../Peripheral/src/ch32v30x_eth.c ****     return (*(__IO uint32_t *)(ETH_MAC_BASE + ETH_PTPReg));
2260:../Peripheral/src/ch32v30x_eth.c **** }
2261:../Peripheral/src/ch32v30x_eth.c **** 
2262:../Peripheral/src/ch32v30x_eth.c **** /*********************************************************************
2263:../Peripheral/src/ch32v30x_eth.c ****  * @fn      ETH_DMAPTPTxDescChainInit
2264:../Peripheral/src/ch32v30x_eth.c ****  *
2265:../Peripheral/src/ch32v30x_eth.c ****  * @brief   Initializes the DMA Tx descriptors in chain mode with PTP.
2266:../Peripheral/src/ch32v30x_eth.c ****  *
2267:../Peripheral/src/ch32v30x_eth.c ****  * @param   DMATxDescTab - Pointer on the first Tx desc list.
2268:../Peripheral/src/ch32v30x_eth.c ****  *          DMAPTPTxDescTab - Pointer on the first PTP Tx desc list.
2269:../Peripheral/src/ch32v30x_eth.c ****  *          TxBuff - Pointer on the first TxBuffer list.
2270:../Peripheral/src/ch32v30x_eth.c ****  *          TxBuffCount - Number of the used Tx desc in the list.
2271:../Peripheral/src/ch32v30x_eth.c ****  *
2272:../Peripheral/src/ch32v30x_eth.c ****  * @return  none.
2273:../Peripheral/src/ch32v30x_eth.c ****  */
2274:../Peripheral/src/ch32v30x_eth.c **** void ETH_DMAPTPTxDescChainInit(ETH_DMADESCTypeDef *DMATxDescTab, ETH_DMADESCTypeDef *DMAPTPTxDescTa
2275:../Peripheral/src/ch32v30x_eth.c ****                                uint8_t *TxBuff, uint32_t TxBuffCount)
2276:../Peripheral/src/ch32v30x_eth.c **** {
 3448              		.loc 1 2276 1
 3449              		.cfi_startproc
 3450              	.LVL201:
2277:../Peripheral/src/ch32v30x_eth.c ****     uint32_t            i = 0;
 3451              		.loc 1 2277 5
2278:../Peripheral/src/ch32v30x_eth.c ****     ETH_DMADESCTypeDef *DMATxDesc;
 3452              		.loc 1 2278 5
2279:../Peripheral/src/ch32v30x_eth.c **** 
2280:../Peripheral/src/ch32v30x_eth.c ****     DMATxDescToSet = DMATxDescTab;
 3453              		.loc 1 2280 5
 3454              		.loc 1 2280 20 is_stmt 0
 3455 0000 97070000 		sw	a0,DMATxDescToSet,a5
 3455      23A0A700 
2281:../Peripheral/src/ch32v30x_eth.c ****     DMAPTPTxDescToSet = DMAPTPTxDescTab;
 3456              		.loc 1 2281 5 is_stmt 1
 3457              		.loc 1 2281 23 is_stmt 0
 3458 0008 97070000 		sw	a1,DMAPTPTxDescToSet,a5
 3458      23A0B700 
2282:../Peripheral/src/ch32v30x_eth.c **** 
2283:../Peripheral/src/ch32v30x_eth.c ****     for(i = 0; i < TxBuffCount; i++)
 3459              		.loc 1 2283 5 is_stmt 1
 3460 0010 13888500 		addi	a6,a1,8
 3461 0014 2A87     		mv	a4,a0
 3462 0016 8147     		li	a5,0
2284:../Peripheral/src/ch32v30x_eth.c ****     {
2285:../Peripheral/src/ch32v30x_eth.c ****         DMATxDesc = DMATxDescTab + i;
2286:../Peripheral/src/ch32v30x_eth.c ****         DMATxDesc->Status = ETH_DMATxDesc_TCH | ETH_DMATxDesc_TTSE;
 3463              		.loc 1 2286 27 is_stmt 0
 3464 0018 B70E1002 		li	t4,34603008
 3465 001c 130F0060 		li	t5,1536
2287:../Peripheral/src/ch32v30x_eth.c ****         DMATxDesc->Buffer1Addr = (uint32_t)(&TxBuff[i * ETH_MAX_PACKET_SIZE]);
2288:../Peripheral/src/ch32v30x_eth.c **** 
2289:../Peripheral/src/ch32v30x_eth.c ****         if(i < (TxBuffCount - 1))
 3466              		.loc 1 2289 29
 3467 0020 938FF6FF 		addi	t6,a3,-1
 3468              	.LVL202:
 3469              	.L272:
2283:../Peripheral/src/ch32v30x_eth.c ****     {
 3470              		.loc 1 2283 18 is_stmt 1 discriminator 1
 3471 0024 639AD700 		bne	a5,a3,.L274
2290:../Peripheral/src/ch32v30x_eth.c ****         {
2291:../Peripheral/src/ch32v30x_eth.c ****             DMATxDesc->Buffer2NextDescAddr = (uint32_t)(DMATxDescTab + i + 1);
2292:../Peripheral/src/ch32v30x_eth.c ****         }
2293:../Peripheral/src/ch32v30x_eth.c ****         else
2294:../Peripheral/src/ch32v30x_eth.c ****         {
2295:../Peripheral/src/ch32v30x_eth.c ****             DMATxDesc->Buffer2NextDescAddr = (uint32_t)DMATxDescTab;
2296:../Peripheral/src/ch32v30x_eth.c ****         }
2297:../Peripheral/src/ch32v30x_eth.c **** 
2298:../Peripheral/src/ch32v30x_eth.c ****         (&DMAPTPTxDescTab[i])->Buffer1Addr = DMATxDesc->Buffer1Addr;
2299:../Peripheral/src/ch32v30x_eth.c ****         (&DMAPTPTxDescTab[i])->Buffer2NextDescAddr = DMATxDesc->Buffer2NextDescAddr;
2300:../Peripheral/src/ch32v30x_eth.c ****     }
2301:../Peripheral/src/ch32v30x_eth.c **** 
2302:../Peripheral/src/ch32v30x_eth.c ****     (&DMAPTPTxDescTab[i - 1])->Status = (uint32_t)DMAPTPTxDescTab;
 3472              		.loc 1 2302 5
 3473              		.loc 1 2302 22 is_stmt 0
 3474 0028 9207     		slli	a5,a5,4
 3475              	.LVL203:
 3476 002a C117     		addi	a5,a5,-16
 3477              		.loc 1 2302 6
 3478 002c AE97     		add	a5,a1,a5
 3479              		.loc 1 2302 39
 3480 002e 8CC3     		sw	a1,0(a5)
2303:../Peripheral/src/ch32v30x_eth.c **** 
2304:../Peripheral/src/ch32v30x_eth.c ****     ETH->DMATDLAR = (uint32_t)DMATxDescTab;
 3481              		.loc 1 2304 5 is_stmt 1
 3482              		.loc 1 2304 19 is_stmt 0
 3483 0030 B7970240 		li	a5,1073909760
 3484 0034 88CB     		sw	a0,16(a5)
2305:../Peripheral/src/ch32v30x_eth.c **** }
 3485              		.loc 1 2305 1
 3486 0036 8280     		ret
 3487              	.LVL204:
 3488              	.L274:
2285:../Peripheral/src/ch32v30x_eth.c ****         DMATxDesc->Status = ETH_DMATxDesc_TCH | ETH_DMATxDesc_TTSE;
 3489              		.loc 1 2285 9 is_stmt 1
2286:../Peripheral/src/ch32v30x_eth.c ****         DMATxDesc->Buffer1Addr = (uint32_t)(&TxBuff[i * ETH_MAX_PACKET_SIZE]);
 3490              		.loc 1 2286 9
 3491 0038 B388E703 		mul	a7,a5,t5
2286:../Peripheral/src/ch32v30x_eth.c ****         DMATxDesc->Buffer1Addr = (uint32_t)(&TxBuff[i * ETH_MAX_PACKET_SIZE]);
 3492              		.loc 1 2286 27 is_stmt 0
 3493 003c 2320D701 		sw	t4,0(a4)
2287:../Peripheral/src/ch32v30x_eth.c **** 
 3494              		.loc 1 2287 9 is_stmt 1
 3495 0040 130E0701 		addi	t3,a4,16
2295:../Peripheral/src/ch32v30x_eth.c ****         }
 3496              		.loc 1 2295 46 is_stmt 0
 3497 0044 2A83     		mv	t1,a0
 3498 0046 B298     		add	a7,a2,a7
2287:../Peripheral/src/ch32v30x_eth.c **** 
 3499              		.loc 1 2287 32
 3500 0048 23241701 		sw	a7,8(a4)
2289:../Peripheral/src/ch32v30x_eth.c ****         {
 3501              		.loc 1 2289 9 is_stmt 1
2289:../Peripheral/src/ch32v30x_eth.c ****         {
 3502              		.loc 1 2289 11 is_stmt 0
 3503 004c 63F3F701 		bleu	t6,a5,.L273
 3504              	.LVL205:
2291:../Peripheral/src/ch32v30x_eth.c ****         }
 3505              		.loc 1 2291 13 is_stmt 1
 3506 0050 7283     		mv	t1,t3
 3507              	.LVL206:
 3508              	.L273:
 3509 0052 23266700 		sw	t1,12(a4)
2298:../Peripheral/src/ch32v30x_eth.c ****         (&DMAPTPTxDescTab[i])->Buffer2NextDescAddr = DMATxDesc->Buffer2NextDescAddr;
 3510              		.loc 1 2298 9 discriminator 2
2298:../Peripheral/src/ch32v30x_eth.c ****         (&DMAPTPTxDescTab[i])->Buffer2NextDescAddr = DMATxDesc->Buffer2NextDescAddr;
 3511              		.loc 1 2298 44 is_stmt 0 discriminator 2
 3512 0056 23201801 		sw	a7,0(a6)
2299:../Peripheral/src/ch32v30x_eth.c ****     }
 3513              		.loc 1 2299 9 is_stmt 1 discriminator 2
2299:../Peripheral/src/ch32v30x_eth.c ****     }
 3514              		.loc 1 2299 52 is_stmt 0 discriminator 2
 3515 005a 23226800 		sw	t1,4(a6)
2283:../Peripheral/src/ch32v30x_eth.c ****     {
 3516              		.loc 1 2283 34 is_stmt 1 discriminator 2
 3517              	.LVL207:
 3518 005e 8507     		addi	a5,a5,1
 3519              	.LVL208:
 3520 0060 7287     		mv	a4,t3
 3521              	.LVL209:
 3522 0062 4108     		addi	a6,a6,16
 3523 0064 C1B7     		j	.L272
 3524              		.cfi_endproc
 3525              	.LFE124:
 3527              		.section	.text.ETH_DMAPTPRxDescChainInit,"ax",@progbits
 3528              		.align	1
 3529              		.globl	ETH_DMAPTPRxDescChainInit
 3531              	ETH_DMAPTPRxDescChainInit:
 3532              	.LFB125:
2306:../Peripheral/src/ch32v30x_eth.c **** 
2307:../Peripheral/src/ch32v30x_eth.c **** /*********************************************************************
2308:../Peripheral/src/ch32v30x_eth.c ****  * @fn      ETH_DMAPTPRxDescChainInit
2309:../Peripheral/src/ch32v30x_eth.c ****  *
2310:../Peripheral/src/ch32v30x_eth.c ****  * @brief   Initializes the DMA Rx descriptors in chain mode.
2311:../Peripheral/src/ch32v30x_eth.c ****  *
2312:../Peripheral/src/ch32v30x_eth.c ****  * @param   DMARxDescTab - Pointer on the first Rx desc list.
2313:../Peripheral/src/ch32v30x_eth.c ****  *          DMAPTPRxDescTab - Pointer on the first PTP Rx desc list.
2314:../Peripheral/src/ch32v30x_eth.c ****  *          RxBuff - Pointer on the first RxBuffer list.
2315:../Peripheral/src/ch32v30x_eth.c ****  *          RxBuffCount - Number of the used Rx desc in the list.
2316:../Peripheral/src/ch32v30x_eth.c ****  *
2317:../Peripheral/src/ch32v30x_eth.c ****  * @return  none.
2318:../Peripheral/src/ch32v30x_eth.c ****  */
2319:../Peripheral/src/ch32v30x_eth.c **** void ETH_DMAPTPRxDescChainInit(ETH_DMADESCTypeDef *DMARxDescTab, ETH_DMADESCTypeDef *DMAPTPRxDescTa
2320:../Peripheral/src/ch32v30x_eth.c ****                                uint8_t *RxBuff, uint32_t RxBuffCount)
2321:../Peripheral/src/ch32v30x_eth.c **** {
 3533              		.loc 1 2321 1
 3534              		.cfi_startproc
 3535              	.LVL210:
2322:../Peripheral/src/ch32v30x_eth.c ****     uint32_t            i = 0;
 3536              		.loc 1 2322 5
2323:../Peripheral/src/ch32v30x_eth.c ****     ETH_DMADESCTypeDef *DMARxDesc;
 3537              		.loc 1 2323 5
2324:../Peripheral/src/ch32v30x_eth.c **** 
2325:../Peripheral/src/ch32v30x_eth.c ****     DMARxDescToGet = DMARxDescTab;
 3538              		.loc 1 2325 5
 3539              		.loc 1 2325 20 is_stmt 0
 3540 0000 97070000 		sw	a0,DMARxDescToGet,a5
 3540      23A0A700 
2326:../Peripheral/src/ch32v30x_eth.c ****     DMAPTPRxDescToGet = DMAPTPRxDescTab;
 3541              		.loc 1 2326 5 is_stmt 1
 3542              		.loc 1 2326 23 is_stmt 0
 3543 0008 97070000 		sw	a1,DMAPTPRxDescToGet,a5
 3543      23A0B700 
2327:../Peripheral/src/ch32v30x_eth.c **** 
2328:../Peripheral/src/ch32v30x_eth.c ****     for(i = 0; i < RxBuffCount; i++)
 3544              		.loc 1 2328 5 is_stmt 1
2329:../Peripheral/src/ch32v30x_eth.c ****     {
2330:../Peripheral/src/ch32v30x_eth.c ****         DMARxDesc = DMARxDescTab + i;
2331:../Peripheral/src/ch32v30x_eth.c ****         DMARxDesc->Status = ETH_DMARxDesc_OWN;
2332:../Peripheral/src/ch32v30x_eth.c ****         DMARxDesc->ControlBufferSize = ETH_DMARxDesc_RCH | (uint32_t)ETH_MAX_PACKET_SIZE;
 3545              		.loc 1 2332 38 is_stmt 0
 3546 0010 1163     		li	t1,16384
 3547 0012 13888500 		addi	a6,a1,8
2328:../Peripheral/src/ch32v30x_eth.c ****     {
 3548              		.loc 1 2328 5
 3549 0016 2A87     		mv	a4,a0
 3550 0018 8147     		li	a5,0
2331:../Peripheral/src/ch32v30x_eth.c ****         DMARxDesc->ControlBufferSize = ETH_DMARxDesc_RCH | (uint32_t)ETH_MAX_PACKET_SIZE;
 3551              		.loc 1 2331 27
 3552 001a 370F0080 		li	t5,-2147483648
 3553              		.loc 1 2332 38
 3554 001e 13030360 		addi	t1,t1,1536
 3555 0022 930F0060 		li	t6,1536
2333:../Peripheral/src/ch32v30x_eth.c ****         DMARxDesc->Buffer1Addr = (uint32_t)(&RxBuff[i * ETH_MAX_PACKET_SIZE]);
2334:../Peripheral/src/ch32v30x_eth.c **** 
2335:../Peripheral/src/ch32v30x_eth.c ****         if(i < (RxBuffCount - 1))
 3556              		.loc 1 2335 29
 3557 0026 9382F6FF 		addi	t0,a3,-1
 3558              	.LVL211:
 3559              	.L277:
2328:../Peripheral/src/ch32v30x_eth.c ****     {
 3560              		.loc 1 2328 18 is_stmt 1 discriminator 1
 3561 002a 639AD700 		bne	a5,a3,.L279
2336:../Peripheral/src/ch32v30x_eth.c ****         {
2337:../Peripheral/src/ch32v30x_eth.c ****             DMARxDesc->Buffer2NextDescAddr = (uint32_t)(DMARxDescTab + i + 1);
2338:../Peripheral/src/ch32v30x_eth.c ****         }
2339:../Peripheral/src/ch32v30x_eth.c ****         else
2340:../Peripheral/src/ch32v30x_eth.c ****         {
2341:../Peripheral/src/ch32v30x_eth.c ****             DMARxDesc->Buffer2NextDescAddr = (uint32_t)(DMARxDescTab);
2342:../Peripheral/src/ch32v30x_eth.c ****         }
2343:../Peripheral/src/ch32v30x_eth.c **** 
2344:../Peripheral/src/ch32v30x_eth.c ****         (&DMAPTPRxDescTab[i])->Buffer1Addr = DMARxDesc->Buffer1Addr;
2345:../Peripheral/src/ch32v30x_eth.c ****         (&DMAPTPRxDescTab[i])->Buffer2NextDescAddr = DMARxDesc->Buffer2NextDescAddr;
2346:../Peripheral/src/ch32v30x_eth.c ****     }
2347:../Peripheral/src/ch32v30x_eth.c **** 
2348:../Peripheral/src/ch32v30x_eth.c ****     (&DMAPTPRxDescTab[i - 1])->Status = (uint32_t)DMAPTPRxDescTab;
 3562              		.loc 1 2348 5
 3563              		.loc 1 2348 22 is_stmt 0
 3564 002e 9207     		slli	a5,a5,4
 3565              	.LVL212:
 3566 0030 C117     		addi	a5,a5,-16
 3567              		.loc 1 2348 6
 3568 0032 AE97     		add	a5,a1,a5
 3569              		.loc 1 2348 39
 3570 0034 8CC3     		sw	a1,0(a5)
2349:../Peripheral/src/ch32v30x_eth.c ****     ETH->DMARDLAR = (uint32_t)DMARxDescTab;
 3571              		.loc 1 2349 5 is_stmt 1
 3572              		.loc 1 2349 19 is_stmt 0
 3573 0036 B7970240 		li	a5,1073909760
 3574 003a C8C7     		sw	a0,12(a5)
2350:../Peripheral/src/ch32v30x_eth.c **** }
 3575              		.loc 1 2350 1
 3576 003c 8280     		ret
 3577              	.LVL213:
 3578              	.L279:
2330:../Peripheral/src/ch32v30x_eth.c ****         DMARxDesc->Status = ETH_DMARxDesc_OWN;
 3579              		.loc 1 2330 9 is_stmt 1
2331:../Peripheral/src/ch32v30x_eth.c ****         DMARxDesc->ControlBufferSize = ETH_DMARxDesc_RCH | (uint32_t)ETH_MAX_PACKET_SIZE;
 3580              		.loc 1 2331 9
 3581 003e B388F703 		mul	a7,a5,t6
2331:../Peripheral/src/ch32v30x_eth.c ****         DMARxDesc->ControlBufferSize = ETH_DMARxDesc_RCH | (uint32_t)ETH_MAX_PACKET_SIZE;
 3582              		.loc 1 2331 27 is_stmt 0
 3583 0042 2320E701 		sw	t5,0(a4)
2332:../Peripheral/src/ch32v30x_eth.c ****         DMARxDesc->Buffer1Addr = (uint32_t)(&RxBuff[i * ETH_MAX_PACKET_SIZE]);
 3584              		.loc 1 2332 9 is_stmt 1
2332:../Peripheral/src/ch32v30x_eth.c ****         DMARxDesc->Buffer1Addr = (uint32_t)(&RxBuff[i * ETH_MAX_PACKET_SIZE]);
 3585              		.loc 1 2332 38 is_stmt 0
 3586 0046 23226700 		sw	t1,4(a4)
2333:../Peripheral/src/ch32v30x_eth.c **** 
 3587              		.loc 1 2333 9 is_stmt 1
 3588 004a 930E0701 		addi	t4,a4,16
2341:../Peripheral/src/ch32v30x_eth.c ****         }
 3589              		.loc 1 2341 46 is_stmt 0
 3590 004e 2A8E     		mv	t3,a0
 3591 0050 B298     		add	a7,a2,a7
2333:../Peripheral/src/ch32v30x_eth.c **** 
 3592              		.loc 1 2333 32
 3593 0052 23241701 		sw	a7,8(a4)
2335:../Peripheral/src/ch32v30x_eth.c ****         {
 3594              		.loc 1 2335 9 is_stmt 1
2335:../Peripheral/src/ch32v30x_eth.c ****         {
 3595              		.loc 1 2335 11 is_stmt 0
 3596 0056 63F35700 		bleu	t0,a5,.L278
2337:../Peripheral/src/ch32v30x_eth.c ****         }
 3597              		.loc 1 2337 13 is_stmt 1
 3598 005a 768E     		mv	t3,t4
 3599              	.L278:
 3600 005c 2326C701 		sw	t3,12(a4)
2344:../Peripheral/src/ch32v30x_eth.c ****         (&DMAPTPRxDescTab[i])->Buffer2NextDescAddr = DMARxDesc->Buffer2NextDescAddr;
 3601              		.loc 1 2344 9 discriminator 2
2344:../Peripheral/src/ch32v30x_eth.c ****         (&DMAPTPRxDescTab[i])->Buffer2NextDescAddr = DMARxDesc->Buffer2NextDescAddr;
 3602              		.loc 1 2344 44 is_stmt 0 discriminator 2
 3603 0060 23201801 		sw	a7,0(a6)
2345:../Peripheral/src/ch32v30x_eth.c ****     }
 3604              		.loc 1 2345 9 is_stmt 1 discriminator 2
2345:../Peripheral/src/ch32v30x_eth.c ****     }
 3605              		.loc 1 2345 52 is_stmt 0 discriminator 2
 3606 0064 2322C801 		sw	t3,4(a6)
2328:../Peripheral/src/ch32v30x_eth.c ****     {
 3607              		.loc 1 2328 34 is_stmt 1 discriminator 2
 3608              	.LVL214:
 3609 0068 8507     		addi	a5,a5,1
 3610              	.LVL215:
 3611 006a 7687     		mv	a4,t4
 3612              	.LVL216:
 3613 006c 4108     		addi	a6,a6,16
 3614 006e 75BF     		j	.L277
 3615              		.cfi_endproc
 3616              	.LFE125:
 3618              		.section	.text.ETH_HandlePTPTxPkt,"ax",@progbits
 3619              		.align	1
 3620              		.globl	ETH_HandlePTPTxPkt
 3622              	ETH_HandlePTPTxPkt:
 3623              	.LFB126:
2351:../Peripheral/src/ch32v30x_eth.c **** 
2352:../Peripheral/src/ch32v30x_eth.c **** /*********************************************************************
2353:../Peripheral/src/ch32v30x_eth.c ****  * @fn      ETH_HandlePTPTxPkt
2354:../Peripheral/src/ch32v30x_eth.c ****  *
2355:../Peripheral/src/ch32v30x_eth.c ****  * @brief   Transmits a packet, from application buffer, pointed by ppkt with Time Stamp values.
2356:../Peripheral/src/ch32v30x_eth.c ****  *
2357:../Peripheral/src/ch32v30x_eth.c ****  * @param   ppkt - pointer to application packet buffer to transmit.
2358:../Peripheral/src/ch32v30x_eth.c ****  *          FrameLength - Tx Packet size.
2359:../Peripheral/src/ch32v30x_eth.c ****  *          PTPTxTab - Pointer on the first PTP Tx table to store Time stamp values.
2360:../Peripheral/src/ch32v30x_eth.c ****  *
2361:../Peripheral/src/ch32v30x_eth.c ****  * @return  none.
2362:../Peripheral/src/ch32v30x_eth.c ****  */
2363:../Peripheral/src/ch32v30x_eth.c **** uint32_t ETH_HandlePTPTxPkt(uint8_t *ppkt, uint16_t FrameLength, uint32_t *PTPTxTab)
2364:../Peripheral/src/ch32v30x_eth.c **** {
 3624              		.loc 1 2364 1
 3625              		.cfi_startproc
 3626              	.LVL217:
2365:../Peripheral/src/ch32v30x_eth.c ****     uint32_t offset = 0, timeout = 0;
 3627              		.loc 1 2365 5
2366:../Peripheral/src/ch32v30x_eth.c **** 
2367:../Peripheral/src/ch32v30x_eth.c ****     if((DMATxDescToSet->Status & ETH_DMATxDesc_OWN) != (uint32_t)RESET)
 3628              		.loc 1 2367 5
 3629              		.loc 1 2367 23 is_stmt 0
 3630 0000 97060000 		lla	a3,DMATxDescToSet
 3630      93860600 
 3631 0008 9C42     		lw	a5,0(a3)
 3632 000a 9C43     		lw	a5,0(a5)
 3633              		.loc 1 2367 7
 3634 000c 63CC070C 		blt	a5,zero,.L292
2368:../Peripheral/src/ch32v30x_eth.c ****     {
2369:../Peripheral/src/ch32v30x_eth.c ****         return ETH_ERROR;
2370:../Peripheral/src/ch32v30x_eth.c ****     }
2371:../Peripheral/src/ch32v30x_eth.c **** 
2372:../Peripheral/src/ch32v30x_eth.c ****     for(offset = 0; offset < FrameLength; offset++)
 3635              		.loc 1 2372 16
 3636 0010 8147     		li	a5,0
2373:../Peripheral/src/ch32v30x_eth.c ****     {
2374:../Peripheral/src/ch32v30x_eth.c ****         (*(__IO uint8_t *)((DMAPTPTxDescToSet->Buffer1Addr) + offset)) = (*(ppkt + offset));
 3637              		.loc 1 2374 46
 3638 0012 17080000 		lla	a6,DMAPTPTxDescToSet
 3638      13080800 
 3639              	.LVL218:
 3640              	.L283:
2372:../Peripheral/src/ch32v30x_eth.c ****     {
 3641              		.loc 1 2372 28 is_stmt 1 discriminator 1
 3642 001a 63EFB706 		bgtu	a1,a5,.L284
2375:../Peripheral/src/ch32v30x_eth.c ****     }
2376:../Peripheral/src/ch32v30x_eth.c **** 
2377:../Peripheral/src/ch32v30x_eth.c ****     DMATxDescToSet->ControlBufferSize = (FrameLength & (uint32_t)0x1FFF);
 3643              		.loc 1 2377 5
 3644              		.loc 1 2377 19 is_stmt 0
 3645 001e 9C42     		lw	a5,0(a3)
 3646              	.LVL219:
 3647              		.loc 1 2377 54
 3648 0020 CE05     		slli	a1,a1,19
 3649              	.LVL220:
 3650 0022 CD81     		srli	a1,a1,19
2378:../Peripheral/src/ch32v30x_eth.c ****     DMATxDescToSet->Status |= ETH_DMATxDesc_LS | ETH_DMATxDesc_FS;
 3651              		.loc 1 2378 19
 3652 0024 9843     		lw	a4,0(a5)
2377:../Peripheral/src/ch32v30x_eth.c ****     DMATxDescToSet->Status |= ETH_DMATxDesc_LS | ETH_DMATxDesc_FS;
 3653              		.loc 1 2377 54
 3654 0026 CCC3     		sw	a1,4(a5)
 3655              		.loc 1 2378 5 is_stmt 1
 3656              		.loc 1 2378 28 is_stmt 0
 3657 0028 B7050030 		li	a1,805306368
 3658 002c 4D8F     		or	a4,a4,a1
 3659 002e 98C3     		sw	a4,0(a5)
2379:../Peripheral/src/ch32v30x_eth.c ****     DMATxDescToSet->Status |= ETH_DMATxDesc_OWN;
 3660              		.loc 1 2379 5 is_stmt 1
 3661              		.loc 1 2379 19 is_stmt 0
 3662 0030 9843     		lw	a4,0(a5)
 3663              		.loc 1 2379 28
 3664 0032 B7050080 		li	a1,-2147483648
 3665 0036 4D8F     		or	a4,a4,a1
 3666 0038 98C3     		sw	a4,0(a5)
2380:../Peripheral/src/ch32v30x_eth.c **** 
2381:../Peripheral/src/ch32v30x_eth.c ****     if((ETH->DMASR & ETH_DMASR_TBUS) != (uint32_t)RESET)
 3667              		.loc 1 2381 5 is_stmt 1
 3668              		.loc 1 2381 12 is_stmt 0
 3669 003a 37970240 		li	a4,1073909760
 3670 003e 4C4B     		lw	a1,20(a4)
 3671              		.loc 1 2381 20
 3672 0040 9189     		andi	a1,a1,4
 3673              		.loc 1 2381 7
 3674 0042 89C5     		beq	a1,zero,.L285
2382:../Peripheral/src/ch32v30x_eth.c ****     {
2383:../Peripheral/src/ch32v30x_eth.c ****         ETH->DMASR = ETH_DMASR_TBUS;
 3675              		.loc 1 2383 9 is_stmt 1
 3676              		.loc 1 2383 20 is_stmt 0
 3677 0044 9145     		li	a1,4
 3678 0046 4CCB     		sw	a1,20(a4)
2384:../Peripheral/src/ch32v30x_eth.c ****         ETH->DMATPDR = 0;
 3679              		.loc 1 2384 9 is_stmt 1
 3680              		.loc 1 2384 22 is_stmt 0
 3681 0048 23220700 		sw	zero,4(a4)
 3682              	.L285:
2372:../Peripheral/src/ch32v30x_eth.c ****     {
 3683              		.loc 1 2372 16 discriminator 2
 3684 004c 4167     		li	a4,65536
 3685 004e 7D17     		addi	a4,a4,-1
2385:../Peripheral/src/ch32v30x_eth.c ****     }
2386:../Peripheral/src/ch32v30x_eth.c **** 
2387:../Peripheral/src/ch32v30x_eth.c ****     do
2388:../Peripheral/src/ch32v30x_eth.c ****     {
2389:../Peripheral/src/ch32v30x_eth.c ****         timeout++;
2390:../Peripheral/src/ch32v30x_eth.c ****     } while(!(DMATxDescToSet->Status & ETH_DMATxDesc_TTSS) && (timeout < 0xFFFF));
 3686              		.loc 1 2390 38 discriminator 2
 3687 0050 37050200 		li	a0,131072
 3688              	.LVL221:
 3689              	.L287:
2387:../Peripheral/src/ch32v30x_eth.c ****     {
 3690              		.loc 1 2387 5 is_stmt 1 discriminator 2
2389:../Peripheral/src/ch32v30x_eth.c ****     } while(!(DMATxDescToSet->Status & ETH_DMATxDesc_TTSS) && (timeout < 0xFFFF));
 3691              		.loc 1 2389 9 discriminator 2
 3692              		.loc 1 2390 60 discriminator 2
 3693              		.loc 1 2390 29 is_stmt 0 discriminator 2
 3694 0054 8C43     		lw	a1,0(a5)
 3695              		.loc 1 2390 38 discriminator 2
 3696 0056 E98D     		and	a1,a1,a0
 3697              		.loc 1 2390 60 discriminator 2
 3698 0058 99E1     		bne	a1,zero,.L286
 3699              		.loc 1 2390 60 discriminator 1
 3700 005a 7D17     		addi	a4,a4,-1
 3701              	.LVL222:
 3702 005c 65FF     		bne	a4,zero,.L287
 3703              	.LVL223:
 3704              	.L286:
2391:../Peripheral/src/ch32v30x_eth.c **** 
2392:../Peripheral/src/ch32v30x_eth.c ****     if(timeout == PHY_READ_TO)
 3705              		.loc 1 2392 5 is_stmt 1
2393:../Peripheral/src/ch32v30x_eth.c ****     {
2394:../Peripheral/src/ch32v30x_eth.c ****         return ETH_ERROR;
2395:../Peripheral/src/ch32v30x_eth.c ****     }
2396:../Peripheral/src/ch32v30x_eth.c **** 
2397:../Peripheral/src/ch32v30x_eth.c ****     DMATxDescToSet->Status &= ~ETH_DMATxDesc_TTSS;
 3706              		.loc 1 2397 5
 3707              		.loc 1 2397 19 is_stmt 0
 3708 005e 9843     		lw	a4,0(a5)
 3709              		.loc 1 2397 28
 3710 0060 8175     		li	a1,-131072
 3711 0062 FD15     		addi	a1,a1,-1
 3712 0064 6D8F     		and	a4,a4,a1
 3713 0066 98C3     		sw	a4,0(a5)
2398:../Peripheral/src/ch32v30x_eth.c ****     *PTPTxTab++ = DMATxDescToSet->Buffer1Addr;
 3714              		.loc 1 2398 5 is_stmt 1
 3715              	.LVL224:
 3716              		.loc 1 2398 33 is_stmt 0
 3717 0068 9847     		lw	a4,8(a5)
 3718              		.loc 1 2398 17
 3719 006a 18C2     		sw	a4,0(a2)
2399:../Peripheral/src/ch32v30x_eth.c ****     *PTPTxTab = DMATxDescToSet->Buffer2NextDescAddr;
 3720              		.loc 1 2399 5 is_stmt 1
 3721              		.loc 1 2399 31 is_stmt 0
 3722 006c D847     		lw	a4,12(a5)
 3723              		.loc 1 2399 15
 3724 006e 58C2     		sw	a4,4(a2)
2400:../Peripheral/src/ch32v30x_eth.c **** 
2401:../Peripheral/src/ch32v30x_eth.c ****     if((DMATxDescToSet->Status & ETH_DMATxDesc_TCH) != (uint32_t)RESET)
 3725              		.loc 1 2401 5 is_stmt 1
 3726              		.loc 1 2401 23 is_stmt 0
 3727 0070 9843     		lw	a4,0(a5)
 3728              		.loc 1 2401 32
 3729 0072 37061000 		li	a2,1048576
 3730              	.LVL225:
 3731 0076 718F     		and	a4,a4,a2
 3732 0078 17060000 		lla	a2,DMAPTPTxDescToSet
 3732      13060600 
 3733              		.loc 1 2401 7
 3734 0080 05CB     		beq	a4,zero,.L288
2402:../Peripheral/src/ch32v30x_eth.c ****     {
2403:../Peripheral/src/ch32v30x_eth.c ****         DMATxDescToSet = (ETH_DMADESCTypeDef *)(DMAPTPTxDescToSet->Buffer2NextDescAddr);
 3735              		.loc 1 2403 9 is_stmt 1
 3736              		.loc 1 2403 66 is_stmt 0
 3737 0082 1842     		lw	a4,0(a2)
 3738              		.loc 1 2403 24
 3739 0084 5C47     		lw	a5,12(a4)
 3740 0086 9CC2     		sw	a5,0(a3)
2404:../Peripheral/src/ch32v30x_eth.c ****         if(DMAPTPTxDescToSet->Status != 0)
 3741              		.loc 1 2404 9 is_stmt 1
 3742              		.loc 1 2404 29 is_stmt 0
 3743 0088 1443     		lw	a3,0(a4)
2405:../Peripheral/src/ch32v30x_eth.c ****         {
2406:../Peripheral/src/ch32v30x_eth.c ****             DMAPTPTxDescToSet = (ETH_DMADESCTypeDef *)(DMAPTPTxDescToSet->Status);
2407:../Peripheral/src/ch32v30x_eth.c ****         }
2408:../Peripheral/src/ch32v30x_eth.c ****         else
2409:../Peripheral/src/ch32v30x_eth.c ****         {
2410:../Peripheral/src/ch32v30x_eth.c ****             DMAPTPTxDescToSet++;
 3744              		.loc 1 2410 30
 3745 008a 93070701 		addi	a5,a4,16
2404:../Peripheral/src/ch32v30x_eth.c ****         if(DMAPTPTxDescToSet->Status != 0)
 3746              		.loc 1 2404 11
 3747 008e 91C2     		beq	a3,zero,.L290
2406:../Peripheral/src/ch32v30x_eth.c ****         }
 3748              		.loc 1 2406 13 is_stmt 1
2406:../Peripheral/src/ch32v30x_eth.c ****         }
 3749              		.loc 1 2406 73 is_stmt 0
 3750 0090 1C43     		lw	a5,0(a4)
 3751              	.L290:
 3752              		.loc 1 2410 30
 3753 0092 1CC2     		sw	a5,0(a2)
2411:../Peripheral/src/ch32v30x_eth.c ****         }
2412:../Peripheral/src/ch32v30x_eth.c ****     }
2413:../Peripheral/src/ch32v30x_eth.c ****     else
2414:../Peripheral/src/ch32v30x_eth.c ****     {
2415:../Peripheral/src/ch32v30x_eth.c ****         if((DMATxDescToSet->Status & ETH_DMATxDesc_TER) != (uint32_t)RESET)
2416:../Peripheral/src/ch32v30x_eth.c ****         {
2417:../Peripheral/src/ch32v30x_eth.c ****             DMATxDescToSet = (ETH_DMADESCTypeDef *)(ETH->DMATDLAR);
2418:../Peripheral/src/ch32v30x_eth.c ****             DMAPTPTxDescToSet = (ETH_DMADESCTypeDef *)(ETH->DMATDLAR);
2419:../Peripheral/src/ch32v30x_eth.c ****         }
2420:../Peripheral/src/ch32v30x_eth.c ****         else
2421:../Peripheral/src/ch32v30x_eth.c ****         {
2422:../Peripheral/src/ch32v30x_eth.c ****             DMATxDescToSet = (ETH_DMADESCTypeDef *)((uint32_t)DMATxDescToSet + 0x10 + ((ETH->DMABMR
2423:../Peripheral/src/ch32v30x_eth.c ****             DMAPTPTxDescToSet = (ETH_DMADESCTypeDef *)((uint32_t)DMAPTPTxDescToSet + 0x10 + ((ETH->
2424:../Peripheral/src/ch32v30x_eth.c ****         }
2425:../Peripheral/src/ch32v30x_eth.c ****     }
2426:../Peripheral/src/ch32v30x_eth.c **** 
2427:../Peripheral/src/ch32v30x_eth.c ****     return ETH_SUCCESS;
 3754              		.loc 1 2427 12
 3755 0094 0545     		li	a0,1
 3756 0096 8280     		ret
 3757              	.LVL226:
 3758              	.L284:
2374:../Peripheral/src/ch32v30x_eth.c ****     }
 3759              		.loc 1 2374 9 is_stmt 1 discriminator 3
2374:../Peripheral/src/ch32v30x_eth.c ****     }
 3760              		.loc 1 2374 46 is_stmt 0 discriminator 3
 3761 0098 03270800 		lw	a4,0(a6)
2374:../Peripheral/src/ch32v30x_eth.c ****     }
 3762              		.loc 1 2374 75 discriminator 3
 3763 009c B308F500 		add	a7,a0,a5
 3764 00a0 83C80800 		lbu	a7,0(a7)
2374:../Peripheral/src/ch32v30x_eth.c ****     }
 3765              		.loc 1 2374 61 discriminator 3
 3766 00a4 1847     		lw	a4,8(a4)
 3767 00a6 3E97     		add	a4,a5,a4
2374:../Peripheral/src/ch32v30x_eth.c ****     }
 3768              		.loc 1 2374 72 discriminator 3
 3769 00a8 23001701 		sb	a7,0(a4)
2372:../Peripheral/src/ch32v30x_eth.c ****     {
 3770              		.loc 1 2372 49 is_stmt 1 discriminator 3
 3771 00ac 8507     		addi	a5,a5,1
 3772              	.LVL227:
 3773 00ae B5B7     		j	.L283
 3774              	.LVL228:
 3775              	.L288:
2415:../Peripheral/src/ch32v30x_eth.c ****         {
 3776              		.loc 1 2415 9
2415:../Peripheral/src/ch32v30x_eth.c ****         {
 3777              		.loc 1 2415 27 is_stmt 0
 3778 00b0 9843     		lw	a4,0(a5)
2415:../Peripheral/src/ch32v30x_eth.c ****         {
 3779              		.loc 1 2415 36
 3780 00b2 B7052000 		li	a1,2097152
 3781 00b6 6D8F     		and	a4,a4,a1
2415:../Peripheral/src/ch32v30x_eth.c ****         {
 3782              		.loc 1 2415 11
 3783 00b8 19C7     		beq	a4,zero,.L291
2417:../Peripheral/src/ch32v30x_eth.c ****             DMAPTPTxDescToSet = (ETH_DMADESCTypeDef *)(ETH->DMATDLAR);
 3784              		.loc 1 2417 13 is_stmt 1
2417:../Peripheral/src/ch32v30x_eth.c ****             DMAPTPTxDescToSet = (ETH_DMADESCTypeDef *)(ETH->DMATDLAR);
 3785              		.loc 1 2417 56 is_stmt 0
 3786 00ba B7970240 		li	a5,1073909760
 3787 00be 984B     		lw	a4,16(a5)
2418:../Peripheral/src/ch32v30x_eth.c ****         }
 3788              		.loc 1 2418 59
 3789 00c0 9C4B     		lw	a5,16(a5)
2417:../Peripheral/src/ch32v30x_eth.c ****             DMAPTPTxDescToSet = (ETH_DMADESCTypeDef *)(ETH->DMATDLAR);
 3790              		.loc 1 2417 28
 3791 00c2 98C2     		sw	a4,0(a3)
2418:../Peripheral/src/ch32v30x_eth.c ****         }
 3792              		.loc 1 2418 13 is_stmt 1
 3793 00c4 F9B7     		j	.L290
 3794              	.L291:
2422:../Peripheral/src/ch32v30x_eth.c ****             DMAPTPTxDescToSet = (ETH_DMADESCTypeDef *)((uint32_t)DMAPTPTxDescToSet + 0x10 + ((ETH->
 3795              		.loc 1 2422 13
2422:../Peripheral/src/ch32v30x_eth.c ****             DMAPTPTxDescToSet = (ETH_DMADESCTypeDef *)((uint32_t)DMAPTPTxDescToSet + 0x10 + ((ETH->
 3796              		.loc 1 2422 92 is_stmt 0
 3797 00c6 B7950240 		li	a1,1073909760
 3798 00ca 9841     		lw	a4,0(a1)
2422:../Peripheral/src/ch32v30x_eth.c ****             DMAPTPTxDescToSet = (ETH_DMADESCTypeDef *)((uint32_t)DMAPTPTxDescToSet + 0x10 + ((ETH->
 3799              		.loc 1 2422 85
 3800 00cc C107     		addi	a5,a5,16
2422:../Peripheral/src/ch32v30x_eth.c ****             DMAPTPTxDescToSet = (ETH_DMADESCTypeDef *)((uint32_t)DMAPTPTxDescToSet + 0x10 + ((ETH->
 3801              		.loc 1 2422 119
 3802 00ce 0983     		srli	a4,a4,2
 3803 00d0 7D8B     		andi	a4,a4,31
2422:../Peripheral/src/ch32v30x_eth.c ****             DMAPTPTxDescToSet = (ETH_DMADESCTypeDef *)((uint32_t)DMAPTPTxDescToSet + 0x10 + ((ETH->
 3804              		.loc 1 2422 85
 3805 00d2 BA97     		add	a5,a4,a5
2423:../Peripheral/src/ch32v30x_eth.c ****         }
 3806              		.loc 1 2423 98
 3807 00d4 9841     		lw	a4,0(a1)
2422:../Peripheral/src/ch32v30x_eth.c ****             DMAPTPTxDescToSet = (ETH_DMADESCTypeDef *)((uint32_t)DMAPTPTxDescToSet + 0x10 + ((ETH->
 3808              		.loc 1 2422 28
 3809 00d6 9CC2     		sw	a5,0(a3)
2423:../Peripheral/src/ch32v30x_eth.c ****         }
 3810              		.loc 1 2423 13 is_stmt 1
2423:../Peripheral/src/ch32v30x_eth.c ****         }
 3811              		.loc 1 2423 91 is_stmt 0
 3812 00d8 1C42     		lw	a5,0(a2)
2423:../Peripheral/src/ch32v30x_eth.c ****         }
 3813              		.loc 1 2423 125
 3814 00da 0983     		srli	a4,a4,2
 3815 00dc 7D8B     		andi	a4,a4,31
2423:../Peripheral/src/ch32v30x_eth.c ****         }
 3816              		.loc 1 2423 91
 3817 00de C107     		addi	a5,a5,16
 3818 00e0 BA97     		add	a5,a5,a4
 3819 00e2 45BF     		j	.L290
 3820              	.LVL229:
 3821              	.L292:
2369:../Peripheral/src/ch32v30x_eth.c ****     }
 3822              		.loc 1 2369 16
 3823 00e4 0145     		li	a0,0
 3824              	.LVL230:
2428:../Peripheral/src/ch32v30x_eth.c **** }
 3825              		.loc 1 2428 1
 3826 00e6 8280     		ret
 3827              		.cfi_endproc
 3828              	.LFE126:
 3830              		.section	.text.ETH_HandlePTPRxPkt,"ax",@progbits
 3831              		.align	1
 3832              		.globl	ETH_HandlePTPRxPkt
 3834              	ETH_HandlePTPRxPkt:
 3835              	.LFB127:
2429:../Peripheral/src/ch32v30x_eth.c **** 
2430:../Peripheral/src/ch32v30x_eth.c **** /*********************************************************************
2431:../Peripheral/src/ch32v30x_eth.c ****  * @fn      ETH_HandlePTPRxPkt
2432:../Peripheral/src/ch32v30x_eth.c ****  *
2433:../Peripheral/src/ch32v30x_eth.c ****  * @brief   Receives a packet and copies it to memory pointed by ppkt with Time Stamp values.
2434:../Peripheral/src/ch32v30x_eth.c ****  *
2435:../Peripheral/src/ch32v30x_eth.c ****  * @param   ppkt - pointer to application packet receive buffer.
2436:../Peripheral/src/ch32v30x_eth.c ****  *          PTPRxTab - Pointer on the first PTP Rx table to store Time stamp values.
2437:../Peripheral/src/ch32v30x_eth.c ****  *
2438:../Peripheral/src/ch32v30x_eth.c ****  * @return  ETH_ERROR - if there is error in reception.
2439:../Peripheral/src/ch32v30x_eth.c ****  *          framelength - received packet size if packet reception is correct.
2440:../Peripheral/src/ch32v30x_eth.c ****  */
2441:../Peripheral/src/ch32v30x_eth.c **** uint32_t ETH_HandlePTPRxPkt(uint8_t *ppkt, uint32_t *PTPRxTab)
2442:../Peripheral/src/ch32v30x_eth.c **** {
 3836              		.loc 1 2442 1 is_stmt 1
 3837              		.cfi_startproc
 3838              	.LVL231:
2443:../Peripheral/src/ch32v30x_eth.c ****     uint32_t offset = 0, framelength = 0;
 3839              		.loc 1 2443 5
2444:../Peripheral/src/ch32v30x_eth.c **** 
2445:../Peripheral/src/ch32v30x_eth.c ****     if((DMARxDescToGet->Status & ETH_DMARxDesc_OWN) != (uint32_t)RESET)
 3840              		.loc 1 2445 5
 3841              		.loc 1 2445 23 is_stmt 0
 3842 0000 97060000 		lla	a3,DMARxDescToGet
 3842      93860600 
 3843 0008 9842     		lw	a4,0(a3)
2442:../Peripheral/src/ch32v30x_eth.c ****     uint32_t offset = 0, framelength = 0;
 3844              		.loc 1 2442 1
 3845 000a 2A86     		mv	a2,a0
 3846              		.loc 1 2445 23
 3847 000c 1C43     		lw	a5,0(a4)
 3848              		.loc 1 2445 7
 3849 000e 63CD070A 		blt	a5,zero,.L308
2446:../Peripheral/src/ch32v30x_eth.c ****     {
2447:../Peripheral/src/ch32v30x_eth.c ****         return ETH_ERROR;
2448:../Peripheral/src/ch32v30x_eth.c ****     }
2449:../Peripheral/src/ch32v30x_eth.c ****     if(((DMARxDescToGet->Status & ETH_DMARxDesc_ES) == (uint32_t)RESET) &&
 3850              		.loc 1 2449 5 is_stmt 1
 3851              		.loc 1 2449 24 is_stmt 0
 3852 0012 1C43     		lw	a5,0(a4)
 3853              		.loc 1 2449 33
 3854 0014 2165     		li	a0,32768
 3855              	.LVL232:
 3856 0016 E98F     		and	a5,a5,a0
2450:../Peripheral/src/ch32v30x_eth.c ****        ((DMARxDescToGet->Status & ETH_DMARxDesc_LS) != (uint32_t)RESET) &&
2451:../Peripheral/src/ch32v30x_eth.c ****        ((DMARxDescToGet->Status & ETH_DMARxDesc_FS) != (uint32_t)RESET))
2452:../Peripheral/src/ch32v30x_eth.c ****     {
2453:../Peripheral/src/ch32v30x_eth.c ****         framelength = ((DMARxDescToGet->Status & ETH_DMARxDesc_FL) >> ETH_DMARXDESC_FRAME_LENGTHSHI
2454:../Peripheral/src/ch32v30x_eth.c **** 
2455:../Peripheral/src/ch32v30x_eth.c ****         for(offset = 0; offset < framelength; offset++)
2456:../Peripheral/src/ch32v30x_eth.c ****         {
2457:../Peripheral/src/ch32v30x_eth.c ****             (*(ppkt + offset)) = (*(__IO uint8_t *)((DMAPTPRxDescToGet->Buffer1Addr) + offset));
2458:../Peripheral/src/ch32v30x_eth.c ****         }
2459:../Peripheral/src/ch32v30x_eth.c ****     }
2460:../Peripheral/src/ch32v30x_eth.c ****     else
2461:../Peripheral/src/ch32v30x_eth.c ****     {
2462:../Peripheral/src/ch32v30x_eth.c ****         framelength = ETH_ERROR;
 3857              		.loc 1 2462 21
 3858 0018 0145     		li	a0,0
2449:../Peripheral/src/ch32v30x_eth.c ****        ((DMARxDescToGet->Status & ETH_DMARxDesc_LS) != (uint32_t)RESET) &&
 3859              		.loc 1 2449 7
 3860 001a 85E7     		bne	a5,zero,.L300
2450:../Peripheral/src/ch32v30x_eth.c ****        ((DMARxDescToGet->Status & ETH_DMARxDesc_LS) != (uint32_t)RESET) &&
 3861              		.loc 1 2450 24 discriminator 1
 3862 001c 0843     		lw	a0,0(a4)
2450:../Peripheral/src/ch32v30x_eth.c ****        ((DMARxDescToGet->Status & ETH_DMARxDesc_LS) != (uint32_t)RESET) &&
 3863              		.loc 1 2450 33 discriminator 1
 3864 001e 13750510 		andi	a0,a0,256
2449:../Peripheral/src/ch32v30x_eth.c ****        ((DMARxDescToGet->Status & ETH_DMARxDesc_LS) != (uint32_t)RESET) &&
 3865              		.loc 1 2449 73 discriminator 1
 3866 0022 05C1     		beq	a0,zero,.L300
2451:../Peripheral/src/ch32v30x_eth.c ****     {
 3867              		.loc 1 2451 24
 3868 0024 0843     		lw	a0,0(a4)
2451:../Peripheral/src/ch32v30x_eth.c ****     {
 3869              		.loc 1 2451 33
 3870 0026 13750520 		andi	a0,a0,512
2450:../Peripheral/src/ch32v30x_eth.c ****        ((DMARxDescToGet->Status & ETH_DMARxDesc_LS) != (uint32_t)RESET) &&
 3871              		.loc 1 2450 73
 3872 002a 01CD     		beq	a0,zero,.L300
2453:../Peripheral/src/ch32v30x_eth.c **** 
 3873              		.loc 1 2453 9 is_stmt 1
2453:../Peripheral/src/ch32v30x_eth.c **** 
 3874              		.loc 1 2453 39 is_stmt 0
 3875 002c 1843     		lw	a4,0(a4)
2457:../Peripheral/src/ch32v30x_eth.c ****         }
 3876              		.loc 1 2457 71
 3877 002e 17080000 		lla	a6,DMAPTPRxDescToGet
 3877      13080800 
2453:../Peripheral/src/ch32v30x_eth.c **** 
 3878              		.loc 1 2453 68
 3879 0036 0A07     		slli	a4,a4,2
 3880 0038 4983     		srli	a4,a4,18
2453:../Peripheral/src/ch32v30x_eth.c **** 
 3881              		.loc 1 2453 21
 3882 003a 1305C7FF 		addi	a0,a4,-4
 3883              	.LVL233:
2455:../Peripheral/src/ch32v30x_eth.c ****         {
 3884              		.loc 1 2455 9 is_stmt 1
 3885              	.L301:
2455:../Peripheral/src/ch32v30x_eth.c ****         {
 3886              		.loc 1 2455 32 discriminator 1
 3887 003e 63E7A704 		bltu	a5,a0,.L302
 3888              	.LVL234:
 3889              	.L300:
2463:../Peripheral/src/ch32v30x_eth.c ****     }
2464:../Peripheral/src/ch32v30x_eth.c **** 
2465:../Peripheral/src/ch32v30x_eth.c ****     if((ETH->DMASR & ETH_DMASR_RBUS) != (uint32_t)RESET)
 3890              		.loc 1 2465 5
 3891              		.loc 1 2465 12 is_stmt 0
 3892 0042 B7970240 		li	a5,1073909760
 3893 0046 D84B     		lw	a4,20(a5)
 3894              		.loc 1 2465 20
 3895 0048 13770708 		andi	a4,a4,128
 3896              		.loc 1 2465 7
 3897 004c 11C7     		beq	a4,zero,.L303
2466:../Peripheral/src/ch32v30x_eth.c ****     {
2467:../Peripheral/src/ch32v30x_eth.c ****         ETH->DMASR = ETH_DMASR_RBUS;
 3898              		.loc 1 2467 9 is_stmt 1
 3899              		.loc 1 2467 20 is_stmt 0
 3900 004e 13070008 		li	a4,128
 3901 0052 D8CB     		sw	a4,20(a5)
2468:../Peripheral/src/ch32v30x_eth.c ****         ETH->DMARPDR = 0;
 3902              		.loc 1 2468 9 is_stmt 1
 3903              		.loc 1 2468 22 is_stmt 0
 3904 0054 23A40700 		sw	zero,8(a5)
 3905              	.L303:
2469:../Peripheral/src/ch32v30x_eth.c ****     }
2470:../Peripheral/src/ch32v30x_eth.c **** 
2471:../Peripheral/src/ch32v30x_eth.c ****     *PTPRxTab++ = DMARxDescToGet->Buffer1Addr;
 3906              		.loc 1 2471 5 is_stmt 1
 3907              		.loc 1 2471 33 is_stmt 0
 3908 0058 9C42     		lw	a5,0(a3)
 3909              	.LVL235:
2472:../Peripheral/src/ch32v30x_eth.c ****     *PTPRxTab = DMARxDescToGet->Buffer2NextDescAddr;
2473:../Peripheral/src/ch32v30x_eth.c ****     DMARxDescToGet->Status |= ETH_DMARxDesc_OWN;
 3910              		.loc 1 2473 28
 3911 005a 37060080 		li	a2,-2147483648
 3912              	.LVL236:
2471:../Peripheral/src/ch32v30x_eth.c ****     *PTPRxTab = DMARxDescToGet->Buffer2NextDescAddr;
 3913              		.loc 1 2471 33
 3914 005e 9847     		lw	a4,8(a5)
2471:../Peripheral/src/ch32v30x_eth.c ****     *PTPRxTab = DMARxDescToGet->Buffer2NextDescAddr;
 3915              		.loc 1 2471 17
 3916 0060 98C1     		sw	a4,0(a1)
2472:../Peripheral/src/ch32v30x_eth.c ****     *PTPRxTab = DMARxDescToGet->Buffer2NextDescAddr;
 3917              		.loc 1 2472 5 is_stmt 1
2472:../Peripheral/src/ch32v30x_eth.c ****     *PTPRxTab = DMARxDescToGet->Buffer2NextDescAddr;
 3918              		.loc 1 2472 31 is_stmt 0
 3919 0062 D847     		lw	a4,12(a5)
2472:../Peripheral/src/ch32v30x_eth.c ****     *PTPRxTab = DMARxDescToGet->Buffer2NextDescAddr;
 3920              		.loc 1 2472 15
 3921 0064 D8C1     		sw	a4,4(a1)
 3922              		.loc 1 2473 5 is_stmt 1
 3923              		.loc 1 2473 19 is_stmt 0
 3924 0066 9843     		lw	a4,0(a5)
 3925              		.loc 1 2473 28
 3926 0068 518F     		or	a4,a4,a2
 3927 006a 98C3     		sw	a4,0(a5)
2474:../Peripheral/src/ch32v30x_eth.c **** 
2475:../Peripheral/src/ch32v30x_eth.c ****     if((DMARxDescToGet->ControlBufferSize & ETH_DMARxDesc_RCH) != (uint32_t)RESET)
 3928              		.loc 1 2475 5 is_stmt 1
 3929              		.loc 1 2475 23 is_stmt 0
 3930 006c D843     		lw	a4,4(a5)
 3931              		.loc 1 2475 43
 3932 006e 1166     		li	a2,16384
 3933 0070 798E     		and	a2,a4,a2
 3934              		.loc 1 2475 7
 3935 0072 1DCA     		beq	a2,zero,.L304
2476:../Peripheral/src/ch32v30x_eth.c ****     {
2477:../Peripheral/src/ch32v30x_eth.c ****         DMARxDescToGet = (ETH_DMADESCTypeDef *)(DMAPTPRxDescToGet->Buffer2NextDescAddr);
 3936              		.loc 1 2477 9 is_stmt 1
 3937              		.loc 1 2477 66 is_stmt 0
 3938 0074 17070000 		lla	a4,DMAPTPRxDescToGet
 3938      13070700 
 3939 007c 1C43     		lw	a5,0(a4)
 3940              		.loc 1 2477 24
 3941 007e D047     		lw	a2,12(a5)
 3942 0080 90C2     		sw	a2,0(a3)
2478:../Peripheral/src/ch32v30x_eth.c ****         if(DMAPTPRxDescToGet->Status != 0)
 3943              		.loc 1 2478 9 is_stmt 1
 3944              		.loc 1 2478 29 is_stmt 0
 3945 0082 9443     		lw	a3,0(a5)
 3946              		.loc 1 2478 11
 3947 0084 85C2     		beq	a3,zero,.L305
2479:../Peripheral/src/ch32v30x_eth.c ****         {
2480:../Peripheral/src/ch32v30x_eth.c ****             DMAPTPRxDescToGet = (ETH_DMADESCTypeDef *)(DMAPTPRxDescToGet->Status);
 3948              		.loc 1 2480 13 is_stmt 1
 3949              		.loc 1 2480 73 is_stmt 0
 3950 0086 9C43     		lw	a5,0(a5)
 3951              	.L319:
2481:../Peripheral/src/ch32v30x_eth.c ****         }
2482:../Peripheral/src/ch32v30x_eth.c ****         else
2483:../Peripheral/src/ch32v30x_eth.c ****         {
2484:../Peripheral/src/ch32v30x_eth.c ****             DMAPTPRxDescToGet++;
 3952              		.loc 1 2484 30
 3953 0088 1CC3     		sw	a5,0(a4)
 3954 008a 8280     		ret
 3955              	.LVL237:
 3956              	.L302:
2457:../Peripheral/src/ch32v30x_eth.c ****         }
 3957              		.loc 1 2457 13 is_stmt 1 discriminator 3
2457:../Peripheral/src/ch32v30x_eth.c ****         }
 3958              		.loc 1 2457 71 is_stmt 0 discriminator 3
 3959 008c 03270800 		lw	a4,0(a6)
2457:../Peripheral/src/ch32v30x_eth.c ****         }
 3960              		.loc 1 2457 86 discriminator 3
 3961 0090 1847     		lw	a4,8(a4)
 3962 0092 3E97     		add	a4,a5,a4
2457:../Peripheral/src/ch32v30x_eth.c ****         }
 3963              		.loc 1 2457 35 discriminator 3
 3964 0094 83480700 		lbu	a7,0(a4)
2457:../Peripheral/src/ch32v30x_eth.c ****         }
 3965              		.loc 1 2457 32 discriminator 3
 3966 0098 3307F600 		add	a4,a2,a5
2455:../Peripheral/src/ch32v30x_eth.c ****         {
 3967              		.loc 1 2455 53 discriminator 3
 3968 009c 8507     		addi	a5,a5,1
 3969              	.LVL238:
2457:../Peripheral/src/ch32v30x_eth.c ****         }
 3970              		.loc 1 2457 32 discriminator 3
 3971 009e 23001701 		sb	a7,0(a4)
2455:../Peripheral/src/ch32v30x_eth.c ****         {
 3972              		.loc 1 2455 53 is_stmt 1 discriminator 3
 3973              	.LVL239:
 3974 00a2 71BF     		j	.L301
 3975              	.LVL240:
 3976              	.L305:
 3977              		.loc 1 2484 13
 3978              		.loc 1 2484 30 is_stmt 0
 3979 00a4 C107     		addi	a5,a5,16
 3980 00a6 CDB7     		j	.L319
 3981              	.L304:
2485:../Peripheral/src/ch32v30x_eth.c ****         }
2486:../Peripheral/src/ch32v30x_eth.c ****     }
2487:../Peripheral/src/ch32v30x_eth.c ****     else
2488:../Peripheral/src/ch32v30x_eth.c ****     {
2489:../Peripheral/src/ch32v30x_eth.c ****         if((DMARxDescToGet->ControlBufferSize & ETH_DMARxDesc_RER) != (uint32_t)RESET)
 3982              		.loc 1 2489 9 is_stmt 1
 3983              		.loc 1 2489 47 is_stmt 0
 3984 00a8 2166     		li	a2,32768
 3985 00aa 718F     		and	a4,a4,a2
 3986              		.loc 1 2489 11
 3987 00ac 11C7     		beq	a4,zero,.L307
2490:../Peripheral/src/ch32v30x_eth.c ****         {
2491:../Peripheral/src/ch32v30x_eth.c ****             DMARxDescToGet = (ETH_DMADESCTypeDef *)(ETH->DMARDLAR);
 3988              		.loc 1 2491 13 is_stmt 1
 3989              		.loc 1 2491 56 is_stmt 0
 3990 00ae B7970240 		li	a5,1073909760
 3991 00b2 DC47     		lw	a5,12(a5)
 3992              	.L320:
2492:../Peripheral/src/ch32v30x_eth.c ****         }
2493:../Peripheral/src/ch32v30x_eth.c ****         else
2494:../Peripheral/src/ch32v30x_eth.c ****         {
2495:../Peripheral/src/ch32v30x_eth.c ****             DMARxDescToGet = (ETH_DMADESCTypeDef *)((uint32_t)DMARxDescToGet + 0x10 + ((ETH->DMABMR
 3993              		.loc 1 2495 28
 3994 00b4 9CC2     		sw	a5,0(a3)
 3995 00b6 8280     		ret
 3996              	.L307:
 3997              		.loc 1 2495 13 is_stmt 1
 3998              		.loc 1 2495 92 is_stmt 0
 3999 00b8 37970240 		li	a4,1073909760
 4000 00bc 1843     		lw	a4,0(a4)
 4001              		.loc 1 2495 85
 4002 00be C107     		addi	a5,a5,16
 4003              		.loc 1 2495 119
 4004 00c0 0983     		srli	a4,a4,2
 4005 00c2 7D8B     		andi	a4,a4,31
 4006              		.loc 1 2495 85
 4007 00c4 BA97     		add	a5,a4,a5
 4008 00c6 FDB7     		j	.L320
 4009              	.LVL241:
 4010              	.L308:
2447:../Peripheral/src/ch32v30x_eth.c ****     }
 4011              		.loc 1 2447 16
 4012 00c8 0145     		li	a0,0
 4013              	.LVL242:
2496:../Peripheral/src/ch32v30x_eth.c ****         }
2497:../Peripheral/src/ch32v30x_eth.c ****     }
2498:../Peripheral/src/ch32v30x_eth.c **** 
2499:../Peripheral/src/ch32v30x_eth.c ****     return (framelength);
2500:../Peripheral/src/ch32v30x_eth.c **** }
 4014              		.loc 1 2500 1
 4015 00ca 8280     		ret
 4016              		.cfi_endproc
 4017              	.LFE127:
 4019              		.section	.text.RGMII_TXC_Delay,"ax",@progbits
 4020              		.align	1
 4021              		.globl	RGMII_TXC_Delay
 4023              	RGMII_TXC_Delay:
 4024              	.LFB128:
2501:../Peripheral/src/ch32v30x_eth.c **** 
2502:../Peripheral/src/ch32v30x_eth.c **** /*********************************************************************
2503:../Peripheral/src/ch32v30x_eth.c ****  * @fn      RGMII_TXC_Delay
2504:../Peripheral/src/ch32v30x_eth.c ****  *
2505:../Peripheral/src/ch32v30x_eth.c ****  * @brief   Delay time.
2506:../Peripheral/src/ch32v30x_eth.c ****  *
2507:../Peripheral/src/ch32v30x_eth.c ****  * @return  none
2508:../Peripheral/src/ch32v30x_eth.c ****  */
2509:../Peripheral/src/ch32v30x_eth.c **** void RGMII_TXC_Delay(uint8_t clock_polarity, uint8_t delay_time)
2510:../Peripheral/src/ch32v30x_eth.c **** {
 4025              		.loc 1 2510 1 is_stmt 1
 4026              		.cfi_startproc
 4027              	.LVL243:
2511:../Peripheral/src/ch32v30x_eth.c ****     if(clock_polarity)
 4028              		.loc 1 2511 5
2512:../Peripheral/src/ch32v30x_eth.c ****     {
2513:../Peripheral/src/ch32v30x_eth.c ****         ETH->MACCR |= (uint32_t)(1 << 1);
 4029              		.loc 1 2513 12 is_stmt 0
 4030 0000 37870240 		li	a4,1073905664
 4031 0004 1C43     		lw	a5,0(a4)
2511:../Peripheral/src/ch32v30x_eth.c ****     if(clock_polarity)
 4032              		.loc 1 2511 7
 4033 0006 11CD     		beq	a0,zero,.L322
 4034              		.loc 1 2513 9 is_stmt 1
 4035              		.loc 1 2513 20 is_stmt 0
 4036 0008 93E72700 		ori	a5,a5,2
 4037              	.L325:
2514:../Peripheral/src/ch32v30x_eth.c ****     }
2515:../Peripheral/src/ch32v30x_eth.c ****     else
2516:../Peripheral/src/ch32v30x_eth.c ****     {
2517:../Peripheral/src/ch32v30x_eth.c ****         ETH->MACCR &= ~(uint32_t)(1 << 1);
 4038              		.loc 1 2517 20
 4039 000c 1CC3     		sw	a5,0(a4)
2518:../Peripheral/src/ch32v30x_eth.c ****     }
2519:../Peripheral/src/ch32v30x_eth.c ****     if(delay_time <= 7)
 4040              		.loc 1 2519 5 is_stmt 1
 4041              		.loc 1 2519 7 is_stmt 0
 4042 000e 9D47     		li	a5,7
 4043 0010 63E8B700 		bgtu	a1,a5,.L321
2520:../Peripheral/src/ch32v30x_eth.c ****     {
2521:../Peripheral/src/ch32v30x_eth.c ****         ETH->MACCR |= (uint32_t)(delay_time << 29);
 4044              		.loc 1 2521 9 is_stmt 1
 4045              		.loc 1 2521 12 is_stmt 0
 4046 0014 B7870240 		li	a5,1073905664
 4047 0018 9843     		lw	a4,0(a5)
 4048              		.loc 1 2521 23
 4049 001a F605     		slli	a1,a1,29
 4050              	.LVL244:
 4051              		.loc 1 2521 20
 4052 001c D98D     		or	a1,a1,a4
 4053 001e 8CC3     		sw	a1,0(a5)
 4054              	.L321:
2522:../Peripheral/src/ch32v30x_eth.c ****     }
2523:../Peripheral/src/ch32v30x_eth.c **** }
 4055              		.loc 1 2523 1
 4056 0020 8280     		ret
 4057              	.LVL245:
 4058              	.L322:
2517:../Peripheral/src/ch32v30x_eth.c ****     }
 4059              		.loc 1 2517 9 is_stmt 1
2517:../Peripheral/src/ch32v30x_eth.c ****     }
 4060              		.loc 1 2517 20 is_stmt 0
 4061 0022 F59B     		andi	a5,a5,-3
 4062 0024 E5B7     		j	.L325
 4063              		.cfi_endproc
 4064              	.LFE128:
 4066              		.globl	DMAPTPRxDescToGet
 4067              		.section	.sbss.DMAPTPRxDescToGet,"aw",@nobits
 4068              		.align	2
 4071              	DMAPTPRxDescToGet:
 4072 0000 00000000 		.zero	4
 4073              		.globl	DMAPTPTxDescToSet
 4074              		.section	.sbss.DMAPTPTxDescToSet,"aw",@nobits
 4075              		.align	2
 4078              	DMAPTPTxDescToSet:
 4079 0000 00000000 		.zero	4
 4080              		.globl	DMARxDescToGet
 4081              		.section	.sbss.DMARxDescToGet,"aw",@nobits
 4082              		.align	2
 4085              	DMARxDescToGet:
 4086 0000 00000000 		.zero	4
 4087              		.globl	DMATxDescToSet
 4088              		.section	.sbss.DMATxDescToSet,"aw",@nobits
 4089              		.align	2
 4092              	DMATxDescToSet:
 4093 0000 00000000 		.zero	4
 4094              		.text
 4095              	.Letext0:
 4096              		.file 2 "d:\\software\\mounriver_studio\\toolchain\\risc-v embedded gcc12\\riscv-none-elf\\include
 4097              		.file 3 "d:\\software\\mounriver_studio\\toolchain\\risc-v embedded gcc12\\riscv-none-elf\\include
 4098              		.file 4 "C:\\Users\\localhost\\Documents\\turbomoskal-repo\\qqexpert\\firmware\\MasterController\\
 4099              		.file 5 "C:\\Users\\localhost\\Documents\\turbomoskal-repo\\qqexpert\\firmware\\MasterController\\
 4100              		.file 6 "C:\\Users\\localhost\\Documents\\turbomoskal-repo\\qqexpert\\firmware\\MasterController\\
 4101              		.file 7 "C:\\Users\\localhost\\Documents\\turbomoskal-repo\\qqexpert\\firmware\\MasterController\\
DEFINED SYMBOLS
                            *ABS*:0000000000000000 ch32v30x_eth.c
C:\Users\LOCALH~1\AppData\Local\Temp\ccskN8Qo.s:14     .text.ETH_DeInit:0000000000000000 ETH_DeInit
C:\Users\LOCALH~1\AppData\Local\Temp\ccskN8Qo.s:18     .text.ETH_DeInit:0000000000000000 .L0 
C:\Users\LOCALH~1\AppData\Local\Temp\ccskN8Qo.s:19     .text.ETH_DeInit:0000000000000000 $x
C:\Users\LOCALH~1\AppData\Local\Temp\ccskN8Qo.s:19     .text.ETH_DeInit:0000000000000000 .L0 
C:\Users\LOCALH~1\AppData\Local\Temp\ccskN8Qo.s:20     .text.ETH_DeInit:0000000000000008 .L0 
C:\Users\LOCALH~1\AppData\Local\Temp\ccskN8Qo.s:21     .text.ETH_DeInit:0000000000000008 .L0 
C:\Users\LOCALH~1\AppData\Local\Temp\ccskN8Qo.s:23     .text.ETH_DeInit:0000000000000008 .L0 
C:\Users\LOCALH~1\AppData\Local\Temp\ccskN8Qo.s:28     .text.ETH_DeInit:0000000000000014 .L0 
C:\Users\LOCALH~1\AppData\Local\Temp\ccskN8Qo.s:33     .text.ETH_DeInit:0000000000000020 .L0 
C:\Users\LOCALH~1\AppData\Local\Temp\ccskN8Qo.s:34     .text.ETH_DeInit:0000000000000028 .L0 
C:\Users\LOCALH~1\AppData\Local\Temp\ccskN8Qo.s:35     .text.ETH_DeInit:0000000000000028 .L0 
C:\Users\LOCALH~1\AppData\Local\Temp\ccskN8Qo.s:36     .text.ETH_DeInit:0000000000000028 .L0 
C:\Users\LOCALH~1\AppData\Local\Temp\ccskN8Qo.s:43     .text.ETH_StructInit:0000000000000000 ETH_StructInit
C:\Users\LOCALH~1\AppData\Local\Temp\ccskN8Qo.s:46     .text.ETH_StructInit:0000000000000000 .L0 
C:\Users\LOCALH~1\AppData\Local\Temp\ccskN8Qo.s:48     .text.ETH_StructInit:0000000000000000 .L0 
C:\Users\LOCALH~1\AppData\Local\Temp\ccskN8Qo.s:49     .text.ETH_StructInit:0000000000000000 .L0 
C:\Users\LOCALH~1\AppData\Local\Temp\ccskN8Qo.s:50     .text.ETH_StructInit:0000000000000000 $x
C:\Users\LOCALH~1\AppData\Local\Temp\ccskN8Qo.s:50     .text.ETH_StructInit:0000000000000000 .L0 
C:\Users\LOCALH~1\AppData\Local\Temp\ccskN8Qo.s:53     .text.ETH_StructInit:0000000000000006 .L0 
C:\Users\LOCALH~1\AppData\Local\Temp\ccskN8Qo.s:56     .text.ETH_StructInit:000000000000000c .L0 
C:\Users\LOCALH~1\AppData\Local\Temp\ccskN8Qo.s:59     .text.ETH_StructInit:0000000000000012 .L0 
C:\Users\LOCALH~1\AppData\Local\Temp\ccskN8Qo.s:62     .text.ETH_StructInit:000000000000001a .L0 
C:\Users\LOCALH~1\AppData\Local\Temp\ccskN8Qo.s:64     .text.ETH_StructInit:000000000000001e .L0 
C:\Users\LOCALH~1\AppData\Local\Temp\ccskN8Qo.s:65     .text.ETH_StructInit:000000000000001e .L0 
C:\Users\LOCALH~1\AppData\Local\Temp\ccskN8Qo.s:67     .text.ETH_StructInit:0000000000000022 .L0 
C:\Users\LOCALH~1\AppData\Local\Temp\ccskN8Qo.s:68     .text.ETH_StructInit:0000000000000022 .L0 
C:\Users\LOCALH~1\AppData\Local\Temp\ccskN8Qo.s:70     .text.ETH_StructInit:0000000000000026 .L0 
C:\Users\LOCALH~1\AppData\Local\Temp\ccskN8Qo.s:71     .text.ETH_StructInit:0000000000000026 .L0 
C:\Users\LOCALH~1\AppData\Local\Temp\ccskN8Qo.s:73     .text.ETH_StructInit:000000000000002a .L0 
C:\Users\LOCALH~1\AppData\Local\Temp\ccskN8Qo.s:74     .text.ETH_StructInit:000000000000002a .L0 
C:\Users\LOCALH~1\AppData\Local\Temp\ccskN8Qo.s:76     .text.ETH_StructInit:000000000000002e .L0 
C:\Users\LOCALH~1\AppData\Local\Temp\ccskN8Qo.s:77     .text.ETH_StructInit:000000000000002e .L0 
C:\Users\LOCALH~1\AppData\Local\Temp\ccskN8Qo.s:79     .text.ETH_StructInit:0000000000000032 .L0 
C:\Users\LOCALH~1\AppData\Local\Temp\ccskN8Qo.s:80     .text.ETH_StructInit:0000000000000032 .L0 
C:\Users\LOCALH~1\AppData\Local\Temp\ccskN8Qo.s:82     .text.ETH_StructInit:0000000000000036 .L0 
C:\Users\LOCALH~1\AppData\Local\Temp\ccskN8Qo.s:83     .text.ETH_StructInit:0000000000000036 .L0 
C:\Users\LOCALH~1\AppData\Local\Temp\ccskN8Qo.s:85     .text.ETH_StructInit:000000000000003a .L0 
C:\Users\LOCALH~1\AppData\Local\Temp\ccskN8Qo.s:86     .text.ETH_StructInit:000000000000003a .L0 
C:\Users\LOCALH~1\AppData\Local\Temp\ccskN8Qo.s:88     .text.ETH_StructInit:000000000000003e .L0 
C:\Users\LOCALH~1\AppData\Local\Temp\ccskN8Qo.s:89     .text.ETH_StructInit:000000000000003e .L0 
C:\Users\LOCALH~1\AppData\Local\Temp\ccskN8Qo.s:91     .text.ETH_StructInit:0000000000000042 .L0 
C:\Users\LOCALH~1\AppData\Local\Temp\ccskN8Qo.s:92     .text.ETH_StructInit:0000000000000042 .L0 
C:\Users\LOCALH~1\AppData\Local\Temp\ccskN8Qo.s:94     .text.ETH_StructInit:0000000000000046 .L0 
C:\Users\LOCALH~1\AppData\Local\Temp\ccskN8Qo.s:95     .text.ETH_StructInit:0000000000000046 .L0 
C:\Users\LOCALH~1\AppData\Local\Temp\ccskN8Qo.s:97     .text.ETH_StructInit:000000000000004a .L0 
C:\Users\LOCALH~1\AppData\Local\Temp\ccskN8Qo.s:98     .text.ETH_StructInit:000000000000004a .L0 
C:\Users\LOCALH~1\AppData\Local\Temp\ccskN8Qo.s:100    .text.ETH_StructInit:000000000000004e .L0 
C:\Users\LOCALH~1\AppData\Local\Temp\ccskN8Qo.s:101    .text.ETH_StructInit:000000000000004e .L0 
C:\Users\LOCALH~1\AppData\Local\Temp\ccskN8Qo.s:103    .text.ETH_StructInit:0000000000000052 .L0 
C:\Users\LOCALH~1\AppData\Local\Temp\ccskN8Qo.s:104    .text.ETH_StructInit:0000000000000052 .L0 
C:\Users\LOCALH~1\AppData\Local\Temp\ccskN8Qo.s:106    .text.ETH_StructInit:0000000000000056 .L0 
C:\Users\LOCALH~1\AppData\Local\Temp\ccskN8Qo.s:107    .text.ETH_StructInit:0000000000000056 .L0 
C:\Users\LOCALH~1\AppData\Local\Temp\ccskN8Qo.s:109    .text.ETH_StructInit:000000000000005a .L0 
C:\Users\LOCALH~1\AppData\Local\Temp\ccskN8Qo.s:110    .text.ETH_StructInit:000000000000005a .L0 
C:\Users\LOCALH~1\AppData\Local\Temp\ccskN8Qo.s:111    .text.ETH_StructInit:000000000000005a .L0 
C:\Users\LOCALH~1\AppData\Local\Temp\ccskN8Qo.s:112    .text.ETH_StructInit:000000000000005a .L0 
C:\Users\LOCALH~1\AppData\Local\Temp\ccskN8Qo.s:114    .text.ETH_StructInit:000000000000005e .L0 
C:\Users\LOCALH~1\AppData\Local\Temp\ccskN8Qo.s:115    .text.ETH_StructInit:000000000000005e .L0 
C:\Users\LOCALH~1\AppData\Local\Temp\ccskN8Qo.s:117    .text.ETH_StructInit:0000000000000062 .L0 
C:\Users\LOCALH~1\AppData\Local\Temp\ccskN8Qo.s:118    .text.ETH_StructInit:0000000000000062 .L0 
C:\Users\LOCALH~1\AppData\Local\Temp\ccskN8Qo.s:120    .text.ETH_StructInit:0000000000000066 .L0 
C:\Users\LOCALH~1\AppData\Local\Temp\ccskN8Qo.s:121    .text.ETH_StructInit:0000000000000066 .L0 
C:\Users\LOCALH~1\AppData\Local\Temp\ccskN8Qo.s:123    .text.ETH_StructInit:000000000000006a .L0 
C:\Users\LOCALH~1\AppData\Local\Temp\ccskN8Qo.s:124    .text.ETH_StructInit:000000000000006a .L0 
C:\Users\LOCALH~1\AppData\Local\Temp\ccskN8Qo.s:126    .text.ETH_StructInit:000000000000006e .L0 
C:\Users\LOCALH~1\AppData\Local\Temp\ccskN8Qo.s:127    .text.ETH_StructInit:000000000000006e .L0 
C:\Users\LOCALH~1\AppData\Local\Temp\ccskN8Qo.s:129    .text.ETH_StructInit:0000000000000072 .L0 
C:\Users\LOCALH~1\AppData\Local\Temp\ccskN8Qo.s:130    .text.ETH_StructInit:0000000000000072 .L0 
C:\Users\LOCALH~1\AppData\Local\Temp\ccskN8Qo.s:132    .text.ETH_StructInit:0000000000000076 .L0 
C:\Users\LOCALH~1\AppData\Local\Temp\ccskN8Qo.s:133    .text.ETH_StructInit:0000000000000076 .L0 
C:\Users\LOCALH~1\AppData\Local\Temp\ccskN8Qo.s:134    .text.ETH_StructInit:0000000000000076 .L0 
C:\Users\LOCALH~1\AppData\Local\Temp\ccskN8Qo.s:136    .text.ETH_StructInit:000000000000007a .L0 
C:\Users\LOCALH~1\AppData\Local\Temp\ccskN8Qo.s:137    .text.ETH_StructInit:000000000000007a .L0 
C:\Users\LOCALH~1\AppData\Local\Temp\ccskN8Qo.s:139    .text.ETH_StructInit:000000000000007e .L0 
C:\Users\LOCALH~1\AppData\Local\Temp\ccskN8Qo.s:140    .text.ETH_StructInit:000000000000007e .L0 
C:\Users\LOCALH~1\AppData\Local\Temp\ccskN8Qo.s:142    .text.ETH_StructInit:0000000000000082 .L0 
C:\Users\LOCALH~1\AppData\Local\Temp\ccskN8Qo.s:143    .text.ETH_StructInit:0000000000000082 .L0 
C:\Users\LOCALH~1\AppData\Local\Temp\ccskN8Qo.s:145    .text.ETH_StructInit:0000000000000086 .L0 
C:\Users\LOCALH~1\AppData\Local\Temp\ccskN8Qo.s:146    .text.ETH_StructInit:0000000000000086 .L0 
C:\Users\LOCALH~1\AppData\Local\Temp\ccskN8Qo.s:148    .text.ETH_StructInit:000000000000008a .L0 
C:\Users\LOCALH~1\AppData\Local\Temp\ccskN8Qo.s:149    .text.ETH_StructInit:000000000000008a .L0 
C:\Users\LOCALH~1\AppData\Local\Temp\ccskN8Qo.s:151    .text.ETH_StructInit:000000000000008e .L0 
C:\Users\LOCALH~1\AppData\Local\Temp\ccskN8Qo.s:152    .text.ETH_StructInit:000000000000008e .L0 
C:\Users\LOCALH~1\AppData\Local\Temp\ccskN8Qo.s:154    .text.ETH_StructInit:0000000000000090 .L0 
C:\Users\LOCALH~1\AppData\Local\Temp\ccskN8Qo.s:155    .text.ETH_StructInit:0000000000000090 .L0 
C:\Users\LOCALH~1\AppData\Local\Temp\ccskN8Qo.s:158    .text.ETH_StructInit:0000000000000096 .L0 
C:\Users\LOCALH~1\AppData\Local\Temp\ccskN8Qo.s:159    .text.ETH_StructInit:0000000000000096 .L0 
C:\Users\LOCALH~1\AppData\Local\Temp\ccskN8Qo.s:161    .text.ETH_StructInit:000000000000009a .L0 
C:\Users\LOCALH~1\AppData\Local\Temp\ccskN8Qo.s:162    .text.ETH_StructInit:000000000000009a .L0 
C:\Users\LOCALH~1\AppData\Local\Temp\ccskN8Qo.s:165    .text.ETH_StructInit:00000000000000a0 .L0 
C:\Users\LOCALH~1\AppData\Local\Temp\ccskN8Qo.s:166    .text.ETH_StructInit:00000000000000a0 .L0 
C:\Users\LOCALH~1\AppData\Local\Temp\ccskN8Qo.s:168    .text.ETH_StructInit:00000000000000a4 .L0 
C:\Users\LOCALH~1\AppData\Local\Temp\ccskN8Qo.s:169    .text.ETH_StructInit:00000000000000a4 .L0 
C:\Users\LOCALH~1\AppData\Local\Temp\ccskN8Qo.s:171    .text.ETH_StructInit:00000000000000a8 .L0 
C:\Users\LOCALH~1\AppData\Local\Temp\ccskN8Qo.s:172    .text.ETH_StructInit:00000000000000a8 .L0 
C:\Users\LOCALH~1\AppData\Local\Temp\ccskN8Qo.s:174    .text.ETH_StructInit:00000000000000ac .L0 
C:\Users\LOCALH~1\AppData\Local\Temp\ccskN8Qo.s:175    .text.ETH_StructInit:00000000000000ac .L0 
C:\Users\LOCALH~1\AppData\Local\Temp\ccskN8Qo.s:177    .text.ETH_StructInit:00000000000000b0 .L0 
C:\Users\LOCALH~1\AppData\Local\Temp\ccskN8Qo.s:178    .text.ETH_StructInit:00000000000000b0 .L0 
C:\Users\LOCALH~1\AppData\Local\Temp\ccskN8Qo.s:180    .text.ETH_StructInit:00000000000000b4 .L0 
C:\Users\LOCALH~1\AppData\Local\Temp\ccskN8Qo.s:181    .text.ETH_StructInit:00000000000000b4 .L0 
C:\Users\LOCALH~1\AppData\Local\Temp\ccskN8Qo.s:183    .text.ETH_StructInit:00000000000000b6 .L0 
C:\Users\LOCALH~1\AppData\Local\Temp\ccskN8Qo.s:184    .text.ETH_StructInit:00000000000000b6 .L0 
C:\Users\LOCALH~1\AppData\Local\Temp\ccskN8Qo.s:186    .text.ETH_StructInit:00000000000000ba .L0 
C:\Users\LOCALH~1\AppData\Local\Temp\ccskN8Qo.s:187    .text.ETH_StructInit:00000000000000ba .L0 
C:\Users\LOCALH~1\AppData\Local\Temp\ccskN8Qo.s:190    .text.ETH_StructInit:00000000000000c0 .L0 
C:\Users\LOCALH~1\AppData\Local\Temp\ccskN8Qo.s:191    .text.ETH_StructInit:00000000000000c0 .L0 
C:\Users\LOCALH~1\AppData\Local\Temp\ccskN8Qo.s:194    .text.ETH_StructInit:00000000000000c6 .L0 
C:\Users\LOCALH~1\AppData\Local\Temp\ccskN8Qo.s:195    .text.ETH_StructInit:00000000000000c6 .L0 
C:\Users\LOCALH~1\AppData\Local\Temp\ccskN8Qo.s:197    .text.ETH_StructInit:00000000000000ca .L0 
C:\Users\LOCALH~1\AppData\Local\Temp\ccskN8Qo.s:198    .text.ETH_StructInit:00000000000000ca .L0 
C:\Users\LOCALH~1\AppData\Local\Temp\ccskN8Qo.s:200    .text.ETH_StructInit:00000000000000ce .L0 
C:\Users\LOCALH~1\AppData\Local\Temp\ccskN8Qo.s:201    .text.ETH_StructInit:00000000000000d0 .L0 
C:\Users\LOCALH~1\AppData\Local\Temp\ccskN8Qo.s:208    .text.ETH_HandleTxPkt:0000000000000000 ETH_HandleTxPkt
C:\Users\LOCALH~1\AppData\Local\Temp\ccskN8Qo.s:211    .text.ETH_HandleTxPkt:0000000000000000 .L0 
C:\Users\LOCALH~1\AppData\Local\Temp\ccskN8Qo.s:213    .text.ETH_HandleTxPkt:0000000000000000 .L0 
C:\Users\LOCALH~1\AppData\Local\Temp\ccskN8Qo.s:214    .text.ETH_HandleTxPkt:0000000000000000 .L0 
C:\Users\LOCALH~1\AppData\Local\Temp\ccskN8Qo.s:215    .text.ETH_HandleTxPkt:0000000000000000 .L0 
C:\Users\LOCALH~1\AppData\Local\Temp\ccskN8Qo.s:216    .text.ETH_HandleTxPkt:0000000000000000 $x
C:\Users\LOCALH~1\AppData\Local\Temp\ccskN8Qo.s:4092   .sbss.DMATxDescToSet:0000000000000000 DMATxDescToSet
C:\Users\LOCALH~1\AppData\Local\Temp\ccskN8Qo.s:216    .text.ETH_HandleTxPkt:0000000000000000 .L0 
C:\Users\LOCALH~1\AppData\Local\Temp\ccskN8Qo.s:219    .text.ETH_HandleTxPkt:000000000000000a .L0 
C:\Users\LOCALH~1\AppData\Local\Temp\ccskN8Qo.s:221    .text.ETH_HandleTxPkt:000000000000000c .L0 
C:\Users\LOCALH~1\AppData\Local\Temp\ccskN8Qo.s:223    .text.ETH_HandleTxPkt:000000000000000e .L0 
C:\Users\LOCALH~1\AppData\Local\Temp\ccskN8Qo.s:225    .text.ETH_HandleTxPkt:0000000000000012 .L0 
C:\Users\LOCALH~1\AppData\Local\Temp\ccskN8Qo.s:228    .text.ETH_HandleTxPkt:0000000000000014 .L0 
C:\Users\LOCALH~1\AppData\Local\Temp\ccskN8Qo.s:232    .text.ETH_HandleTxPkt:0000000000000016 .L0 
C:\Users\LOCALH~1\AppData\Local\Temp\ccskN8Qo.s:233    .text.ETH_HandleTxPkt:0000000000000016 .L0 
C:\Users\LOCALH~1\AppData\Local\Temp\ccskN8Qo.s:235    .text.ETH_HandleTxPkt:000000000000001a .L0 
C:\Users\LOCALH~1\AppData\Local\Temp\ccskN8Qo.s:237    .text.ETH_HandleTxPkt:000000000000001c .L0 
C:\Users\LOCALH~1\AppData\Local\Temp\ccskN8Qo.s:239    .text.ETH_HandleTxPkt:000000000000001e .L0 
C:\Users\LOCALH~1\AppData\Local\Temp\ccskN8Qo.s:241    .text.ETH_HandleTxPkt:0000000000000020 .L0 
C:\Users\LOCALH~1\AppData\Local\Temp\ccskN8Qo.s:243    .text.ETH_HandleTxPkt:0000000000000022 .L0 
C:\Users\LOCALH~1\AppData\Local\Temp\ccskN8Qo.s:247    .text.ETH_HandleTxPkt:0000000000000024 .L0 
C:\Users\LOCALH~1\AppData\Local\Temp\ccskN8Qo.s:248    .text.ETH_HandleTxPkt:0000000000000024 .L0 
C:\Users\LOCALH~1\AppData\Local\Temp\ccskN8Qo.s:250    .text.ETH_HandleTxPkt:0000000000000026 .L0 
C:\Users\LOCALH~1\AppData\Local\Temp\ccskN8Qo.s:252    .text.ETH_HandleTxPkt:000000000000002a .L0 
C:\Users\LOCALH~1\AppData\Local\Temp\ccskN8Qo.s:253    .text.ETH_HandleTxPkt:000000000000002a .L0 
C:\Users\LOCALH~1\AppData\Local\Temp\ccskN8Qo.s:256    .text.ETH_HandleTxPkt:000000000000002c .L0 
C:\Users\LOCALH~1\AppData\Local\Temp\ccskN8Qo.s:258    .text.ETH_HandleTxPkt:0000000000000030 .L0 
C:\Users\LOCALH~1\AppData\Local\Temp\ccskN8Qo.s:261    .text.ETH_HandleTxPkt:0000000000000032 .L0 
C:\Users\LOCALH~1\AppData\Local\Temp\ccskN8Qo.s:264    .text.ETH_HandleTxPkt:0000000000000036 .L0 
C:\Users\LOCALH~1\AppData\Local\Temp\ccskN8Qo.s:266    .text.ETH_HandleTxPkt:0000000000000038 .L0 
C:\Users\LOCALH~1\AppData\Local\Temp\ccskN8Qo.s:268    .text.ETH_HandleTxPkt:000000000000003c .L0 
C:\Users\LOCALH~1\AppData\Local\Temp\ccskN8Qo.s:270    .text.ETH_HandleTxPkt:000000000000003e .L0 
C:\Users\LOCALH~1\AppData\Local\Temp\ccskN8Qo.s:273    .text.ETH_HandleTxPkt:0000000000000042 .L0 
C:\Users\LOCALH~1\AppData\Local\Temp\ccskN8Qo.s:275    .text.ETH_HandleTxPkt:0000000000000044 .L0 
C:\Users\LOCALH~1\AppData\Local\Temp\ccskN8Qo.s:276    .text.ETH_HandleTxPkt:0000000000000044 .L0 
C:\Users\LOCALH~1\AppData\Local\Temp\ccskN8Qo.s:277    .text.ETH_HandleTxPkt:0000000000000044 .L0 
C:\Users\LOCALH~1\AppData\Local\Temp\ccskN8Qo.s:278    .text.ETH_HandleTxPkt:0000000000000044 .L0 
C:\Users\LOCALH~1\AppData\Local\Temp\ccskN8Qo.s:281    .text.ETH_HandleTxPkt:000000000000004a .L0 
C:\Users\LOCALH~1\AppData\Local\Temp\ccskN8Qo.s:283    .text.ETH_HandleTxPkt:000000000000004c .L0 
C:\Users\LOCALH~1\AppData\Local\Temp\ccskN8Qo.s:285    .text.ETH_HandleTxPkt:000000000000004e .L0 
C:\Users\LOCALH~1\AppData\Local\Temp\ccskN8Qo.s:286    .text.ETH_HandleTxPkt:000000000000004e .L0 
C:\Users\LOCALH~1\AppData\Local\Temp\ccskN8Qo.s:289    .text.ETH_HandleTxPkt:0000000000000052 .L0 
C:\Users\LOCALH~1\AppData\Local\Temp\ccskN8Qo.s:290    .text.ETH_HandleTxPkt:0000000000000052 .L0 
C:\Users\LOCALH~1\AppData\Local\Temp\ccskN8Qo.s:293    .text.ETH_HandleTxPkt:0000000000000056 .L0 
C:\Users\LOCALH~1\AppData\Local\Temp\ccskN8Qo.s:294    .text.ETH_HandleTxPkt:0000000000000056 .L0 
C:\Users\LOCALH~1\AppData\Local\Temp\ccskN8Qo.s:296    .text.ETH_HandleTxPkt:0000000000000058 .L0 
C:\Users\LOCALH~1\AppData\Local\Temp\ccskN8Qo.s:299    .text.ETH_HandleTxPkt:000000000000005e .L0 
C:\Users\LOCALH~1\AppData\Local\Temp\ccskN8Qo.s:301    .text.ETH_HandleTxPkt:0000000000000060 .L0 
C:\Users\LOCALH~1\AppData\Local\Temp\ccskN8Qo.s:302    .text.ETH_HandleTxPkt:0000000000000060 .L0 
C:\Users\LOCALH~1\AppData\Local\Temp\ccskN8Qo.s:305    .text.ETH_HandleTxPkt:0000000000000062 .L0 
C:\Users\LOCALH~1\AppData\Local\Temp\ccskN8Qo.s:307    .text.ETH_HandleTxPkt:0000000000000064 .L0 
C:\Users\LOCALH~1\AppData\Local\Temp\ccskN8Qo.s:313    .text.ETH_HandleTxPkt:0000000000000068 .L0 
C:\Users\LOCALH~1\AppData\Local\Temp\ccskN8Qo.s:314    .text.ETH_HandleTxPkt:0000000000000068 .L0 
C:\Users\LOCALH~1\AppData\Local\Temp\ccskN8Qo.s:316    .text.ETH_HandleTxPkt:000000000000006a .L0 
C:\Users\LOCALH~1\AppData\Local\Temp\ccskN8Qo.s:319    .text.ETH_HandleTxPkt:0000000000000070 .L0 
C:\Users\LOCALH~1\AppData\Local\Temp\ccskN8Qo.s:321    .text.ETH_HandleTxPkt:0000000000000072 .L0 
C:\Users\LOCALH~1\AppData\Local\Temp\ccskN8Qo.s:322    .text.ETH_HandleTxPkt:0000000000000072 .L0 
C:\Users\LOCALH~1\AppData\Local\Temp\ccskN8Qo.s:327    .text.ETH_HandleTxPkt:000000000000007a .L0 
C:\Users\LOCALH~1\AppData\Local\Temp\ccskN8Qo.s:328    .text.ETH_HandleTxPkt:000000000000007a .L0 
C:\Users\LOCALH~1\AppData\Local\Temp\ccskN8Qo.s:331    .text.ETH_HandleTxPkt:0000000000000080 .L0 
C:\Users\LOCALH~1\AppData\Local\Temp\ccskN8Qo.s:333    .text.ETH_HandleTxPkt:0000000000000082 .L0 
C:\Users\LOCALH~1\AppData\Local\Temp\ccskN8Qo.s:336    .text.ETH_HandleTxPkt:0000000000000086 .L0 
C:\Users\LOCALH~1\AppData\Local\Temp\ccskN8Qo.s:338    .text.ETH_HandleTxPkt:000000000000008a .L0 
C:\Users\LOCALH~1\AppData\Local\Temp\ccskN8Qo.s:345    .text.ETH_HandleRxPkt:0000000000000000 ETH_HandleRxPkt
C:\Users\LOCALH~1\AppData\Local\Temp\ccskN8Qo.s:348    .text.ETH_HandleRxPkt:0000000000000000 .L0 
C:\Users\LOCALH~1\AppData\Local\Temp\ccskN8Qo.s:350    .text.ETH_HandleRxPkt:0000000000000000 .L0 
C:\Users\LOCALH~1\AppData\Local\Temp\ccskN8Qo.s:351    .text.ETH_HandleRxPkt:0000000000000000 .L0 
C:\Users\LOCALH~1\AppData\Local\Temp\ccskN8Qo.s:352    .text.ETH_HandleRxPkt:0000000000000000 .L0 
C:\Users\LOCALH~1\AppData\Local\Temp\ccskN8Qo.s:353    .text.ETH_HandleRxPkt:0000000000000000 $x
C:\Users\LOCALH~1\AppData\Local\Temp\ccskN8Qo.s:4085   .sbss.DMARxDescToGet:0000000000000000 DMARxDescToGet
C:\Users\LOCALH~1\AppData\Local\Temp\ccskN8Qo.s:353    .text.ETH_HandleRxPkt:0000000000000000 .L0 
C:\Users\LOCALH~1\AppData\Local\Temp\ccskN8Qo.s:356    .text.ETH_HandleRxPkt:000000000000000a .L0 
C:\Users\LOCALH~1\AppData\Local\Temp\ccskN8Qo.s:358    .text.ETH_HandleRxPkt:000000000000000c .L0 
C:\Users\LOCALH~1\AppData\Local\Temp\ccskN8Qo.s:360    .text.ETH_HandleRxPkt:000000000000000e .L0 
C:\Users\LOCALH~1\AppData\Local\Temp\ccskN8Qo.s:362    .text.ETH_HandleRxPkt:0000000000000012 .L0 
C:\Users\LOCALH~1\AppData\Local\Temp\ccskN8Qo.s:363    .text.ETH_HandleRxPkt:0000000000000012 .L0 
C:\Users\LOCALH~1\AppData\Local\Temp\ccskN8Qo.s:365    .text.ETH_HandleRxPkt:0000000000000014 .L0 
C:\Users\LOCALH~1\AppData\Local\Temp\ccskN8Qo.s:367    .text.ETH_HandleRxPkt:0000000000000016 .L0 
C:\Users\LOCALH~1\AppData\Local\Temp\ccskN8Qo.s:370    .text.ETH_HandleRxPkt:0000000000000018 .L0 
C:\Users\LOCALH~1\AppData\Local\Temp\ccskN8Qo.s:372    .text.ETH_HandleRxPkt:000000000000001a .L0 
C:\Users\LOCALH~1\AppData\Local\Temp\ccskN8Qo.s:374    .text.ETH_HandleRxPkt:000000000000001c .L0 
C:\Users\LOCALH~1\AppData\Local\Temp\ccskN8Qo.s:376    .text.ETH_HandleRxPkt:000000000000001e .L0 
C:\Users\LOCALH~1\AppData\Local\Temp\ccskN8Qo.s:378    .text.ETH_HandleRxPkt:0000000000000022 .L0 
C:\Users\LOCALH~1\AppData\Local\Temp\ccskN8Qo.s:380    .text.ETH_HandleRxPkt:0000000000000024 .L0 
C:\Users\LOCALH~1\AppData\Local\Temp\ccskN8Qo.s:382    .text.ETH_HandleRxPkt:0000000000000026 .L0 
C:\Users\LOCALH~1\AppData\Local\Temp\ccskN8Qo.s:384    .text.ETH_HandleRxPkt:000000000000002a .L0 
C:\Users\LOCALH~1\AppData\Local\Temp\ccskN8Qo.s:386    .text.ETH_HandleRxPkt:000000000000002c .L0 
C:\Users\LOCALH~1\AppData\Local\Temp\ccskN8Qo.s:387    .text.ETH_HandleRxPkt:000000000000002c .L0 
C:\Users\LOCALH~1\AppData\Local\Temp\ccskN8Qo.s:389    .text.ETH_HandleRxPkt:000000000000002e .L0 
C:\Users\LOCALH~1\AppData\Local\Temp\ccskN8Qo.s:392    .text.ETH_HandleRxPkt:0000000000000032 .L0 
C:\Users\LOCALH~1\AppData\Local\Temp\ccskN8Qo.s:396    .text.ETH_HandleRxPkt:0000000000000036 .L0 
C:\Users\LOCALH~1\AppData\Local\Temp\ccskN8Qo.s:397    .text.ETH_HandleRxPkt:0000000000000036 .L0 
C:\Users\LOCALH~1\AppData\Local\Temp\ccskN8Qo.s:398    .text.ETH_HandleRxPkt:0000000000000036 .L0 
C:\Users\LOCALH~1\AppData\Local\Temp\ccskN8Qo.s:400    .text.ETH_HandleRxPkt:0000000000000038 .L0 
C:\Users\LOCALH~1\AppData\Local\Temp\ccskN8Qo.s:404    .text.ETH_HandleRxPkt:000000000000003c .L0 
C:\Users\LOCALH~1\AppData\Local\Temp\ccskN8Qo.s:405    .text.ETH_HandleRxPkt:000000000000003c .L0 
C:\Users\LOCALH~1\AppData\Local\Temp\ccskN8Qo.s:407    .text.ETH_HandleRxPkt:000000000000003e .L0 
C:\Users\LOCALH~1\AppData\Local\Temp\ccskN8Qo.s:410    .text.ETH_HandleRxPkt:0000000000000044 .L0 
C:\Users\LOCALH~1\AppData\Local\Temp\ccskN8Qo.s:411    .text.ETH_HandleRxPkt:0000000000000044 .L0 
C:\Users\LOCALH~1\AppData\Local\Temp\ccskN8Qo.s:415    .text.ETH_HandleRxPkt:000000000000004a .L0 
C:\Users\LOCALH~1\AppData\Local\Temp\ccskN8Qo.s:417    .text.ETH_HandleRxPkt:000000000000004e .L0 
C:\Users\LOCALH~1\AppData\Local\Temp\ccskN8Qo.s:419    .text.ETH_HandleRxPkt:0000000000000050 .L0 
C:\Users\LOCALH~1\AppData\Local\Temp\ccskN8Qo.s:420    .text.ETH_HandleRxPkt:0000000000000050 .L0 
C:\Users\LOCALH~1\AppData\Local\Temp\ccskN8Qo.s:423    .text.ETH_HandleRxPkt:0000000000000056 .L0 
C:\Users\LOCALH~1\AppData\Local\Temp\ccskN8Qo.s:424    .text.ETH_HandleRxPkt:0000000000000056 .L0 
C:\Users\LOCALH~1\AppData\Local\Temp\ccskN8Qo.s:427    .text.ETH_HandleRxPkt:000000000000005a .L0 
C:\Users\LOCALH~1\AppData\Local\Temp\ccskN8Qo.s:428    .text.ETH_HandleRxPkt:000000000000005a .L0 
C:\Users\LOCALH~1\AppData\Local\Temp\ccskN8Qo.s:430    .text.ETH_HandleRxPkt:000000000000005c .L0 
C:\Users\LOCALH~1\AppData\Local\Temp\ccskN8Qo.s:433    .text.ETH_HandleRxPkt:0000000000000060 .L0 
C:\Users\LOCALH~1\AppData\Local\Temp\ccskN8Qo.s:435    .text.ETH_HandleRxPkt:0000000000000062 .L0 
C:\Users\LOCALH~1\AppData\Local\Temp\ccskN8Qo.s:436    .text.ETH_HandleRxPkt:0000000000000062 .L0 
C:\Users\LOCALH~1\AppData\Local\Temp\ccskN8Qo.s:439    .text.ETH_HandleRxPkt:0000000000000064 .L0 
C:\Users\LOCALH~1\AppData\Local\Temp\ccskN8Qo.s:444    .text.ETH_HandleRxPkt:0000000000000068 .L0 
C:\Users\LOCALH~1\AppData\Local\Temp\ccskN8Qo.s:445    .text.ETH_HandleRxPkt:0000000000000068 .L0 
C:\Users\LOCALH~1\AppData\Local\Temp\ccskN8Qo.s:448    .text.ETH_HandleRxPkt:000000000000006c .L0 
C:\Users\LOCALH~1\AppData\Local\Temp\ccskN8Qo.s:450    .text.ETH_HandleRxPkt:000000000000006e .L0 
C:\Users\LOCALH~1\AppData\Local\Temp\ccskN8Qo.s:452    .text.ETH_HandleRxPkt:0000000000000072 .L0 
C:\Users\LOCALH~1\AppData\Local\Temp\ccskN8Qo.s:455    .text.ETH_HandleRxPkt:0000000000000074 .L0 
C:\Users\LOCALH~1\AppData\Local\Temp\ccskN8Qo.s:458    .text.ETH_HandleRxPkt:0000000000000076 .L0 
C:\Users\LOCALH~1\AppData\Local\Temp\ccskN8Qo.s:462    .text.ETH_HandleRxPkt:0000000000000078 .L0 
C:\Users\LOCALH~1\AppData\Local\Temp\ccskN8Qo.s:463    .text.ETH_HandleRxPkt:0000000000000078 .L0 
C:\Users\LOCALH~1\AppData\Local\Temp\ccskN8Qo.s:466    .text.ETH_HandleRxPkt:000000000000007c .L0 
C:\Users\LOCALH~1\AppData\Local\Temp\ccskN8Qo.s:468    .text.ETH_HandleRxPkt:000000000000007e .L0 
C:\Users\LOCALH~1\AppData\Local\Temp\ccskN8Qo.s:469    .text.ETH_HandleRxPkt:000000000000007e .L0 
C:\Users\LOCALH~1\AppData\Local\Temp\ccskN8Qo.s:474    .text.ETH_HandleRxPkt:0000000000000086 .L0 
C:\Users\LOCALH~1\AppData\Local\Temp\ccskN8Qo.s:475    .text.ETH_HandleRxPkt:0000000000000086 .L0 
C:\Users\LOCALH~1\AppData\Local\Temp\ccskN8Qo.s:478    .text.ETH_HandleRxPkt:000000000000008c .L0 
C:\Users\LOCALH~1\AppData\Local\Temp\ccskN8Qo.s:480    .text.ETH_HandleRxPkt:000000000000008e .L0 
C:\Users\LOCALH~1\AppData\Local\Temp\ccskN8Qo.s:483    .text.ETH_HandleRxPkt:0000000000000092 .L0 
C:\Users\LOCALH~1\AppData\Local\Temp\ccskN8Qo.s:488    .text.ETH_HandleRxPkt:0000000000000096 .L0 
C:\Users\LOCALH~1\AppData\Local\Temp\ccskN8Qo.s:491    .text.ETH_HandleRxPkt:0000000000000098 .L0 
C:\Users\LOCALH~1\AppData\Local\Temp\ccskN8Qo.s:492    .text.ETH_HandleRxPkt:000000000000009a .L0 
C:\Users\LOCALH~1\AppData\Local\Temp\ccskN8Qo.s:499    .text.ETH_GetRxPktSize:0000000000000000 ETH_GetRxPktSize
C:\Users\LOCALH~1\AppData\Local\Temp\ccskN8Qo.s:502    .text.ETH_GetRxPktSize:0000000000000000 .L0 
C:\Users\LOCALH~1\AppData\Local\Temp\ccskN8Qo.s:503    .text.ETH_GetRxPktSize:0000000000000000 .L0 
C:\Users\LOCALH~1\AppData\Local\Temp\ccskN8Qo.s:505    .text.ETH_GetRxPktSize:0000000000000000 .L0 
C:\Users\LOCALH~1\AppData\Local\Temp\ccskN8Qo.s:506    .text.ETH_GetRxPktSize:0000000000000000 .L0 
C:\Users\LOCALH~1\AppData\Local\Temp\ccskN8Qo.s:507    .text.ETH_GetRxPktSize:0000000000000000 $x
C:\Users\LOCALH~1\AppData\Local\Temp\ccskN8Qo.s:507    .text.ETH_GetRxPktSize:0000000000000000 .L0 
C:\Users\LOCALH~1\AppData\Local\Temp\ccskN8Qo.s:510    .text.ETH_GetRxPktSize:000000000000000a .L0 
C:\Users\LOCALH~1\AppData\Local\Temp\ccskN8Qo.s:512    .text.ETH_GetRxPktSize:000000000000000c .L0 
C:\Users\LOCALH~1\AppData\Local\Temp\ccskN8Qo.s:514    .text.ETH_GetRxPktSize:0000000000000010 .L0 
C:\Users\LOCALH~1\AppData\Local\Temp\ccskN8Qo.s:516    .text.ETH_GetRxPktSize:0000000000000012 .L0 
C:\Users\LOCALH~1\AppData\Local\Temp\ccskN8Qo.s:519    .text.ETH_GetRxPktSize:0000000000000016 .L0 
C:\Users\LOCALH~1\AppData\Local\Temp\ccskN8Qo.s:521    .text.ETH_GetRxPktSize:0000000000000018 .L0 
C:\Users\LOCALH~1\AppData\Local\Temp\ccskN8Qo.s:523    .text.ETH_GetRxPktSize:000000000000001a .L0 
C:\Users\LOCALH~1\AppData\Local\Temp\ccskN8Qo.s:525    .text.ETH_GetRxPktSize:000000000000001e .L0 
C:\Users\LOCALH~1\AppData\Local\Temp\ccskN8Qo.s:527    .text.ETH_GetRxPktSize:0000000000000020 .L0 
C:\Users\LOCALH~1\AppData\Local\Temp\ccskN8Qo.s:529    .text.ETH_GetRxPktSize:0000000000000022 .L0 
C:\Users\LOCALH~1\AppData\Local\Temp\ccskN8Qo.s:531    .text.ETH_GetRxPktSize:0000000000000026 .L0 
C:\Users\LOCALH~1\AppData\Local\Temp\ccskN8Qo.s:536    .text.ETH_GetRxPktSize:0000000000000028 .L0 
C:\Users\LOCALH~1\AppData\Local\Temp\ccskN8Qo.s:537    .text.ETH_GetRxPktSize:0000000000000028 .L0 
C:\Users\LOCALH~1\AppData\Local\Temp\ccskN8Qo.s:538    .text.ETH_GetRxPktSize:0000000000000028 .L0 
C:\Users\LOCALH~1\AppData\Local\Temp\ccskN8Qo.s:540    .text.ETH_GetRxPktSize:000000000000002a .L0 
C:\Users\LOCALH~1\AppData\Local\Temp\ccskN8Qo.s:547    .text.ETH_GetRxPktSize:000000000000002e .L0 
C:\Users\LOCALH~1\AppData\Local\Temp\ccskN8Qo.s:548    .text.ETH_GetRxPktSize:0000000000000030 .L0 
C:\Users\LOCALH~1\AppData\Local\Temp\ccskN8Qo.s:555    .text.ETH_DropRxPkt:0000000000000000 ETH_DropRxPkt
C:\Users\LOCALH~1\AppData\Local\Temp\ccskN8Qo.s:558    .text.ETH_DropRxPkt:0000000000000000 .L0 
C:\Users\LOCALH~1\AppData\Local\Temp\ccskN8Qo.s:559    .text.ETH_DropRxPkt:0000000000000000 .L0 
C:\Users\LOCALH~1\AppData\Local\Temp\ccskN8Qo.s:560    .text.ETH_DropRxPkt:0000000000000000 .L0 
C:\Users\LOCALH~1\AppData\Local\Temp\ccskN8Qo.s:561    .text.ETH_DropRxPkt:0000000000000000 $x
C:\Users\LOCALH~1\AppData\Local\Temp\ccskN8Qo.s:561    .text.ETH_DropRxPkt:0000000000000000 .L0 
C:\Users\LOCALH~1\AppData\Local\Temp\ccskN8Qo.s:564    .text.ETH_DropRxPkt:000000000000000a .L0 
C:\Users\LOCALH~1\AppData\Local\Temp\ccskN8Qo.s:566    .text.ETH_DropRxPkt:000000000000000e .L0 
C:\Users\LOCALH~1\AppData\Local\Temp\ccskN8Qo.s:568    .text.ETH_DropRxPkt:0000000000000010 .L0 
C:\Users\LOCALH~1\AppData\Local\Temp\ccskN8Qo.s:570    .text.ETH_DropRxPkt:0000000000000012 .L0 
C:\Users\LOCALH~1\AppData\Local\Temp\ccskN8Qo.s:571    .text.ETH_DropRxPkt:0000000000000012 .L0 
C:\Users\LOCALH~1\AppData\Local\Temp\ccskN8Qo.s:573    .text.ETH_DropRxPkt:0000000000000014 .L0 
C:\Users\LOCALH~1\AppData\Local\Temp\ccskN8Qo.s:575    .text.ETH_DropRxPkt:0000000000000016 .L0 
C:\Users\LOCALH~1\AppData\Local\Temp\ccskN8Qo.s:577    .text.ETH_DropRxPkt:0000000000000018 .L0 
C:\Users\LOCALH~1\AppData\Local\Temp\ccskN8Qo.s:578    .text.ETH_DropRxPkt:0000000000000018 .L0 
C:\Users\LOCALH~1\AppData\Local\Temp\ccskN8Qo.s:581    .text.ETH_DropRxPkt:000000000000001a .L0 
C:\Users\LOCALH~1\AppData\Local\Temp\ccskN8Qo.s:583    .text.ETH_DropRxPkt:000000000000001c .L0 
C:\Users\LOCALH~1\AppData\Local\Temp\ccskN8Qo.s:586    .text.ETH_DropRxPkt:000000000000001e .L0 
C:\Users\LOCALH~1\AppData\Local\Temp\ccskN8Qo.s:587    .text.ETH_DropRxPkt:000000000000001e .L0 
C:\Users\LOCALH~1\AppData\Local\Temp\ccskN8Qo.s:590    .text.ETH_DropRxPkt:0000000000000022 .L0 
C:\Users\LOCALH~1\AppData\Local\Temp\ccskN8Qo.s:592    .text.ETH_DropRxPkt:0000000000000024 .L0 
C:\Users\LOCALH~1\AppData\Local\Temp\ccskN8Qo.s:593    .text.ETH_DropRxPkt:0000000000000024 .L0 
C:\Users\LOCALH~1\AppData\Local\Temp\ccskN8Qo.s:598    .text.ETH_DropRxPkt:000000000000002c .L0 
C:\Users\LOCALH~1\AppData\Local\Temp\ccskN8Qo.s:599    .text.ETH_DropRxPkt:000000000000002c .L0 
C:\Users\LOCALH~1\AppData\Local\Temp\ccskN8Qo.s:602    .text.ETH_DropRxPkt:0000000000000032 .L0 
C:\Users\LOCALH~1\AppData\Local\Temp\ccskN8Qo.s:604    .text.ETH_DropRxPkt:0000000000000034 .L0 
C:\Users\LOCALH~1\AppData\Local\Temp\ccskN8Qo.s:607    .text.ETH_DropRxPkt:0000000000000038 .L0 
C:\Users\LOCALH~1\AppData\Local\Temp\ccskN8Qo.s:609    .text.ETH_DropRxPkt:000000000000003c .L0 
C:\Users\LOCALH~1\AppData\Local\Temp\ccskN8Qo.s:616    .text.ETH_ReadPHYRegister:0000000000000000 ETH_ReadPHYRegister
C:\Users\LOCALH~1\AppData\Local\Temp\ccskN8Qo.s:619    .text.ETH_ReadPHYRegister:0000000000000000 .L0 
C:\Users\LOCALH~1\AppData\Local\Temp\ccskN8Qo.s:621    .text.ETH_ReadPHYRegister:0000000000000000 .L0 
C:\Users\LOCALH~1\AppData\Local\Temp\ccskN8Qo.s:622    .text.ETH_ReadPHYRegister:0000000000000000 .L0 
C:\Users\LOCALH~1\AppData\Local\Temp\ccskN8Qo.s:623    .text.ETH_ReadPHYRegister:0000000000000000 .L0 
C:\Users\LOCALH~1\AppData\Local\Temp\ccskN8Qo.s:624    .text.ETH_ReadPHYRegister:0000000000000000 $x
C:\Users\LOCALH~1\AppData\Local\Temp\ccskN8Qo.s:624    .text.ETH_ReadPHYRegister:0000000000000000 .L0 
C:\Users\LOCALH~1\AppData\Local\Temp\ccskN8Qo.s:625    .text.ETH_ReadPHYRegister:0000000000000002 .L0 
C:\Users\LOCALH~1\AppData\Local\Temp\ccskN8Qo.s:627    .text.ETH_ReadPHYRegister:0000000000000002 .L0 
C:\Users\LOCALH~1\AppData\Local\Temp\ccskN8Qo.s:629    .text.ETH_ReadPHYRegister:0000000000000004 .L0 
C:\Users\LOCALH~1\AppData\Local\Temp\ccskN8Qo.s:630    .text.ETH_ReadPHYRegister:0000000000000004 .L0 
C:\Users\LOCALH~1\AppData\Local\Temp\ccskN8Qo.s:634    .text.ETH_ReadPHYRegister:000000000000000a .L0 
C:\Users\LOCALH~1\AppData\Local\Temp\ccskN8Qo.s:635    .text.ETH_ReadPHYRegister:000000000000000a .L0 
C:\Users\LOCALH~1\AppData\Local\Temp\ccskN8Qo.s:637    .text.ETH_ReadPHYRegister:000000000000000c .L0 
C:\Users\LOCALH~1\AppData\Local\Temp\ccskN8Qo.s:640    .text.ETH_ReadPHYRegister:000000000000000e .L0 
C:\Users\LOCALH~1\AppData\Local\Temp\ccskN8Qo.s:642    .text.ETH_ReadPHYRegister:0000000000000010 .L0 
C:\Users\LOCALH~1\AppData\Local\Temp\ccskN8Qo.s:645    .text.ETH_ReadPHYRegister:0000000000000012 .L0 
C:\Users\LOCALH~1\AppData\Local\Temp\ccskN8Qo.s:646    .text.ETH_ReadPHYRegister:0000000000000012 .L0 
C:\Users\LOCALH~1\AppData\Local\Temp\ccskN8Qo.s:648    .text.ETH_ReadPHYRegister:0000000000000014 .L0 
C:\Users\LOCALH~1\AppData\Local\Temp\ccskN8Qo.s:651    .text.ETH_ReadPHYRegister:0000000000000016 .L0 
C:\Users\LOCALH~1\AppData\Local\Temp\ccskN8Qo.s:654    .text.ETH_ReadPHYRegister:0000000000000018 .L0 
C:\Users\LOCALH~1\AppData\Local\Temp\ccskN8Qo.s:655    .text.ETH_ReadPHYRegister:0000000000000018 .L0 
C:\Users\LOCALH~1\AppData\Local\Temp\ccskN8Qo.s:657    .text.ETH_ReadPHYRegister:000000000000001c .L0 
C:\Users\LOCALH~1\AppData\Local\Temp\ccskN8Qo.s:660    .text.ETH_ReadPHYRegister:000000000000001e .L0 
C:\Users\LOCALH~1\AppData\Local\Temp\ccskN8Qo.s:661    .text.ETH_ReadPHYRegister:000000000000001e .L0 
C:\Users\LOCALH~1\AppData\Local\Temp\ccskN8Qo.s:662    .text.ETH_ReadPHYRegister:000000000000001e .L0 
C:\Users\LOCALH~1\AppData\Local\Temp\ccskN8Qo.s:665    .text.ETH_ReadPHYRegister:0000000000000022 .L0 
C:\Users\LOCALH~1\AppData\Local\Temp\ccskN8Qo.s:666    .text.ETH_ReadPHYRegister:0000000000000022 .L0 
C:\Users\LOCALH~1\AppData\Local\Temp\ccskN8Qo.s:668    .text.ETH_ReadPHYRegister:0000000000000026 .L0 
C:\Users\LOCALH~1\AppData\Local\Temp\ccskN8Qo.s:670    .text.ETH_ReadPHYRegister:0000000000000028 .L0 
C:\Users\LOCALH~1\AppData\Local\Temp\ccskN8Qo.s:674    .text.ETH_ReadPHYRegister:000000000000002a .L0 
C:\Users\LOCALH~1\AppData\Local\Temp\ccskN8Qo.s:675    .text.ETH_ReadPHYRegister:000000000000002a .L0 
C:\Users\LOCALH~1\AppData\Local\Temp\ccskN8Qo.s:676    .text.ETH_ReadPHYRegister:000000000000002a .L0 
C:\Users\LOCALH~1\AppData\Local\Temp\ccskN8Qo.s:680    .text.ETH_ReadPHYRegister:0000000000000030 .L0 
C:\Users\LOCALH~1\AppData\Local\Temp\ccskN8Qo.s:681    .text.ETH_ReadPHYRegister:0000000000000030 .L0 
C:\Users\LOCALH~1\AppData\Local\Temp\ccskN8Qo.s:684    .text.ETH_ReadPHYRegister:0000000000000032 .L0 
C:\Users\LOCALH~1\AppData\Local\Temp\ccskN8Qo.s:685    .text.ETH_ReadPHYRegister:0000000000000032 .L0 
C:\Users\LOCALH~1\AppData\Local\Temp\ccskN8Qo.s:688    .text.ETH_ReadPHYRegister:0000000000000034 .L0 
C:\Users\LOCALH~1\AppData\Local\Temp\ccskN8Qo.s:690    .text.ETH_ReadPHYRegister:0000000000000036 .L0 
C:\Users\LOCALH~1\AppData\Local\Temp\ccskN8Qo.s:692    .text.ETH_ReadPHYRegister:0000000000000038 .L0 
C:\Users\LOCALH~1\AppData\Local\Temp\ccskN8Qo.s:695    .text.ETH_ReadPHYRegister:000000000000003c .L0 
C:\Users\LOCALH~1\AppData\Local\Temp\ccskN8Qo.s:696    .text.ETH_ReadPHYRegister:000000000000003c .L0 
C:\Users\LOCALH~1\AppData\Local\Temp\ccskN8Qo.s:698    .text.ETH_ReadPHYRegister:000000000000003e .L0 
C:\Users\LOCALH~1\AppData\Local\Temp\ccskN8Qo.s:701    .text.ETH_ReadPHYRegister:0000000000000044 .L0 
C:\Users\LOCALH~1\AppData\Local\Temp\ccskN8Qo.s:703    .text.ETH_ReadPHYRegister:0000000000000046 .L0 
C:\Users\LOCALH~1\AppData\Local\Temp\ccskN8Qo.s:705    .text.ETH_ReadPHYRegister:000000000000004a .L0 
C:\Users\LOCALH~1\AppData\Local\Temp\ccskN8Qo.s:706    .text.ETH_ReadPHYRegister:000000000000004a .L0 
C:\Users\LOCALH~1\AppData\Local\Temp\ccskN8Qo.s:709    .text.ETH_ReadPHYRegister:0000000000000050 .L0 
C:\Users\LOCALH~1\AppData\Local\Temp\ccskN8Qo.s:713    .text.ETH_ReadPHYRegister:0000000000000054 .L0 
C:\Users\LOCALH~1\AppData\Local\Temp\ccskN8Qo.s:714    .text.ETH_ReadPHYRegister:0000000000000056 .L0 
C:\Users\LOCALH~1\AppData\Local\Temp\ccskN8Qo.s:716    .text.ETH_ReadPHYRegister:0000000000000058 .L0 
C:\Users\LOCALH~1\AppData\Local\Temp\ccskN8Qo.s:723    .text.ETH_WritePHYRegister:0000000000000000 ETH_WritePHYRegister
C:\Users\LOCALH~1\AppData\Local\Temp\ccskN8Qo.s:726    .text.ETH_WritePHYRegister:0000000000000000 .L0 
C:\Users\LOCALH~1\AppData\Local\Temp\ccskN8Qo.s:728    .text.ETH_WritePHYRegister:0000000000000000 .L0 
C:\Users\LOCALH~1\AppData\Local\Temp\ccskN8Qo.s:729    .text.ETH_WritePHYRegister:0000000000000000 .L0 
C:\Users\LOCALH~1\AppData\Local\Temp\ccskN8Qo.s:730    .text.ETH_WritePHYRegister:0000000000000000 .L0 
C:\Users\LOCALH~1\AppData\Local\Temp\ccskN8Qo.s:731    .text.ETH_WritePHYRegister:0000000000000000 $x
C:\Users\LOCALH~1\AppData\Local\Temp\ccskN8Qo.s:731    .text.ETH_WritePHYRegister:0000000000000000 .L0 
C:\Users\LOCALH~1\AppData\Local\Temp\ccskN8Qo.s:732    .text.ETH_WritePHYRegister:0000000000000002 .L0 
C:\Users\LOCALH~1\AppData\Local\Temp\ccskN8Qo.s:734    .text.ETH_WritePHYRegister:0000000000000002 .L0 
C:\Users\LOCALH~1\AppData\Local\Temp\ccskN8Qo.s:736    .text.ETH_WritePHYRegister:0000000000000006 .L0 
C:\Users\LOCALH~1\AppData\Local\Temp\ccskN8Qo.s:738    .text.ETH_WritePHYRegister:0000000000000008 .L0 
C:\Users\LOCALH~1\AppData\Local\Temp\ccskN8Qo.s:739    .text.ETH_WritePHYRegister:0000000000000008 .L0 
C:\Users\LOCALH~1\AppData\Local\Temp\ccskN8Qo.s:742    .text.ETH_WritePHYRegister:000000000000000a .L0 
C:\Users\LOCALH~1\AppData\Local\Temp\ccskN8Qo.s:743    .text.ETH_WritePHYRegister:000000000000000a .L0 
C:\Users\LOCALH~1\AppData\Local\Temp\ccskN8Qo.s:746    .text.ETH_WritePHYRegister:000000000000000e .L0 
C:\Users\LOCALH~1\AppData\Local\Temp\ccskN8Qo.s:749    .text.ETH_WritePHYRegister:0000000000000010 .L0 
C:\Users\LOCALH~1\AppData\Local\Temp\ccskN8Qo.s:751    .text.ETH_WritePHYRegister:0000000000000012 .L0 
C:\Users\LOCALH~1\AppData\Local\Temp\ccskN8Qo.s:754    .text.ETH_WritePHYRegister:0000000000000014 .L0 
C:\Users\LOCALH~1\AppData\Local\Temp\ccskN8Qo.s:755    .text.ETH_WritePHYRegister:0000000000000014 .L0 
C:\Users\LOCALH~1\AppData\Local\Temp\ccskN8Qo.s:758    .text.ETH_WritePHYRegister:0000000000000016 .L0 
C:\Users\LOCALH~1\AppData\Local\Temp\ccskN8Qo.s:761    .text.ETH_WritePHYRegister:0000000000000018 .L0 
C:\Users\LOCALH~1\AppData\Local\Temp\ccskN8Qo.s:762    .text.ETH_WritePHYRegister:0000000000000018 .L0 
C:\Users\LOCALH~1\AppData\Local\Temp\ccskN8Qo.s:764    .text.ETH_WritePHYRegister:000000000000001c .L0 
C:\Users\LOCALH~1\AppData\Local\Temp\ccskN8Qo.s:767    .text.ETH_WritePHYRegister:000000000000001e .L0 
C:\Users\LOCALH~1\AppData\Local\Temp\ccskN8Qo.s:768    .text.ETH_WritePHYRegister:000000000000001e .L0 
C:\Users\LOCALH~1\AppData\Local\Temp\ccskN8Qo.s:769    .text.ETH_WritePHYRegister:000000000000001e .L0 
C:\Users\LOCALH~1\AppData\Local\Temp\ccskN8Qo.s:771    .text.ETH_WritePHYRegister:0000000000000020 .L0 
C:\Users\LOCALH~1\AppData\Local\Temp\ccskN8Qo.s:774    .text.ETH_WritePHYRegister:0000000000000024 .L0 
C:\Users\LOCALH~1\AppData\Local\Temp\ccskN8Qo.s:775    .text.ETH_WritePHYRegister:0000000000000024 .L0 
C:\Users\LOCALH~1\AppData\Local\Temp\ccskN8Qo.s:776    .text.ETH_WritePHYRegister:0000000000000024 .L0 
C:\Users\LOCALH~1\AppData\Local\Temp\ccskN8Qo.s:778    .text.ETH_WritePHYRegister:0000000000000026 .L0 
C:\Users\LOCALH~1\AppData\Local\Temp\ccskN8Qo.s:780    .text.ETH_WritePHYRegister:000000000000002a .L0 
C:\Users\LOCALH~1\AppData\Local\Temp\ccskN8Qo.s:782    .text.ETH_WritePHYRegister:000000000000002e .L0 
C:\Users\LOCALH~1\AppData\Local\Temp\ccskN8Qo.s:786    .text.ETH_WritePHYRegister:0000000000000030 .L0 
C:\Users\LOCALH~1\AppData\Local\Temp\ccskN8Qo.s:787    .text.ETH_WritePHYRegister:0000000000000030 .L0 
C:\Users\LOCALH~1\AppData\Local\Temp\ccskN8Qo.s:788    .text.ETH_WritePHYRegister:0000000000000030 .L0 
C:\Users\LOCALH~1\AppData\Local\Temp\ccskN8Qo.s:792    .text.ETH_WritePHYRegister:0000000000000036 .L0 
C:\Users\LOCALH~1\AppData\Local\Temp\ccskN8Qo.s:793    .text.ETH_WritePHYRegister:0000000000000036 .L0 
C:\Users\LOCALH~1\AppData\Local\Temp\ccskN8Qo.s:796    .text.ETH_WritePHYRegister:0000000000000038 .L0 
C:\Users\LOCALH~1\AppData\Local\Temp\ccskN8Qo.s:797    .text.ETH_WritePHYRegister:0000000000000038 .L0 
C:\Users\LOCALH~1\AppData\Local\Temp\ccskN8Qo.s:800    .text.ETH_WritePHYRegister:000000000000003a .L0 
C:\Users\LOCALH~1\AppData\Local\Temp\ccskN8Qo.s:802    .text.ETH_WritePHYRegister:000000000000003c .L0 
C:\Users\LOCALH~1\AppData\Local\Temp\ccskN8Qo.s:804    .text.ETH_WritePHYRegister:000000000000003e .L0 
C:\Users\LOCALH~1\AppData\Local\Temp\ccskN8Qo.s:807    .text.ETH_WritePHYRegister:0000000000000042 .L0 
C:\Users\LOCALH~1\AppData\Local\Temp\ccskN8Qo.s:808    .text.ETH_WritePHYRegister:0000000000000042 .L0 
C:\Users\LOCALH~1\AppData\Local\Temp\ccskN8Qo.s:810    .text.ETH_WritePHYRegister:0000000000000044 .L0 
C:\Users\LOCALH~1\AppData\Local\Temp\ccskN8Qo.s:814    .text.ETH_WritePHYRegister:0000000000000050 .L0 
C:\Users\LOCALH~1\AppData\Local\Temp\ccskN8Qo.s:816    .text.ETH_WritePHYRegister:0000000000000052 .L0 
C:\Users\LOCALH~1\AppData\Local\Temp\ccskN8Qo.s:823    .text.ETH_PHYLoopBackCmd:0000000000000000 ETH_PHYLoopBackCmd
C:\Users\LOCALH~1\AppData\Local\Temp\ccskN8Qo.s:826    .text.ETH_PHYLoopBackCmd:0000000000000000 .L0 
C:\Users\LOCALH~1\AppData\Local\Temp\ccskN8Qo.s:828    .text.ETH_PHYLoopBackCmd:0000000000000000 $x
C:\Users\LOCALH~1\AppData\Local\Temp\ccskN8Qo.s:828    .text.ETH_PHYLoopBackCmd:0000000000000000 .L0 
C:\Users\LOCALH~1\AppData\Local\Temp\ccskN8Qo.s:829    .text.ETH_PHYLoopBackCmd:0000000000000008 .L0 
C:\Users\LOCALH~1\AppData\Local\Temp\ccskN8Qo.s:830    .text.ETH_PHYLoopBackCmd:0000000000000008 .L0 
C:\Users\LOCALH~1\AppData\Local\Temp\ccskN8Qo.s:831    .text.ETH_PHYLoopBackCmd:0000000000000008 .L0 
C:\Users\LOCALH~1\AppData\Local\Temp\ccskN8Qo.s:832    .text.ETH_PHYLoopBackCmd:0000000000000008 .L0 
C:\Users\LOCALH~1\AppData\Local\Temp\ccskN8Qo.s:835    .text.ETH_PHYLoopBackCmd:0000000000000008 .L0 
C:\Users\LOCALH~1\AppData\Local\Temp\ccskN8Qo.s:836    .text.ETH_PHYLoopBackCmd:0000000000000008 .L0 
C:\Users\LOCALH~1\AppData\Local\Temp\ccskN8Qo.s:837    .text.ETH_PHYLoopBackCmd:0000000000000008 .L0 
C:\Users\LOCALH~1\AppData\Local\Temp\ccskN8Qo.s:839    .text.ETH_PHYLoopBackCmd:000000000000000a .L0 
C:\Users\LOCALH~1\AppData\Local\Temp\ccskN8Qo.s:842    .text.ETH_PHYLoopBackCmd:000000000000000c .L0 
C:\Users\LOCALH~1\AppData\Local\Temp\ccskN8Qo.s:844    .text.ETH_PHYLoopBackCmd:000000000000000e .L0 
C:\Users\LOCALH~1\AppData\Local\Temp\ccskN8Qo.s:847    .text.ETH_PHYLoopBackCmd:0000000000000016 .L0 
C:\Users\LOCALH~1\AppData\Local\Temp\ccskN8Qo.s:848    .text.ETH_PHYLoopBackCmd:0000000000000016 .L0 
C:\Users\LOCALH~1\AppData\Local\Temp\ccskN8Qo.s:850    .text.ETH_PHYLoopBackCmd:0000000000000018 .L0 
C:\Users\LOCALH~1\AppData\Local\Temp\ccskN8Qo.s:851    .text.ETH_PHYLoopBackCmd:0000000000000018 .L0 
C:\Users\LOCALH~1\AppData\Local\Temp\ccskN8Qo.s:855    .text.ETH_PHYLoopBackCmd:000000000000001e .L0 
C:\Users\LOCALH~1\AppData\Local\Temp\ccskN8Qo.s:859    .text.ETH_PHYLoopBackCmd:0000000000000022 .L0 
C:\Users\LOCALH~1\AppData\Local\Temp\ccskN8Qo.s:860    .text.ETH_PHYLoopBackCmd:0000000000000022 .L0 
C:\Users\LOCALH~1\AppData\Local\Temp\ccskN8Qo.s:865    .text.ETH_PHYLoopBackCmd:000000000000002e .L0 
C:\Users\LOCALH~1\AppData\Local\Temp\ccskN8Qo.s:867    .text.ETH_PHYLoopBackCmd:000000000000003a .L0 
C:\Users\LOCALH~1\AppData\Local\Temp\ccskN8Qo.s:868    .text.ETH_PHYLoopBackCmd:000000000000003a .L0 
C:\Users\LOCALH~1\AppData\Local\Temp\ccskN8Qo.s:869    .text.ETH_PHYLoopBackCmd:000000000000003a .L0 
C:\Users\LOCALH~1\AppData\Local\Temp\ccskN8Qo.s:870    .text.ETH_PHYLoopBackCmd:000000000000003a .L0 
C:\Users\LOCALH~1\AppData\Local\Temp\ccskN8Qo.s:871    .text.ETH_PHYLoopBackCmd:000000000000003a .L0 
C:\Users\LOCALH~1\AppData\Local\Temp\ccskN8Qo.s:874    .text.ETH_PHYLoopBackCmd:000000000000003a .L0 
C:\Users\LOCALH~1\AppData\Local\Temp\ccskN8Qo.s:876    .text.ETH_PHYLoopBackCmd:000000000000003a .L0 
C:\Users\LOCALH~1\AppData\Local\Temp\ccskN8Qo.s:877    .text.ETH_PHYLoopBackCmd:000000000000003a .L0 
C:\Users\LOCALH~1\AppData\Local\Temp\ccskN8Qo.s:881    .text.ETH_PHYLoopBackCmd:0000000000000044 .L0 
C:\Users\LOCALH~1\AppData\Local\Temp\ccskN8Qo.s:888    .text.ETH_MACTransmissionCmd:0000000000000000 ETH_MACTransmissionCmd
C:\Users\LOCALH~1\AppData\Local\Temp\ccskN8Qo.s:891    .text.ETH_MACTransmissionCmd:0000000000000000 .L0 
C:\Users\LOCALH~1\AppData\Local\Temp\ccskN8Qo.s:893    .text.ETH_MACTransmissionCmd:0000000000000000 .L0 
C:\Users\LOCALH~1\AppData\Local\Temp\ccskN8Qo.s:896    .text.ETH_MACTransmissionCmd:0000000000000000 .L0 
C:\Users\LOCALH~1\AppData\Local\Temp\ccskN8Qo.s:897    .text.ETH_MACTransmissionCmd:0000000000000000 $x
C:\Users\LOCALH~1\AppData\Local\Temp\ccskN8Qo.s:897    .text.ETH_MACTransmissionCmd:0000000000000000 .L0 
C:\Users\LOCALH~1\AppData\Local\Temp\ccskN8Qo.s:902    .text.ETH_MACTransmissionCmd:0000000000000006 .L0 
C:\Users\LOCALH~1\AppData\Local\Temp\ccskN8Qo.s:907    .text.ETH_MACTransmissionCmd:0000000000000008 .L0 
C:\Users\LOCALH~1\AppData\Local\Temp\ccskN8Qo.s:908    .text.ETH_MACTransmissionCmd:0000000000000008 .L0 
C:\Users\LOCALH~1\AppData\Local\Temp\ccskN8Qo.s:914    .text.ETH_MACTransmissionCmd:000000000000000c .L0 
C:\Users\LOCALH~1\AppData\Local\Temp\ccskN8Qo.s:916    .text.ETH_MACTransmissionCmd:000000000000000e .L0 
C:\Users\LOCALH~1\AppData\Local\Temp\ccskN8Qo.s:919    .text.ETH_MACTransmissionCmd:0000000000000010 .L0 
C:\Users\LOCALH~1\AppData\Local\Temp\ccskN8Qo.s:920    .text.ETH_MACTransmissionCmd:0000000000000010 .L0 
C:\Users\LOCALH~1\AppData\Local\Temp\ccskN8Qo.s:922    .text.ETH_MACTransmissionCmd:0000000000000014 .L0 
C:\Users\LOCALH~1\AppData\Local\Temp\ccskN8Qo.s:929    .text.ETH_MACReceptionCmd:0000000000000000 ETH_MACReceptionCmd
C:\Users\LOCALH~1\AppData\Local\Temp\ccskN8Qo.s:932    .text.ETH_MACReceptionCmd:0000000000000000 .L0 
C:\Users\LOCALH~1\AppData\Local\Temp\ccskN8Qo.s:934    .text.ETH_MACReceptionCmd:0000000000000000 .L0 
C:\Users\LOCALH~1\AppData\Local\Temp\ccskN8Qo.s:937    .text.ETH_MACReceptionCmd:0000000000000000 .L0 
C:\Users\LOCALH~1\AppData\Local\Temp\ccskN8Qo.s:938    .text.ETH_MACReceptionCmd:0000000000000000 $x
C:\Users\LOCALH~1\AppData\Local\Temp\ccskN8Qo.s:938    .text.ETH_MACReceptionCmd:0000000000000000 .L0 
C:\Users\LOCALH~1\AppData\Local\Temp\ccskN8Qo.s:943    .text.ETH_MACReceptionCmd:0000000000000006 .L0 
C:\Users\LOCALH~1\AppData\Local\Temp\ccskN8Qo.s:948    .text.ETH_MACReceptionCmd:0000000000000008 .L0 
C:\Users\LOCALH~1\AppData\Local\Temp\ccskN8Qo.s:949    .text.ETH_MACReceptionCmd:0000000000000008 .L0 
C:\Users\LOCALH~1\AppData\Local\Temp\ccskN8Qo.s:955    .text.ETH_MACReceptionCmd:000000000000000c .L0 
C:\Users\LOCALH~1\AppData\Local\Temp\ccskN8Qo.s:957    .text.ETH_MACReceptionCmd:000000000000000e .L0 
C:\Users\LOCALH~1\AppData\Local\Temp\ccskN8Qo.s:960    .text.ETH_MACReceptionCmd:0000000000000010 .L0 
C:\Users\LOCALH~1\AppData\Local\Temp\ccskN8Qo.s:961    .text.ETH_MACReceptionCmd:0000000000000010 .L0 
C:\Users\LOCALH~1\AppData\Local\Temp\ccskN8Qo.s:963    .text.ETH_MACReceptionCmd:0000000000000014 .L0 
C:\Users\LOCALH~1\AppData\Local\Temp\ccskN8Qo.s:970    .text.ETH_GetFlowControlBusyStatus:0000000000000000 ETH_GetFlowControlBusyStatus
C:\Users\LOCALH~1\AppData\Local\Temp\ccskN8Qo.s:973    .text.ETH_GetFlowControlBusyStatus:0000000000000000 .L0 
C:\Users\LOCALH~1\AppData\Local\Temp\ccskN8Qo.s:974    .text.ETH_GetFlowControlBusyStatus:0000000000000000 .L0 
C:\Users\LOCALH~1\AppData\Local\Temp\ccskN8Qo.s:976    .text.ETH_GetFlowControlBusyStatus:0000000000000000 .L0 
C:\Users\LOCALH~1\AppData\Local\Temp\ccskN8Qo.s:977    .text.ETH_GetFlowControlBusyStatus:0000000000000000 .L0 
C:\Users\LOCALH~1\AppData\Local\Temp\ccskN8Qo.s:978    .text.ETH_GetFlowControlBusyStatus:0000000000000000 $x
C:\Users\LOCALH~1\AppData\Local\Temp\ccskN8Qo.s:978    .text.ETH_GetFlowControlBusyStatus:0000000000000000 .L0 
C:\Users\LOCALH~1\AppData\Local\Temp\ccskN8Qo.s:982    .text.ETH_GetFlowControlBusyStatus:0000000000000006 .L0 
C:\Users\LOCALH~1\AppData\Local\Temp\ccskN8Qo.s:983    .text.ETH_GetFlowControlBusyStatus:0000000000000006 .L0 
C:\Users\LOCALH~1\AppData\Local\Temp\ccskN8Qo.s:986    .text.ETH_GetFlowControlBusyStatus:000000000000000a .L0 
C:\Users\LOCALH~1\AppData\Local\Temp\ccskN8Qo.s:993    .text.ETH_InitiatePauseControlFrame:0000000000000000 ETH_InitiatePauseControlFrame
C:\Users\LOCALH~1\AppData\Local\Temp\ccskN8Qo.s:996    .text.ETH_InitiatePauseControlFrame:0000000000000000 .L0 
C:\Users\LOCALH~1\AppData\Local\Temp\ccskN8Qo.s:997    .text.ETH_InitiatePauseControlFrame:0000000000000000 .L0 
C:\Users\LOCALH~1\AppData\Local\Temp\ccskN8Qo.s:998    .text.ETH_InitiatePauseControlFrame:0000000000000000 .L0 
C:\Users\LOCALH~1\AppData\Local\Temp\ccskN8Qo.s:999    .text.ETH_InitiatePauseControlFrame:0000000000000000 $x
C:\Users\LOCALH~1\AppData\Local\Temp\ccskN8Qo.s:999    .text.ETH_InitiatePauseControlFrame:0000000000000000 .L0 
C:\Users\LOCALH~1\AppData\Local\Temp\ccskN8Qo.s:1002   .text.ETH_InitiatePauseControlFrame:0000000000000006 .L0 
C:\Users\LOCALH~1\AppData\Local\Temp\ccskN8Qo.s:1005   .text.ETH_InitiatePauseControlFrame:000000000000000c .L0 
C:\Users\LOCALH~1\AppData\Local\Temp\ccskN8Qo.s:1006   .text.ETH_InitiatePauseControlFrame:000000000000000e .L0 
C:\Users\LOCALH~1\AppData\Local\Temp\ccskN8Qo.s:1013   .text.ETH_BackPressureActivationCmd:0000000000000000 ETH_BackPressureActivationCmd
C:\Users\LOCALH~1\AppData\Local\Temp\ccskN8Qo.s:1016   .text.ETH_BackPressureActivationCmd:0000000000000000 .L0 
C:\Users\LOCALH~1\AppData\Local\Temp\ccskN8Qo.s:1018   .text.ETH_BackPressureActivationCmd:0000000000000000 .L0 
C:\Users\LOCALH~1\AppData\Local\Temp\ccskN8Qo.s:1019   .text.ETH_BackPressureActivationCmd:0000000000000000 .L0 
C:\Users\LOCALH~1\AppData\Local\Temp\ccskN8Qo.s:1020   .text.ETH_BackPressureActivationCmd:0000000000000000 $x
C:\Users\LOCALH~1\AppData\Local\Temp\ccskN8Qo.s:1020   .text.ETH_BackPressureActivationCmd:0000000000000000 .L0 
C:\Users\LOCALH~1\AppData\Local\Temp\ccskN8Qo.s:1023   .text.ETH_BackPressureActivationCmd:0000000000000006 .L0 
C:\Users\LOCALH~1\AppData\Local\Temp\ccskN8Qo.s:1025   .text.ETH_BackPressureActivationCmd:0000000000000008 .L0 
C:\Users\LOCALH~1\AppData\Local\Temp\ccskN8Qo.s:1026   .text.ETH_BackPressureActivationCmd:0000000000000008 .L0 
C:\Users\LOCALH~1\AppData\Local\Temp\ccskN8Qo.s:1029   .text.ETH_BackPressureActivationCmd:000000000000000c .L0 
C:\Users\LOCALH~1\AppData\Local\Temp\ccskN8Qo.s:1031   .text.ETH_BackPressureActivationCmd:000000000000000e .L0 
C:\Users\LOCALH~1\AppData\Local\Temp\ccskN8Qo.s:1034   .text.ETH_BackPressureActivationCmd:0000000000000010 .L0 
C:\Users\LOCALH~1\AppData\Local\Temp\ccskN8Qo.s:1035   .text.ETH_BackPressureActivationCmd:0000000000000010 .L0 
C:\Users\LOCALH~1\AppData\Local\Temp\ccskN8Qo.s:1037   .text.ETH_BackPressureActivationCmd:0000000000000014 .L0 
C:\Users\LOCALH~1\AppData\Local\Temp\ccskN8Qo.s:1044   .text.ETH_GetMACFlagStatus:0000000000000000 ETH_GetMACFlagStatus
C:\Users\LOCALH~1\AppData\Local\Temp\ccskN8Qo.s:1047   .text.ETH_GetMACFlagStatus:0000000000000000 .L0 
C:\Users\LOCALH~1\AppData\Local\Temp\ccskN8Qo.s:1049   .text.ETH_GetMACFlagStatus:0000000000000000 .L0 
C:\Users\LOCALH~1\AppData\Local\Temp\ccskN8Qo.s:1050   .text.ETH_GetMACFlagStatus:0000000000000000 .L0 
C:\Users\LOCALH~1\AppData\Local\Temp\ccskN8Qo.s:1051   .text.ETH_GetMACFlagStatus:0000000000000000 .L0 
C:\Users\LOCALH~1\AppData\Local\Temp\ccskN8Qo.s:1052   .text.ETH_GetMACFlagStatus:0000000000000000 $x
C:\Users\LOCALH~1\AppData\Local\Temp\ccskN8Qo.s:1052   .text.ETH_GetMACFlagStatus:0000000000000000 .L0 
C:\Users\LOCALH~1\AppData\Local\Temp\ccskN8Qo.s:1056   .text.ETH_GetMACFlagStatus:0000000000000006 .L0 
C:\Users\LOCALH~1\AppData\Local\Temp\ccskN8Qo.s:1057   .text.ETH_GetMACFlagStatus:0000000000000006 .L0 
C:\Users\LOCALH~1\AppData\Local\Temp\ccskN8Qo.s:1060   .text.ETH_GetMACFlagStatus:0000000000000008 .L0 
C:\Users\LOCALH~1\AppData\Local\Temp\ccskN8Qo.s:1062   .text.ETH_GetMACFlagStatus:000000000000000e .L0 
C:\Users\LOCALH~1\AppData\Local\Temp\ccskN8Qo.s:1069   .text.ETH_GetMACITStatus:0000000000000000 ETH_GetMACITStatus
C:\Users\LOCALH~1\AppData\Local\Temp\ccskN8Qo.s:1071   .text.ETH_GetMACITStatus:0000000000000000 .L0 
C:\Users\LOCALH~1\AppData\Local\Temp\ccskN8Qo.s:1073   .text.ETH_GetMACITStatus:0000000000000000 $x
C:\Users\LOCALH~1\AppData\Local\Temp\ccskN8Qo.s:1073   .text.ETH_GetMACITStatus:0000000000000000 .L0 
C:\Users\LOCALH~1\AppData\Local\Temp\ccskN8Qo.s:1074   .text.ETH_GetMACITStatus:0000000000000008 .L0 
C:\Users\LOCALH~1\AppData\Local\Temp\ccskN8Qo.s:1081   .text.ETH_MACITConfig:0000000000000000 ETH_MACITConfig
C:\Users\LOCALH~1\AppData\Local\Temp\ccskN8Qo.s:1084   .text.ETH_MACITConfig:0000000000000000 .L0 
C:\Users\LOCALH~1\AppData\Local\Temp\ccskN8Qo.s:1086   .text.ETH_MACITConfig:0000000000000000 .L0 
C:\Users\LOCALH~1\AppData\Local\Temp\ccskN8Qo.s:1087   .text.ETH_MACITConfig:0000000000000000 .L0 
C:\Users\LOCALH~1\AppData\Local\Temp\ccskN8Qo.s:1088   .text.ETH_MACITConfig:0000000000000000 $x
C:\Users\LOCALH~1\AppData\Local\Temp\ccskN8Qo.s:1088   .text.ETH_MACITConfig:0000000000000000 .L0 
C:\Users\LOCALH~1\AppData\Local\Temp\ccskN8Qo.s:1090   .text.ETH_MACITConfig:0000000000000002 .L0 
C:\Users\LOCALH~1\AppData\Local\Temp\ccskN8Qo.s:1091   .text.ETH_MACITConfig:0000000000000002 .L0 
C:\Users\LOCALH~1\AppData\Local\Temp\ccskN8Qo.s:1094   .text.ETH_MACITConfig:0000000000000008 .L0 
C:\Users\LOCALH~1\AppData\Local\Temp\ccskN8Qo.s:1097   .text.ETH_MACITConfig:000000000000000c .L0 
C:\Users\LOCALH~1\AppData\Local\Temp\ccskN8Qo.s:1104   .text.ETH_MACITConfig:0000000000000012 .L0 
C:\Users\LOCALH~1\AppData\Local\Temp\ccskN8Qo.s:1105   .text.ETH_MACITConfig:0000000000000012 .L0 
C:\Users\LOCALH~1\AppData\Local\Temp\ccskN8Qo.s:1108   .text.ETH_MACITConfig:0000000000000018 .L0 
C:\Users\LOCALH~1\AppData\Local\Temp\ccskN8Qo.s:1111   .text.ETH_MACITConfig:000000000000001c .L0 
C:\Users\LOCALH~1\AppData\Local\Temp\ccskN8Qo.s:1112   .text.ETH_MACITConfig:000000000000001e .L0 
C:\Users\LOCALH~1\AppData\Local\Temp\ccskN8Qo.s:1119   .text.ETH_MACAddressConfig:0000000000000000 ETH_MACAddressConfig
C:\Users\LOCALH~1\AppData\Local\Temp\ccskN8Qo.s:1122   .text.ETH_MACAddressConfig:0000000000000000 .L0 
C:\Users\LOCALH~1\AppData\Local\Temp\ccskN8Qo.s:1124   .text.ETH_MACAddressConfig:0000000000000000 .L0 
C:\Users\LOCALH~1\AppData\Local\Temp\ccskN8Qo.s:1125   .text.ETH_MACAddressConfig:0000000000000000 .L0 
C:\Users\LOCALH~1\AppData\Local\Temp\ccskN8Qo.s:1126   .text.ETH_MACAddressConfig:0000000000000000 .L0 
C:\Users\LOCALH~1\AppData\Local\Temp\ccskN8Qo.s:1127   .text.ETH_MACAddressConfig:0000000000000000 $x
C:\Users\LOCALH~1\AppData\Local\Temp\ccskN8Qo.s:1127   .text.ETH_MACAddressConfig:0000000000000000 .L0 
C:\Users\LOCALH~1\AppData\Local\Temp\ccskN8Qo.s:1130   .text.ETH_MACAddressConfig:0000000000000004 .L0 
C:\Users\LOCALH~1\AppData\Local\Temp\ccskN8Qo.s:1132   .text.ETH_MACAddressConfig:0000000000000008 .L0 
C:\Users\LOCALH~1\AppData\Local\Temp\ccskN8Qo.s:1136   .text.ETH_MACAddressConfig:000000000000000c .L0 
C:\Users\LOCALH~1\AppData\Local\Temp\ccskN8Qo.s:1137   .text.ETH_MACAddressConfig:000000000000000c .L0 
C:\Users\LOCALH~1\AppData\Local\Temp\ccskN8Qo.s:1140   .text.ETH_MACAddressConfig:0000000000000012 .L0 
C:\Users\LOCALH~1\AppData\Local\Temp\ccskN8Qo.s:1143   .text.ETH_MACAddressConfig:0000000000000014 .L0 
C:\Users\LOCALH~1\AppData\Local\Temp\ccskN8Qo.s:1144   .text.ETH_MACAddressConfig:0000000000000014 .L0 
C:\Users\LOCALH~1\AppData\Local\Temp\ccskN8Qo.s:1147   .text.ETH_MACAddressConfig:0000000000000018 .L0 
C:\Users\LOCALH~1\AppData\Local\Temp\ccskN8Qo.s:1149   .text.ETH_MACAddressConfig:000000000000001c .L0 
C:\Users\LOCALH~1\AppData\Local\Temp\ccskN8Qo.s:1153   .text.ETH_MACAddressConfig:0000000000000022 .L0 
C:\Users\LOCALH~1\AppData\Local\Temp\ccskN8Qo.s:1156   .text.ETH_MACAddressConfig:0000000000000024 .L0 
C:\Users\LOCALH~1\AppData\Local\Temp\ccskN8Qo.s:1163   .text.ETH_MACAddressConfig:000000000000002e .L0 
C:\Users\LOCALH~1\AppData\Local\Temp\ccskN8Qo.s:1164   .text.ETH_MACAddressConfig:000000000000002e .L0 
C:\Users\LOCALH~1\AppData\Local\Temp\ccskN8Qo.s:1167   .text.ETH_MACAddressConfig:0000000000000030 .L0 
C:\Users\LOCALH~1\AppData\Local\Temp\ccskN8Qo.s:1168   .text.ETH_MACAddressConfig:0000000000000032 .L0 
C:\Users\LOCALH~1\AppData\Local\Temp\ccskN8Qo.s:1175   .text.ETH_GetMACAddress:0000000000000000 ETH_GetMACAddress
C:\Users\LOCALH~1\AppData\Local\Temp\ccskN8Qo.s:1178   .text.ETH_GetMACAddress:0000000000000000 .L0 
C:\Users\LOCALH~1\AppData\Local\Temp\ccskN8Qo.s:1180   .text.ETH_GetMACAddress:0000000000000000 .L0 
C:\Users\LOCALH~1\AppData\Local\Temp\ccskN8Qo.s:1181   .text.ETH_GetMACAddress:0000000000000000 .L0 
C:\Users\LOCALH~1\AppData\Local\Temp\ccskN8Qo.s:1182   .text.ETH_GetMACAddress:0000000000000000 .L0 
C:\Users\LOCALH~1\AppData\Local\Temp\ccskN8Qo.s:1183   .text.ETH_GetMACAddress:0000000000000000 $x
C:\Users\LOCALH~1\AppData\Local\Temp\ccskN8Qo.s:1183   .text.ETH_GetMACAddress:0000000000000000 .L0 
C:\Users\LOCALH~1\AppData\Local\Temp\ccskN8Qo.s:1187   .text.ETH_GetMACAddress:000000000000000a .L0 
C:\Users\LOCALH~1\AppData\Local\Temp\ccskN8Qo.s:1190   .text.ETH_GetMACAddress:000000000000000c .L0 
C:\Users\LOCALH~1\AppData\Local\Temp\ccskN8Qo.s:1191   .text.ETH_GetMACAddress:000000000000000c .L0 
C:\Users\LOCALH~1\AppData\Local\Temp\ccskN8Qo.s:1195   .text.ETH_GetMACAddress:0000000000000012 .L0 
C:\Users\LOCALH~1\AppData\Local\Temp\ccskN8Qo.s:1197   .text.ETH_GetMACAddress:0000000000000016 .L0 
C:\Users\LOCALH~1\AppData\Local\Temp\ccskN8Qo.s:1199   .text.ETH_GetMACAddress:0000000000000018 .L0 
C:\Users\LOCALH~1\AppData\Local\Temp\ccskN8Qo.s:1201   .text.ETH_GetMACAddress:000000000000001a .L0 
C:\Users\LOCALH~1\AppData\Local\Temp\ccskN8Qo.s:1202   .text.ETH_GetMACAddress:000000000000001a .L0 
C:\Users\LOCALH~1\AppData\Local\Temp\ccskN8Qo.s:1203   .text.ETH_GetMACAddress:000000000000001a .L0 
C:\Users\LOCALH~1\AppData\Local\Temp\ccskN8Qo.s:1206   .text.ETH_GetMACAddress:000000000000001c .L0 
C:\Users\LOCALH~1\AppData\Local\Temp\ccskN8Qo.s:1207   .text.ETH_GetMACAddress:000000000000001c .L0 
C:\Users\LOCALH~1\AppData\Local\Temp\ccskN8Qo.s:1209   .text.ETH_GetMACAddress:0000000000000020 .L0 
C:\Users\LOCALH~1\AppData\Local\Temp\ccskN8Qo.s:1211   .text.ETH_GetMACAddress:0000000000000022 .L0 
C:\Users\LOCALH~1\AppData\Local\Temp\ccskN8Qo.s:1212   .text.ETH_GetMACAddress:0000000000000022 .L0 
C:\Users\LOCALH~1\AppData\Local\Temp\ccskN8Qo.s:1214   .text.ETH_GetMACAddress:0000000000000026 .L0 
C:\Users\LOCALH~1\AppData\Local\Temp\ccskN8Qo.s:1216   .text.ETH_GetMACAddress:0000000000000028 .L0 
C:\Users\LOCALH~1\AppData\Local\Temp\ccskN8Qo.s:1217   .text.ETH_GetMACAddress:0000000000000028 .L0 
C:\Users\LOCALH~1\AppData\Local\Temp\ccskN8Qo.s:1219   .text.ETH_GetMACAddress:000000000000002c .L0 
C:\Users\LOCALH~1\AppData\Local\Temp\ccskN8Qo.s:1221   .text.ETH_GetMACAddress:000000000000002e .L0 
C:\Users\LOCALH~1\AppData\Local\Temp\ccskN8Qo.s:1222   .text.ETH_GetMACAddress:000000000000002e .L0 
C:\Users\LOCALH~1\AppData\Local\Temp\ccskN8Qo.s:1224   .text.ETH_GetMACAddress:0000000000000030 .L0 
C:\Users\LOCALH~1\AppData\Local\Temp\ccskN8Qo.s:1225   .text.ETH_GetMACAddress:0000000000000032 .L0 
C:\Users\LOCALH~1\AppData\Local\Temp\ccskN8Qo.s:1232   .text.ETH_MACAddressPerfectFilterCmd:0000000000000000 ETH_MACAddressPerfectFilterCmd
C:\Users\LOCALH~1\AppData\Local\Temp\ccskN8Qo.s:1235   .text.ETH_MACAddressPerfectFilterCmd:0000000000000000 .L0 
C:\Users\LOCALH~1\AppData\Local\Temp\ccskN8Qo.s:1237   .text.ETH_MACAddressPerfectFilterCmd:0000000000000000 .L0 
C:\Users\LOCALH~1\AppData\Local\Temp\ccskN8Qo.s:1238   .text.ETH_MACAddressPerfectFilterCmd:0000000000000000 .L0 
C:\Users\LOCALH~1\AppData\Local\Temp\ccskN8Qo.s:1239   .text.ETH_MACAddressPerfectFilterCmd:0000000000000000 $x
C:\Users\LOCALH~1\AppData\Local\Temp\ccskN8Qo.s:1239   .text.ETH_MACAddressPerfectFilterCmd:0000000000000000 .L0 
C:\Users\LOCALH~1\AppData\Local\Temp\ccskN8Qo.s:1245   .text.ETH_MACAddressPerfectFilterCmd:000000000000000c .L0 
C:\Users\LOCALH~1\AppData\Local\Temp\ccskN8Qo.s:1247   .text.ETH_MACAddressPerfectFilterCmd:000000000000000e .L0 
C:\Users\LOCALH~1\AppData\Local\Temp\ccskN8Qo.s:1248   .text.ETH_MACAddressPerfectFilterCmd:000000000000000e .L0 
C:\Users\LOCALH~1\AppData\Local\Temp\ccskN8Qo.s:1252   .text.ETH_MACAddressPerfectFilterCmd:0000000000000014 .L0 
C:\Users\LOCALH~1\AppData\Local\Temp\ccskN8Qo.s:1254   .text.ETH_MACAddressPerfectFilterCmd:0000000000000016 .L0 
C:\Users\LOCALH~1\AppData\Local\Temp\ccskN8Qo.s:1257   .text.ETH_MACAddressPerfectFilterCmd:0000000000000018 .L0 
C:\Users\LOCALH~1\AppData\Local\Temp\ccskN8Qo.s:1258   .text.ETH_MACAddressPerfectFilterCmd:0000000000000018 .L0 
C:\Users\LOCALH~1\AppData\Local\Temp\ccskN8Qo.s:1261   .text.ETH_MACAddressPerfectFilterCmd:000000000000001e .L0 
C:\Users\LOCALH~1\AppData\Local\Temp\ccskN8Qo.s:1268   .text.ETH_MACAddressFilterConfig:0000000000000000 ETH_MACAddressFilterConfig
C:\Users\LOCALH~1\AppData\Local\Temp\ccskN8Qo.s:1271   .text.ETH_MACAddressFilterConfig:0000000000000000 .L0 
C:\Users\LOCALH~1\AppData\Local\Temp\ccskN8Qo.s:1273   .text.ETH_MACAddressFilterConfig:0000000000000000 .L0 
C:\Users\LOCALH~1\AppData\Local\Temp\ccskN8Qo.s:1274   .text.ETH_MACAddressFilterConfig:0000000000000000 .L0 
C:\Users\LOCALH~1\AppData\Local\Temp\ccskN8Qo.s:1275   .text.ETH_MACAddressFilterConfig:0000000000000000 $x
C:\Users\LOCALH~1\AppData\Local\Temp\ccskN8Qo.s:1275   .text.ETH_MACAddressFilterConfig:0000000000000000 .L0 
C:\Users\LOCALH~1\AppData\Local\Temp\ccskN8Qo.s:1280   .text.ETH_MACAddressFilterConfig:000000000000000a .L0 
C:\Users\LOCALH~1\AppData\Local\Temp\ccskN8Qo.s:1283   .text.ETH_MACAddressFilterConfig:0000000000000010 .L0 
C:\Users\LOCALH~1\AppData\Local\Temp\ccskN8Qo.s:1284   .text.ETH_MACAddressFilterConfig:0000000000000010 .L0 
C:\Users\LOCALH~1\AppData\Local\Temp\ccskN8Qo.s:1286   .text.ETH_MACAddressFilterConfig:0000000000000012 .L0 
C:\Users\LOCALH~1\AppData\Local\Temp\ccskN8Qo.s:1290   .text.ETH_MACAddressFilterConfig:0000000000000018 .L0 
C:\Users\LOCALH~1\AppData\Local\Temp\ccskN8Qo.s:1292   .text.ETH_MACAddressFilterConfig:000000000000001a .L0 
C:\Users\LOCALH~1\AppData\Local\Temp\ccskN8Qo.s:1295   .text.ETH_MACAddressFilterConfig:000000000000001c .L0 
C:\Users\LOCALH~1\AppData\Local\Temp\ccskN8Qo.s:1296   .text.ETH_MACAddressFilterConfig:000000000000001c .L0 
C:\Users\LOCALH~1\AppData\Local\Temp\ccskN8Qo.s:1298   .text.ETH_MACAddressFilterConfig:000000000000001e .L0 
C:\Users\LOCALH~1\AppData\Local\Temp\ccskN8Qo.s:1302   .text.ETH_MACAddressFilterConfig:0000000000000028 .L0 
C:\Users\LOCALH~1\AppData\Local\Temp\ccskN8Qo.s:1309   .text.ETH_MACAddressMaskBytesFilterConfig:0000000000000000 ETH_MACAddressMaskBytesFilterConfig
C:\Users\LOCALH~1\AppData\Local\Temp\ccskN8Qo.s:1312   .text.ETH_MACAddressMaskBytesFilterConfig:0000000000000000 .L0 
C:\Users\LOCALH~1\AppData\Local\Temp\ccskN8Qo.s:1314   .text.ETH_MACAddressMaskBytesFilterConfig:0000000000000000 .L0 
C:\Users\LOCALH~1\AppData\Local\Temp\ccskN8Qo.s:1315   .text.ETH_MACAddressMaskBytesFilterConfig:0000000000000000 .L0 
C:\Users\LOCALH~1\AppData\Local\Temp\ccskN8Qo.s:1316   .text.ETH_MACAddressMaskBytesFilterConfig:0000000000000000 $x
C:\Users\LOCALH~1\AppData\Local\Temp\ccskN8Qo.s:1316   .text.ETH_MACAddressMaskBytesFilterConfig:0000000000000000 .L0 
C:\Users\LOCALH~1\AppData\Local\Temp\ccskN8Qo.s:1322   .text.ETH_MACAddressMaskBytesFilterConfig:000000000000000c .L0 
C:\Users\LOCALH~1\AppData\Local\Temp\ccskN8Qo.s:1327   .text.ETH_MACAddressMaskBytesFilterConfig:0000000000000016 .L0 
C:\Users\LOCALH~1\AppData\Local\Temp\ccskN8Qo.s:1328   .text.ETH_MACAddressMaskBytesFilterConfig:0000000000000016 .L0 
C:\Users\LOCALH~1\AppData\Local\Temp\ccskN8Qo.s:1330   .text.ETH_MACAddressMaskBytesFilterConfig:0000000000000018 .L0 
C:\Users\LOCALH~1\AppData\Local\Temp\ccskN8Qo.s:1333   .text.ETH_MACAddressMaskBytesFilterConfig:000000000000001c .L0 
C:\Users\LOCALH~1\AppData\Local\Temp\ccskN8Qo.s:1334   .text.ETH_MACAddressMaskBytesFilterConfig:000000000000001e .L0 
C:\Users\LOCALH~1\AppData\Local\Temp\ccskN8Qo.s:1341   .text.ETH_DMATxDescChainInit:0000000000000000 ETH_DMATxDescChainInit
C:\Users\LOCALH~1\AppData\Local\Temp\ccskN8Qo.s:1344   .text.ETH_DMATxDescChainInit:0000000000000000 .L0 
C:\Users\LOCALH~1\AppData\Local\Temp\ccskN8Qo.s:1346   .text.ETH_DMATxDescChainInit:0000000000000000 .L0 
C:\Users\LOCALH~1\AppData\Local\Temp\ccskN8Qo.s:1347   .text.ETH_DMATxDescChainInit:0000000000000000 .L0 
C:\Users\LOCALH~1\AppData\Local\Temp\ccskN8Qo.s:1348   .text.ETH_DMATxDescChainInit:0000000000000000 .L0 
C:\Users\LOCALH~1\AppData\Local\Temp\ccskN8Qo.s:1349   .text.ETH_DMATxDescChainInit:0000000000000000 .L0 
C:\Users\LOCALH~1\AppData\Local\Temp\ccskN8Qo.s:1350   .text.ETH_DMATxDescChainInit:0000000000000000 $x
C:\Users\LOCALH~1\AppData\Local\Temp\ccskN8Qo.s:1350   .text.ETH_DMATxDescChainInit:0000000000000000 .L0 
C:\Users\LOCALH~1\AppData\Local\Temp\ccskN8Qo.s:1352   .text.ETH_DMATxDescChainInit:0000000000000008 .L0 
C:\Users\LOCALH~1\AppData\Local\Temp\ccskN8Qo.s:1355   .text.ETH_DMATxDescChainInit:000000000000000c .L0 
C:\Users\LOCALH~1\AppData\Local\Temp\ccskN8Qo.s:1357   .text.ETH_DMATxDescChainInit:0000000000000010 .L0 
C:\Users\LOCALH~1\AppData\Local\Temp\ccskN8Qo.s:1359   .text.ETH_DMATxDescChainInit:0000000000000014 .L0 
C:\Users\LOCALH~1\AppData\Local\Temp\ccskN8Qo.s:1363   .text.ETH_DMATxDescChainInit:0000000000000018 .L0 
C:\Users\LOCALH~1\AppData\Local\Temp\ccskN8Qo.s:1365   .text.ETH_DMATxDescChainInit:000000000000001c .L0 
C:\Users\LOCALH~1\AppData\Local\Temp\ccskN8Qo.s:1366   .text.ETH_DMATxDescChainInit:000000000000001c .L0 
C:\Users\LOCALH~1\AppData\Local\Temp\ccskN8Qo.s:1370   .text.ETH_DMATxDescChainInit:0000000000000022 .L0 
C:\Users\LOCALH~1\AppData\Local\Temp\ccskN8Qo.s:1374   .text.ETH_DMATxDescChainInit:0000000000000024 .L0 
C:\Users\LOCALH~1\AppData\Local\Temp\ccskN8Qo.s:1375   .text.ETH_DMATxDescChainInit:0000000000000024 .L0 
C:\Users\LOCALH~1\AppData\Local\Temp\ccskN8Qo.s:1376   .text.ETH_DMATxDescChainInit:0000000000000024 .L0 
C:\Users\LOCALH~1\AppData\Local\Temp\ccskN8Qo.s:1378   .text.ETH_DMATxDescChainInit:0000000000000028 .L0 
C:\Users\LOCALH~1\AppData\Local\Temp\ccskN8Qo.s:1380   .text.ETH_DMATxDescChainInit:000000000000002c .L0 
C:\Users\LOCALH~1\AppData\Local\Temp\ccskN8Qo.s:1381   .text.ETH_DMATxDescChainInit:000000000000002c .L0 
C:\Users\LOCALH~1\AppData\Local\Temp\ccskN8Qo.s:1383   .text.ETH_DMATxDescChainInit:000000000000002e .L0 
C:\Users\LOCALH~1\AppData\Local\Temp\ccskN8Qo.s:1386   .text.ETH_DMATxDescChainInit:0000000000000032 .L0 
C:\Users\LOCALH~1\AppData\Local\Temp\ccskN8Qo.s:1388   .text.ETH_DMATxDescChainInit:0000000000000036 .L0 
C:\Users\LOCALH~1\AppData\Local\Temp\ccskN8Qo.s:1390   .text.ETH_DMATxDescChainInit:000000000000003a .L0 
C:\Users\LOCALH~1\AppData\Local\Temp\ccskN8Qo.s:1395   .text.ETH_DMATxDescChainInit:0000000000000040 .L0 
C:\Users\LOCALH~1\AppData\Local\Temp\ccskN8Qo.s:1400   .text.ETH_DMATxDescChainInit:0000000000000046 .L0 
C:\Users\LOCALH~1\AppData\Local\Temp\ccskN8Qo.s:1407   .text.ETH_DMATxDescRingInit:0000000000000000 ETH_DMATxDescRingInit
C:\Users\LOCALH~1\AppData\Local\Temp\ccskN8Qo.s:1410   .text.ETH_DMATxDescRingInit:0000000000000000 .L0 
C:\Users\LOCALH~1\AppData\Local\Temp\ccskN8Qo.s:1412   .text.ETH_DMATxDescRingInit:0000000000000000 .L0 
C:\Users\LOCALH~1\AppData\Local\Temp\ccskN8Qo.s:1413   .text.ETH_DMATxDescRingInit:0000000000000000 .L0 
C:\Users\LOCALH~1\AppData\Local\Temp\ccskN8Qo.s:1414   .text.ETH_DMATxDescRingInit:0000000000000000 .L0 
C:\Users\LOCALH~1\AppData\Local\Temp\ccskN8Qo.s:1415   .text.ETH_DMATxDescRingInit:0000000000000000 .L0 
C:\Users\LOCALH~1\AppData\Local\Temp\ccskN8Qo.s:1416   .text.ETH_DMATxDescRingInit:0000000000000000 $x
C:\Users\LOCALH~1\AppData\Local\Temp\ccskN8Qo.s:1416   .text.ETH_DMATxDescRingInit:0000000000000000 .L0 
C:\Users\LOCALH~1\AppData\Local\Temp\ccskN8Qo.s:1418   .text.ETH_DMATxDescRingInit:0000000000000008 .L0 
C:\Users\LOCALH~1\AppData\Local\Temp\ccskN8Qo.s:1420   .text.ETH_DMATxDescRingInit:000000000000000a .L0 
C:\Users\LOCALH~1\AppData\Local\Temp\ccskN8Qo.s:1423   .text.ETH_DMATxDescRingInit:0000000000000010 .L0 
C:\Users\LOCALH~1\AppData\Local\Temp\ccskN8Qo.s:1425   .text.ETH_DMATxDescRingInit:0000000000000014 .L0 
C:\Users\LOCALH~1\AppData\Local\Temp\ccskN8Qo.s:1429   .text.ETH_DMATxDescRingInit:0000000000000018 .L0 
C:\Users\LOCALH~1\AppData\Local\Temp\ccskN8Qo.s:1431   .text.ETH_DMATxDescRingInit:000000000000001c .L0 
C:\Users\LOCALH~1\AppData\Local\Temp\ccskN8Qo.s:1432   .text.ETH_DMATxDescRingInit:000000000000001c .L0 
C:\Users\LOCALH~1\AppData\Local\Temp\ccskN8Qo.s:1436   .text.ETH_DMATxDescRingInit:0000000000000022 .L0 
C:\Users\LOCALH~1\AppData\Local\Temp\ccskN8Qo.s:1440   .text.ETH_DMATxDescRingInit:0000000000000024 .L0 
C:\Users\LOCALH~1\AppData\Local\Temp\ccskN8Qo.s:1441   .text.ETH_DMATxDescRingInit:0000000000000024 .L0 
C:\Users\LOCALH~1\AppData\Local\Temp\ccskN8Qo.s:1443   .text.ETH_DMATxDescRingInit:0000000000000028 .L0 
C:\Users\LOCALH~1\AppData\Local\Temp\ccskN8Qo.s:1445   .text.ETH_DMATxDescRingInit:000000000000002c .L0 
C:\Users\LOCALH~1\AppData\Local\Temp\ccskN8Qo.s:1447   .text.ETH_DMATxDescRingInit:000000000000002e .L0 
C:\Users\LOCALH~1\AppData\Local\Temp\ccskN8Qo.s:1449   .text.ETH_DMATxDescRingInit:0000000000000032 .L0 
C:\Users\LOCALH~1\AppData\Local\Temp\ccskN8Qo.s:1450   .text.ETH_DMATxDescRingInit:0000000000000032 .L0 
C:\Users\LOCALH~1\AppData\Local\Temp\ccskN8Qo.s:1452   .text.ETH_DMATxDescRingInit:0000000000000036 .L0 
C:\Users\LOCALH~1\AppData\Local\Temp\ccskN8Qo.s:1453   .text.ETH_DMATxDescRingInit:0000000000000036 .L0 
C:\Users\LOCALH~1\AppData\Local\Temp\ccskN8Qo.s:1455   .text.ETH_DMATxDescRingInit:000000000000003a .L0 
C:\Users\LOCALH~1\AppData\Local\Temp\ccskN8Qo.s:1456   .text.ETH_DMATxDescRingInit:000000000000003a .L0 
C:\Users\LOCALH~1\AppData\Local\Temp\ccskN8Qo.s:1459   .text.ETH_DMATxDescRingInit:000000000000003e .L0 
C:\Users\LOCALH~1\AppData\Local\Temp\ccskN8Qo.s:1464   .text.ETH_DMATxDescRingInit:0000000000000044 .L0 
C:\Users\LOCALH~1\AppData\Local\Temp\ccskN8Qo.s:1471   .text.ETH_GetDMATxDescFlagStatus:0000000000000000 ETH_GetDMATxDescFlagStatus
C:\Users\LOCALH~1\AppData\Local\Temp\ccskN8Qo.s:1474   .text.ETH_GetDMATxDescFlagStatus:0000000000000000 .L0 
C:\Users\LOCALH~1\AppData\Local\Temp\ccskN8Qo.s:1476   .text.ETH_GetDMATxDescFlagStatus:0000000000000000 .L0 
C:\Users\LOCALH~1\AppData\Local\Temp\ccskN8Qo.s:1477   .text.ETH_GetDMATxDescFlagStatus:0000000000000000 .L0 
C:\Users\LOCALH~1\AppData\Local\Temp\ccskN8Qo.s:1478   .text.ETH_GetDMATxDescFlagStatus:0000000000000000 .L0 
C:\Users\LOCALH~1\AppData\Local\Temp\ccskN8Qo.s:1479   .text.ETH_GetDMATxDescFlagStatus:0000000000000000 $x
C:\Users\LOCALH~1\AppData\Local\Temp\ccskN8Qo.s:1479   .text.ETH_GetDMATxDescFlagStatus:0000000000000000 .L0 
C:\Users\LOCALH~1\AppData\Local\Temp\ccskN8Qo.s:1482   .text.ETH_GetDMATxDescFlagStatus:0000000000000002 .L0 
C:\Users\LOCALH~1\AppData\Local\Temp\ccskN8Qo.s:1483   .text.ETH_GetDMATxDescFlagStatus:0000000000000002 .L0 
C:\Users\LOCALH~1\AppData\Local\Temp\ccskN8Qo.s:1486   .text.ETH_GetDMATxDescFlagStatus:0000000000000004 .L0 
C:\Users\LOCALH~1\AppData\Local\Temp\ccskN8Qo.s:1488   .text.ETH_GetDMATxDescFlagStatus:000000000000000a .L0 
C:\Users\LOCALH~1\AppData\Local\Temp\ccskN8Qo.s:1495   .text.ETH_GetDMATxDescCollisionCount:0000000000000000 ETH_GetDMATxDescCollisionCount
C:\Users\LOCALH~1\AppData\Local\Temp\ccskN8Qo.s:1498   .text.ETH_GetDMATxDescCollisionCount:0000000000000000 .L0 
C:\Users\LOCALH~1\AppData\Local\Temp\ccskN8Qo.s:1500   .text.ETH_GetDMATxDescCollisionCount:0000000000000000 .L0 
C:\Users\LOCALH~1\AppData\Local\Temp\ccskN8Qo.s:1501   .text.ETH_GetDMATxDescCollisionCount:0000000000000000 .L0 
C:\Users\LOCALH~1\AppData\Local\Temp\ccskN8Qo.s:1502   .text.ETH_GetDMATxDescCollisionCount:0000000000000000 $x
C:\Users\LOCALH~1\AppData\Local\Temp\ccskN8Qo.s:1502   .text.ETH_GetDMATxDescCollisionCount:0000000000000000 .L0 
C:\Users\LOCALH~1\AppData\Local\Temp\ccskN8Qo.s:1505   .text.ETH_GetDMATxDescCollisionCount:0000000000000002 .L0 
C:\Users\LOCALH~1\AppData\Local\Temp\ccskN8Qo.s:1507   .text.ETH_GetDMATxDescCollisionCount:0000000000000004 .L0 
C:\Users\LOCALH~1\AppData\Local\Temp\ccskN8Qo.s:1509   .text.ETH_GetDMATxDescCollisionCount:0000000000000008 .L0 
C:\Users\LOCALH~1\AppData\Local\Temp\ccskN8Qo.s:1516   .text.ETH_SetDMATxDescOwnBit:0000000000000000 ETH_SetDMATxDescOwnBit
C:\Users\LOCALH~1\AppData\Local\Temp\ccskN8Qo.s:1519   .text.ETH_SetDMATxDescOwnBit:0000000000000000 .L0 
C:\Users\LOCALH~1\AppData\Local\Temp\ccskN8Qo.s:1521   .text.ETH_SetDMATxDescOwnBit:0000000000000000 .L0 
C:\Users\LOCALH~1\AppData\Local\Temp\ccskN8Qo.s:1522   .text.ETH_SetDMATxDescOwnBit:0000000000000000 .L0 
C:\Users\LOCALH~1\AppData\Local\Temp\ccskN8Qo.s:1523   .text.ETH_SetDMATxDescOwnBit:0000000000000000 $x
C:\Users\LOCALH~1\AppData\Local\Temp\ccskN8Qo.s:1523   .text.ETH_SetDMATxDescOwnBit:0000000000000000 .L0 
C:\Users\LOCALH~1\AppData\Local\Temp\ccskN8Qo.s:1525   .text.ETH_SetDMATxDescOwnBit:0000000000000002 .L0 
C:\Users\LOCALH~1\AppData\Local\Temp\ccskN8Qo.s:1529   .text.ETH_SetDMATxDescOwnBit:000000000000000a .L0 
C:\Users\LOCALH~1\AppData\Local\Temp\ccskN8Qo.s:1530   .text.ETH_SetDMATxDescOwnBit:000000000000000c .L0 
C:\Users\LOCALH~1\AppData\Local\Temp\ccskN8Qo.s:1537   .text.ETH_DMATxDescTransmitITConfig:0000000000000000 ETH_DMATxDescTransmitITConfig
C:\Users\LOCALH~1\AppData\Local\Temp\ccskN8Qo.s:1540   .text.ETH_DMATxDescTransmitITConfig:0000000000000000 .L0 
C:\Users\LOCALH~1\AppData\Local\Temp\ccskN8Qo.s:1542   .text.ETH_DMATxDescTransmitITConfig:0000000000000000 .L0 
C:\Users\LOCALH~1\AppData\Local\Temp\ccskN8Qo.s:1543   .text.ETH_DMATxDescTransmitITConfig:0000000000000000 .L0 
C:\Users\LOCALH~1\AppData\Local\Temp\ccskN8Qo.s:1544   .text.ETH_DMATxDescTransmitITConfig:0000000000000000 $x
C:\Users\LOCALH~1\AppData\Local\Temp\ccskN8Qo.s:1544   .text.ETH_DMATxDescTransmitITConfig:0000000000000000 .L0 
C:\Users\LOCALH~1\AppData\Local\Temp\ccskN8Qo.s:1546   .text.ETH_DMATxDescTransmitITConfig:0000000000000002 .L0 
C:\Users\LOCALH~1\AppData\Local\Temp\ccskN8Qo.s:1548   .text.ETH_DMATxDescTransmitITConfig:0000000000000004 .L0 
C:\Users\LOCALH~1\AppData\Local\Temp\ccskN8Qo.s:1549   .text.ETH_DMATxDescTransmitITConfig:0000000000000004 .L0 
C:\Users\LOCALH~1\AppData\Local\Temp\ccskN8Qo.s:1553   .text.ETH_DMATxDescTransmitITConfig:000000000000000a .L0 
C:\Users\LOCALH~1\AppData\Local\Temp\ccskN8Qo.s:1555   .text.ETH_DMATxDescTransmitITConfig:000000000000000c .L0 
C:\Users\LOCALH~1\AppData\Local\Temp\ccskN8Qo.s:1558   .text.ETH_DMATxDescTransmitITConfig:000000000000000e .L0 
C:\Users\LOCALH~1\AppData\Local\Temp\ccskN8Qo.s:1559   .text.ETH_DMATxDescTransmitITConfig:000000000000000e .L0 
C:\Users\LOCALH~1\AppData\Local\Temp\ccskN8Qo.s:1563   .text.ETH_DMATxDescTransmitITConfig:0000000000000018 .L0 
C:\Users\LOCALH~1\AppData\Local\Temp\ccskN8Qo.s:1570   .text.ETH_DMATxDescFrameSegmentConfig:0000000000000000 ETH_DMATxDescFrameSegmentConfig
C:\Users\LOCALH~1\AppData\Local\Temp\ccskN8Qo.s:1573   .text.ETH_DMATxDescFrameSegmentConfig:0000000000000000 .L0 
C:\Users\LOCALH~1\AppData\Local\Temp\ccskN8Qo.s:1575   .text.ETH_DMATxDescFrameSegmentConfig:0000000000000000 .L0 
C:\Users\LOCALH~1\AppData\Local\Temp\ccskN8Qo.s:1576   .text.ETH_DMATxDescFrameSegmentConfig:0000000000000000 .L0 
C:\Users\LOCALH~1\AppData\Local\Temp\ccskN8Qo.s:1577   .text.ETH_DMATxDescFrameSegmentConfig:0000000000000000 $x
C:\Users\LOCALH~1\AppData\Local\Temp\ccskN8Qo.s:1577   .text.ETH_DMATxDescFrameSegmentConfig:0000000000000000 .L0 
C:\Users\LOCALH~1\AppData\Local\Temp\ccskN8Qo.s:1579   .text.ETH_DMATxDescFrameSegmentConfig:0000000000000002 .L0 
C:\Users\LOCALH~1\AppData\Local\Temp\ccskN8Qo.s:1582   .text.ETH_DMATxDescFrameSegmentConfig:0000000000000006 .L0 
C:\Users\LOCALH~1\AppData\Local\Temp\ccskN8Qo.s:1583   .text.ETH_DMATxDescFrameSegmentConfig:0000000000000008 .L0 
C:\Users\LOCALH~1\AppData\Local\Temp\ccskN8Qo.s:1590   .text.ETH_DMATxDescChecksumInsertionConfig:0000000000000000 ETH_DMATxDescChecksumInsertionConfig
C:\Users\LOCALH~1\AppData\Local\Temp\ccskN8Qo.s:1592   .text.ETH_DMATxDescChecksumInsertionConfig:0000000000000000 .L0 
C:\Users\LOCALH~1\AppData\Local\Temp\ccskN8Qo.s:1594   .text.ETH_DMATxDescChecksumInsertionConfig:0000000000000000 $x
C:\Users\LOCALH~1\AppData\Local\Temp\ccskN8Qo.s:1594   .text.ETH_DMATxDescChecksumInsertionConfig:0000000000000000 .L0 
C:\Users\LOCALH~1\AppData\Local\Temp\ccskN8Qo.s:1598   .text.ETH_DMATxDescChecksumInsertionConfig:0000000000000008 .L0 
C:\Users\LOCALH~1\AppData\Local\Temp\ccskN8Qo.s:1605   .text.ETH_DMATxDescCRCCmd:0000000000000000 ETH_DMATxDescCRCCmd
C:\Users\LOCALH~1\AppData\Local\Temp\ccskN8Qo.s:1608   .text.ETH_DMATxDescCRCCmd:0000000000000000 .L0 
C:\Users\LOCALH~1\AppData\Local\Temp\ccskN8Qo.s:1610   .text.ETH_DMATxDescCRCCmd:0000000000000000 .L0 
C:\Users\LOCALH~1\AppData\Local\Temp\ccskN8Qo.s:1611   .text.ETH_DMATxDescCRCCmd:0000000000000000 .L0 
C:\Users\LOCALH~1\AppData\Local\Temp\ccskN8Qo.s:1612   .text.ETH_DMATxDescCRCCmd:0000000000000000 $x
C:\Users\LOCALH~1\AppData\Local\Temp\ccskN8Qo.s:1612   .text.ETH_DMATxDescCRCCmd:0000000000000000 .L0 
C:\Users\LOCALH~1\AppData\Local\Temp\ccskN8Qo.s:1614   .text.ETH_DMATxDescCRCCmd:0000000000000002 .L0 
C:\Users\LOCALH~1\AppData\Local\Temp\ccskN8Qo.s:1616   .text.ETH_DMATxDescCRCCmd:0000000000000004 .L0 
C:\Users\LOCALH~1\AppData\Local\Temp\ccskN8Qo.s:1617   .text.ETH_DMATxDescCRCCmd:0000000000000004 .L0 
C:\Users\LOCALH~1\AppData\Local\Temp\ccskN8Qo.s:1622   .text.ETH_DMATxDescCRCCmd:000000000000000c .L0 
C:\Users\LOCALH~1\AppData\Local\Temp\ccskN8Qo.s:1624   .text.ETH_DMATxDescCRCCmd:000000000000000e .L0 
C:\Users\LOCALH~1\AppData\Local\Temp\ccskN8Qo.s:1627   .text.ETH_DMATxDescCRCCmd:0000000000000010 .L0 
C:\Users\LOCALH~1\AppData\Local\Temp\ccskN8Qo.s:1628   .text.ETH_DMATxDescCRCCmd:0000000000000010 .L0 
C:\Users\LOCALH~1\AppData\Local\Temp\ccskN8Qo.s:1631   .text.ETH_DMATxDescCRCCmd:0000000000000018 .L0 
C:\Users\LOCALH~1\AppData\Local\Temp\ccskN8Qo.s:1638   .text.ETH_DMATxDescEndOfRingCmd:0000000000000000 ETH_DMATxDescEndOfRingCmd
C:\Users\LOCALH~1\AppData\Local\Temp\ccskN8Qo.s:1641   .text.ETH_DMATxDescEndOfRingCmd:0000000000000000 .L0 
C:\Users\LOCALH~1\AppData\Local\Temp\ccskN8Qo.s:1643   .text.ETH_DMATxDescEndOfRingCmd:0000000000000000 .L0 
C:\Users\LOCALH~1\AppData\Local\Temp\ccskN8Qo.s:1644   .text.ETH_DMATxDescEndOfRingCmd:0000000000000000 .L0 
C:\Users\LOCALH~1\AppData\Local\Temp\ccskN8Qo.s:1645   .text.ETH_DMATxDescEndOfRingCmd:0000000000000000 $x
C:\Users\LOCALH~1\AppData\Local\Temp\ccskN8Qo.s:1645   .text.ETH_DMATxDescEndOfRingCmd:0000000000000000 .L0 
C:\Users\LOCALH~1\AppData\Local\Temp\ccskN8Qo.s:1647   .text.ETH_DMATxDescEndOfRingCmd:0000000000000002 .L0 
C:\Users\LOCALH~1\AppData\Local\Temp\ccskN8Qo.s:1649   .text.ETH_DMATxDescEndOfRingCmd:0000000000000004 .L0 
C:\Users\LOCALH~1\AppData\Local\Temp\ccskN8Qo.s:1650   .text.ETH_DMATxDescEndOfRingCmd:0000000000000004 .L0 
C:\Users\LOCALH~1\AppData\Local\Temp\ccskN8Qo.s:1654   .text.ETH_DMATxDescEndOfRingCmd:000000000000000a .L0 
C:\Users\LOCALH~1\AppData\Local\Temp\ccskN8Qo.s:1656   .text.ETH_DMATxDescEndOfRingCmd:000000000000000c .L0 
C:\Users\LOCALH~1\AppData\Local\Temp\ccskN8Qo.s:1659   .text.ETH_DMATxDescEndOfRingCmd:000000000000000e .L0 
C:\Users\LOCALH~1\AppData\Local\Temp\ccskN8Qo.s:1660   .text.ETH_DMATxDescEndOfRingCmd:000000000000000e .L0 
C:\Users\LOCALH~1\AppData\Local\Temp\ccskN8Qo.s:1664   .text.ETH_DMATxDescEndOfRingCmd:0000000000000018 .L0 
C:\Users\LOCALH~1\AppData\Local\Temp\ccskN8Qo.s:1671   .text.ETH_DMATxDescSecondAddressChainedCmd:0000000000000000 ETH_DMATxDescSecondAddressChainedCmd
C:\Users\LOCALH~1\AppData\Local\Temp\ccskN8Qo.s:1674   .text.ETH_DMATxDescSecondAddressChainedCmd:0000000000000000 .L0 
C:\Users\LOCALH~1\AppData\Local\Temp\ccskN8Qo.s:1676   .text.ETH_DMATxDescSecondAddressChainedCmd:0000000000000000 .L0 
C:\Users\LOCALH~1\AppData\Local\Temp\ccskN8Qo.s:1677   .text.ETH_DMATxDescSecondAddressChainedCmd:0000000000000000 .L0 
C:\Users\LOCALH~1\AppData\Local\Temp\ccskN8Qo.s:1678   .text.ETH_DMATxDescSecondAddressChainedCmd:0000000000000000 $x
C:\Users\LOCALH~1\AppData\Local\Temp\ccskN8Qo.s:1678   .text.ETH_DMATxDescSecondAddressChainedCmd:0000000000000000 .L0 
C:\Users\LOCALH~1\AppData\Local\Temp\ccskN8Qo.s:1680   .text.ETH_DMATxDescSecondAddressChainedCmd:0000000000000002 .L0 
C:\Users\LOCALH~1\AppData\Local\Temp\ccskN8Qo.s:1682   .text.ETH_DMATxDescSecondAddressChainedCmd:0000000000000004 .L0 
C:\Users\LOCALH~1\AppData\Local\Temp\ccskN8Qo.s:1683   .text.ETH_DMATxDescSecondAddressChainedCmd:0000000000000004 .L0 
C:\Users\LOCALH~1\AppData\Local\Temp\ccskN8Qo.s:1687   .text.ETH_DMATxDescSecondAddressChainedCmd:000000000000000a .L0 
C:\Users\LOCALH~1\AppData\Local\Temp\ccskN8Qo.s:1689   .text.ETH_DMATxDescSecondAddressChainedCmd:000000000000000c .L0 
C:\Users\LOCALH~1\AppData\Local\Temp\ccskN8Qo.s:1692   .text.ETH_DMATxDescSecondAddressChainedCmd:000000000000000e .L0 
C:\Users\LOCALH~1\AppData\Local\Temp\ccskN8Qo.s:1693   .text.ETH_DMATxDescSecondAddressChainedCmd:000000000000000e .L0 
C:\Users\LOCALH~1\AppData\Local\Temp\ccskN8Qo.s:1697   .text.ETH_DMATxDescSecondAddressChainedCmd:0000000000000018 .L0 
C:\Users\LOCALH~1\AppData\Local\Temp\ccskN8Qo.s:1704   .text.ETH_DMATxDescShortFramePaddingCmd:0000000000000000 ETH_DMATxDescShortFramePaddingCmd
C:\Users\LOCALH~1\AppData\Local\Temp\ccskN8Qo.s:1707   .text.ETH_DMATxDescShortFramePaddingCmd:0000000000000000 .L0 
C:\Users\LOCALH~1\AppData\Local\Temp\ccskN8Qo.s:1709   .text.ETH_DMATxDescShortFramePaddingCmd:0000000000000000 .L0 
C:\Users\LOCALH~1\AppData\Local\Temp\ccskN8Qo.s:1710   .text.ETH_DMATxDescShortFramePaddingCmd:0000000000000000 .L0 
C:\Users\LOCALH~1\AppData\Local\Temp\ccskN8Qo.s:1711   .text.ETH_DMATxDescShortFramePaddingCmd:0000000000000000 $x
C:\Users\LOCALH~1\AppData\Local\Temp\ccskN8Qo.s:1711   .text.ETH_DMATxDescShortFramePaddingCmd:0000000000000000 .L0 
C:\Users\LOCALH~1\AppData\Local\Temp\ccskN8Qo.s:1713   .text.ETH_DMATxDescShortFramePaddingCmd:0000000000000002 .L0 
C:\Users\LOCALH~1\AppData\Local\Temp\ccskN8Qo.s:1715   .text.ETH_DMATxDescShortFramePaddingCmd:0000000000000004 .L0 
C:\Users\LOCALH~1\AppData\Local\Temp\ccskN8Qo.s:1716   .text.ETH_DMATxDescShortFramePaddingCmd:0000000000000004 .L0 
C:\Users\LOCALH~1\AppData\Local\Temp\ccskN8Qo.s:1721   .text.ETH_DMATxDescShortFramePaddingCmd:000000000000000c .L0 
C:\Users\LOCALH~1\AppData\Local\Temp\ccskN8Qo.s:1723   .text.ETH_DMATxDescShortFramePaddingCmd:000000000000000e .L0 
C:\Users\LOCALH~1\AppData\Local\Temp\ccskN8Qo.s:1726   .text.ETH_DMATxDescShortFramePaddingCmd:0000000000000010 .L0 
C:\Users\LOCALH~1\AppData\Local\Temp\ccskN8Qo.s:1727   .text.ETH_DMATxDescShortFramePaddingCmd:0000000000000010 .L0 
C:\Users\LOCALH~1\AppData\Local\Temp\ccskN8Qo.s:1730   .text.ETH_DMATxDescShortFramePaddingCmd:0000000000000018 .L0 
C:\Users\LOCALH~1\AppData\Local\Temp\ccskN8Qo.s:1737   .text.ETH_DMATxDescTimeStampCmd:0000000000000000 ETH_DMATxDescTimeStampCmd
C:\Users\LOCALH~1\AppData\Local\Temp\ccskN8Qo.s:1740   .text.ETH_DMATxDescTimeStampCmd:0000000000000000 .L0 
C:\Users\LOCALH~1\AppData\Local\Temp\ccskN8Qo.s:1742   .text.ETH_DMATxDescTimeStampCmd:0000000000000000 .L0 
C:\Users\LOCALH~1\AppData\Local\Temp\ccskN8Qo.s:1743   .text.ETH_DMATxDescTimeStampCmd:0000000000000000 .L0 
C:\Users\LOCALH~1\AppData\Local\Temp\ccskN8Qo.s:1744   .text.ETH_DMATxDescTimeStampCmd:0000000000000000 $x
C:\Users\LOCALH~1\AppData\Local\Temp\ccskN8Qo.s:1744   .text.ETH_DMATxDescTimeStampCmd:0000000000000000 .L0 
C:\Users\LOCALH~1\AppData\Local\Temp\ccskN8Qo.s:1746   .text.ETH_DMATxDescTimeStampCmd:0000000000000002 .L0 
C:\Users\LOCALH~1\AppData\Local\Temp\ccskN8Qo.s:1748   .text.ETH_DMATxDescTimeStampCmd:0000000000000004 .L0 
C:\Users\LOCALH~1\AppData\Local\Temp\ccskN8Qo.s:1749   .text.ETH_DMATxDescTimeStampCmd:0000000000000004 .L0 
C:\Users\LOCALH~1\AppData\Local\Temp\ccskN8Qo.s:1753   .text.ETH_DMATxDescTimeStampCmd:000000000000000a .L0 
C:\Users\LOCALH~1\AppData\Local\Temp\ccskN8Qo.s:1755   .text.ETH_DMATxDescTimeStampCmd:000000000000000c .L0 
C:\Users\LOCALH~1\AppData\Local\Temp\ccskN8Qo.s:1758   .text.ETH_DMATxDescTimeStampCmd:000000000000000e .L0 
C:\Users\LOCALH~1\AppData\Local\Temp\ccskN8Qo.s:1759   .text.ETH_DMATxDescTimeStampCmd:000000000000000e .L0 
C:\Users\LOCALH~1\AppData\Local\Temp\ccskN8Qo.s:1763   .text.ETH_DMATxDescTimeStampCmd:0000000000000018 .L0 
C:\Users\LOCALH~1\AppData\Local\Temp\ccskN8Qo.s:1770   .text.ETH_DMATxDescBufferSizeConfig:0000000000000000 ETH_DMATxDescBufferSizeConfig
C:\Users\LOCALH~1\AppData\Local\Temp\ccskN8Qo.s:1773   .text.ETH_DMATxDescBufferSizeConfig:0000000000000000 .L0 
C:\Users\LOCALH~1\AppData\Local\Temp\ccskN8Qo.s:1775   .text.ETH_DMATxDescBufferSizeConfig:0000000000000000 .L0 
C:\Users\LOCALH~1\AppData\Local\Temp\ccskN8Qo.s:1776   .text.ETH_DMATxDescBufferSizeConfig:0000000000000000 .L0 
C:\Users\LOCALH~1\AppData\Local\Temp\ccskN8Qo.s:1777   .text.ETH_DMATxDescBufferSizeConfig:0000000000000000 $x
C:\Users\LOCALH~1\AppData\Local\Temp\ccskN8Qo.s:1777   .text.ETH_DMATxDescBufferSizeConfig:0000000000000000 .L0 
C:\Users\LOCALH~1\AppData\Local\Temp\ccskN8Qo.s:1779   .text.ETH_DMATxDescBufferSizeConfig:0000000000000002 .L0 
C:\Users\LOCALH~1\AppData\Local\Temp\ccskN8Qo.s:1782   .text.ETH_DMATxDescBufferSizeConfig:0000000000000004 .L0 
C:\Users\LOCALH~1\AppData\Local\Temp\ccskN8Qo.s:1784   .text.ETH_DMATxDescBufferSizeConfig:0000000000000006 .L0 
C:\Users\LOCALH~1\AppData\Local\Temp\ccskN8Qo.s:1787   .text.ETH_DMATxDescBufferSizeConfig:000000000000000a .L0 
C:\Users\LOCALH~1\AppData\Local\Temp\ccskN8Qo.s:1788   .text.ETH_DMATxDescBufferSizeConfig:000000000000000c .L0 
C:\Users\LOCALH~1\AppData\Local\Temp\ccskN8Qo.s:1795   .text.ETH_DMARxDescChainInit:0000000000000000 ETH_DMARxDescChainInit
C:\Users\LOCALH~1\AppData\Local\Temp\ccskN8Qo.s:1798   .text.ETH_DMARxDescChainInit:0000000000000000 .L0 
C:\Users\LOCALH~1\AppData\Local\Temp\ccskN8Qo.s:1800   .text.ETH_DMARxDescChainInit:0000000000000000 .L0 
C:\Users\LOCALH~1\AppData\Local\Temp\ccskN8Qo.s:1801   .text.ETH_DMARxDescChainInit:0000000000000000 .L0 
C:\Users\LOCALH~1\AppData\Local\Temp\ccskN8Qo.s:1802   .text.ETH_DMARxDescChainInit:0000000000000000 .L0 
C:\Users\LOCALH~1\AppData\Local\Temp\ccskN8Qo.s:1803   .text.ETH_DMARxDescChainInit:0000000000000000 .L0 
C:\Users\LOCALH~1\AppData\Local\Temp\ccskN8Qo.s:1804   .text.ETH_DMARxDescChainInit:0000000000000000 $x
C:\Users\LOCALH~1\AppData\Local\Temp\ccskN8Qo.s:1804   .text.ETH_DMARxDescChainInit:0000000000000000 .L0 
C:\Users\LOCALH~1\AppData\Local\Temp\ccskN8Qo.s:1806   .text.ETH_DMARxDescChainInit:0000000000000008 .L0 
C:\Users\LOCALH~1\AppData\Local\Temp\ccskN8Qo.s:1807   .text.ETH_DMARxDescChainInit:0000000000000008 .L0 
C:\Users\LOCALH~1\AppData\Local\Temp\ccskN8Qo.s:1809   .text.ETH_DMARxDescChainInit:000000000000000a .L0 
C:\Users\LOCALH~1\AppData\Local\Temp\ccskN8Qo.s:1812   .text.ETH_DMARxDescChainInit:000000000000000e .L0 
C:\Users\LOCALH~1\AppData\Local\Temp\ccskN8Qo.s:1814   .text.ETH_DMARxDescChainInit:0000000000000012 .L0 
C:\Users\LOCALH~1\AppData\Local\Temp\ccskN8Qo.s:1816   .text.ETH_DMARxDescChainInit:0000000000000016 .L0 
C:\Users\LOCALH~1\AppData\Local\Temp\ccskN8Qo.s:1818   .text.ETH_DMARxDescChainInit:000000000000001a .L0 
C:\Users\LOCALH~1\AppData\Local\Temp\ccskN8Qo.s:1822   .text.ETH_DMARxDescChainInit:000000000000001e .L0 
C:\Users\LOCALH~1\AppData\Local\Temp\ccskN8Qo.s:1824   .text.ETH_DMARxDescChainInit:0000000000000022 .L0 
C:\Users\LOCALH~1\AppData\Local\Temp\ccskN8Qo.s:1825   .text.ETH_DMARxDescChainInit:0000000000000022 .L0 
C:\Users\LOCALH~1\AppData\Local\Temp\ccskN8Qo.s:1828   .text.ETH_DMARxDescChainInit:0000000000000028 .L0 
C:\Users\LOCALH~1\AppData\Local\Temp\ccskN8Qo.s:1832   .text.ETH_DMARxDescChainInit:000000000000002a .L0 
C:\Users\LOCALH~1\AppData\Local\Temp\ccskN8Qo.s:1833   .text.ETH_DMARxDescChainInit:000000000000002a .L0 
C:\Users\LOCALH~1\AppData\Local\Temp\ccskN8Qo.s:1834   .text.ETH_DMARxDescChainInit:000000000000002a .L0 
C:\Users\LOCALH~1\AppData\Local\Temp\ccskN8Qo.s:1836   .text.ETH_DMARxDescChainInit:000000000000002e .L0 
C:\Users\LOCALH~1\AppData\Local\Temp\ccskN8Qo.s:1838   .text.ETH_DMARxDescChainInit:0000000000000032 .L0 
C:\Users\LOCALH~1\AppData\Local\Temp\ccskN8Qo.s:1839   .text.ETH_DMARxDescChainInit:0000000000000032 .L0 
C:\Users\LOCALH~1\AppData\Local\Temp\ccskN8Qo.s:1841   .text.ETH_DMARxDescChainInit:0000000000000034 .L0 
C:\Users\LOCALH~1\AppData\Local\Temp\ccskN8Qo.s:1842   .text.ETH_DMARxDescChainInit:0000000000000034 .L0 
C:\Users\LOCALH~1\AppData\Local\Temp\ccskN8Qo.s:1844   .text.ETH_DMARxDescChainInit:0000000000000036 .L0 
C:\Users\LOCALH~1\AppData\Local\Temp\ccskN8Qo.s:1847   .text.ETH_DMARxDescChainInit:000000000000003c .L0 
C:\Users\LOCALH~1\AppData\Local\Temp\ccskN8Qo.s:1849   .text.ETH_DMARxDescChainInit:0000000000000040 .L0 
C:\Users\LOCALH~1\AppData\Local\Temp\ccskN8Qo.s:1851   .text.ETH_DMARxDescChainInit:0000000000000044 .L0 
C:\Users\LOCALH~1\AppData\Local\Temp\ccskN8Qo.s:1856   .text.ETH_DMARxDescChainInit:000000000000004a .L0 
C:\Users\LOCALH~1\AppData\Local\Temp\ccskN8Qo.s:1861   .text.ETH_DMARxDescChainInit:0000000000000050 .L0 
C:\Users\LOCALH~1\AppData\Local\Temp\ccskN8Qo.s:1868   .text.ETH_DMARxDescRingInit:0000000000000000 ETH_DMARxDescRingInit
C:\Users\LOCALH~1\AppData\Local\Temp\ccskN8Qo.s:1871   .text.ETH_DMARxDescRingInit:0000000000000000 .L0 
C:\Users\LOCALH~1\AppData\Local\Temp\ccskN8Qo.s:1873   .text.ETH_DMARxDescRingInit:0000000000000000 .L0 
C:\Users\LOCALH~1\AppData\Local\Temp\ccskN8Qo.s:1874   .text.ETH_DMARxDescRingInit:0000000000000000 .L0 
C:\Users\LOCALH~1\AppData\Local\Temp\ccskN8Qo.s:1875   .text.ETH_DMARxDescRingInit:0000000000000000 .L0 
C:\Users\LOCALH~1\AppData\Local\Temp\ccskN8Qo.s:1876   .text.ETH_DMARxDescRingInit:0000000000000000 .L0 
C:\Users\LOCALH~1\AppData\Local\Temp\ccskN8Qo.s:1877   .text.ETH_DMARxDescRingInit:0000000000000000 $x
C:\Users\LOCALH~1\AppData\Local\Temp\ccskN8Qo.s:1877   .text.ETH_DMARxDescRingInit:0000000000000000 .L0 
C:\Users\LOCALH~1\AppData\Local\Temp\ccskN8Qo.s:1879   .text.ETH_DMARxDescRingInit:0000000000000008 .L0 
C:\Users\LOCALH~1\AppData\Local\Temp\ccskN8Qo.s:1880   .text.ETH_DMARxDescRingInit:0000000000000008 .L0 
C:\Users\LOCALH~1\AppData\Local\Temp\ccskN8Qo.s:1882   .text.ETH_DMARxDescRingInit:000000000000000a .L0 
C:\Users\LOCALH~1\AppData\Local\Temp\ccskN8Qo.s:1884   .text.ETH_DMARxDescRingInit:000000000000000c .L0 
C:\Users\LOCALH~1\AppData\Local\Temp\ccskN8Qo.s:1886   .text.ETH_DMARxDescRingInit:000000000000000e .L0 
C:\Users\LOCALH~1\AppData\Local\Temp\ccskN8Qo.s:1889   .text.ETH_DMARxDescRingInit:0000000000000016 .L0 
C:\Users\LOCALH~1\AppData\Local\Temp\ccskN8Qo.s:1891   .text.ETH_DMARxDescRingInit:000000000000001a .L0 
C:\Users\LOCALH~1\AppData\Local\Temp\ccskN8Qo.s:1895   .text.ETH_DMARxDescRingInit:000000000000001e .L0 
C:\Users\LOCALH~1\AppData\Local\Temp\ccskN8Qo.s:1897   .text.ETH_DMARxDescRingInit:0000000000000022 .L0 
C:\Users\LOCALH~1\AppData\Local\Temp\ccskN8Qo.s:1898   .text.ETH_DMARxDescRingInit:0000000000000022 .L0 
C:\Users\LOCALH~1\AppData\Local\Temp\ccskN8Qo.s:1901   .text.ETH_DMARxDescRingInit:0000000000000028 .L0 
C:\Users\LOCALH~1\AppData\Local\Temp\ccskN8Qo.s:1905   .text.ETH_DMARxDescRingInit:000000000000002a .L0 
C:\Users\LOCALH~1\AppData\Local\Temp\ccskN8Qo.s:1906   .text.ETH_DMARxDescRingInit:000000000000002a .L0 
C:\Users\LOCALH~1\AppData\Local\Temp\ccskN8Qo.s:1908   .text.ETH_DMARxDescRingInit:000000000000002e .L0 
C:\Users\LOCALH~1\AppData\Local\Temp\ccskN8Qo.s:1910   .text.ETH_DMARxDescRingInit:0000000000000032 .L0 
C:\Users\LOCALH~1\AppData\Local\Temp\ccskN8Qo.s:1911   .text.ETH_DMARxDescRingInit:0000000000000032 .L0 
C:\Users\LOCALH~1\AppData\Local\Temp\ccskN8Qo.s:1912   .text.ETH_DMARxDescRingInit:0000000000000032 .L0 
C:\Users\LOCALH~1\AppData\Local\Temp\ccskN8Qo.s:1914   .text.ETH_DMARxDescRingInit:0000000000000036 .L0 
C:\Users\LOCALH~1\AppData\Local\Temp\ccskN8Qo.s:1917   .text.ETH_DMARxDescRingInit:000000000000003c .L0 
C:\Users\LOCALH~1\AppData\Local\Temp\ccskN8Qo.s:1919   .text.ETH_DMARxDescRingInit:0000000000000040 .L0 
C:\Users\LOCALH~1\AppData\Local\Temp\ccskN8Qo.s:1920   .text.ETH_DMARxDescRingInit:0000000000000040 .L0 
C:\Users\LOCALH~1\AppData\Local\Temp\ccskN8Qo.s:1921   .text.ETH_DMARxDescRingInit:0000000000000040 .L0 
C:\Users\LOCALH~1\AppData\Local\Temp\ccskN8Qo.s:1923   .text.ETH_DMARxDescRingInit:0000000000000044 .L0 
C:\Users\LOCALH~1\AppData\Local\Temp\ccskN8Qo.s:1925   .text.ETH_DMARxDescRingInit:0000000000000048 .L0 
C:\Users\LOCALH~1\AppData\Local\Temp\ccskN8Qo.s:1929   .text.ETH_DMARxDescRingInit:000000000000004e .L0 
C:\Users\LOCALH~1\AppData\Local\Temp\ccskN8Qo.s:1934   .text.ETH_DMARxDescRingInit:0000000000000054 .L0 
C:\Users\LOCALH~1\AppData\Local\Temp\ccskN8Qo.s:1941   .text.ETH_GetDMARxDescFlagStatus:0000000000000000 ETH_GetDMARxDescFlagStatus
C:\Users\LOCALH~1\AppData\Local\Temp\ccskN8Qo.s:1943   .text.ETH_GetDMARxDescFlagStatus:0000000000000000 .L0 
C:\Users\LOCALH~1\AppData\Local\Temp\ccskN8Qo.s:1945   .text.ETH_GetDMARxDescFlagStatus:0000000000000000 $x
C:\Users\LOCALH~1\AppData\Local\Temp\ccskN8Qo.s:1945   .text.ETH_GetDMARxDescFlagStatus:0000000000000000 .L0 
C:\Users\LOCALH~1\AppData\Local\Temp\ccskN8Qo.s:1949   .text.ETH_GetDMARxDescFlagStatus:000000000000000c .L0 
C:\Users\LOCALH~1\AppData\Local\Temp\ccskN8Qo.s:1956   .text.ETH_SetDMARxDescOwnBit:0000000000000000 ETH_SetDMARxDescOwnBit
C:\Users\LOCALH~1\AppData\Local\Temp\ccskN8Qo.s:1958   .text.ETH_SetDMARxDescOwnBit:0000000000000000 .L0 
C:\Users\LOCALH~1\AppData\Local\Temp\ccskN8Qo.s:1960   .text.ETH_SetDMARxDescOwnBit:0000000000000000 $x
C:\Users\LOCALH~1\AppData\Local\Temp\ccskN8Qo.s:1960   .text.ETH_SetDMARxDescOwnBit:0000000000000000 .L0 
C:\Users\LOCALH~1\AppData\Local\Temp\ccskN8Qo.s:1965   .text.ETH_SetDMARxDescOwnBit:000000000000000c .L0 
C:\Users\LOCALH~1\AppData\Local\Temp\ccskN8Qo.s:1972   .text.ETH_GetDMARxDescFrameLength:0000000000000000 ETH_GetDMARxDescFrameLength
C:\Users\LOCALH~1\AppData\Local\Temp\ccskN8Qo.s:1975   .text.ETH_GetDMARxDescFrameLength:0000000000000000 .L0 
C:\Users\LOCALH~1\AppData\Local\Temp\ccskN8Qo.s:1977   .text.ETH_GetDMARxDescFrameLength:0000000000000000 .L0 
C:\Users\LOCALH~1\AppData\Local\Temp\ccskN8Qo.s:1978   .text.ETH_GetDMARxDescFrameLength:0000000000000000 .L0 
C:\Users\LOCALH~1\AppData\Local\Temp\ccskN8Qo.s:1979   .text.ETH_GetDMARxDescFrameLength:0000000000000000 $x
C:\Users\LOCALH~1\AppData\Local\Temp\ccskN8Qo.s:1979   .text.ETH_GetDMARxDescFrameLength:0000000000000000 .L0 
C:\Users\LOCALH~1\AppData\Local\Temp\ccskN8Qo.s:1982   .text.ETH_GetDMARxDescFrameLength:0000000000000002 .L0 
C:\Users\LOCALH~1\AppData\Local\Temp\ccskN8Qo.s:1984   .text.ETH_GetDMARxDescFrameLength:0000000000000004 .L0 
C:\Users\LOCALH~1\AppData\Local\Temp\ccskN8Qo.s:1986   .text.ETH_GetDMARxDescFrameLength:0000000000000008 .L0 
C:\Users\LOCALH~1\AppData\Local\Temp\ccskN8Qo.s:1993   .text.ETH_DMARxDescReceiveITConfig:0000000000000000 ETH_DMARxDescReceiveITConfig
C:\Users\LOCALH~1\AppData\Local\Temp\ccskN8Qo.s:1996   .text.ETH_DMARxDescReceiveITConfig:0000000000000000 .L0 
C:\Users\LOCALH~1\AppData\Local\Temp\ccskN8Qo.s:1998   .text.ETH_DMARxDescReceiveITConfig:0000000000000000 .L0 
C:\Users\LOCALH~1\AppData\Local\Temp\ccskN8Qo.s:1999   .text.ETH_DMARxDescReceiveITConfig:0000000000000000 .L0 
C:\Users\LOCALH~1\AppData\Local\Temp\ccskN8Qo.s:2000   .text.ETH_DMARxDescReceiveITConfig:0000000000000000 $x
C:\Users\LOCALH~1\AppData\Local\Temp\ccskN8Qo.s:2000   .text.ETH_DMARxDescReceiveITConfig:0000000000000000 .L0 
C:\Users\LOCALH~1\AppData\Local\Temp\ccskN8Qo.s:2002   .text.ETH_DMARxDescReceiveITConfig:0000000000000002 .L0 
C:\Users\LOCALH~1\AppData\Local\Temp\ccskN8Qo.s:2004   .text.ETH_DMARxDescReceiveITConfig:0000000000000004 .L0 
C:\Users\LOCALH~1\AppData\Local\Temp\ccskN8Qo.s:2005   .text.ETH_DMARxDescReceiveITConfig:0000000000000004 .L0 
C:\Users\LOCALH~1\AppData\Local\Temp\ccskN8Qo.s:2010   .text.ETH_DMARxDescReceiveITConfig:000000000000000a .L0 
C:\Users\LOCALH~1\AppData\Local\Temp\ccskN8Qo.s:2013   .text.ETH_DMARxDescReceiveITConfig:000000000000000c .L0 
C:\Users\LOCALH~1\AppData\Local\Temp\ccskN8Qo.s:2014   .text.ETH_DMARxDescReceiveITConfig:000000000000000c .L0 
C:\Users\LOCALH~1\AppData\Local\Temp\ccskN8Qo.s:2017   .text.ETH_DMARxDescReceiveITConfig:0000000000000014 .L0 
C:\Users\LOCALH~1\AppData\Local\Temp\ccskN8Qo.s:2024   .text.ETH_DMARxDescEndOfRingCmd:0000000000000000 ETH_DMARxDescEndOfRingCmd
C:\Users\LOCALH~1\AppData\Local\Temp\ccskN8Qo.s:2027   .text.ETH_DMARxDescEndOfRingCmd:0000000000000000 .L0 
C:\Users\LOCALH~1\AppData\Local\Temp\ccskN8Qo.s:2029   .text.ETH_DMARxDescEndOfRingCmd:0000000000000000 .L0 
C:\Users\LOCALH~1\AppData\Local\Temp\ccskN8Qo.s:2030   .text.ETH_DMARxDescEndOfRingCmd:0000000000000000 .L0 
C:\Users\LOCALH~1\AppData\Local\Temp\ccskN8Qo.s:2031   .text.ETH_DMARxDescEndOfRingCmd:0000000000000000 $x
C:\Users\LOCALH~1\AppData\Local\Temp\ccskN8Qo.s:2031   .text.ETH_DMARxDescEndOfRingCmd:0000000000000000 .L0 
C:\Users\LOCALH~1\AppData\Local\Temp\ccskN8Qo.s:2033   .text.ETH_DMARxDescEndOfRingCmd:0000000000000002 .L0 
C:\Users\LOCALH~1\AppData\Local\Temp\ccskN8Qo.s:2035   .text.ETH_DMARxDescEndOfRingCmd:0000000000000004 .L0 
C:\Users\LOCALH~1\AppData\Local\Temp\ccskN8Qo.s:2036   .text.ETH_DMARxDescEndOfRingCmd:0000000000000004 .L0 
C:\Users\LOCALH~1\AppData\Local\Temp\ccskN8Qo.s:2041   .text.ETH_DMARxDescEndOfRingCmd:000000000000000a .L0 
C:\Users\LOCALH~1\AppData\Local\Temp\ccskN8Qo.s:2044   .text.ETH_DMARxDescEndOfRingCmd:000000000000000c .L0 
C:\Users\LOCALH~1\AppData\Local\Temp\ccskN8Qo.s:2045   .text.ETH_DMARxDescEndOfRingCmd:000000000000000c .L0 
C:\Users\LOCALH~1\AppData\Local\Temp\ccskN8Qo.s:2049   .text.ETH_DMARxDescEndOfRingCmd:0000000000000014 .L0 
C:\Users\LOCALH~1\AppData\Local\Temp\ccskN8Qo.s:2056   .text.ETH_DMARxDescSecondAddressChainedCmd:0000000000000000 ETH_DMARxDescSecondAddressChainedCmd
C:\Users\LOCALH~1\AppData\Local\Temp\ccskN8Qo.s:2059   .text.ETH_DMARxDescSecondAddressChainedCmd:0000000000000000 .L0 
C:\Users\LOCALH~1\AppData\Local\Temp\ccskN8Qo.s:2061   .text.ETH_DMARxDescSecondAddressChainedCmd:0000000000000000 .L0 
C:\Users\LOCALH~1\AppData\Local\Temp\ccskN8Qo.s:2062   .text.ETH_DMARxDescSecondAddressChainedCmd:0000000000000000 .L0 
C:\Users\LOCALH~1\AppData\Local\Temp\ccskN8Qo.s:2063   .text.ETH_DMARxDescSecondAddressChainedCmd:0000000000000000 $x
C:\Users\LOCALH~1\AppData\Local\Temp\ccskN8Qo.s:2063   .text.ETH_DMARxDescSecondAddressChainedCmd:0000000000000000 .L0 
C:\Users\LOCALH~1\AppData\Local\Temp\ccskN8Qo.s:2065   .text.ETH_DMARxDescSecondAddressChainedCmd:0000000000000002 .L0 
C:\Users\LOCALH~1\AppData\Local\Temp\ccskN8Qo.s:2067   .text.ETH_DMARxDescSecondAddressChainedCmd:0000000000000004 .L0 
C:\Users\LOCALH~1\AppData\Local\Temp\ccskN8Qo.s:2068   .text.ETH_DMARxDescSecondAddressChainedCmd:0000000000000004 .L0 
C:\Users\LOCALH~1\AppData\Local\Temp\ccskN8Qo.s:2073   .text.ETH_DMARxDescSecondAddressChainedCmd:000000000000000a .L0 
C:\Users\LOCALH~1\AppData\Local\Temp\ccskN8Qo.s:2076   .text.ETH_DMARxDescSecondAddressChainedCmd:000000000000000c .L0 
C:\Users\LOCALH~1\AppData\Local\Temp\ccskN8Qo.s:2077   .text.ETH_DMARxDescSecondAddressChainedCmd:000000000000000c .L0 
C:\Users\LOCALH~1\AppData\Local\Temp\ccskN8Qo.s:2081   .text.ETH_DMARxDescSecondAddressChainedCmd:0000000000000014 .L0 
C:\Users\LOCALH~1\AppData\Local\Temp\ccskN8Qo.s:2088   .text.ETH_GetDMARxDescBufferSize:0000000000000000 ETH_GetDMARxDescBufferSize
C:\Users\LOCALH~1\AppData\Local\Temp\ccskN8Qo.s:2091   .text.ETH_GetDMARxDescBufferSize:0000000000000000 .L0 
C:\Users\LOCALH~1\AppData\Local\Temp\ccskN8Qo.s:2093   .text.ETH_GetDMARxDescBufferSize:0000000000000000 .L0 
C:\Users\LOCALH~1\AppData\Local\Temp\ccskN8Qo.s:2094   .text.ETH_GetDMARxDescBufferSize:0000000000000000 .L0 
C:\Users\LOCALH~1\AppData\Local\Temp\ccskN8Qo.s:2095   .text.ETH_GetDMARxDescBufferSize:0000000000000000 $x
C:\Users\LOCALH~1\AppData\Local\Temp\ccskN8Qo.s:2095   .text.ETH_GetDMARxDescBufferSize:0000000000000000 .L0 
C:\Users\LOCALH~1\AppData\Local\Temp\ccskN8Qo.s:2100   .text.ETH_GetDMARxDescBufferSize:0000000000000006 .L0 
C:\Users\LOCALH~1\AppData\Local\Temp\ccskN8Qo.s:2102   .text.ETH_GetDMARxDescBufferSize:0000000000000008 .L0 
C:\Users\LOCALH~1\AppData\Local\Temp\ccskN8Qo.s:2103   .text.ETH_GetDMARxDescBufferSize:0000000000000008 .L0 
C:\Users\LOCALH~1\AppData\Local\Temp\ccskN8Qo.s:2106   .text.ETH_GetDMARxDescBufferSize:000000000000000a .L0 
C:\Users\LOCALH~1\AppData\Local\Temp\ccskN8Qo.s:2107   .text.ETH_GetDMARxDescBufferSize:000000000000000a .L0 
C:\Users\LOCALH~1\AppData\Local\Temp\ccskN8Qo.s:2109   .text.ETH_GetDMARxDescBufferSize:000000000000000c .L0 
C:\Users\LOCALH~1\AppData\Local\Temp\ccskN8Qo.s:2110   .text.ETH_GetDMARxDescBufferSize:000000000000000e .L0 
C:\Users\LOCALH~1\AppData\Local\Temp\ccskN8Qo.s:2117   .text.ETH_SoftwareReset:0000000000000000 ETH_SoftwareReset
C:\Users\LOCALH~1\AppData\Local\Temp\ccskN8Qo.s:2120   .text.ETH_SoftwareReset:0000000000000000 .L0 
C:\Users\LOCALH~1\AppData\Local\Temp\ccskN8Qo.s:2121   .text.ETH_SoftwareReset:0000000000000000 .L0 
C:\Users\LOCALH~1\AppData\Local\Temp\ccskN8Qo.s:2122   .text.ETH_SoftwareReset:0000000000000000 .L0 
C:\Users\LOCALH~1\AppData\Local\Temp\ccskN8Qo.s:2123   .text.ETH_SoftwareReset:0000000000000000 $x
C:\Users\LOCALH~1\AppData\Local\Temp\ccskN8Qo.s:2123   .text.ETH_SoftwareReset:0000000000000000 .L0 
C:\Users\LOCALH~1\AppData\Local\Temp\ccskN8Qo.s:2126   .text.ETH_SoftwareReset:0000000000000006 .L0 
C:\Users\LOCALH~1\AppData\Local\Temp\ccskN8Qo.s:2129   .text.ETH_SoftwareReset:000000000000000c .L0 
C:\Users\LOCALH~1\AppData\Local\Temp\ccskN8Qo.s:2130   .text.ETH_SoftwareReset:000000000000000e .L0 
C:\Users\LOCALH~1\AppData\Local\Temp\ccskN8Qo.s:2137   .text.ETH_GetSoftwareResetStatus:0000000000000000 ETH_GetSoftwareResetStatus
C:\Users\LOCALH~1\AppData\Local\Temp\ccskN8Qo.s:2140   .text.ETH_GetSoftwareResetStatus:0000000000000000 .L0 
C:\Users\LOCALH~1\AppData\Local\Temp\ccskN8Qo.s:2141   .text.ETH_GetSoftwareResetStatus:0000000000000000 .L0 
C:\Users\LOCALH~1\AppData\Local\Temp\ccskN8Qo.s:2143   .text.ETH_GetSoftwareResetStatus:0000000000000000 .L0 
C:\Users\LOCALH~1\AppData\Local\Temp\ccskN8Qo.s:2144   .text.ETH_GetSoftwareResetStatus:0000000000000000 .L0 
C:\Users\LOCALH~1\AppData\Local\Temp\ccskN8Qo.s:2145   .text.ETH_GetSoftwareResetStatus:0000000000000000 $x
C:\Users\LOCALH~1\AppData\Local\Temp\ccskN8Qo.s:2145   .text.ETH_GetSoftwareResetStatus:0000000000000000 .L0 
C:\Users\LOCALH~1\AppData\Local\Temp\ccskN8Qo.s:2149   .text.ETH_GetSoftwareResetStatus:0000000000000006 .L0 
C:\Users\LOCALH~1\AppData\Local\Temp\ccskN8Qo.s:2150   .text.ETH_GetSoftwareResetStatus:0000000000000006 .L0 
C:\Users\LOCALH~1\AppData\Local\Temp\ccskN8Qo.s:2153   .text.ETH_GetSoftwareResetStatus:000000000000000a .L0 
C:\Users\LOCALH~1\AppData\Local\Temp\ccskN8Qo.s:2160   .text.ETH_GetlinkStaus:0000000000000000 ETH_GetlinkStaus
C:\Users\LOCALH~1\AppData\Local\Temp\ccskN8Qo.s:2163   .text.ETH_GetlinkStaus:0000000000000000 .L0 
C:\Users\LOCALH~1\AppData\Local\Temp\ccskN8Qo.s:2164   .text.ETH_GetlinkStaus:0000000000000000 .L0 
C:\Users\LOCALH~1\AppData\Local\Temp\ccskN8Qo.s:2166   .text.ETH_GetlinkStaus:0000000000000000 .L0 
C:\Users\LOCALH~1\AppData\Local\Temp\ccskN8Qo.s:2167   .text.ETH_GetlinkStaus:0000000000000000 .L0 
C:\Users\LOCALH~1\AppData\Local\Temp\ccskN8Qo.s:2168   .text.ETH_GetlinkStaus:0000000000000000 $x
C:\Users\LOCALH~1\AppData\Local\Temp\ccskN8Qo.s:2168   .text.ETH_GetlinkStaus:0000000000000000 .L0 
C:\Users\LOCALH~1\AppData\Local\Temp\ccskN8Qo.s:2172   .text.ETH_GetlinkStaus:0000000000000006 .L0 
C:\Users\LOCALH~1\AppData\Local\Temp\ccskN8Qo.s:2173   .text.ETH_GetlinkStaus:0000000000000006 .L0 
C:\Users\LOCALH~1\AppData\Local\Temp\ccskN8Qo.s:2176   .text.ETH_GetlinkStaus:000000000000000a .L0 
C:\Users\LOCALH~1\AppData\Local\Temp\ccskN8Qo.s:2183   .text.ETH_GetDMAFlagStatus:0000000000000000 ETH_GetDMAFlagStatus
C:\Users\LOCALH~1\AppData\Local\Temp\ccskN8Qo.s:2186   .text.ETH_GetDMAFlagStatus:0000000000000000 .L0 
C:\Users\LOCALH~1\AppData\Local\Temp\ccskN8Qo.s:2188   .text.ETH_GetDMAFlagStatus:0000000000000000 .L0 
C:\Users\LOCALH~1\AppData\Local\Temp\ccskN8Qo.s:2189   .text.ETH_GetDMAFlagStatus:0000000000000000 .L0 
C:\Users\LOCALH~1\AppData\Local\Temp\ccskN8Qo.s:2190   .text.ETH_GetDMAFlagStatus:0000000000000000 .L0 
C:\Users\LOCALH~1\AppData\Local\Temp\ccskN8Qo.s:2191   .text.ETH_GetDMAFlagStatus:0000000000000000 $x
C:\Users\LOCALH~1\AppData\Local\Temp\ccskN8Qo.s:2191   .text.ETH_GetDMAFlagStatus:0000000000000000 .L0 
C:\Users\LOCALH~1\AppData\Local\Temp\ccskN8Qo.s:2195   .text.ETH_GetDMAFlagStatus:0000000000000006 .L0 
C:\Users\LOCALH~1\AppData\Local\Temp\ccskN8Qo.s:2196   .text.ETH_GetDMAFlagStatus:0000000000000006 .L0 
C:\Users\LOCALH~1\AppData\Local\Temp\ccskN8Qo.s:2199   .text.ETH_GetDMAFlagStatus:0000000000000008 .L0 
C:\Users\LOCALH~1\AppData\Local\Temp\ccskN8Qo.s:2201   .text.ETH_GetDMAFlagStatus:000000000000000e .L0 
C:\Users\LOCALH~1\AppData\Local\Temp\ccskN8Qo.s:2208   .text.ETH_DMAClearFlag:0000000000000000 ETH_DMAClearFlag
C:\Users\LOCALH~1\AppData\Local\Temp\ccskN8Qo.s:2211   .text.ETH_DMAClearFlag:0000000000000000 .L0 
C:\Users\LOCALH~1\AppData\Local\Temp\ccskN8Qo.s:2213   .text.ETH_DMAClearFlag:0000000000000000 .L0 
C:\Users\LOCALH~1\AppData\Local\Temp\ccskN8Qo.s:2214   .text.ETH_DMAClearFlag:0000000000000000 .L0 
C:\Users\LOCALH~1\AppData\Local\Temp\ccskN8Qo.s:2215   .text.ETH_DMAClearFlag:0000000000000000 $x
C:\Users\LOCALH~1\AppData\Local\Temp\ccskN8Qo.s:2215   .text.ETH_DMAClearFlag:0000000000000000 .L0 
C:\Users\LOCALH~1\AppData\Local\Temp\ccskN8Qo.s:2218   .text.ETH_DMAClearFlag:0000000000000006 .L0 
C:\Users\LOCALH~1\AppData\Local\Temp\ccskN8Qo.s:2219   .text.ETH_DMAClearFlag:0000000000000008 .L0 
C:\Users\LOCALH~1\AppData\Local\Temp\ccskN8Qo.s:2226   .text.ETH_GetDMAITStatus:0000000000000000 ETH_GetDMAITStatus
C:\Users\LOCALH~1\AppData\Local\Temp\ccskN8Qo.s:2228   .text.ETH_GetDMAITStatus:0000000000000000 .L0 
C:\Users\LOCALH~1\AppData\Local\Temp\ccskN8Qo.s:2230   .text.ETH_GetDMAITStatus:0000000000000000 $x
C:\Users\LOCALH~1\AppData\Local\Temp\ccskN8Qo.s:2230   .text.ETH_GetDMAITStatus:0000000000000000 .L0 
C:\Users\LOCALH~1\AppData\Local\Temp\ccskN8Qo.s:2231   .text.ETH_GetDMAITStatus:0000000000000008 .L0 
C:\Users\LOCALH~1\AppData\Local\Temp\ccskN8Qo.s:2238   .text.ETH_DMAClearITPendingBit:0000000000000000 ETH_DMAClearITPendingBit
C:\Users\LOCALH~1\AppData\Local\Temp\ccskN8Qo.s:2240   .text.ETH_DMAClearITPendingBit:0000000000000000 .L0 
C:\Users\LOCALH~1\AppData\Local\Temp\ccskN8Qo.s:2242   .text.ETH_DMAClearITPendingBit:0000000000000000 $x
C:\Users\LOCALH~1\AppData\Local\Temp\ccskN8Qo.s:2242   .text.ETH_DMAClearITPendingBit:0000000000000000 .L0 
C:\Users\LOCALH~1\AppData\Local\Temp\ccskN8Qo.s:2245   .text.ETH_DMAClearITPendingBit:0000000000000008 .L0 
C:\Users\LOCALH~1\AppData\Local\Temp\ccskN8Qo.s:2252   .text.ETH_GetTransmitProcessState:0000000000000000 ETH_GetTransmitProcessState
C:\Users\LOCALH~1\AppData\Local\Temp\ccskN8Qo.s:2255   .text.ETH_GetTransmitProcessState:0000000000000000 .L0 
C:\Users\LOCALH~1\AppData\Local\Temp\ccskN8Qo.s:2256   .text.ETH_GetTransmitProcessState:0000000000000000 .L0 
C:\Users\LOCALH~1\AppData\Local\Temp\ccskN8Qo.s:2257   .text.ETH_GetTransmitProcessState:0000000000000000 .L0 
C:\Users\LOCALH~1\AppData\Local\Temp\ccskN8Qo.s:2258   .text.ETH_GetTransmitProcessState:0000000000000000 $x
C:\Users\LOCALH~1\AppData\Local\Temp\ccskN8Qo.s:2258   .text.ETH_GetTransmitProcessState:0000000000000000 .L0 
C:\Users\LOCALH~1\AppData\Local\Temp\ccskN8Qo.s:2261   .text.ETH_GetTransmitProcessState:0000000000000006 .L0 
C:\Users\LOCALH~1\AppData\Local\Temp\ccskN8Qo.s:2263   .text.ETH_GetTransmitProcessState:000000000000000a .L0 
C:\Users\LOCALH~1\AppData\Local\Temp\ccskN8Qo.s:2270   .text.ETH_GetReceiveProcessState:0000000000000000 ETH_GetReceiveProcessState
C:\Users\LOCALH~1\AppData\Local\Temp\ccskN8Qo.s:2273   .text.ETH_GetReceiveProcessState:0000000000000000 .L0 
C:\Users\LOCALH~1\AppData\Local\Temp\ccskN8Qo.s:2274   .text.ETH_GetReceiveProcessState:0000000000000000 .L0 
C:\Users\LOCALH~1\AppData\Local\Temp\ccskN8Qo.s:2275   .text.ETH_GetReceiveProcessState:0000000000000000 .L0 
C:\Users\LOCALH~1\AppData\Local\Temp\ccskN8Qo.s:2276   .text.ETH_GetReceiveProcessState:0000000000000000 $x
C:\Users\LOCALH~1\AppData\Local\Temp\ccskN8Qo.s:2276   .text.ETH_GetReceiveProcessState:0000000000000000 .L0 
C:\Users\LOCALH~1\AppData\Local\Temp\ccskN8Qo.s:2279   .text.ETH_GetReceiveProcessState:0000000000000006 .L0 
C:\Users\LOCALH~1\AppData\Local\Temp\ccskN8Qo.s:2281   .text.ETH_GetReceiveProcessState:000000000000000c .L0 
C:\Users\LOCALH~1\AppData\Local\Temp\ccskN8Qo.s:2288   .text.ETH_FlushTransmitFIFO:0000000000000000 ETH_FlushTransmitFIFO
C:\Users\LOCALH~1\AppData\Local\Temp\ccskN8Qo.s:2291   .text.ETH_FlushTransmitFIFO:0000000000000000 .L0 
C:\Users\LOCALH~1\AppData\Local\Temp\ccskN8Qo.s:2292   .text.ETH_FlushTransmitFIFO:0000000000000000 .L0 
C:\Users\LOCALH~1\AppData\Local\Temp\ccskN8Qo.s:2293   .text.ETH_FlushTransmitFIFO:0000000000000000 .L0 
C:\Users\LOCALH~1\AppData\Local\Temp\ccskN8Qo.s:2294   .text.ETH_FlushTransmitFIFO:0000000000000000 $x
C:\Users\LOCALH~1\AppData\Local\Temp\ccskN8Qo.s:2294   .text.ETH_FlushTransmitFIFO:0000000000000000 .L0 
C:\Users\LOCALH~1\AppData\Local\Temp\ccskN8Qo.s:2297   .text.ETH_FlushTransmitFIFO:0000000000000006 .L0 
C:\Users\LOCALH~1\AppData\Local\Temp\ccskN8Qo.s:2301   .text.ETH_FlushTransmitFIFO:000000000000000e .L0 
C:\Users\LOCALH~1\AppData\Local\Temp\ccskN8Qo.s:2302   .text.ETH_FlushTransmitFIFO:0000000000000010 .L0 
C:\Users\LOCALH~1\AppData\Local\Temp\ccskN8Qo.s:2309   .text.ETH_Start:0000000000000000 ETH_Start
C:\Users\LOCALH~1\AppData\Local\Temp\ccskN8Qo.s:2312   .text.ETH_Start:0000000000000000 .L0 
C:\Users\LOCALH~1\AppData\Local\Temp\ccskN8Qo.s:2313   .text.ETH_Start:0000000000000000 $x
C:\Users\LOCALH~1\AppData\Local\Temp\ccskN8Qo.s:2313   .text.ETH_Start:0000000000000000 .L0 
C:\Users\LOCALH~1\AppData\Local\Temp\ccskN8Qo.s:2314   .text.ETH_Start:0000000000000008 .L0 
C:\Users\LOCALH~1\AppData\Local\Temp\ccskN8Qo.s:2315   .text.ETH_Start:0000000000000008 .L0 
C:\Users\LOCALH~1\AppData\Local\Temp\ccskN8Qo.s:2316   .text.ETH_Start:0000000000000008 .L0 
C:\Users\LOCALH~1\AppData\Local\Temp\ccskN8Qo.s:2320   .text.ETH_Start:0000000000000008 .L0 
C:\Users\LOCALH~1\AppData\Local\Temp\ccskN8Qo.s:2323   .text.ETH_Start:0000000000000008 .L0 
C:\Users\LOCALH~1\AppData\Local\Temp\ccskN8Qo.s:2324   .text.ETH_Start:0000000000000008 .L0 
C:\Users\LOCALH~1\AppData\Local\Temp\ccskN8Qo.s:2325   .text.ETH_Start:0000000000000008 .L0 
C:\Users\LOCALH~1\AppData\Local\Temp\ccskN8Qo.s:2328   .text.ETH_Start:000000000000000e .L0 
C:\Users\LOCALH~1\AppData\Local\Temp\ccskN8Qo.s:2335   .text.ETH_Start:0000000000000014 .L0 
C:\Users\LOCALH~1\AppData\Local\Temp\ccskN8Qo.s:2339   .text.ETH_Start:000000000000001c .L0 
C:\Users\LOCALH~1\AppData\Local\Temp\ccskN8Qo.s:2342   .text.ETH_Start:000000000000001c .L0 
C:\Users\LOCALH~1\AppData\Local\Temp\ccskN8Qo.s:2343   .text.ETH_Start:000000000000001c .L0 
C:\Users\LOCALH~1\AppData\Local\Temp\ccskN8Qo.s:2344   .text.ETH_Start:000000000000001c .L0 
C:\Users\LOCALH~1\AppData\Local\Temp\ccskN8Qo.s:2352   .text.ETH_Start:000000000000001e .L0 
C:\Users\LOCALH~1\AppData\Local\Temp\ccskN8Qo.s:2360   .text.ETH_Start:0000000000000020 .L0 
C:\Users\LOCALH~1\AppData\Local\Temp\ccskN8Qo.s:2368   .text.ETH_Start:0000000000000026 .L0 
C:\Users\LOCALH~1\AppData\Local\Temp\ccskN8Qo.s:2371   .text.ETH_Start:0000000000000026 .L0 
C:\Users\LOCALH~1\AppData\Local\Temp\ccskN8Qo.s:2372   .text.ETH_Start:0000000000000026 .L0 
C:\Users\LOCALH~1\AppData\Local\Temp\ccskN8Qo.s:2373   .text.ETH_Start:0000000000000026 .L0 
C:\Users\LOCALH~1\AppData\Local\Temp\ccskN8Qo.s:2376   .text.ETH_Start:000000000000002c .L0 
C:\Users\LOCALH~1\AppData\Local\Temp\ccskN8Qo.s:2384   .text.ETH_Start:0000000000000030 .L0 
C:\Users\LOCALH~1\AppData\Local\Temp\ccskN8Qo.s:2387   .text.ETH_Start:0000000000000030 .L0 
C:\Users\LOCALH~1\AppData\Local\Temp\ccskN8Qo.s:2388   .text.ETH_Start:0000000000000030 .L0 
C:\Users\LOCALH~1\AppData\Local\Temp\ccskN8Qo.s:2389   .text.ETH_Start:0000000000000030 .L0 
C:\Users\LOCALH~1\AppData\Local\Temp\ccskN8Qo.s:2391   .text.ETH_Start:0000000000000032 .L0 
C:\Users\LOCALH~1\AppData\Local\Temp\ccskN8Qo.s:2398   .text.ETH_Start:0000000000000038 .L0 
C:\Users\LOCALH~1\AppData\Local\Temp\ccskN8Qo.s:2399   .text.ETH_Start:0000000000000040 .L0 
C:\Users\LOCALH~1\AppData\Local\Temp\ccskN8Qo.s:2400   .text.ETH_Start:0000000000000040 .L0 
C:\Users\LOCALH~1\AppData\Local\Temp\ccskN8Qo.s:2401   .text.ETH_Start:0000000000000040 .L0 
C:\Users\LOCALH~1\AppData\Local\Temp\ccskN8Qo.s:2402   .text.ETH_Start:0000000000000040 .L0 
C:\Users\LOCALH~1\AppData\Local\Temp\ccskN8Qo.s:2409   .text.ETH_GetFlushTransmitFIFOStatus:0000000000000000 ETH_GetFlushTransmitFIFOStatus
C:\Users\LOCALH~1\AppData\Local\Temp\ccskN8Qo.s:2412   .text.ETH_GetFlushTransmitFIFOStatus:0000000000000000 .L0 
C:\Users\LOCALH~1\AppData\Local\Temp\ccskN8Qo.s:2413   .text.ETH_GetFlushTransmitFIFOStatus:0000000000000000 .L0 
C:\Users\LOCALH~1\AppData\Local\Temp\ccskN8Qo.s:2415   .text.ETH_GetFlushTransmitFIFOStatus:0000000000000000 .L0 
C:\Users\LOCALH~1\AppData\Local\Temp\ccskN8Qo.s:2416   .text.ETH_GetFlushTransmitFIFOStatus:0000000000000000 .L0 
C:\Users\LOCALH~1\AppData\Local\Temp\ccskN8Qo.s:2417   .text.ETH_GetFlushTransmitFIFOStatus:0000000000000000 $x
C:\Users\LOCALH~1\AppData\Local\Temp\ccskN8Qo.s:2417   .text.ETH_GetFlushTransmitFIFOStatus:0000000000000000 .L0 
C:\Users\LOCALH~1\AppData\Local\Temp\ccskN8Qo.s:2421   .text.ETH_GetFlushTransmitFIFOStatus:0000000000000006 .L0 
C:\Users\LOCALH~1\AppData\Local\Temp\ccskN8Qo.s:2422   .text.ETH_GetFlushTransmitFIFOStatus:0000000000000006 .L0 
C:\Users\LOCALH~1\AppData\Local\Temp\ccskN8Qo.s:2425   .text.ETH_GetFlushTransmitFIFOStatus:0000000000000008 .L0 
C:\Users\LOCALH~1\AppData\Local\Temp\ccskN8Qo.s:2427   .text.ETH_GetFlushTransmitFIFOStatus:000000000000000c .L0 
C:\Users\LOCALH~1\AppData\Local\Temp\ccskN8Qo.s:2434   .text.ETH_DMATransmissionCmd:0000000000000000 ETH_DMATransmissionCmd
C:\Users\LOCALH~1\AppData\Local\Temp\ccskN8Qo.s:2437   .text.ETH_DMATransmissionCmd:0000000000000000 .L0 
C:\Users\LOCALH~1\AppData\Local\Temp\ccskN8Qo.s:2439   .text.ETH_DMATransmissionCmd:0000000000000000 .L0 
C:\Users\LOCALH~1\AppData\Local\Temp\ccskN8Qo.s:2440   .text.ETH_DMATransmissionCmd:0000000000000000 .L0 
C:\Users\LOCALH~1\AppData\Local\Temp\ccskN8Qo.s:2441   .text.ETH_DMATransmissionCmd:0000000000000000 $x
C:\Users\LOCALH~1\AppData\Local\Temp\ccskN8Qo.s:2441   .text.ETH_DMATransmissionCmd:0000000000000000 .L0 
C:\Users\LOCALH~1\AppData\Local\Temp\ccskN8Qo.s:2446   .text.ETH_DMATransmissionCmd:0000000000000002 .L0 
C:\Users\LOCALH~1\AppData\Local\Temp\ccskN8Qo.s:2447   .text.ETH_DMATransmissionCmd:0000000000000002 .L0 
C:\Users\LOCALH~1\AppData\Local\Temp\ccskN8Qo.s:2450   .text.ETH_DMATransmissionCmd:0000000000000008 .L0 
C:\Users\LOCALH~1\AppData\Local\Temp\ccskN8Qo.s:2454   .text.ETH_DMATransmissionCmd:000000000000000e .L0 
C:\Users\LOCALH~1\AppData\Local\Temp\ccskN8Qo.s:2460   .text.ETH_DMATransmissionCmd:0000000000000010 .L0 
C:\Users\LOCALH~1\AppData\Local\Temp\ccskN8Qo.s:2461   .text.ETH_DMATransmissionCmd:0000000000000010 .L0 
C:\Users\LOCALH~1\AppData\Local\Temp\ccskN8Qo.s:2464   .text.ETH_DMATransmissionCmd:0000000000000016 .L0 
C:\Users\LOCALH~1\AppData\Local\Temp\ccskN8Qo.s:2469   .text.ETH_DMATransmissionCmd:000000000000001e .L0 
C:\Users\LOCALH~1\AppData\Local\Temp\ccskN8Qo.s:2470   .text.ETH_DMATransmissionCmd:0000000000000020 .L0 
C:\Users\LOCALH~1\AppData\Local\Temp\ccskN8Qo.s:2477   .text.ETH_DMAReceptionCmd:0000000000000000 ETH_DMAReceptionCmd
C:\Users\LOCALH~1\AppData\Local\Temp\ccskN8Qo.s:2480   .text.ETH_DMAReceptionCmd:0000000000000000 .L0 
C:\Users\LOCALH~1\AppData\Local\Temp\ccskN8Qo.s:2482   .text.ETH_DMAReceptionCmd:0000000000000000 .L0 
C:\Users\LOCALH~1\AppData\Local\Temp\ccskN8Qo.s:2485   .text.ETH_DMAReceptionCmd:0000000000000000 .L0 
C:\Users\LOCALH~1\AppData\Local\Temp\ccskN8Qo.s:2486   .text.ETH_DMAReceptionCmd:0000000000000000 $x
C:\Users\LOCALH~1\AppData\Local\Temp\ccskN8Qo.s:2486   .text.ETH_DMAReceptionCmd:0000000000000000 .L0 
C:\Users\LOCALH~1\AppData\Local\Temp\ccskN8Qo.s:2491   .text.ETH_DMAReceptionCmd:0000000000000006 .L0 
C:\Users\LOCALH~1\AppData\Local\Temp\ccskN8Qo.s:2496   .text.ETH_DMAReceptionCmd:0000000000000008 .L0 
C:\Users\LOCALH~1\AppData\Local\Temp\ccskN8Qo.s:2497   .text.ETH_DMAReceptionCmd:0000000000000008 .L0 
C:\Users\LOCALH~1\AppData\Local\Temp\ccskN8Qo.s:2503   .text.ETH_DMAReceptionCmd:000000000000000c .L0 
C:\Users\LOCALH~1\AppData\Local\Temp\ccskN8Qo.s:2505   .text.ETH_DMAReceptionCmd:000000000000000e .L0 
C:\Users\LOCALH~1\AppData\Local\Temp\ccskN8Qo.s:2508   .text.ETH_DMAReceptionCmd:0000000000000010 .L0 
C:\Users\LOCALH~1\AppData\Local\Temp\ccskN8Qo.s:2509   .text.ETH_DMAReceptionCmd:0000000000000010 .L0 
C:\Users\LOCALH~1\AppData\Local\Temp\ccskN8Qo.s:2511   .text.ETH_DMAReceptionCmd:0000000000000014 .L0 
C:\Users\LOCALH~1\AppData\Local\Temp\ccskN8Qo.s:2518   .text.ETH_DMAITConfig:0000000000000000 ETH_DMAITConfig
C:\Users\LOCALH~1\AppData\Local\Temp\ccskN8Qo.s:2521   .text.ETH_DMAITConfig:0000000000000000 .L0 
C:\Users\LOCALH~1\AppData\Local\Temp\ccskN8Qo.s:2523   .text.ETH_DMAITConfig:0000000000000000 .L0 
C:\Users\LOCALH~1\AppData\Local\Temp\ccskN8Qo.s:2524   .text.ETH_DMAITConfig:0000000000000000 .L0 
C:\Users\LOCALH~1\AppData\Local\Temp\ccskN8Qo.s:2525   .text.ETH_DMAITConfig:0000000000000000 $x
C:\Users\LOCALH~1\AppData\Local\Temp\ccskN8Qo.s:2525   .text.ETH_DMAITConfig:0000000000000000 .L0 
C:\Users\LOCALH~1\AppData\Local\Temp\ccskN8Qo.s:2527   .text.ETH_DMAITConfig:0000000000000002 .L0 
C:\Users\LOCALH~1\AppData\Local\Temp\ccskN8Qo.s:2528   .text.ETH_DMAITConfig:0000000000000002 .L0 
C:\Users\LOCALH~1\AppData\Local\Temp\ccskN8Qo.s:2531   .text.ETH_DMAITConfig:0000000000000008 .L0 
C:\Users\LOCALH~1\AppData\Local\Temp\ccskN8Qo.s:2536   .text.ETH_DMAITConfig:000000000000000e .L0 
C:\Users\LOCALH~1\AppData\Local\Temp\ccskN8Qo.s:2537   .text.ETH_DMAITConfig:000000000000000e .L0 
C:\Users\LOCALH~1\AppData\Local\Temp\ccskN8Qo.s:2540   .text.ETH_DMAITConfig:0000000000000014 .L0 
C:\Users\LOCALH~1\AppData\Local\Temp\ccskN8Qo.s:2543   .text.ETH_DMAITConfig:0000000000000018 .L0 
C:\Users\LOCALH~1\AppData\Local\Temp\ccskN8Qo.s:2547   .text.ETH_DMAITConfig:000000000000001c .L0 
C:\Users\LOCALH~1\AppData\Local\Temp\ccskN8Qo.s:2548   .text.ETH_DMAITConfig:000000000000001e .L0 
C:\Users\LOCALH~1\AppData\Local\Temp\ccskN8Qo.s:2555   .text.ETH_GetDMAOverflowStatus:0000000000000000 ETH_GetDMAOverflowStatus
C:\Users\LOCALH~1\AppData\Local\Temp\ccskN8Qo.s:2558   .text.ETH_GetDMAOverflowStatus:0000000000000000 .L0 
C:\Users\LOCALH~1\AppData\Local\Temp\ccskN8Qo.s:2560   .text.ETH_GetDMAOverflowStatus:0000000000000000 .L0 
C:\Users\LOCALH~1\AppData\Local\Temp\ccskN8Qo.s:2561   .text.ETH_GetDMAOverflowStatus:0000000000000000 .L0 
C:\Users\LOCALH~1\AppData\Local\Temp\ccskN8Qo.s:2562   .text.ETH_GetDMAOverflowStatus:0000000000000000 .L0 
C:\Users\LOCALH~1\AppData\Local\Temp\ccskN8Qo.s:2563   .text.ETH_GetDMAOverflowStatus:0000000000000000 $x
C:\Users\LOCALH~1\AppData\Local\Temp\ccskN8Qo.s:2563   .text.ETH_GetDMAOverflowStatus:0000000000000000 .L0 
C:\Users\LOCALH~1\AppData\Local\Temp\ccskN8Qo.s:2567   .text.ETH_GetDMAOverflowStatus:0000000000000006 .L0 
C:\Users\LOCALH~1\AppData\Local\Temp\ccskN8Qo.s:2568   .text.ETH_GetDMAOverflowStatus:0000000000000006 .L0 
C:\Users\LOCALH~1\AppData\Local\Temp\ccskN8Qo.s:2571   .text.ETH_GetDMAOverflowStatus:0000000000000008 .L0 
C:\Users\LOCALH~1\AppData\Local\Temp\ccskN8Qo.s:2573   .text.ETH_GetDMAOverflowStatus:000000000000000e .L0 
C:\Users\LOCALH~1\AppData\Local\Temp\ccskN8Qo.s:2580   .text.ETH_GetRxOverflowMissedFrameCounter:0000000000000000 ETH_GetRxOverflowMissedFrameCounter
C:\Users\LOCALH~1\AppData\Local\Temp\ccskN8Qo.s:2583   .text.ETH_GetRxOverflowMissedFrameCounter:0000000000000000 .L0 
C:\Users\LOCALH~1\AppData\Local\Temp\ccskN8Qo.s:2584   .text.ETH_GetRxOverflowMissedFrameCounter:0000000000000000 .L0 
C:\Users\LOCALH~1\AppData\Local\Temp\ccskN8Qo.s:2585   .text.ETH_GetRxOverflowMissedFrameCounter:0000000000000000 .L0 
C:\Users\LOCALH~1\AppData\Local\Temp\ccskN8Qo.s:2586   .text.ETH_GetRxOverflowMissedFrameCounter:0000000000000000 $x
C:\Users\LOCALH~1\AppData\Local\Temp\ccskN8Qo.s:2586   .text.ETH_GetRxOverflowMissedFrameCounter:0000000000000000 .L0 
C:\Users\LOCALH~1\AppData\Local\Temp\ccskN8Qo.s:2589   .text.ETH_GetRxOverflowMissedFrameCounter:0000000000000006 .L0 
C:\Users\LOCALH~1\AppData\Local\Temp\ccskN8Qo.s:2591   .text.ETH_GetRxOverflowMissedFrameCounter:0000000000000008 .L0 
C:\Users\LOCALH~1\AppData\Local\Temp\ccskN8Qo.s:2593   .text.ETH_GetRxOverflowMissedFrameCounter:000000000000000e .L0 
C:\Users\LOCALH~1\AppData\Local\Temp\ccskN8Qo.s:2600   .text.ETH_GetBufferUnavailableMissedFrameCounter:0000000000000000 ETH_GetBufferUnavailableMissedFrameCounter
C:\Users\LOCALH~1\AppData\Local\Temp\ccskN8Qo.s:2603   .text.ETH_GetBufferUnavailableMissedFrameCounter:0000000000000000 .L0 
C:\Users\LOCALH~1\AppData\Local\Temp\ccskN8Qo.s:2604   .text.ETH_GetBufferUnavailableMissedFrameCounter:0000000000000000 .L0 
C:\Users\LOCALH~1\AppData\Local\Temp\ccskN8Qo.s:2605   .text.ETH_GetBufferUnavailableMissedFrameCounter:0000000000000000 .L0 
C:\Users\LOCALH~1\AppData\Local\Temp\ccskN8Qo.s:2606   .text.ETH_GetBufferUnavailableMissedFrameCounter:0000000000000000 $x
C:\Users\LOCALH~1\AppData\Local\Temp\ccskN8Qo.s:2606   .text.ETH_GetBufferUnavailableMissedFrameCounter:0000000000000000 .L0 
C:\Users\LOCALH~1\AppData\Local\Temp\ccskN8Qo.s:2609   .text.ETH_GetBufferUnavailableMissedFrameCounter:0000000000000006 .L0 
C:\Users\LOCALH~1\AppData\Local\Temp\ccskN8Qo.s:2612   .text.ETH_GetBufferUnavailableMissedFrameCounter:000000000000000c .L0 
C:\Users\LOCALH~1\AppData\Local\Temp\ccskN8Qo.s:2619   .text.ETH_GetCurrentTxDescStartAddress:0000000000000000 ETH_GetCurrentTxDescStartAddress
C:\Users\LOCALH~1\AppData\Local\Temp\ccskN8Qo.s:2622   .text.ETH_GetCurrentTxDescStartAddress:0000000000000000 .L0 
C:\Users\LOCALH~1\AppData\Local\Temp\ccskN8Qo.s:2623   .text.ETH_GetCurrentTxDescStartAddress:0000000000000000 .L0 
C:\Users\LOCALH~1\AppData\Local\Temp\ccskN8Qo.s:2624   .text.ETH_GetCurrentTxDescStartAddress:0000000000000000 .L0 
C:\Users\LOCALH~1\AppData\Local\Temp\ccskN8Qo.s:2625   .text.ETH_GetCurrentTxDescStartAddress:0000000000000000 $x
C:\Users\LOCALH~1\AppData\Local\Temp\ccskN8Qo.s:2625   .text.ETH_GetCurrentTxDescStartAddress:0000000000000000 .L0 
C:\Users\LOCALH~1\AppData\Local\Temp\ccskN8Qo.s:2628   .text.ETH_GetCurrentTxDescStartAddress:0000000000000006 .L0 
C:\Users\LOCALH~1\AppData\Local\Temp\ccskN8Qo.s:2629   .text.ETH_GetCurrentTxDescStartAddress:0000000000000008 .L0 
C:\Users\LOCALH~1\AppData\Local\Temp\ccskN8Qo.s:2636   .text.ETH_GetCurrentRxDescStartAddress:0000000000000000 ETH_GetCurrentRxDescStartAddress
C:\Users\LOCALH~1\AppData\Local\Temp\ccskN8Qo.s:2639   .text.ETH_GetCurrentRxDescStartAddress:0000000000000000 .L0 
C:\Users\LOCALH~1\AppData\Local\Temp\ccskN8Qo.s:2640   .text.ETH_GetCurrentRxDescStartAddress:0000000000000000 .L0 
C:\Users\LOCALH~1\AppData\Local\Temp\ccskN8Qo.s:2641   .text.ETH_GetCurrentRxDescStartAddress:0000000000000000 .L0 
C:\Users\LOCALH~1\AppData\Local\Temp\ccskN8Qo.s:2642   .text.ETH_GetCurrentRxDescStartAddress:0000000000000000 $x
C:\Users\LOCALH~1\AppData\Local\Temp\ccskN8Qo.s:2642   .text.ETH_GetCurrentRxDescStartAddress:0000000000000000 .L0 
C:\Users\LOCALH~1\AppData\Local\Temp\ccskN8Qo.s:2645   .text.ETH_GetCurrentRxDescStartAddress:0000000000000006 .L0 
C:\Users\LOCALH~1\AppData\Local\Temp\ccskN8Qo.s:2646   .text.ETH_GetCurrentRxDescStartAddress:0000000000000008 .L0 
C:\Users\LOCALH~1\AppData\Local\Temp\ccskN8Qo.s:2653   .text.ETH_GetCurrentTxBufferAddress:0000000000000000 ETH_GetCurrentTxBufferAddress
C:\Users\LOCALH~1\AppData\Local\Temp\ccskN8Qo.s:2656   .text.ETH_GetCurrentTxBufferAddress:0000000000000000 .L0 
C:\Users\LOCALH~1\AppData\Local\Temp\ccskN8Qo.s:2657   .text.ETH_GetCurrentTxBufferAddress:0000000000000000 .L0 
C:\Users\LOCALH~1\AppData\Local\Temp\ccskN8Qo.s:2658   .text.ETH_GetCurrentTxBufferAddress:0000000000000000 .L0 
C:\Users\LOCALH~1\AppData\Local\Temp\ccskN8Qo.s:2659   .text.ETH_GetCurrentTxBufferAddress:0000000000000000 $x
C:\Users\LOCALH~1\AppData\Local\Temp\ccskN8Qo.s:2659   .text.ETH_GetCurrentTxBufferAddress:0000000000000000 .L0 
C:\Users\LOCALH~1\AppData\Local\Temp\ccskN8Qo.s:2661   .text.ETH_GetCurrentTxBufferAddress:0000000000000008 .L0 
C:\Users\LOCALH~1\AppData\Local\Temp\ccskN8Qo.s:2663   .text.ETH_GetCurrentTxBufferAddress:000000000000000c .L0 
C:\Users\LOCALH~1\AppData\Local\Temp\ccskN8Qo.s:2670   .text.ETH_GetCurrentRxBufferAddress:0000000000000000 ETH_GetCurrentRxBufferAddress
C:\Users\LOCALH~1\AppData\Local\Temp\ccskN8Qo.s:2673   .text.ETH_GetCurrentRxBufferAddress:0000000000000000 .L0 
C:\Users\LOCALH~1\AppData\Local\Temp\ccskN8Qo.s:2674   .text.ETH_GetCurrentRxBufferAddress:0000000000000000 .L0 
C:\Users\LOCALH~1\AppData\Local\Temp\ccskN8Qo.s:2675   .text.ETH_GetCurrentRxBufferAddress:0000000000000000 .L0 
C:\Users\LOCALH~1\AppData\Local\Temp\ccskN8Qo.s:2676   .text.ETH_GetCurrentRxBufferAddress:0000000000000000 $x
C:\Users\LOCALH~1\AppData\Local\Temp\ccskN8Qo.s:2676   .text.ETH_GetCurrentRxBufferAddress:0000000000000000 .L0 
C:\Users\LOCALH~1\AppData\Local\Temp\ccskN8Qo.s:2679   .text.ETH_GetCurrentRxBufferAddress:0000000000000006 .L0 
C:\Users\LOCALH~1\AppData\Local\Temp\ccskN8Qo.s:2680   .text.ETH_GetCurrentRxBufferAddress:0000000000000008 .L0 
C:\Users\LOCALH~1\AppData\Local\Temp\ccskN8Qo.s:2687   .text.ETH_ResumeDMATransmission:0000000000000000 ETH_ResumeDMATransmission
C:\Users\LOCALH~1\AppData\Local\Temp\ccskN8Qo.s:2690   .text.ETH_ResumeDMATransmission:0000000000000000 .L0 
C:\Users\LOCALH~1\AppData\Local\Temp\ccskN8Qo.s:2691   .text.ETH_ResumeDMATransmission:0000000000000000 .L0 
C:\Users\LOCALH~1\AppData\Local\Temp\ccskN8Qo.s:2692   .text.ETH_ResumeDMATransmission:0000000000000000 .L0 
C:\Users\LOCALH~1\AppData\Local\Temp\ccskN8Qo.s:2693   .text.ETH_ResumeDMATransmission:0000000000000000 $x
C:\Users\LOCALH~1\AppData\Local\Temp\ccskN8Qo.s:2693   .text.ETH_ResumeDMATransmission:0000000000000000 .L0 
C:\Users\LOCALH~1\AppData\Local\Temp\ccskN8Qo.s:2696   .text.ETH_ResumeDMATransmission:0000000000000008 .L0 
C:\Users\LOCALH~1\AppData\Local\Temp\ccskN8Qo.s:2697   .text.ETH_ResumeDMATransmission:000000000000000a .L0 
C:\Users\LOCALH~1\AppData\Local\Temp\ccskN8Qo.s:2704   .text.ETH_ResumeDMAReception:0000000000000000 ETH_ResumeDMAReception
C:\Users\LOCALH~1\AppData\Local\Temp\ccskN8Qo.s:2707   .text.ETH_ResumeDMAReception:0000000000000000 .L0 
C:\Users\LOCALH~1\AppData\Local\Temp\ccskN8Qo.s:2708   .text.ETH_ResumeDMAReception:0000000000000000 .L0 
C:\Users\LOCALH~1\AppData\Local\Temp\ccskN8Qo.s:2709   .text.ETH_ResumeDMAReception:0000000000000000 .L0 
C:\Users\LOCALH~1\AppData\Local\Temp\ccskN8Qo.s:2710   .text.ETH_ResumeDMAReception:0000000000000000 $x
C:\Users\LOCALH~1\AppData\Local\Temp\ccskN8Qo.s:2710   .text.ETH_ResumeDMAReception:0000000000000000 .L0 
C:\Users\LOCALH~1\AppData\Local\Temp\ccskN8Qo.s:2713   .text.ETH_ResumeDMAReception:0000000000000008 .L0 
C:\Users\LOCALH~1\AppData\Local\Temp\ccskN8Qo.s:2714   .text.ETH_ResumeDMAReception:000000000000000a .L0 
C:\Users\LOCALH~1\AppData\Local\Temp\ccskN8Qo.s:2721   .text.ETH_ResetWakeUpFrameFilterRegisterPointer:0000000000000000 ETH_ResetWakeUpFrameFilterRegisterPointer
C:\Users\LOCALH~1\AppData\Local\Temp\ccskN8Qo.s:2724   .text.ETH_ResetWakeUpFrameFilterRegisterPointer:0000000000000000 .L0 
C:\Users\LOCALH~1\AppData\Local\Temp\ccskN8Qo.s:2725   .text.ETH_ResetWakeUpFrameFilterRegisterPointer:0000000000000000 .L0 
C:\Users\LOCALH~1\AppData\Local\Temp\ccskN8Qo.s:2726   .text.ETH_ResetWakeUpFrameFilterRegisterPointer:0000000000000000 .L0 
C:\Users\LOCALH~1\AppData\Local\Temp\ccskN8Qo.s:2727   .text.ETH_ResetWakeUpFrameFilterRegisterPointer:0000000000000000 $x
C:\Users\LOCALH~1\AppData\Local\Temp\ccskN8Qo.s:2727   .text.ETH_ResetWakeUpFrameFilterRegisterPointer:0000000000000000 .L0 
C:\Users\LOCALH~1\AppData\Local\Temp\ccskN8Qo.s:2730   .text.ETH_ResetWakeUpFrameFilterRegisterPointer:0000000000000006 .L0 
C:\Users\LOCALH~1\AppData\Local\Temp\ccskN8Qo.s:2734   .text.ETH_ResetWakeUpFrameFilterRegisterPointer:000000000000000e .L0 
C:\Users\LOCALH~1\AppData\Local\Temp\ccskN8Qo.s:2735   .text.ETH_ResetWakeUpFrameFilterRegisterPointer:0000000000000010 .L0 
C:\Users\LOCALH~1\AppData\Local\Temp\ccskN8Qo.s:2742   .text.ETH_SetWakeUpFrameFilterRegister:0000000000000000 ETH_SetWakeUpFrameFilterRegister
C:\Users\LOCALH~1\AppData\Local\Temp\ccskN8Qo.s:2745   .text.ETH_SetWakeUpFrameFilterRegister:0000000000000000 .L0 
C:\Users\LOCALH~1\AppData\Local\Temp\ccskN8Qo.s:2747   .text.ETH_SetWakeUpFrameFilterRegister:0000000000000000 .L0 
C:\Users\LOCALH~1\AppData\Local\Temp\ccskN8Qo.s:2748   .text.ETH_SetWakeUpFrameFilterRegister:0000000000000000 .L0 
C:\Users\LOCALH~1\AppData\Local\Temp\ccskN8Qo.s:2749   .text.ETH_SetWakeUpFrameFilterRegister:0000000000000000 .L0 
C:\Users\LOCALH~1\AppData\Local\Temp\ccskN8Qo.s:2750   .text.ETH_SetWakeUpFrameFilterRegister:0000000000000000 $x
C:\Users\LOCALH~1\AppData\Local\Temp\ccskN8Qo.s:2750   .text.ETH_SetWakeUpFrameFilterRegister:0000000000000000 .L0 
C:\Users\LOCALH~1\AppData\Local\Temp\ccskN8Qo.s:2752   .text.ETH_SetWakeUpFrameFilterRegister:0000000000000004 .L0 
C:\Users\LOCALH~1\AppData\Local\Temp\ccskN8Qo.s:2756   .text.ETH_SetWakeUpFrameFilterRegister:0000000000000008 .L0 
C:\Users\LOCALH~1\AppData\Local\Temp\ccskN8Qo.s:2757   .text.ETH_SetWakeUpFrameFilterRegister:0000000000000008 .L0 
C:\Users\LOCALH~1\AppData\Local\Temp\ccskN8Qo.s:2759   .text.ETH_SetWakeUpFrameFilterRegister:000000000000000a .L0 
C:\Users\LOCALH~1\AppData\Local\Temp\ccskN8Qo.s:2761   .text.ETH_SetWakeUpFrameFilterRegister:000000000000000c .L0 
C:\Users\LOCALH~1\AppData\Local\Temp\ccskN8Qo.s:2763   .text.ETH_SetWakeUpFrameFilterRegister:000000000000000e .L0 
C:\Users\LOCALH~1\AppData\Local\Temp\ccskN8Qo.s:2764   .text.ETH_SetWakeUpFrameFilterRegister:000000000000000e .L0 
C:\Users\LOCALH~1\AppData\Local\Temp\ccskN8Qo.s:2766   .text.ETH_SetWakeUpFrameFilterRegister:0000000000000012 .L0 
C:\Users\LOCALH~1\AppData\Local\Temp\ccskN8Qo.s:2767   .text.ETH_SetWakeUpFrameFilterRegister:0000000000000014 .L0 
C:\Users\LOCALH~1\AppData\Local\Temp\ccskN8Qo.s:2774   .text.ETH_GlobalUnicastWakeUpCmd:0000000000000000 ETH_GlobalUnicastWakeUpCmd
C:\Users\LOCALH~1\AppData\Local\Temp\ccskN8Qo.s:2777   .text.ETH_GlobalUnicastWakeUpCmd:0000000000000000 .L0 
C:\Users\LOCALH~1\AppData\Local\Temp\ccskN8Qo.s:2779   .text.ETH_GlobalUnicastWakeUpCmd:0000000000000000 .L0 
C:\Users\LOCALH~1\AppData\Local\Temp\ccskN8Qo.s:2780   .text.ETH_GlobalUnicastWakeUpCmd:0000000000000000 .L0 
C:\Users\LOCALH~1\AppData\Local\Temp\ccskN8Qo.s:2781   .text.ETH_GlobalUnicastWakeUpCmd:0000000000000000 $x
C:\Users\LOCALH~1\AppData\Local\Temp\ccskN8Qo.s:2781   .text.ETH_GlobalUnicastWakeUpCmd:0000000000000000 .L0 
C:\Users\LOCALH~1\AppData\Local\Temp\ccskN8Qo.s:2784   .text.ETH_GlobalUnicastWakeUpCmd:0000000000000006 .L0 
C:\Users\LOCALH~1\AppData\Local\Temp\ccskN8Qo.s:2786   .text.ETH_GlobalUnicastWakeUpCmd:0000000000000008 .L0 
C:\Users\LOCALH~1\AppData\Local\Temp\ccskN8Qo.s:2787   .text.ETH_GlobalUnicastWakeUpCmd:0000000000000008 .L0 
C:\Users\LOCALH~1\AppData\Local\Temp\ccskN8Qo.s:2790   .text.ETH_GlobalUnicastWakeUpCmd:000000000000000c .L0 
C:\Users\LOCALH~1\AppData\Local\Temp\ccskN8Qo.s:2792   .text.ETH_GlobalUnicastWakeUpCmd:000000000000000e .L0 
C:\Users\LOCALH~1\AppData\Local\Temp\ccskN8Qo.s:2795   .text.ETH_GlobalUnicastWakeUpCmd:0000000000000010 .L0 
C:\Users\LOCALH~1\AppData\Local\Temp\ccskN8Qo.s:2796   .text.ETH_GlobalUnicastWakeUpCmd:0000000000000010 .L0 
C:\Users\LOCALH~1\AppData\Local\Temp\ccskN8Qo.s:2798   .text.ETH_GlobalUnicastWakeUpCmd:0000000000000016 .L0 
C:\Users\LOCALH~1\AppData\Local\Temp\ccskN8Qo.s:2805   .text.ETH_GetPMTFlagStatus:0000000000000000 ETH_GetPMTFlagStatus
C:\Users\LOCALH~1\AppData\Local\Temp\ccskN8Qo.s:2808   .text.ETH_GetPMTFlagStatus:0000000000000000 .L0 
C:\Users\LOCALH~1\AppData\Local\Temp\ccskN8Qo.s:2810   .text.ETH_GetPMTFlagStatus:0000000000000000 .L0 
C:\Users\LOCALH~1\AppData\Local\Temp\ccskN8Qo.s:2811   .text.ETH_GetPMTFlagStatus:0000000000000000 .L0 
C:\Users\LOCALH~1\AppData\Local\Temp\ccskN8Qo.s:2812   .text.ETH_GetPMTFlagStatus:0000000000000000 .L0 
C:\Users\LOCALH~1\AppData\Local\Temp\ccskN8Qo.s:2813   .text.ETH_GetPMTFlagStatus:0000000000000000 $x
C:\Users\LOCALH~1\AppData\Local\Temp\ccskN8Qo.s:2813   .text.ETH_GetPMTFlagStatus:0000000000000000 .L0 
C:\Users\LOCALH~1\AppData\Local\Temp\ccskN8Qo.s:2817   .text.ETH_GetPMTFlagStatus:0000000000000006 .L0 
C:\Users\LOCALH~1\AppData\Local\Temp\ccskN8Qo.s:2818   .text.ETH_GetPMTFlagStatus:0000000000000006 .L0 
C:\Users\LOCALH~1\AppData\Local\Temp\ccskN8Qo.s:2821   .text.ETH_GetPMTFlagStatus:0000000000000008 .L0 
C:\Users\LOCALH~1\AppData\Local\Temp\ccskN8Qo.s:2823   .text.ETH_GetPMTFlagStatus:000000000000000e .L0 
C:\Users\LOCALH~1\AppData\Local\Temp\ccskN8Qo.s:2830   .text.ETH_WakeUpFrameDetectionCmd:0000000000000000 ETH_WakeUpFrameDetectionCmd
C:\Users\LOCALH~1\AppData\Local\Temp\ccskN8Qo.s:2833   .text.ETH_WakeUpFrameDetectionCmd:0000000000000000 .L0 
C:\Users\LOCALH~1\AppData\Local\Temp\ccskN8Qo.s:2835   .text.ETH_WakeUpFrameDetectionCmd:0000000000000000 .L0 
C:\Users\LOCALH~1\AppData\Local\Temp\ccskN8Qo.s:2836   .text.ETH_WakeUpFrameDetectionCmd:0000000000000000 .L0 
C:\Users\LOCALH~1\AppData\Local\Temp\ccskN8Qo.s:2837   .text.ETH_WakeUpFrameDetectionCmd:0000000000000000 $x
C:\Users\LOCALH~1\AppData\Local\Temp\ccskN8Qo.s:2837   .text.ETH_WakeUpFrameDetectionCmd:0000000000000000 .L0 
C:\Users\LOCALH~1\AppData\Local\Temp\ccskN8Qo.s:2840   .text.ETH_WakeUpFrameDetectionCmd:0000000000000006 .L0 
C:\Users\LOCALH~1\AppData\Local\Temp\ccskN8Qo.s:2842   .text.ETH_WakeUpFrameDetectionCmd:0000000000000008 .L0 
C:\Users\LOCALH~1\AppData\Local\Temp\ccskN8Qo.s:2843   .text.ETH_WakeUpFrameDetectionCmd:0000000000000008 .L0 
C:\Users\LOCALH~1\AppData\Local\Temp\ccskN8Qo.s:2846   .text.ETH_WakeUpFrameDetectionCmd:000000000000000c .L0 
C:\Users\LOCALH~1\AppData\Local\Temp\ccskN8Qo.s:2848   .text.ETH_WakeUpFrameDetectionCmd:000000000000000e .L0 
C:\Users\LOCALH~1\AppData\Local\Temp\ccskN8Qo.s:2851   .text.ETH_WakeUpFrameDetectionCmd:0000000000000010 .L0 
C:\Users\LOCALH~1\AppData\Local\Temp\ccskN8Qo.s:2852   .text.ETH_WakeUpFrameDetectionCmd:0000000000000010 .L0 
C:\Users\LOCALH~1\AppData\Local\Temp\ccskN8Qo.s:2854   .text.ETH_WakeUpFrameDetectionCmd:0000000000000014 .L0 
C:\Users\LOCALH~1\AppData\Local\Temp\ccskN8Qo.s:2861   .text.ETH_MagicPacketDetectionCmd:0000000000000000 ETH_MagicPacketDetectionCmd
C:\Users\LOCALH~1\AppData\Local\Temp\ccskN8Qo.s:2864   .text.ETH_MagicPacketDetectionCmd:0000000000000000 .L0 
C:\Users\LOCALH~1\AppData\Local\Temp\ccskN8Qo.s:2866   .text.ETH_MagicPacketDetectionCmd:0000000000000000 .L0 
C:\Users\LOCALH~1\AppData\Local\Temp\ccskN8Qo.s:2867   .text.ETH_MagicPacketDetectionCmd:0000000000000000 .L0 
C:\Users\LOCALH~1\AppData\Local\Temp\ccskN8Qo.s:2868   .text.ETH_MagicPacketDetectionCmd:0000000000000000 $x
C:\Users\LOCALH~1\AppData\Local\Temp\ccskN8Qo.s:2868   .text.ETH_MagicPacketDetectionCmd:0000000000000000 .L0 
C:\Users\LOCALH~1\AppData\Local\Temp\ccskN8Qo.s:2871   .text.ETH_MagicPacketDetectionCmd:0000000000000006 .L0 
C:\Users\LOCALH~1\AppData\Local\Temp\ccskN8Qo.s:2873   .text.ETH_MagicPacketDetectionCmd:0000000000000008 .L0 
C:\Users\LOCALH~1\AppData\Local\Temp\ccskN8Qo.s:2874   .text.ETH_MagicPacketDetectionCmd:0000000000000008 .L0 
C:\Users\LOCALH~1\AppData\Local\Temp\ccskN8Qo.s:2877   .text.ETH_MagicPacketDetectionCmd:000000000000000c .L0 
C:\Users\LOCALH~1\AppData\Local\Temp\ccskN8Qo.s:2879   .text.ETH_MagicPacketDetectionCmd:000000000000000e .L0 
C:\Users\LOCALH~1\AppData\Local\Temp\ccskN8Qo.s:2882   .text.ETH_MagicPacketDetectionCmd:0000000000000010 .L0 
C:\Users\LOCALH~1\AppData\Local\Temp\ccskN8Qo.s:2883   .text.ETH_MagicPacketDetectionCmd:0000000000000010 .L0 
C:\Users\LOCALH~1\AppData\Local\Temp\ccskN8Qo.s:2885   .text.ETH_MagicPacketDetectionCmd:0000000000000014 .L0 
C:\Users\LOCALH~1\AppData\Local\Temp\ccskN8Qo.s:2892   .text.ETH_PowerDownCmd:0000000000000000 ETH_PowerDownCmd
C:\Users\LOCALH~1\AppData\Local\Temp\ccskN8Qo.s:2895   .text.ETH_PowerDownCmd:0000000000000000 .L0 
C:\Users\LOCALH~1\AppData\Local\Temp\ccskN8Qo.s:2897   .text.ETH_PowerDownCmd:0000000000000000 .L0 
C:\Users\LOCALH~1\AppData\Local\Temp\ccskN8Qo.s:2898   .text.ETH_PowerDownCmd:0000000000000000 .L0 
C:\Users\LOCALH~1\AppData\Local\Temp\ccskN8Qo.s:2899   .text.ETH_PowerDownCmd:0000000000000000 $x
C:\Users\LOCALH~1\AppData\Local\Temp\ccskN8Qo.s:2899   .text.ETH_PowerDownCmd:0000000000000000 .L0 
C:\Users\LOCALH~1\AppData\Local\Temp\ccskN8Qo.s:2902   .text.ETH_PowerDownCmd:0000000000000006 .L0 
C:\Users\LOCALH~1\AppData\Local\Temp\ccskN8Qo.s:2904   .text.ETH_PowerDownCmd:0000000000000008 .L0 
C:\Users\LOCALH~1\AppData\Local\Temp\ccskN8Qo.s:2905   .text.ETH_PowerDownCmd:0000000000000008 .L0 
C:\Users\LOCALH~1\AppData\Local\Temp\ccskN8Qo.s:2908   .text.ETH_PowerDownCmd:000000000000000c .L0 
C:\Users\LOCALH~1\AppData\Local\Temp\ccskN8Qo.s:2910   .text.ETH_PowerDownCmd:000000000000000e .L0 
C:\Users\LOCALH~1\AppData\Local\Temp\ccskN8Qo.s:2913   .text.ETH_PowerDownCmd:0000000000000010 .L0 
C:\Users\LOCALH~1\AppData\Local\Temp\ccskN8Qo.s:2914   .text.ETH_PowerDownCmd:0000000000000010 .L0 
C:\Users\LOCALH~1\AppData\Local\Temp\ccskN8Qo.s:2916   .text.ETH_PowerDownCmd:0000000000000014 .L0 
C:\Users\LOCALH~1\AppData\Local\Temp\ccskN8Qo.s:2923   .text.ETH_MMCCounterFreezeCmd:0000000000000000 ETH_MMCCounterFreezeCmd
C:\Users\LOCALH~1\AppData\Local\Temp\ccskN8Qo.s:2926   .text.ETH_MMCCounterFreezeCmd:0000000000000000 .L0 
C:\Users\LOCALH~1\AppData\Local\Temp\ccskN8Qo.s:2928   .text.ETH_MMCCounterFreezeCmd:0000000000000000 .L0 
C:\Users\LOCALH~1\AppData\Local\Temp\ccskN8Qo.s:2929   .text.ETH_MMCCounterFreezeCmd:0000000000000000 .L0 
C:\Users\LOCALH~1\AppData\Local\Temp\ccskN8Qo.s:2930   .text.ETH_MMCCounterFreezeCmd:0000000000000000 $x
C:\Users\LOCALH~1\AppData\Local\Temp\ccskN8Qo.s:2930   .text.ETH_MMCCounterFreezeCmd:0000000000000000 .L0 
C:\Users\LOCALH~1\AppData\Local\Temp\ccskN8Qo.s:2933   .text.ETH_MMCCounterFreezeCmd:0000000000000008 .L0 
C:\Users\LOCALH~1\AppData\Local\Temp\ccskN8Qo.s:2935   .text.ETH_MMCCounterFreezeCmd:000000000000000a .L0 
C:\Users\LOCALH~1\AppData\Local\Temp\ccskN8Qo.s:2936   .text.ETH_MMCCounterFreezeCmd:000000000000000a .L0 
C:\Users\LOCALH~1\AppData\Local\Temp\ccskN8Qo.s:2939   .text.ETH_MMCCounterFreezeCmd:000000000000000e .L0 
C:\Users\LOCALH~1\AppData\Local\Temp\ccskN8Qo.s:2941   .text.ETH_MMCCounterFreezeCmd:0000000000000012 .L0 
C:\Users\LOCALH~1\AppData\Local\Temp\ccskN8Qo.s:2944   .text.ETH_MMCCounterFreezeCmd:0000000000000014 .L0 
C:\Users\LOCALH~1\AppData\Local\Temp\ccskN8Qo.s:2945   .text.ETH_MMCCounterFreezeCmd:0000000000000014 .L0 
C:\Users\LOCALH~1\AppData\Local\Temp\ccskN8Qo.s:2947   .text.ETH_MMCCounterFreezeCmd:0000000000000018 .L0 
C:\Users\LOCALH~1\AppData\Local\Temp\ccskN8Qo.s:2954   .text.ETH_MMCResetOnReadCmd:0000000000000000 ETH_MMCResetOnReadCmd
C:\Users\LOCALH~1\AppData\Local\Temp\ccskN8Qo.s:2957   .text.ETH_MMCResetOnReadCmd:0000000000000000 .L0 
C:\Users\LOCALH~1\AppData\Local\Temp\ccskN8Qo.s:2959   .text.ETH_MMCResetOnReadCmd:0000000000000000 .L0 
C:\Users\LOCALH~1\AppData\Local\Temp\ccskN8Qo.s:2960   .text.ETH_MMCResetOnReadCmd:0000000000000000 .L0 
C:\Users\LOCALH~1\AppData\Local\Temp\ccskN8Qo.s:2961   .text.ETH_MMCResetOnReadCmd:0000000000000000 $x
C:\Users\LOCALH~1\AppData\Local\Temp\ccskN8Qo.s:2961   .text.ETH_MMCResetOnReadCmd:0000000000000000 .L0 
C:\Users\LOCALH~1\AppData\Local\Temp\ccskN8Qo.s:2964   .text.ETH_MMCResetOnReadCmd:0000000000000008 .L0 
C:\Users\LOCALH~1\AppData\Local\Temp\ccskN8Qo.s:2966   .text.ETH_MMCResetOnReadCmd:000000000000000a .L0 
C:\Users\LOCALH~1\AppData\Local\Temp\ccskN8Qo.s:2967   .text.ETH_MMCResetOnReadCmd:000000000000000a .L0 
C:\Users\LOCALH~1\AppData\Local\Temp\ccskN8Qo.s:2970   .text.ETH_MMCResetOnReadCmd:000000000000000e .L0 
C:\Users\LOCALH~1\AppData\Local\Temp\ccskN8Qo.s:2972   .text.ETH_MMCResetOnReadCmd:0000000000000012 .L0 
C:\Users\LOCALH~1\AppData\Local\Temp\ccskN8Qo.s:2975   .text.ETH_MMCResetOnReadCmd:0000000000000014 .L0 
C:\Users\LOCALH~1\AppData\Local\Temp\ccskN8Qo.s:2976   .text.ETH_MMCResetOnReadCmd:0000000000000014 .L0 
C:\Users\LOCALH~1\AppData\Local\Temp\ccskN8Qo.s:2978   .text.ETH_MMCResetOnReadCmd:0000000000000018 .L0 
C:\Users\LOCALH~1\AppData\Local\Temp\ccskN8Qo.s:2985   .text.ETH_MMCCounterRolloverCmd:0000000000000000 ETH_MMCCounterRolloverCmd
C:\Users\LOCALH~1\AppData\Local\Temp\ccskN8Qo.s:2988   .text.ETH_MMCCounterRolloverCmd:0000000000000000 .L0 
C:\Users\LOCALH~1\AppData\Local\Temp\ccskN8Qo.s:2990   .text.ETH_MMCCounterRolloverCmd:0000000000000000 .L0 
C:\Users\LOCALH~1\AppData\Local\Temp\ccskN8Qo.s:2991   .text.ETH_MMCCounterRolloverCmd:0000000000000000 .L0 
C:\Users\LOCALH~1\AppData\Local\Temp\ccskN8Qo.s:2992   .text.ETH_MMCCounterRolloverCmd:0000000000000000 $x
C:\Users\LOCALH~1\AppData\Local\Temp\ccskN8Qo.s:2992   .text.ETH_MMCCounterRolloverCmd:0000000000000000 .L0 
C:\Users\LOCALH~1\AppData\Local\Temp\ccskN8Qo.s:2995   .text.ETH_MMCCounterRolloverCmd:0000000000000008 .L0 
C:\Users\LOCALH~1\AppData\Local\Temp\ccskN8Qo.s:2997   .text.ETH_MMCCounterRolloverCmd:000000000000000a .L0 
C:\Users\LOCALH~1\AppData\Local\Temp\ccskN8Qo.s:2998   .text.ETH_MMCCounterRolloverCmd:000000000000000a .L0 
C:\Users\LOCALH~1\AppData\Local\Temp\ccskN8Qo.s:3001   .text.ETH_MMCCounterRolloverCmd:000000000000000c .L0 
C:\Users\LOCALH~1\AppData\Local\Temp\ccskN8Qo.s:3003   .text.ETH_MMCCounterRolloverCmd:0000000000000010 .L0 
C:\Users\LOCALH~1\AppData\Local\Temp\ccskN8Qo.s:3006   .text.ETH_MMCCounterRolloverCmd:0000000000000012 .L0 
C:\Users\LOCALH~1\AppData\Local\Temp\ccskN8Qo.s:3007   .text.ETH_MMCCounterRolloverCmd:0000000000000012 .L0 
C:\Users\LOCALH~1\AppData\Local\Temp\ccskN8Qo.s:3009   .text.ETH_MMCCounterRolloverCmd:0000000000000018 .L0 
C:\Users\LOCALH~1\AppData\Local\Temp\ccskN8Qo.s:3016   .text.ETH_MMCCountersReset:0000000000000000 ETH_MMCCountersReset
C:\Users\LOCALH~1\AppData\Local\Temp\ccskN8Qo.s:3019   .text.ETH_MMCCountersReset:0000000000000000 .L0 
C:\Users\LOCALH~1\AppData\Local\Temp\ccskN8Qo.s:3020   .text.ETH_MMCCountersReset:0000000000000000 .L0 
C:\Users\LOCALH~1\AppData\Local\Temp\ccskN8Qo.s:3021   .text.ETH_MMCCountersReset:0000000000000000 .L0 
C:\Users\LOCALH~1\AppData\Local\Temp\ccskN8Qo.s:3022   .text.ETH_MMCCountersReset:0000000000000000 $x
C:\Users\LOCALH~1\AppData\Local\Temp\ccskN8Qo.s:3022   .text.ETH_MMCCountersReset:0000000000000000 .L0 
C:\Users\LOCALH~1\AppData\Local\Temp\ccskN8Qo.s:3025   .text.ETH_MMCCountersReset:0000000000000008 .L0 
C:\Users\LOCALH~1\AppData\Local\Temp\ccskN8Qo.s:3028   .text.ETH_MMCCountersReset:0000000000000010 .L0 
C:\Users\LOCALH~1\AppData\Local\Temp\ccskN8Qo.s:3029   .text.ETH_MMCCountersReset:0000000000000012 .L0 
C:\Users\LOCALH~1\AppData\Local\Temp\ccskN8Qo.s:3036   .text.ETH_MMCITConfig:0000000000000000 ETH_MMCITConfig
C:\Users\LOCALH~1\AppData\Local\Temp\ccskN8Qo.s:3039   .text.ETH_MMCITConfig:0000000000000000 .L0 
C:\Users\LOCALH~1\AppData\Local\Temp\ccskN8Qo.s:3041   .text.ETH_MMCITConfig:0000000000000000 .L0 
C:\Users\LOCALH~1\AppData\Local\Temp\ccskN8Qo.s:3042   .text.ETH_MMCITConfig:0000000000000000 .L0 
C:\Users\LOCALH~1\AppData\Local\Temp\ccskN8Qo.s:3043   .text.ETH_MMCITConfig:0000000000000000 $x
C:\Users\LOCALH~1\AppData\Local\Temp\ccskN8Qo.s:3043   .text.ETH_MMCITConfig:0000000000000000 .L0 
C:\Users\LOCALH~1\AppData\Local\Temp\ccskN8Qo.s:3046   .text.ETH_MMCITConfig:0000000000000006 .L0 
C:\Users\LOCALH~1\AppData\Local\Temp\ccskN8Qo.s:3048   .text.ETH_MMCITConfig:0000000000000008 .L0 
C:\Users\LOCALH~1\AppData\Local\Temp\ccskN8Qo.s:3049   .text.ETH_MMCITConfig:0000000000000008 .L0 
C:\Users\LOCALH~1\AppData\Local\Temp\ccskN8Qo.s:3054   .text.ETH_MMCITConfig:0000000000000010 .L0 
C:\Users\LOCALH~1\AppData\Local\Temp\ccskN8Qo.s:3055   .text.ETH_MMCITConfig:0000000000000010 .L0 
C:\Users\LOCALH~1\AppData\Local\Temp\ccskN8Qo.s:3057   .text.ETH_MMCITConfig:0000000000000012 .L0 
C:\Users\LOCALH~1\AppData\Local\Temp\ccskN8Qo.s:3058   .text.ETH_MMCITConfig:0000000000000012 .L0 
C:\Users\LOCALH~1\AppData\Local\Temp\ccskN8Qo.s:3061   .text.ETH_MMCITConfig:000000000000001a .L0 
C:\Users\LOCALH~1\AppData\Local\Temp\ccskN8Qo.s:3064   .text.ETH_MMCITConfig:000000000000001e .L0 
C:\Users\LOCALH~1\AppData\Local\Temp\ccskN8Qo.s:3071   .text.ETH_MMCITConfig:0000000000000026 .L0 
C:\Users\LOCALH~1\AppData\Local\Temp\ccskN8Qo.s:3072   .text.ETH_MMCITConfig:0000000000000026 .L0 
C:\Users\LOCALH~1\AppData\Local\Temp\ccskN8Qo.s:3075   .text.ETH_MMCITConfig:000000000000002e .L0 
C:\Users\LOCALH~1\AppData\Local\Temp\ccskN8Qo.s:3080   .text.ETH_MMCITConfig:0000000000000036 .L0 
C:\Users\LOCALH~1\AppData\Local\Temp\ccskN8Qo.s:3081   .text.ETH_MMCITConfig:0000000000000036 .L0 
C:\Users\LOCALH~1\AppData\Local\Temp\ccskN8Qo.s:3083   .text.ETH_MMCITConfig:0000000000000038 .L0 
C:\Users\LOCALH~1\AppData\Local\Temp\ccskN8Qo.s:3084   .text.ETH_MMCITConfig:0000000000000038 .L0 
C:\Users\LOCALH~1\AppData\Local\Temp\ccskN8Qo.s:3087   .text.ETH_MMCITConfig:0000000000000040 .L0 
C:\Users\LOCALH~1\AppData\Local\Temp\ccskN8Qo.s:3090   .text.ETH_MMCITConfig:0000000000000044 .L0 
C:\Users\LOCALH~1\AppData\Local\Temp\ccskN8Qo.s:3097   .text.ETH_MMCITConfig:000000000000004c .L0 
C:\Users\LOCALH~1\AppData\Local\Temp\ccskN8Qo.s:3098   .text.ETH_MMCITConfig:000000000000004c .L0 
C:\Users\LOCALH~1\AppData\Local\Temp\ccskN8Qo.s:3101   .text.ETH_MMCITConfig:0000000000000054 .L0 
C:\Users\LOCALH~1\AppData\Local\Temp\ccskN8Qo.s:3104   .text.ETH_MMCITConfig:000000000000005a .L0 
C:\Users\LOCALH~1\AppData\Local\Temp\ccskN8Qo.s:3105   .text.ETH_MMCITConfig:000000000000005c .L0 
C:\Users\LOCALH~1\AppData\Local\Temp\ccskN8Qo.s:3112   .text.ETH_GetMMCITStatus:0000000000000000 ETH_GetMMCITStatus
C:\Users\LOCALH~1\AppData\Local\Temp\ccskN8Qo.s:3115   .text.ETH_GetMMCITStatus:0000000000000000 .L0 
C:\Users\LOCALH~1\AppData\Local\Temp\ccskN8Qo.s:3117   .text.ETH_GetMMCITStatus:0000000000000000 .L0 
C:\Users\LOCALH~1\AppData\Local\Temp\ccskN8Qo.s:3118   .text.ETH_GetMMCITStatus:0000000000000000 .L0 
C:\Users\LOCALH~1\AppData\Local\Temp\ccskN8Qo.s:3119   .text.ETH_GetMMCITStatus:0000000000000000 .L0 
C:\Users\LOCALH~1\AppData\Local\Temp\ccskN8Qo.s:3120   .text.ETH_GetMMCITStatus:0000000000000000 $x
C:\Users\LOCALH~1\AppData\Local\Temp\ccskN8Qo.s:3120   .text.ETH_GetMMCITStatus:0000000000000000 .L0 
C:\Users\LOCALH~1\AppData\Local\Temp\ccskN8Qo.s:3123   .text.ETH_GetMMCITStatus:0000000000000006 .L0 
C:\Users\LOCALH~1\AppData\Local\Temp\ccskN8Qo.s:3125   .text.ETH_GetMMCITStatus:0000000000000008 .L0 
C:\Users\LOCALH~1\AppData\Local\Temp\ccskN8Qo.s:3127   .text.ETH_GetMMCITStatus:000000000000000c .L0 
C:\Users\LOCALH~1\AppData\Local\Temp\ccskN8Qo.s:3129   .text.ETH_GetMMCITStatus:000000000000000e .L0 
C:\Users\LOCALH~1\AppData\Local\Temp\ccskN8Qo.s:3130   .text.ETH_GetMMCITStatus:000000000000000e .L0 
C:\Users\LOCALH~1\AppData\Local\Temp\ccskN8Qo.s:3133   .text.ETH_GetMMCITStatus:0000000000000012 .L0 
C:\Users\LOCALH~1\AppData\Local\Temp\ccskN8Qo.s:3136   .text.ETH_GetMMCITStatus:0000000000000016 .L0 
C:\Users\LOCALH~1\AppData\Local\Temp\ccskN8Qo.s:3138   .text.ETH_GetMMCITStatus:0000000000000018 .L0 
C:\Users\LOCALH~1\AppData\Local\Temp\ccskN8Qo.s:3140   .text.ETH_GetMMCITStatus:000000000000001c .L0 
C:\Users\LOCALH~1\AppData\Local\Temp\ccskN8Qo.s:3142   .text.ETH_GetMMCITStatus:0000000000000020 .L0 
C:\Users\LOCALH~1\AppData\Local\Temp\ccskN8Qo.s:3146   .text.ETH_GetMMCITStatus:0000000000000024 .L0 
C:\Users\LOCALH~1\AppData\Local\Temp\ccskN8Qo.s:3147   .text.ETH_GetMMCITStatus:0000000000000024 .L0 
C:\Users\LOCALH~1\AppData\Local\Temp\ccskN8Qo.s:3151   .text.ETH_GetMMCITStatus:0000000000000026 .L0 
C:\Users\LOCALH~1\AppData\Local\Temp\ccskN8Qo.s:3152   .text.ETH_GetMMCITStatus:0000000000000026 .L0 
C:\Users\LOCALH~1\AppData\Local\Temp\ccskN8Qo.s:3154   .text.ETH_GetMMCITStatus:000000000000002c .L0 
C:\Users\LOCALH~1\AppData\Local\Temp\ccskN8Qo.s:3161   .text.ETH_GetMMCRegister:0000000000000000 ETH_GetMMCRegister
C:\Users\LOCALH~1\AppData\Local\Temp\ccskN8Qo.s:3164   .text.ETH_GetMMCRegister:0000000000000000 .L0 
C:\Users\LOCALH~1\AppData\Local\Temp\ccskN8Qo.s:3166   .text.ETH_GetMMCRegister:0000000000000000 .L0 
C:\Users\LOCALH~1\AppData\Local\Temp\ccskN8Qo.s:3167   .text.ETH_GetMMCRegister:0000000000000000 .L0 
C:\Users\LOCALH~1\AppData\Local\Temp\ccskN8Qo.s:3168   .text.ETH_GetMMCRegister:0000000000000000 $x
C:\Users\LOCALH~1\AppData\Local\Temp\ccskN8Qo.s:3168   .text.ETH_GetMMCRegister:0000000000000000 .L0 
C:\Users\LOCALH~1\AppData\Local\Temp\ccskN8Qo.s:3172   .text.ETH_GetMMCRegister:0000000000000006 .L0 
C:\Users\LOCALH~1\AppData\Local\Temp\ccskN8Qo.s:3175   .text.ETH_GetMMCRegister:0000000000000008 .L0 
C:\Users\LOCALH~1\AppData\Local\Temp\ccskN8Qo.s:3176   .text.ETH_GetMMCRegister:000000000000000a .L0 
C:\Users\LOCALH~1\AppData\Local\Temp\ccskN8Qo.s:3183   .text.ETH_EnablePTPTimeStampAddend:0000000000000000 ETH_EnablePTPTimeStampAddend
C:\Users\LOCALH~1\AppData\Local\Temp\ccskN8Qo.s:3186   .text.ETH_EnablePTPTimeStampAddend:0000000000000000 .L0 
C:\Users\LOCALH~1\AppData\Local\Temp\ccskN8Qo.s:3187   .text.ETH_EnablePTPTimeStampAddend:0000000000000000 .L0 
C:\Users\LOCALH~1\AppData\Local\Temp\ccskN8Qo.s:3188   .text.ETH_EnablePTPTimeStampAddend:0000000000000000 .L0 
C:\Users\LOCALH~1\AppData\Local\Temp\ccskN8Qo.s:3189   .text.ETH_EnablePTPTimeStampAddend:0000000000000000 $x
C:\Users\LOCALH~1\AppData\Local\Temp\ccskN8Qo.s:3189   .text.ETH_EnablePTPTimeStampAddend:0000000000000000 .L0 
C:\Users\LOCALH~1\AppData\Local\Temp\ccskN8Qo.s:3192   .text.ETH_EnablePTPTimeStampAddend:0000000000000008 .L0 
C:\Users\LOCALH~1\AppData\Local\Temp\ccskN8Qo.s:3195   .text.ETH_EnablePTPTimeStampAddend:0000000000000010 .L0 
C:\Users\LOCALH~1\AppData\Local\Temp\ccskN8Qo.s:3196   .text.ETH_EnablePTPTimeStampAddend:0000000000000012 .L0 
C:\Users\LOCALH~1\AppData\Local\Temp\ccskN8Qo.s:3203   .text.ETH_EnablePTPTimeStampInterruptTrigger:0000000000000000 ETH_EnablePTPTimeStampInterruptTrigger
C:\Users\LOCALH~1\AppData\Local\Temp\ccskN8Qo.s:3206   .text.ETH_EnablePTPTimeStampInterruptTrigger:0000000000000000 .L0 
C:\Users\LOCALH~1\AppData\Local\Temp\ccskN8Qo.s:3207   .text.ETH_EnablePTPTimeStampInterruptTrigger:0000000000000000 .L0 
C:\Users\LOCALH~1\AppData\Local\Temp\ccskN8Qo.s:3208   .text.ETH_EnablePTPTimeStampInterruptTrigger:0000000000000000 .L0 
C:\Users\LOCALH~1\AppData\Local\Temp\ccskN8Qo.s:3209   .text.ETH_EnablePTPTimeStampInterruptTrigger:0000000000000000 $x
C:\Users\LOCALH~1\AppData\Local\Temp\ccskN8Qo.s:3209   .text.ETH_EnablePTPTimeStampInterruptTrigger:0000000000000000 .L0 
C:\Users\LOCALH~1\AppData\Local\Temp\ccskN8Qo.s:3212   .text.ETH_EnablePTPTimeStampInterruptTrigger:0000000000000008 .L0 
C:\Users\LOCALH~1\AppData\Local\Temp\ccskN8Qo.s:3215   .text.ETH_EnablePTPTimeStampInterruptTrigger:0000000000000010 .L0 
C:\Users\LOCALH~1\AppData\Local\Temp\ccskN8Qo.s:3216   .text.ETH_EnablePTPTimeStampInterruptTrigger:0000000000000012 .L0 
C:\Users\LOCALH~1\AppData\Local\Temp\ccskN8Qo.s:3223   .text.ETH_EnablePTPTimeStampUpdate:0000000000000000 ETH_EnablePTPTimeStampUpdate
C:\Users\LOCALH~1\AppData\Local\Temp\ccskN8Qo.s:3226   .text.ETH_EnablePTPTimeStampUpdate:0000000000000000 .L0 
C:\Users\LOCALH~1\AppData\Local\Temp\ccskN8Qo.s:3227   .text.ETH_EnablePTPTimeStampUpdate:0000000000000000 .L0 
C:\Users\LOCALH~1\AppData\Local\Temp\ccskN8Qo.s:3228   .text.ETH_EnablePTPTimeStampUpdate:0000000000000000 .L0 
C:\Users\LOCALH~1\AppData\Local\Temp\ccskN8Qo.s:3229   .text.ETH_EnablePTPTimeStampUpdate:0000000000000000 $x
C:\Users\LOCALH~1\AppData\Local\Temp\ccskN8Qo.s:3229   .text.ETH_EnablePTPTimeStampUpdate:0000000000000000 .L0 
C:\Users\LOCALH~1\AppData\Local\Temp\ccskN8Qo.s:3232   .text.ETH_EnablePTPTimeStampUpdate:0000000000000008 .L0 
C:\Users\LOCALH~1\AppData\Local\Temp\ccskN8Qo.s:3235   .text.ETH_EnablePTPTimeStampUpdate:0000000000000010 .L0 
C:\Users\LOCALH~1\AppData\Local\Temp\ccskN8Qo.s:3236   .text.ETH_EnablePTPTimeStampUpdate:0000000000000012 .L0 
C:\Users\LOCALH~1\AppData\Local\Temp\ccskN8Qo.s:3243   .text.ETH_InitializePTPTimeStamp:0000000000000000 ETH_InitializePTPTimeStamp
C:\Users\LOCALH~1\AppData\Local\Temp\ccskN8Qo.s:3246   .text.ETH_InitializePTPTimeStamp:0000000000000000 .L0 
C:\Users\LOCALH~1\AppData\Local\Temp\ccskN8Qo.s:3247   .text.ETH_InitializePTPTimeStamp:0000000000000000 .L0 
C:\Users\LOCALH~1\AppData\Local\Temp\ccskN8Qo.s:3248   .text.ETH_InitializePTPTimeStamp:0000000000000000 .L0 
C:\Users\LOCALH~1\AppData\Local\Temp\ccskN8Qo.s:3249   .text.ETH_InitializePTPTimeStamp:0000000000000000 $x
C:\Users\LOCALH~1\AppData\Local\Temp\ccskN8Qo.s:3249   .text.ETH_InitializePTPTimeStamp:0000000000000000 .L0 
C:\Users\LOCALH~1\AppData\Local\Temp\ccskN8Qo.s:3252   .text.ETH_InitializePTPTimeStamp:0000000000000008 .L0 
C:\Users\LOCALH~1\AppData\Local\Temp\ccskN8Qo.s:3255   .text.ETH_InitializePTPTimeStamp:0000000000000010 .L0 
C:\Users\LOCALH~1\AppData\Local\Temp\ccskN8Qo.s:3256   .text.ETH_InitializePTPTimeStamp:0000000000000012 .L0 
C:\Users\LOCALH~1\AppData\Local\Temp\ccskN8Qo.s:3263   .text.ETH_PTPUpdateMethodConfig:0000000000000000 ETH_PTPUpdateMethodConfig
C:\Users\LOCALH~1\AppData\Local\Temp\ccskN8Qo.s:3266   .text.ETH_PTPUpdateMethodConfig:0000000000000000 .L0 
C:\Users\LOCALH~1\AppData\Local\Temp\ccskN8Qo.s:3268   .text.ETH_PTPUpdateMethodConfig:0000000000000000 .L0 
C:\Users\LOCALH~1\AppData\Local\Temp\ccskN8Qo.s:3269   .text.ETH_PTPUpdateMethodConfig:0000000000000000 .L0 
C:\Users\LOCALH~1\AppData\Local\Temp\ccskN8Qo.s:3270   .text.ETH_PTPUpdateMethodConfig:0000000000000000 $x
C:\Users\LOCALH~1\AppData\Local\Temp\ccskN8Qo.s:3270   .text.ETH_PTPUpdateMethodConfig:0000000000000000 .L0 
C:\Users\LOCALH~1\AppData\Local\Temp\ccskN8Qo.s:3273   .text.ETH_PTPUpdateMethodConfig:0000000000000008 .L0 
C:\Users\LOCALH~1\AppData\Local\Temp\ccskN8Qo.s:3275   .text.ETH_PTPUpdateMethodConfig:000000000000000a .L0 
C:\Users\LOCALH~1\AppData\Local\Temp\ccskN8Qo.s:3276   .text.ETH_PTPUpdateMethodConfig:000000000000000a .L0 
C:\Users\LOCALH~1\AppData\Local\Temp\ccskN8Qo.s:3279   .text.ETH_PTPUpdateMethodConfig:000000000000000e .L0 
C:\Users\LOCALH~1\AppData\Local\Temp\ccskN8Qo.s:3281   .text.ETH_PTPUpdateMethodConfig:0000000000000012 .L0 
C:\Users\LOCALH~1\AppData\Local\Temp\ccskN8Qo.s:3284   .text.ETH_PTPUpdateMethodConfig:0000000000000014 .L0 
C:\Users\LOCALH~1\AppData\Local\Temp\ccskN8Qo.s:3285   .text.ETH_PTPUpdateMethodConfig:0000000000000014 .L0 
C:\Users\LOCALH~1\AppData\Local\Temp\ccskN8Qo.s:3287   .text.ETH_PTPUpdateMethodConfig:0000000000000018 .L0 
C:\Users\LOCALH~1\AppData\Local\Temp\ccskN8Qo.s:3294   .text.ETH_PTPTimeStampCmd:0000000000000000 ETH_PTPTimeStampCmd
C:\Users\LOCALH~1\AppData\Local\Temp\ccskN8Qo.s:3297   .text.ETH_PTPTimeStampCmd:0000000000000000 .L0 
C:\Users\LOCALH~1\AppData\Local\Temp\ccskN8Qo.s:3299   .text.ETH_PTPTimeStampCmd:0000000000000000 .L0 
C:\Users\LOCALH~1\AppData\Local\Temp\ccskN8Qo.s:3300   .text.ETH_PTPTimeStampCmd:0000000000000000 .L0 
C:\Users\LOCALH~1\AppData\Local\Temp\ccskN8Qo.s:3301   .text.ETH_PTPTimeStampCmd:0000000000000000 $x
C:\Users\LOCALH~1\AppData\Local\Temp\ccskN8Qo.s:3301   .text.ETH_PTPTimeStampCmd:0000000000000000 .L0 
C:\Users\LOCALH~1\AppData\Local\Temp\ccskN8Qo.s:3304   .text.ETH_PTPTimeStampCmd:0000000000000008 .L0 
C:\Users\LOCALH~1\AppData\Local\Temp\ccskN8Qo.s:3306   .text.ETH_PTPTimeStampCmd:000000000000000a .L0 
C:\Users\LOCALH~1\AppData\Local\Temp\ccskN8Qo.s:3307   .text.ETH_PTPTimeStampCmd:000000000000000a .L0 
C:\Users\LOCALH~1\AppData\Local\Temp\ccskN8Qo.s:3310   .text.ETH_PTPTimeStampCmd:000000000000000e .L0 
C:\Users\LOCALH~1\AppData\Local\Temp\ccskN8Qo.s:3312   .text.ETH_PTPTimeStampCmd:0000000000000012 .L0 
C:\Users\LOCALH~1\AppData\Local\Temp\ccskN8Qo.s:3315   .text.ETH_PTPTimeStampCmd:0000000000000014 .L0 
C:\Users\LOCALH~1\AppData\Local\Temp\ccskN8Qo.s:3316   .text.ETH_PTPTimeStampCmd:0000000000000014 .L0 
C:\Users\LOCALH~1\AppData\Local\Temp\ccskN8Qo.s:3318   .text.ETH_PTPTimeStampCmd:0000000000000018 .L0 
C:\Users\LOCALH~1\AppData\Local\Temp\ccskN8Qo.s:3325   .text.ETH_GetPTPFlagStatus:0000000000000000 ETH_GetPTPFlagStatus
C:\Users\LOCALH~1\AppData\Local\Temp\ccskN8Qo.s:3328   .text.ETH_GetPTPFlagStatus:0000000000000000 .L0 
C:\Users\LOCALH~1\AppData\Local\Temp\ccskN8Qo.s:3330   .text.ETH_GetPTPFlagStatus:0000000000000000 .L0 
C:\Users\LOCALH~1\AppData\Local\Temp\ccskN8Qo.s:3331   .text.ETH_GetPTPFlagStatus:0000000000000000 .L0 
C:\Users\LOCALH~1\AppData\Local\Temp\ccskN8Qo.s:3332   .text.ETH_GetPTPFlagStatus:0000000000000000 .L0 
C:\Users\LOCALH~1\AppData\Local\Temp\ccskN8Qo.s:3333   .text.ETH_GetPTPFlagStatus:0000000000000000 $x
C:\Users\LOCALH~1\AppData\Local\Temp\ccskN8Qo.s:3333   .text.ETH_GetPTPFlagStatus:0000000000000000 .L0 
C:\Users\LOCALH~1\AppData\Local\Temp\ccskN8Qo.s:3337   .text.ETH_GetPTPFlagStatus:0000000000000008 .L0 
C:\Users\LOCALH~1\AppData\Local\Temp\ccskN8Qo.s:3338   .text.ETH_GetPTPFlagStatus:0000000000000008 .L0 
C:\Users\LOCALH~1\AppData\Local\Temp\ccskN8Qo.s:3341   .text.ETH_GetPTPFlagStatus:000000000000000a .L0 
C:\Users\LOCALH~1\AppData\Local\Temp\ccskN8Qo.s:3343   .text.ETH_GetPTPFlagStatus:0000000000000010 .L0 
C:\Users\LOCALH~1\AppData\Local\Temp\ccskN8Qo.s:3350   .text.ETH_SetPTPSubSecondIncrement:0000000000000000 ETH_SetPTPSubSecondIncrement
C:\Users\LOCALH~1\AppData\Local\Temp\ccskN8Qo.s:3353   .text.ETH_SetPTPSubSecondIncrement:0000000000000000 .L0 
C:\Users\LOCALH~1\AppData\Local\Temp\ccskN8Qo.s:3355   .text.ETH_SetPTPSubSecondIncrement:0000000000000000 .L0 
C:\Users\LOCALH~1\AppData\Local\Temp\ccskN8Qo.s:3356   .text.ETH_SetPTPSubSecondIncrement:0000000000000000 .L0 
C:\Users\LOCALH~1\AppData\Local\Temp\ccskN8Qo.s:3357   .text.ETH_SetPTPSubSecondIncrement:0000000000000000 $x
C:\Users\LOCALH~1\AppData\Local\Temp\ccskN8Qo.s:3357   .text.ETH_SetPTPSubSecondIncrement:0000000000000000 .L0 
C:\Users\LOCALH~1\AppData\Local\Temp\ccskN8Qo.s:3360   .text.ETH_SetPTPSubSecondIncrement:0000000000000008 .L0 
C:\Users\LOCALH~1\AppData\Local\Temp\ccskN8Qo.s:3361   .text.ETH_SetPTPSubSecondIncrement:000000000000000a .L0 
C:\Users\LOCALH~1\AppData\Local\Temp\ccskN8Qo.s:3368   .text.ETH_SetPTPTimeStampUpdate:0000000000000000 ETH_SetPTPTimeStampUpdate
C:\Users\LOCALH~1\AppData\Local\Temp\ccskN8Qo.s:3371   .text.ETH_SetPTPTimeStampUpdate:0000000000000000 .L0 
C:\Users\LOCALH~1\AppData\Local\Temp\ccskN8Qo.s:3373   .text.ETH_SetPTPTimeStampUpdate:0000000000000000 .L0 
C:\Users\LOCALH~1\AppData\Local\Temp\ccskN8Qo.s:3374   .text.ETH_SetPTPTimeStampUpdate:0000000000000000 .L0 
C:\Users\LOCALH~1\AppData\Local\Temp\ccskN8Qo.s:3375   .text.ETH_SetPTPTimeStampUpdate:0000000000000000 $x
C:\Users\LOCALH~1\AppData\Local\Temp\ccskN8Qo.s:3375   .text.ETH_SetPTPTimeStampUpdate:0000000000000000 .L0 
C:\Users\LOCALH~1\AppData\Local\Temp\ccskN8Qo.s:3378   .text.ETH_SetPTPTimeStampUpdate:0000000000000008 .L0 
C:\Users\LOCALH~1\AppData\Local\Temp\ccskN8Qo.s:3379   .text.ETH_SetPTPTimeStampUpdate:0000000000000008 .L0 
C:\Users\LOCALH~1\AppData\Local\Temp\ccskN8Qo.s:3382   .text.ETH_SetPTPTimeStampUpdate:000000000000000a .L0 
C:\Users\LOCALH~1\AppData\Local\Temp\ccskN8Qo.s:3384   .text.ETH_SetPTPTimeStampUpdate:000000000000000e .L0 
C:\Users\LOCALH~1\AppData\Local\Temp\ccskN8Qo.s:3385   .text.ETH_SetPTPTimeStampUpdate:0000000000000010 .L0 
C:\Users\LOCALH~1\AppData\Local\Temp\ccskN8Qo.s:3392   .text.ETH_SetPTPTimeStampAddend:0000000000000000 ETH_SetPTPTimeStampAddend
C:\Users\LOCALH~1\AppData\Local\Temp\ccskN8Qo.s:3395   .text.ETH_SetPTPTimeStampAddend:0000000000000000 .L0 
C:\Users\LOCALH~1\AppData\Local\Temp\ccskN8Qo.s:3397   .text.ETH_SetPTPTimeStampAddend:0000000000000000 .L0 
C:\Users\LOCALH~1\AppData\Local\Temp\ccskN8Qo.s:3398   .text.ETH_SetPTPTimeStampAddend:0000000000000000 .L0 
C:\Users\LOCALH~1\AppData\Local\Temp\ccskN8Qo.s:3399   .text.ETH_SetPTPTimeStampAddend:0000000000000000 $x
C:\Users\LOCALH~1\AppData\Local\Temp\ccskN8Qo.s:3399   .text.ETH_SetPTPTimeStampAddend:0000000000000000 .L0 
C:\Users\LOCALH~1\AppData\Local\Temp\ccskN8Qo.s:3402   .text.ETH_SetPTPTimeStampAddend:0000000000000008 .L0 
C:\Users\LOCALH~1\AppData\Local\Temp\ccskN8Qo.s:3403   .text.ETH_SetPTPTimeStampAddend:000000000000000a .L0 
C:\Users\LOCALH~1\AppData\Local\Temp\ccskN8Qo.s:3410   .text.ETH_SetPTPTargetTime:0000000000000000 ETH_SetPTPTargetTime
C:\Users\LOCALH~1\AppData\Local\Temp\ccskN8Qo.s:3413   .text.ETH_SetPTPTargetTime:0000000000000000 .L0 
C:\Users\LOCALH~1\AppData\Local\Temp\ccskN8Qo.s:3415   .text.ETH_SetPTPTargetTime:0000000000000000 .L0 
C:\Users\LOCALH~1\AppData\Local\Temp\ccskN8Qo.s:3416   .text.ETH_SetPTPTargetTime:0000000000000000 .L0 
C:\Users\LOCALH~1\AppData\Local\Temp\ccskN8Qo.s:3417   .text.ETH_SetPTPTargetTime:0000000000000000 $x
C:\Users\LOCALH~1\AppData\Local\Temp\ccskN8Qo.s:3417   .text.ETH_SetPTPTargetTime:0000000000000000 .L0 
C:\Users\LOCALH~1\AppData\Local\Temp\ccskN8Qo.s:3420   .text.ETH_SetPTPTargetTime:0000000000000008 .L0 
C:\Users\LOCALH~1\AppData\Local\Temp\ccskN8Qo.s:3421   .text.ETH_SetPTPTargetTime:0000000000000008 .L0 
C:\Users\LOCALH~1\AppData\Local\Temp\ccskN8Qo.s:3423   .text.ETH_SetPTPTargetTime:000000000000000c .L0 
C:\Users\LOCALH~1\AppData\Local\Temp\ccskN8Qo.s:3424   .text.ETH_SetPTPTargetTime:000000000000000e .L0 
C:\Users\LOCALH~1\AppData\Local\Temp\ccskN8Qo.s:3431   .text.ETH_GetPTPRegister:0000000000000000 ETH_GetPTPRegister
C:\Users\LOCALH~1\AppData\Local\Temp\ccskN8Qo.s:3433   .text.ETH_GetPTPRegister:0000000000000000 .L0 
C:\Users\LOCALH~1\AppData\Local\Temp\ccskN8Qo.s:3435   .text.ETH_GetPTPRegister:0000000000000000 $x
C:\Users\LOCALH~1\AppData\Local\Temp\ccskN8Qo.s:3435   .text.ETH_GetPTPRegister:0000000000000000 .L0 
C:\Users\LOCALH~1\AppData\Local\Temp\ccskN8Qo.s:3439   .text.ETH_GetPTPRegister:000000000000000a .L0 
C:\Users\LOCALH~1\AppData\Local\Temp\ccskN8Qo.s:3446   .text.ETH_DMAPTPTxDescChainInit:0000000000000000 ETH_DMAPTPTxDescChainInit
C:\Users\LOCALH~1\AppData\Local\Temp\ccskN8Qo.s:3449   .text.ETH_DMAPTPTxDescChainInit:0000000000000000 .L0 
C:\Users\LOCALH~1\AppData\Local\Temp\ccskN8Qo.s:3451   .text.ETH_DMAPTPTxDescChainInit:0000000000000000 .L0 
C:\Users\LOCALH~1\AppData\Local\Temp\ccskN8Qo.s:3452   .text.ETH_DMAPTPTxDescChainInit:0000000000000000 .L0 
C:\Users\LOCALH~1\AppData\Local\Temp\ccskN8Qo.s:3453   .text.ETH_DMAPTPTxDescChainInit:0000000000000000 .L0 
C:\Users\LOCALH~1\AppData\Local\Temp\ccskN8Qo.s:3454   .text.ETH_DMAPTPTxDescChainInit:0000000000000000 .L0 
C:\Users\LOCALH~1\AppData\Local\Temp\ccskN8Qo.s:3455   .text.ETH_DMAPTPTxDescChainInit:0000000000000000 $x
C:\Users\LOCALH~1\AppData\Local\Temp\ccskN8Qo.s:3455   .text.ETH_DMAPTPTxDescChainInit:0000000000000000 .L0 
C:\Users\LOCALH~1\AppData\Local\Temp\ccskN8Qo.s:3457   .text.ETH_DMAPTPTxDescChainInit:0000000000000008 .L0 
C:\Users\LOCALH~1\AppData\Local\Temp\ccskN8Qo.s:4078   .sbss.DMAPTPTxDescToSet:0000000000000000 DMAPTPTxDescToSet
C:\Users\LOCALH~1\AppData\Local\Temp\ccskN8Qo.s:3458   .text.ETH_DMAPTPTxDescChainInit:0000000000000008 .L0 
C:\Users\LOCALH~1\AppData\Local\Temp\ccskN8Qo.s:3460   .text.ETH_DMAPTPTxDescChainInit:0000000000000010 .L0 
C:\Users\LOCALH~1\AppData\Local\Temp\ccskN8Qo.s:3464   .text.ETH_DMAPTPTxDescChainInit:0000000000000018 .L0 
C:\Users\LOCALH~1\AppData\Local\Temp\ccskN8Qo.s:3467   .text.ETH_DMAPTPTxDescChainInit:0000000000000020 .L0 
C:\Users\LOCALH~1\AppData\Local\Temp\ccskN8Qo.s:3471   .text.ETH_DMAPTPTxDescChainInit:0000000000000024 .L0 
C:\Users\LOCALH~1\AppData\Local\Temp\ccskN8Qo.s:3473   .text.ETH_DMAPTPTxDescChainInit:0000000000000028 .L0 
C:\Users\LOCALH~1\AppData\Local\Temp\ccskN8Qo.s:3474   .text.ETH_DMAPTPTxDescChainInit:0000000000000028 .L0 
C:\Users\LOCALH~1\AppData\Local\Temp\ccskN8Qo.s:3478   .text.ETH_DMAPTPTxDescChainInit:000000000000002c .L0 
C:\Users\LOCALH~1\AppData\Local\Temp\ccskN8Qo.s:3480   .text.ETH_DMAPTPTxDescChainInit:000000000000002e .L0 
C:\Users\LOCALH~1\AppData\Local\Temp\ccskN8Qo.s:3482   .text.ETH_DMAPTPTxDescChainInit:0000000000000030 .L0 
C:\Users\LOCALH~1\AppData\Local\Temp\ccskN8Qo.s:3483   .text.ETH_DMAPTPTxDescChainInit:0000000000000030 .L0 
C:\Users\LOCALH~1\AppData\Local\Temp\ccskN8Qo.s:3486   .text.ETH_DMAPTPTxDescChainInit:0000000000000036 .L0 
C:\Users\LOCALH~1\AppData\Local\Temp\ccskN8Qo.s:3490   .text.ETH_DMAPTPTxDescChainInit:0000000000000038 .L0 
C:\Users\LOCALH~1\AppData\Local\Temp\ccskN8Qo.s:3491   .text.ETH_DMAPTPTxDescChainInit:0000000000000038 .L0 
C:\Users\LOCALH~1\AppData\Local\Temp\ccskN8Qo.s:3493   .text.ETH_DMAPTPTxDescChainInit:000000000000003c .L0 
C:\Users\LOCALH~1\AppData\Local\Temp\ccskN8Qo.s:3495   .text.ETH_DMAPTPTxDescChainInit:0000000000000040 .L0 
C:\Users\LOCALH~1\AppData\Local\Temp\ccskN8Qo.s:3497   .text.ETH_DMAPTPTxDescChainInit:0000000000000044 .L0 
C:\Users\LOCALH~1\AppData\Local\Temp\ccskN8Qo.s:3500   .text.ETH_DMAPTPTxDescChainInit:0000000000000048 .L0 
C:\Users\LOCALH~1\AppData\Local\Temp\ccskN8Qo.s:3502   .text.ETH_DMAPTPTxDescChainInit:000000000000004c .L0 
C:\Users\LOCALH~1\AppData\Local\Temp\ccskN8Qo.s:3503   .text.ETH_DMAPTPTxDescChainInit:000000000000004c .L0 
C:\Users\LOCALH~1\AppData\Local\Temp\ccskN8Qo.s:3506   .text.ETH_DMAPTPTxDescChainInit:0000000000000050 .L0 
C:\Users\LOCALH~1\AppData\Local\Temp\ccskN8Qo.s:3511   .text.ETH_DMAPTPTxDescChainInit:0000000000000056 .L0 
C:\Users\LOCALH~1\AppData\Local\Temp\ccskN8Qo.s:3512   .text.ETH_DMAPTPTxDescChainInit:0000000000000056 .L0 
C:\Users\LOCALH~1\AppData\Local\Temp\ccskN8Qo.s:3514   .text.ETH_DMAPTPTxDescChainInit:000000000000005a .L0 
C:\Users\LOCALH~1\AppData\Local\Temp\ccskN8Qo.s:3515   .text.ETH_DMAPTPTxDescChainInit:000000000000005a .L0 
C:\Users\LOCALH~1\AppData\Local\Temp\ccskN8Qo.s:3518   .text.ETH_DMAPTPTxDescChainInit:000000000000005e .L0 
C:\Users\LOCALH~1\AppData\Local\Temp\ccskN8Qo.s:3524   .text.ETH_DMAPTPTxDescChainInit:0000000000000066 .L0 
C:\Users\LOCALH~1\AppData\Local\Temp\ccskN8Qo.s:3531   .text.ETH_DMAPTPRxDescChainInit:0000000000000000 ETH_DMAPTPRxDescChainInit
C:\Users\LOCALH~1\AppData\Local\Temp\ccskN8Qo.s:3534   .text.ETH_DMAPTPRxDescChainInit:0000000000000000 .L0 
C:\Users\LOCALH~1\AppData\Local\Temp\ccskN8Qo.s:3536   .text.ETH_DMAPTPRxDescChainInit:0000000000000000 .L0 
C:\Users\LOCALH~1\AppData\Local\Temp\ccskN8Qo.s:3537   .text.ETH_DMAPTPRxDescChainInit:0000000000000000 .L0 
C:\Users\LOCALH~1\AppData\Local\Temp\ccskN8Qo.s:3538   .text.ETH_DMAPTPRxDescChainInit:0000000000000000 .L0 
C:\Users\LOCALH~1\AppData\Local\Temp\ccskN8Qo.s:3539   .text.ETH_DMAPTPRxDescChainInit:0000000000000000 .L0 
C:\Users\LOCALH~1\AppData\Local\Temp\ccskN8Qo.s:3540   .text.ETH_DMAPTPRxDescChainInit:0000000000000000 $x
C:\Users\LOCALH~1\AppData\Local\Temp\ccskN8Qo.s:3540   .text.ETH_DMAPTPRxDescChainInit:0000000000000000 .L0 
C:\Users\LOCALH~1\AppData\Local\Temp\ccskN8Qo.s:3542   .text.ETH_DMAPTPRxDescChainInit:0000000000000008 .L0 
C:\Users\LOCALH~1\AppData\Local\Temp\ccskN8Qo.s:4071   .sbss.DMAPTPRxDescToGet:0000000000000000 DMAPTPRxDescToGet
C:\Users\LOCALH~1\AppData\Local\Temp\ccskN8Qo.s:3543   .text.ETH_DMAPTPRxDescChainInit:0000000000000008 .L0 
C:\Users\LOCALH~1\AppData\Local\Temp\ccskN8Qo.s:3545   .text.ETH_DMAPTPRxDescChainInit:0000000000000010 .L0 
C:\Users\LOCALH~1\AppData\Local\Temp\ccskN8Qo.s:3546   .text.ETH_DMAPTPRxDescChainInit:0000000000000010 .L0 
C:\Users\LOCALH~1\AppData\Local\Temp\ccskN8Qo.s:3549   .text.ETH_DMAPTPRxDescChainInit:0000000000000016 .L0 
C:\Users\LOCALH~1\AppData\Local\Temp\ccskN8Qo.s:3552   .text.ETH_DMAPTPRxDescChainInit:000000000000001a .L0 
C:\Users\LOCALH~1\AppData\Local\Temp\ccskN8Qo.s:3554   .text.ETH_DMAPTPRxDescChainInit:000000000000001e .L0 
C:\Users\LOCALH~1\AppData\Local\Temp\ccskN8Qo.s:3557   .text.ETH_DMAPTPRxDescChainInit:0000000000000026 .L0 
C:\Users\LOCALH~1\AppData\Local\Temp\ccskN8Qo.s:3561   .text.ETH_DMAPTPRxDescChainInit:000000000000002a .L0 
C:\Users\LOCALH~1\AppData\Local\Temp\ccskN8Qo.s:3563   .text.ETH_DMAPTPRxDescChainInit:000000000000002e .L0 
C:\Users\LOCALH~1\AppData\Local\Temp\ccskN8Qo.s:3564   .text.ETH_DMAPTPRxDescChainInit:000000000000002e .L0 
C:\Users\LOCALH~1\AppData\Local\Temp\ccskN8Qo.s:3568   .text.ETH_DMAPTPRxDescChainInit:0000000000000032 .L0 
C:\Users\LOCALH~1\AppData\Local\Temp\ccskN8Qo.s:3570   .text.ETH_DMAPTPRxDescChainInit:0000000000000034 .L0 
C:\Users\LOCALH~1\AppData\Local\Temp\ccskN8Qo.s:3572   .text.ETH_DMAPTPRxDescChainInit:0000000000000036 .L0 
C:\Users\LOCALH~1\AppData\Local\Temp\ccskN8Qo.s:3573   .text.ETH_DMAPTPRxDescChainInit:0000000000000036 .L0 
C:\Users\LOCALH~1\AppData\Local\Temp\ccskN8Qo.s:3576   .text.ETH_DMAPTPRxDescChainInit:000000000000003c .L0 
C:\Users\LOCALH~1\AppData\Local\Temp\ccskN8Qo.s:3580   .text.ETH_DMAPTPRxDescChainInit:000000000000003e .L0 
C:\Users\LOCALH~1\AppData\Local\Temp\ccskN8Qo.s:3581   .text.ETH_DMAPTPRxDescChainInit:000000000000003e .L0 
C:\Users\LOCALH~1\AppData\Local\Temp\ccskN8Qo.s:3583   .text.ETH_DMAPTPRxDescChainInit:0000000000000042 .L0 
C:\Users\LOCALH~1\AppData\Local\Temp\ccskN8Qo.s:3585   .text.ETH_DMAPTPRxDescChainInit:0000000000000046 .L0 
C:\Users\LOCALH~1\AppData\Local\Temp\ccskN8Qo.s:3586   .text.ETH_DMAPTPRxDescChainInit:0000000000000046 .L0 
C:\Users\LOCALH~1\AppData\Local\Temp\ccskN8Qo.s:3588   .text.ETH_DMAPTPRxDescChainInit:000000000000004a .L0 
C:\Users\LOCALH~1\AppData\Local\Temp\ccskN8Qo.s:3590   .text.ETH_DMAPTPRxDescChainInit:000000000000004e .L0 
C:\Users\LOCALH~1\AppData\Local\Temp\ccskN8Qo.s:3593   .text.ETH_DMAPTPRxDescChainInit:0000000000000052 .L0 
C:\Users\LOCALH~1\AppData\Local\Temp\ccskN8Qo.s:3595   .text.ETH_DMAPTPRxDescChainInit:0000000000000056 .L0 
C:\Users\LOCALH~1\AppData\Local\Temp\ccskN8Qo.s:3596   .text.ETH_DMAPTPRxDescChainInit:0000000000000056 .L0 
C:\Users\LOCALH~1\AppData\Local\Temp\ccskN8Qo.s:3598   .text.ETH_DMAPTPRxDescChainInit:000000000000005a .L0 
C:\Users\LOCALH~1\AppData\Local\Temp\ccskN8Qo.s:3602   .text.ETH_DMAPTPRxDescChainInit:0000000000000060 .L0 
C:\Users\LOCALH~1\AppData\Local\Temp\ccskN8Qo.s:3603   .text.ETH_DMAPTPRxDescChainInit:0000000000000060 .L0 
C:\Users\LOCALH~1\AppData\Local\Temp\ccskN8Qo.s:3605   .text.ETH_DMAPTPRxDescChainInit:0000000000000064 .L0 
C:\Users\LOCALH~1\AppData\Local\Temp\ccskN8Qo.s:3606   .text.ETH_DMAPTPRxDescChainInit:0000000000000064 .L0 
C:\Users\LOCALH~1\AppData\Local\Temp\ccskN8Qo.s:3609   .text.ETH_DMAPTPRxDescChainInit:0000000000000068 .L0 
C:\Users\LOCALH~1\AppData\Local\Temp\ccskN8Qo.s:3615   .text.ETH_DMAPTPRxDescChainInit:0000000000000070 .L0 
C:\Users\LOCALH~1\AppData\Local\Temp\ccskN8Qo.s:3622   .text.ETH_HandlePTPTxPkt:0000000000000000 ETH_HandlePTPTxPkt
C:\Users\LOCALH~1\AppData\Local\Temp\ccskN8Qo.s:3625   .text.ETH_HandlePTPTxPkt:0000000000000000 .L0 
C:\Users\LOCALH~1\AppData\Local\Temp\ccskN8Qo.s:3627   .text.ETH_HandlePTPTxPkt:0000000000000000 .L0 
C:\Users\LOCALH~1\AppData\Local\Temp\ccskN8Qo.s:3628   .text.ETH_HandlePTPTxPkt:0000000000000000 .L0 
C:\Users\LOCALH~1\AppData\Local\Temp\ccskN8Qo.s:3629   .text.ETH_HandlePTPTxPkt:0000000000000000 .L0 
C:\Users\LOCALH~1\AppData\Local\Temp\ccskN8Qo.s:3630   .text.ETH_HandlePTPTxPkt:0000000000000000 $x
C:\Users\LOCALH~1\AppData\Local\Temp\ccskN8Qo.s:3630   .text.ETH_HandlePTPTxPkt:0000000000000000 .L0 
C:\Users\LOCALH~1\AppData\Local\Temp\ccskN8Qo.s:3634   .text.ETH_HandlePTPTxPkt:000000000000000c .L0 
C:\Users\LOCALH~1\AppData\Local\Temp\ccskN8Qo.s:3636   .text.ETH_HandlePTPTxPkt:0000000000000010 .L0 
C:\Users\LOCALH~1\AppData\Local\Temp\ccskN8Qo.s:3638   .text.ETH_HandlePTPTxPkt:0000000000000012 .L0 
C:\Users\LOCALH~1\AppData\Local\Temp\ccskN8Qo.s:3642   .text.ETH_HandlePTPTxPkt:000000000000001a .L0 
C:\Users\LOCALH~1\AppData\Local\Temp\ccskN8Qo.s:3644   .text.ETH_HandlePTPTxPkt:000000000000001e .L0 
C:\Users\LOCALH~1\AppData\Local\Temp\ccskN8Qo.s:3645   .text.ETH_HandlePTPTxPkt:000000000000001e .L0 
C:\Users\LOCALH~1\AppData\Local\Temp\ccskN8Qo.s:3648   .text.ETH_HandlePTPTxPkt:0000000000000020 .L0 
C:\Users\LOCALH~1\AppData\Local\Temp\ccskN8Qo.s:3652   .text.ETH_HandlePTPTxPkt:0000000000000024 .L0 
C:\Users\LOCALH~1\AppData\Local\Temp\ccskN8Qo.s:3654   .text.ETH_HandlePTPTxPkt:0000000000000026 .L0 
C:\Users\LOCALH~1\AppData\Local\Temp\ccskN8Qo.s:3656   .text.ETH_HandlePTPTxPkt:0000000000000028 .L0 
C:\Users\LOCALH~1\AppData\Local\Temp\ccskN8Qo.s:3657   .text.ETH_HandlePTPTxPkt:0000000000000028 .L0 
C:\Users\LOCALH~1\AppData\Local\Temp\ccskN8Qo.s:3661   .text.ETH_HandlePTPTxPkt:0000000000000030 .L0 
C:\Users\LOCALH~1\AppData\Local\Temp\ccskN8Qo.s:3662   .text.ETH_HandlePTPTxPkt:0000000000000030 .L0 
C:\Users\LOCALH~1\AppData\Local\Temp\ccskN8Qo.s:3664   .text.ETH_HandlePTPTxPkt:0000000000000032 .L0 
C:\Users\LOCALH~1\AppData\Local\Temp\ccskN8Qo.s:3668   .text.ETH_HandlePTPTxPkt:000000000000003a .L0 
C:\Users\LOCALH~1\AppData\Local\Temp\ccskN8Qo.s:3669   .text.ETH_HandlePTPTxPkt:000000000000003a .L0 
C:\Users\LOCALH~1\AppData\Local\Temp\ccskN8Qo.s:3672   .text.ETH_HandlePTPTxPkt:0000000000000040 .L0 
C:\Users\LOCALH~1\AppData\Local\Temp\ccskN8Qo.s:3674   .text.ETH_HandlePTPTxPkt:0000000000000042 .L0 
C:\Users\LOCALH~1\AppData\Local\Temp\ccskN8Qo.s:3676   .text.ETH_HandlePTPTxPkt:0000000000000044 .L0 
C:\Users\LOCALH~1\AppData\Local\Temp\ccskN8Qo.s:3677   .text.ETH_HandlePTPTxPkt:0000000000000044 .L0 
C:\Users\LOCALH~1\AppData\Local\Temp\ccskN8Qo.s:3680   .text.ETH_HandlePTPTxPkt:0000000000000048 .L0 
C:\Users\LOCALH~1\AppData\Local\Temp\ccskN8Qo.s:3681   .text.ETH_HandlePTPTxPkt:0000000000000048 .L0 
C:\Users\LOCALH~1\AppData\Local\Temp\ccskN8Qo.s:3684   .text.ETH_HandlePTPTxPkt:000000000000004c .L0 
C:\Users\LOCALH~1\AppData\Local\Temp\ccskN8Qo.s:3687   .text.ETH_HandlePTPTxPkt:0000000000000050 .L0 
C:\Users\LOCALH~1\AppData\Local\Temp\ccskN8Qo.s:3691   .text.ETH_HandlePTPTxPkt:0000000000000054 .L0 
C:\Users\LOCALH~1\AppData\Local\Temp\ccskN8Qo.s:3692   .text.ETH_HandlePTPTxPkt:0000000000000054 .L0 
C:\Users\LOCALH~1\AppData\Local\Temp\ccskN8Qo.s:3693   .text.ETH_HandlePTPTxPkt:0000000000000054 .L0 
C:\Users\LOCALH~1\AppData\Local\Temp\ccskN8Qo.s:3694   .text.ETH_HandlePTPTxPkt:0000000000000054 .L0 
C:\Users\LOCALH~1\AppData\Local\Temp\ccskN8Qo.s:3696   .text.ETH_HandlePTPTxPkt:0000000000000056 .L0 
C:\Users\LOCALH~1\AppData\Local\Temp\ccskN8Qo.s:3698   .text.ETH_HandlePTPTxPkt:0000000000000058 .L0 
C:\Users\LOCALH~1\AppData\Local\Temp\ccskN8Qo.s:3700   .text.ETH_HandlePTPTxPkt:000000000000005a .L0 
C:\Users\LOCALH~1\AppData\Local\Temp\ccskN8Qo.s:3706   .text.ETH_HandlePTPTxPkt:000000000000005e .L0 
C:\Users\LOCALH~1\AppData\Local\Temp\ccskN8Qo.s:3707   .text.ETH_HandlePTPTxPkt:000000000000005e .L0 
C:\Users\LOCALH~1\AppData\Local\Temp\ccskN8Qo.s:3708   .text.ETH_HandlePTPTxPkt:000000000000005e .L0 
C:\Users\LOCALH~1\AppData\Local\Temp\ccskN8Qo.s:3710   .text.ETH_HandlePTPTxPkt:0000000000000060 .L0 
C:\Users\LOCALH~1\AppData\Local\Temp\ccskN8Qo.s:3716   .text.ETH_HandlePTPTxPkt:0000000000000068 .L0 
C:\Users\LOCALH~1\AppData\Local\Temp\ccskN8Qo.s:3717   .text.ETH_HandlePTPTxPkt:0000000000000068 .L0 
C:\Users\LOCALH~1\AppData\Local\Temp\ccskN8Qo.s:3719   .text.ETH_HandlePTPTxPkt:000000000000006a .L0 
C:\Users\LOCALH~1\AppData\Local\Temp\ccskN8Qo.s:3721   .text.ETH_HandlePTPTxPkt:000000000000006c .L0 
C:\Users\LOCALH~1\AppData\Local\Temp\ccskN8Qo.s:3722   .text.ETH_HandlePTPTxPkt:000000000000006c .L0 
C:\Users\LOCALH~1\AppData\Local\Temp\ccskN8Qo.s:3724   .text.ETH_HandlePTPTxPkt:000000000000006e .L0 
C:\Users\LOCALH~1\AppData\Local\Temp\ccskN8Qo.s:3726   .text.ETH_HandlePTPTxPkt:0000000000000070 .L0 
C:\Users\LOCALH~1\AppData\Local\Temp\ccskN8Qo.s:3727   .text.ETH_HandlePTPTxPkt:0000000000000070 .L0 
C:\Users\LOCALH~1\AppData\Local\Temp\ccskN8Qo.s:3729   .text.ETH_HandlePTPTxPkt:0000000000000072 .L0 
C:\Users\LOCALH~1\AppData\Local\Temp\ccskN8Qo.s:3734   .text.ETH_HandlePTPTxPkt:0000000000000080 .L0 
C:\Users\LOCALH~1\AppData\Local\Temp\ccskN8Qo.s:3736   .text.ETH_HandlePTPTxPkt:0000000000000082 .L0 
C:\Users\LOCALH~1\AppData\Local\Temp\ccskN8Qo.s:3737   .text.ETH_HandlePTPTxPkt:0000000000000082 .L0 
C:\Users\LOCALH~1\AppData\Local\Temp\ccskN8Qo.s:3739   .text.ETH_HandlePTPTxPkt:0000000000000084 .L0 
C:\Users\LOCALH~1\AppData\Local\Temp\ccskN8Qo.s:3742   .text.ETH_HandlePTPTxPkt:0000000000000088 .L0 
C:\Users\LOCALH~1\AppData\Local\Temp\ccskN8Qo.s:3743   .text.ETH_HandlePTPTxPkt:0000000000000088 .L0 
C:\Users\LOCALH~1\AppData\Local\Temp\ccskN8Qo.s:3745   .text.ETH_HandlePTPTxPkt:000000000000008a .L0 
C:\Users\LOCALH~1\AppData\Local\Temp\ccskN8Qo.s:3747   .text.ETH_HandlePTPTxPkt:000000000000008e .L0 
C:\Users\LOCALH~1\AppData\Local\Temp\ccskN8Qo.s:3749   .text.ETH_HandlePTPTxPkt:0000000000000090 .L0 
C:\Users\LOCALH~1\AppData\Local\Temp\ccskN8Qo.s:3750   .text.ETH_HandlePTPTxPkt:0000000000000090 .L0 
C:\Users\LOCALH~1\AppData\Local\Temp\ccskN8Qo.s:3753   .text.ETH_HandlePTPTxPkt:0000000000000092 .L0 
C:\Users\LOCALH~1\AppData\Local\Temp\ccskN8Qo.s:3755   .text.ETH_HandlePTPTxPkt:0000000000000094 .L0 
C:\Users\LOCALH~1\AppData\Local\Temp\ccskN8Qo.s:3760   .text.ETH_HandlePTPTxPkt:0000000000000098 .L0 
C:\Users\LOCALH~1\AppData\Local\Temp\ccskN8Qo.s:3761   .text.ETH_HandlePTPTxPkt:0000000000000098 .L0 
C:\Users\LOCALH~1\AppData\Local\Temp\ccskN8Qo.s:3763   .text.ETH_HandlePTPTxPkt:000000000000009c .L0 
C:\Users\LOCALH~1\AppData\Local\Temp\ccskN8Qo.s:3766   .text.ETH_HandlePTPTxPkt:00000000000000a4 .L0 
C:\Users\LOCALH~1\AppData\Local\Temp\ccskN8Qo.s:3769   .text.ETH_HandlePTPTxPkt:00000000000000a8 .L0 
C:\Users\LOCALH~1\AppData\Local\Temp\ccskN8Qo.s:3771   .text.ETH_HandlePTPTxPkt:00000000000000ac .L0 
C:\Users\LOCALH~1\AppData\Local\Temp\ccskN8Qo.s:3777   .text.ETH_HandlePTPTxPkt:00000000000000b0 .L0 
C:\Users\LOCALH~1\AppData\Local\Temp\ccskN8Qo.s:3778   .text.ETH_HandlePTPTxPkt:00000000000000b0 .L0 
C:\Users\LOCALH~1\AppData\Local\Temp\ccskN8Qo.s:3780   .text.ETH_HandlePTPTxPkt:00000000000000b2 .L0 
C:\Users\LOCALH~1\AppData\Local\Temp\ccskN8Qo.s:3783   .text.ETH_HandlePTPTxPkt:00000000000000b8 .L0 
C:\Users\LOCALH~1\AppData\Local\Temp\ccskN8Qo.s:3785   .text.ETH_HandlePTPTxPkt:00000000000000ba .L0 
C:\Users\LOCALH~1\AppData\Local\Temp\ccskN8Qo.s:3786   .text.ETH_HandlePTPTxPkt:00000000000000ba .L0 
C:\Users\LOCALH~1\AppData\Local\Temp\ccskN8Qo.s:3789   .text.ETH_HandlePTPTxPkt:00000000000000c0 .L0 
C:\Users\LOCALH~1\AppData\Local\Temp\ccskN8Qo.s:3791   .text.ETH_HandlePTPTxPkt:00000000000000c2 .L0 
C:\Users\LOCALH~1\AppData\Local\Temp\ccskN8Qo.s:3793   .text.ETH_HandlePTPTxPkt:00000000000000c4 .L0 
C:\Users\LOCALH~1\AppData\Local\Temp\ccskN8Qo.s:3796   .text.ETH_HandlePTPTxPkt:00000000000000c6 .L0 
C:\Users\LOCALH~1\AppData\Local\Temp\ccskN8Qo.s:3797   .text.ETH_HandlePTPTxPkt:00000000000000c6 .L0 
C:\Users\LOCALH~1\AppData\Local\Temp\ccskN8Qo.s:3800   .text.ETH_HandlePTPTxPkt:00000000000000cc .L0 
C:\Users\LOCALH~1\AppData\Local\Temp\ccskN8Qo.s:3802   .text.ETH_HandlePTPTxPkt:00000000000000ce .L0 
C:\Users\LOCALH~1\AppData\Local\Temp\ccskN8Qo.s:3805   .text.ETH_HandlePTPTxPkt:00000000000000d2 .L0 
C:\Users\LOCALH~1\AppData\Local\Temp\ccskN8Qo.s:3807   .text.ETH_HandlePTPTxPkt:00000000000000d4 .L0 
C:\Users\LOCALH~1\AppData\Local\Temp\ccskN8Qo.s:3809   .text.ETH_HandlePTPTxPkt:00000000000000d6 .L0 
C:\Users\LOCALH~1\AppData\Local\Temp\ccskN8Qo.s:3811   .text.ETH_HandlePTPTxPkt:00000000000000d8 .L0 
C:\Users\LOCALH~1\AppData\Local\Temp\ccskN8Qo.s:3812   .text.ETH_HandlePTPTxPkt:00000000000000d8 .L0 
C:\Users\LOCALH~1\AppData\Local\Temp\ccskN8Qo.s:3814   .text.ETH_HandlePTPTxPkt:00000000000000da .L0 
C:\Users\LOCALH~1\AppData\Local\Temp\ccskN8Qo.s:3817   .text.ETH_HandlePTPTxPkt:00000000000000de .L0 
C:\Users\LOCALH~1\AppData\Local\Temp\ccskN8Qo.s:3823   .text.ETH_HandlePTPTxPkt:00000000000000e4 .L0 
C:\Users\LOCALH~1\AppData\Local\Temp\ccskN8Qo.s:3826   .text.ETH_HandlePTPTxPkt:00000000000000e6 .L0 
C:\Users\LOCALH~1\AppData\Local\Temp\ccskN8Qo.s:3827   .text.ETH_HandlePTPTxPkt:00000000000000e8 .L0 
C:\Users\LOCALH~1\AppData\Local\Temp\ccskN8Qo.s:3834   .text.ETH_HandlePTPRxPkt:0000000000000000 ETH_HandlePTPRxPkt
C:\Users\LOCALH~1\AppData\Local\Temp\ccskN8Qo.s:3837   .text.ETH_HandlePTPRxPkt:0000000000000000 .L0 
C:\Users\LOCALH~1\AppData\Local\Temp\ccskN8Qo.s:3839   .text.ETH_HandlePTPRxPkt:0000000000000000 .L0 
C:\Users\LOCALH~1\AppData\Local\Temp\ccskN8Qo.s:3840   .text.ETH_HandlePTPRxPkt:0000000000000000 .L0 
C:\Users\LOCALH~1\AppData\Local\Temp\ccskN8Qo.s:3841   .text.ETH_HandlePTPRxPkt:0000000000000000 .L0 
C:\Users\LOCALH~1\AppData\Local\Temp\ccskN8Qo.s:3842   .text.ETH_HandlePTPRxPkt:0000000000000000 $x
C:\Users\LOCALH~1\AppData\Local\Temp\ccskN8Qo.s:3842   .text.ETH_HandlePTPRxPkt:0000000000000000 .L0 
C:\Users\LOCALH~1\AppData\Local\Temp\ccskN8Qo.s:3845   .text.ETH_HandlePTPRxPkt:000000000000000a .L0 
C:\Users\LOCALH~1\AppData\Local\Temp\ccskN8Qo.s:3847   .text.ETH_HandlePTPRxPkt:000000000000000c .L0 
C:\Users\LOCALH~1\AppData\Local\Temp\ccskN8Qo.s:3849   .text.ETH_HandlePTPRxPkt:000000000000000e .L0 
C:\Users\LOCALH~1\AppData\Local\Temp\ccskN8Qo.s:3851   .text.ETH_HandlePTPRxPkt:0000000000000012 .L0 
C:\Users\LOCALH~1\AppData\Local\Temp\ccskN8Qo.s:3852   .text.ETH_HandlePTPRxPkt:0000000000000012 .L0 
C:\Users\LOCALH~1\AppData\Local\Temp\ccskN8Qo.s:3854   .text.ETH_HandlePTPRxPkt:0000000000000014 .L0 
C:\Users\LOCALH~1\AppData\Local\Temp\ccskN8Qo.s:3858   .text.ETH_HandlePTPRxPkt:0000000000000018 .L0 
C:\Users\LOCALH~1\AppData\Local\Temp\ccskN8Qo.s:3860   .text.ETH_HandlePTPRxPkt:000000000000001a .L0 
C:\Users\LOCALH~1\AppData\Local\Temp\ccskN8Qo.s:3862   .text.ETH_HandlePTPRxPkt:000000000000001c .L0 
C:\Users\LOCALH~1\AppData\Local\Temp\ccskN8Qo.s:3864   .text.ETH_HandlePTPRxPkt:000000000000001e .L0 
C:\Users\LOCALH~1\AppData\Local\Temp\ccskN8Qo.s:3866   .text.ETH_HandlePTPRxPkt:0000000000000022 .L0 
C:\Users\LOCALH~1\AppData\Local\Temp\ccskN8Qo.s:3868   .text.ETH_HandlePTPRxPkt:0000000000000024 .L0 
C:\Users\LOCALH~1\AppData\Local\Temp\ccskN8Qo.s:3870   .text.ETH_HandlePTPRxPkt:0000000000000026 .L0 
C:\Users\LOCALH~1\AppData\Local\Temp\ccskN8Qo.s:3872   .text.ETH_HandlePTPRxPkt:000000000000002a .L0 
C:\Users\LOCALH~1\AppData\Local\Temp\ccskN8Qo.s:3874   .text.ETH_HandlePTPRxPkt:000000000000002c .L0 
C:\Users\LOCALH~1\AppData\Local\Temp\ccskN8Qo.s:3875   .text.ETH_HandlePTPRxPkt:000000000000002c .L0 
C:\Users\LOCALH~1\AppData\Local\Temp\ccskN8Qo.s:3877   .text.ETH_HandlePTPRxPkt:000000000000002e .L0 
C:\Users\LOCALH~1\AppData\Local\Temp\ccskN8Qo.s:3879   .text.ETH_HandlePTPRxPkt:0000000000000036 .L0 
C:\Users\LOCALH~1\AppData\Local\Temp\ccskN8Qo.s:3882   .text.ETH_HandlePTPRxPkt:000000000000003a .L0 
C:\Users\LOCALH~1\AppData\Local\Temp\ccskN8Qo.s:3886   .text.ETH_HandlePTPRxPkt:000000000000003e .L0 
C:\Users\LOCALH~1\AppData\Local\Temp\ccskN8Qo.s:3887   .text.ETH_HandlePTPRxPkt:000000000000003e .L0 
C:\Users\LOCALH~1\AppData\Local\Temp\ccskN8Qo.s:3891   .text.ETH_HandlePTPRxPkt:0000000000000042 .L0 
C:\Users\LOCALH~1\AppData\Local\Temp\ccskN8Qo.s:3892   .text.ETH_HandlePTPRxPkt:0000000000000042 .L0 
C:\Users\LOCALH~1\AppData\Local\Temp\ccskN8Qo.s:3895   .text.ETH_HandlePTPRxPkt:0000000000000048 .L0 
C:\Users\LOCALH~1\AppData\Local\Temp\ccskN8Qo.s:3897   .text.ETH_HandlePTPRxPkt:000000000000004c .L0 
C:\Users\LOCALH~1\AppData\Local\Temp\ccskN8Qo.s:3899   .text.ETH_HandlePTPRxPkt:000000000000004e .L0 
C:\Users\LOCALH~1\AppData\Local\Temp\ccskN8Qo.s:3900   .text.ETH_HandlePTPRxPkt:000000000000004e .L0 
C:\Users\LOCALH~1\AppData\Local\Temp\ccskN8Qo.s:3903   .text.ETH_HandlePTPRxPkt:0000000000000054 .L0 
C:\Users\LOCALH~1\AppData\Local\Temp\ccskN8Qo.s:3904   .text.ETH_HandlePTPRxPkt:0000000000000054 .L0 
C:\Users\LOCALH~1\AppData\Local\Temp\ccskN8Qo.s:3907   .text.ETH_HandlePTPRxPkt:0000000000000058 .L0 
C:\Users\LOCALH~1\AppData\Local\Temp\ccskN8Qo.s:3908   .text.ETH_HandlePTPRxPkt:0000000000000058 .L0 
C:\Users\LOCALH~1\AppData\Local\Temp\ccskN8Qo.s:3911   .text.ETH_HandlePTPRxPkt:000000000000005a .L0 
C:\Users\LOCALH~1\AppData\Local\Temp\ccskN8Qo.s:3914   .text.ETH_HandlePTPRxPkt:000000000000005e .L0 
C:\Users\LOCALH~1\AppData\Local\Temp\ccskN8Qo.s:3916   .text.ETH_HandlePTPRxPkt:0000000000000060 .L0 
C:\Users\LOCALH~1\AppData\Local\Temp\ccskN8Qo.s:3918   .text.ETH_HandlePTPRxPkt:0000000000000062 .L0 
C:\Users\LOCALH~1\AppData\Local\Temp\ccskN8Qo.s:3919   .text.ETH_HandlePTPRxPkt:0000000000000062 .L0 
C:\Users\LOCALH~1\AppData\Local\Temp\ccskN8Qo.s:3921   .text.ETH_HandlePTPRxPkt:0000000000000064 .L0 
C:\Users\LOCALH~1\AppData\Local\Temp\ccskN8Qo.s:3923   .text.ETH_HandlePTPRxPkt:0000000000000066 .L0 
C:\Users\LOCALH~1\AppData\Local\Temp\ccskN8Qo.s:3924   .text.ETH_HandlePTPRxPkt:0000000000000066 .L0 
C:\Users\LOCALH~1\AppData\Local\Temp\ccskN8Qo.s:3926   .text.ETH_HandlePTPRxPkt:0000000000000068 .L0 
C:\Users\LOCALH~1\AppData\Local\Temp\ccskN8Qo.s:3929   .text.ETH_HandlePTPRxPkt:000000000000006c .L0 
C:\Users\LOCALH~1\AppData\Local\Temp\ccskN8Qo.s:3930   .text.ETH_HandlePTPRxPkt:000000000000006c .L0 
C:\Users\LOCALH~1\AppData\Local\Temp\ccskN8Qo.s:3932   .text.ETH_HandlePTPRxPkt:000000000000006e .L0 
C:\Users\LOCALH~1\AppData\Local\Temp\ccskN8Qo.s:3935   .text.ETH_HandlePTPRxPkt:0000000000000072 .L0 
C:\Users\LOCALH~1\AppData\Local\Temp\ccskN8Qo.s:3937   .text.ETH_HandlePTPRxPkt:0000000000000074 .L0 
C:\Users\LOCALH~1\AppData\Local\Temp\ccskN8Qo.s:3938   .text.ETH_HandlePTPRxPkt:0000000000000074 .L0 
C:\Users\LOCALH~1\AppData\Local\Temp\ccskN8Qo.s:3941   .text.ETH_HandlePTPRxPkt:000000000000007e .L0 
C:\Users\LOCALH~1\AppData\Local\Temp\ccskN8Qo.s:3944   .text.ETH_HandlePTPRxPkt:0000000000000082 .L0 
C:\Users\LOCALH~1\AppData\Local\Temp\ccskN8Qo.s:3945   .text.ETH_HandlePTPRxPkt:0000000000000082 .L0 
C:\Users\LOCALH~1\AppData\Local\Temp\ccskN8Qo.s:3947   .text.ETH_HandlePTPRxPkt:0000000000000084 .L0 
C:\Users\LOCALH~1\AppData\Local\Temp\ccskN8Qo.s:3949   .text.ETH_HandlePTPRxPkt:0000000000000086 .L0 
C:\Users\LOCALH~1\AppData\Local\Temp\ccskN8Qo.s:3950   .text.ETH_HandlePTPRxPkt:0000000000000086 .L0 
C:\Users\LOCALH~1\AppData\Local\Temp\ccskN8Qo.s:3953   .text.ETH_HandlePTPRxPkt:0000000000000088 .L0 
C:\Users\LOCALH~1\AppData\Local\Temp\ccskN8Qo.s:3958   .text.ETH_HandlePTPRxPkt:000000000000008c .L0 
C:\Users\LOCALH~1\AppData\Local\Temp\ccskN8Qo.s:3959   .text.ETH_HandlePTPRxPkt:000000000000008c .L0 
C:\Users\LOCALH~1\AppData\Local\Temp\ccskN8Qo.s:3961   .text.ETH_HandlePTPRxPkt:0000000000000090 .L0 
C:\Users\LOCALH~1\AppData\Local\Temp\ccskN8Qo.s:3964   .text.ETH_HandlePTPRxPkt:0000000000000094 .L0 
C:\Users\LOCALH~1\AppData\Local\Temp\ccskN8Qo.s:3966   .text.ETH_HandlePTPRxPkt:0000000000000098 .L0 
C:\Users\LOCALH~1\AppData\Local\Temp\ccskN8Qo.s:3968   .text.ETH_HandlePTPRxPkt:000000000000009c .L0 
C:\Users\LOCALH~1\AppData\Local\Temp\ccskN8Qo.s:3971   .text.ETH_HandlePTPRxPkt:000000000000009e .L0 
C:\Users\LOCALH~1\AppData\Local\Temp\ccskN8Qo.s:3974   .text.ETH_HandlePTPRxPkt:00000000000000a2 .L0 
C:\Users\LOCALH~1\AppData\Local\Temp\ccskN8Qo.s:3978   .text.ETH_HandlePTPRxPkt:00000000000000a4 .L0 
C:\Users\LOCALH~1\AppData\Local\Temp\ccskN8Qo.s:3979   .text.ETH_HandlePTPRxPkt:00000000000000a4 .L0 
C:\Users\LOCALH~1\AppData\Local\Temp\ccskN8Qo.s:3983   .text.ETH_HandlePTPRxPkt:00000000000000a8 .L0 
C:\Users\LOCALH~1\AppData\Local\Temp\ccskN8Qo.s:3984   .text.ETH_HandlePTPRxPkt:00000000000000a8 .L0 
C:\Users\LOCALH~1\AppData\Local\Temp\ccskN8Qo.s:3987   .text.ETH_HandlePTPRxPkt:00000000000000ac .L0 
C:\Users\LOCALH~1\AppData\Local\Temp\ccskN8Qo.s:3989   .text.ETH_HandlePTPRxPkt:00000000000000ae .L0 
C:\Users\LOCALH~1\AppData\Local\Temp\ccskN8Qo.s:3990   .text.ETH_HandlePTPRxPkt:00000000000000ae .L0 
C:\Users\LOCALH~1\AppData\Local\Temp\ccskN8Qo.s:3994   .text.ETH_HandlePTPRxPkt:00000000000000b4 .L0 
C:\Users\LOCALH~1\AppData\Local\Temp\ccskN8Qo.s:3998   .text.ETH_HandlePTPRxPkt:00000000000000b8 .L0 
C:\Users\LOCALH~1\AppData\Local\Temp\ccskN8Qo.s:3999   .text.ETH_HandlePTPRxPkt:00000000000000b8 .L0 
C:\Users\LOCALH~1\AppData\Local\Temp\ccskN8Qo.s:4002   .text.ETH_HandlePTPRxPkt:00000000000000be .L0 
C:\Users\LOCALH~1\AppData\Local\Temp\ccskN8Qo.s:4004   .text.ETH_HandlePTPRxPkt:00000000000000c0 .L0 
C:\Users\LOCALH~1\AppData\Local\Temp\ccskN8Qo.s:4007   .text.ETH_HandlePTPRxPkt:00000000000000c4 .L0 
C:\Users\LOCALH~1\AppData\Local\Temp\ccskN8Qo.s:4012   .text.ETH_HandlePTPRxPkt:00000000000000c8 .L0 
C:\Users\LOCALH~1\AppData\Local\Temp\ccskN8Qo.s:4015   .text.ETH_HandlePTPRxPkt:00000000000000ca .L0 
C:\Users\LOCALH~1\AppData\Local\Temp\ccskN8Qo.s:4016   .text.ETH_HandlePTPRxPkt:00000000000000cc .L0 
C:\Users\LOCALH~1\AppData\Local\Temp\ccskN8Qo.s:4023   .text.RGMII_TXC_Delay:0000000000000000 RGMII_TXC_Delay
C:\Users\LOCALH~1\AppData\Local\Temp\ccskN8Qo.s:4026   .text.RGMII_TXC_Delay:0000000000000000 .L0 
C:\Users\LOCALH~1\AppData\Local\Temp\ccskN8Qo.s:4028   .text.RGMII_TXC_Delay:0000000000000000 .L0 
C:\Users\LOCALH~1\AppData\Local\Temp\ccskN8Qo.s:4029   .text.RGMII_TXC_Delay:0000000000000000 .L0 
C:\Users\LOCALH~1\AppData\Local\Temp\ccskN8Qo.s:4030   .text.RGMII_TXC_Delay:0000000000000000 $x
C:\Users\LOCALH~1\AppData\Local\Temp\ccskN8Qo.s:4030   .text.RGMII_TXC_Delay:0000000000000000 .L0 
C:\Users\LOCALH~1\AppData\Local\Temp\ccskN8Qo.s:4033   .text.RGMII_TXC_Delay:0000000000000006 .L0 
C:\Users\LOCALH~1\AppData\Local\Temp\ccskN8Qo.s:4035   .text.RGMII_TXC_Delay:0000000000000008 .L0 
C:\Users\LOCALH~1\AppData\Local\Temp\ccskN8Qo.s:4036   .text.RGMII_TXC_Delay:0000000000000008 .L0 
C:\Users\LOCALH~1\AppData\Local\Temp\ccskN8Qo.s:4039   .text.RGMII_TXC_Delay:000000000000000c .L0 
C:\Users\LOCALH~1\AppData\Local\Temp\ccskN8Qo.s:4041   .text.RGMII_TXC_Delay:000000000000000e .L0 
C:\Users\LOCALH~1\AppData\Local\Temp\ccskN8Qo.s:4042   .text.RGMII_TXC_Delay:000000000000000e .L0 
C:\Users\LOCALH~1\AppData\Local\Temp\ccskN8Qo.s:4045   .text.RGMII_TXC_Delay:0000000000000014 .L0 
C:\Users\LOCALH~1\AppData\Local\Temp\ccskN8Qo.s:4046   .text.RGMII_TXC_Delay:0000000000000014 .L0 
C:\Users\LOCALH~1\AppData\Local\Temp\ccskN8Qo.s:4049   .text.RGMII_TXC_Delay:000000000000001a .L0 
C:\Users\LOCALH~1\AppData\Local\Temp\ccskN8Qo.s:4052   .text.RGMII_TXC_Delay:000000000000001c .L0 
C:\Users\LOCALH~1\AppData\Local\Temp\ccskN8Qo.s:4056   .text.RGMII_TXC_Delay:0000000000000020 .L0 
C:\Users\LOCALH~1\AppData\Local\Temp\ccskN8Qo.s:4060   .text.RGMII_TXC_Delay:0000000000000022 .L0 
C:\Users\LOCALH~1\AppData\Local\Temp\ccskN8Qo.s:4061   .text.RGMII_TXC_Delay:0000000000000022 .L0 
C:\Users\LOCALH~1\AppData\Local\Temp\ccskN8Qo.s:4063   .text.RGMII_TXC_Delay:0000000000000026 .L0 
C:\Users\LOCALH~1\AppData\Local\Temp\ccskN8Qo.s:11145  .debug_line_str:0000000000000076 .L0 
C:\Users\LOCALH~1\AppData\Local\Temp\ccskN8Qo.s:11145  .debug_line_str:00000000000000cb .L0 
C:\Users\LOCALH~1\AppData\Local\Temp\ccskN8Qo.s:11145  .debug_line_str:00000000000000dd .L0 
C:\Users\LOCALH~1\AppData\Local\Temp\ccskN8Qo.s:11145  .debug_line_str:0000000000000139 .L0 
C:\Users\LOCALH~1\AppData\Local\Temp\ccskN8Qo.s:11145  .debug_line_str:0000000000000191 .L0 
C:\Users\LOCALH~1\AppData\Local\Temp\ccskN8Qo.s:11145  .debug_line_str:00000000000001e7 .L0 
C:\Users\LOCALH~1\AppData\Local\Temp\ccskN8Qo.s:11145  .debug_line_str:0000000000000247 .L0 
C:\Users\LOCALH~1\AppData\Local\Temp\ccskN8Qo.s:11145  .debug_line_str:0000000000000256 .L0 
C:\Users\LOCALH~1\AppData\Local\Temp\ccskN8Qo.s:11145  .debug_line_str:0000000000000265 .L0 
C:\Users\LOCALH~1\AppData\Local\Temp\ccskN8Qo.s:11145  .debug_line_str:0000000000000276 .L0 
C:\Users\LOCALH~1\AppData\Local\Temp\ccskN8Qo.s:11145  .debug_line_str:0000000000000280 .L0 
C:\Users\LOCALH~1\AppData\Local\Temp\ccskN8Qo.s:11145  .debug_line_str:000000000000028d .L0 
C:\Users\LOCALH~1\AppData\Local\Temp\ccskN8Qo.s:11145  .debug_line_str:0000000000000298 .L0 
C:\Users\LOCALH~1\AppData\Local\Temp\ccskN8Qo.s:11145  .debug_line_str:00000000000002a7 .L0 
C:\Users\LOCALH~1\AppData\Local\Temp\ccskN8Qo.s:39     .text.ETH_DeInit:0000000000000028 .L0 
C:\Users\LOCALH~1\AppData\Local\Temp\ccskN8Qo.s:204    .text.ETH_StructInit:00000000000000d0 .L0 
C:\Users\LOCALH~1\AppData\Local\Temp\ccskN8Qo.s:341    .text.ETH_HandleTxPkt:000000000000008a .L0 
C:\Users\LOCALH~1\AppData\Local\Temp\ccskN8Qo.s:495    .text.ETH_HandleRxPkt:000000000000009a .L0 
C:\Users\LOCALH~1\AppData\Local\Temp\ccskN8Qo.s:551    .text.ETH_GetRxPktSize:0000000000000030 .L0 
C:\Users\LOCALH~1\AppData\Local\Temp\ccskN8Qo.s:612    .text.ETH_DropRxPkt:000000000000003c .L0 
C:\Users\LOCALH~1\AppData\Local\Temp\ccskN8Qo.s:719    .text.ETH_ReadPHYRegister:0000000000000058 .L0 
C:\Users\LOCALH~1\AppData\Local\Temp\ccskN8Qo.s:819    .text.ETH_WritePHYRegister:0000000000000052 .L0 
C:\Users\LOCALH~1\AppData\Local\Temp\ccskN8Qo.s:884    .text.ETH_PHYLoopBackCmd:0000000000000044 .L0 
C:\Users\LOCALH~1\AppData\Local\Temp\ccskN8Qo.s:925    .text.ETH_MACTransmissionCmd:0000000000000014 .L0 
C:\Users\LOCALH~1\AppData\Local\Temp\ccskN8Qo.s:966    .text.ETH_MACReceptionCmd:0000000000000014 .L0 
C:\Users\LOCALH~1\AppData\Local\Temp\ccskN8Qo.s:989    .text.ETH_GetFlowControlBusyStatus:000000000000000a .L0 
C:\Users\LOCALH~1\AppData\Local\Temp\ccskN8Qo.s:1009   .text.ETH_InitiatePauseControlFrame:000000000000000e .L0 
C:\Users\LOCALH~1\AppData\Local\Temp\ccskN8Qo.s:1040   .text.ETH_BackPressureActivationCmd:0000000000000014 .L0 
C:\Users\LOCALH~1\AppData\Local\Temp\ccskN8Qo.s:1065   .text.ETH_GetMACFlagStatus:000000000000000e .L0 
C:\Users\LOCALH~1\AppData\Local\Temp\ccskN8Qo.s:1077   .text.ETH_GetMACITStatus:0000000000000008 .L0 
C:\Users\LOCALH~1\AppData\Local\Temp\ccskN8Qo.s:1115   .text.ETH_MACITConfig:000000000000001e .L0 
C:\Users\LOCALH~1\AppData\Local\Temp\ccskN8Qo.s:1171   .text.ETH_MACAddressConfig:0000000000000032 .L0 
C:\Users\LOCALH~1\AppData\Local\Temp\ccskN8Qo.s:1228   .text.ETH_GetMACAddress:0000000000000032 .L0 
C:\Users\LOCALH~1\AppData\Local\Temp\ccskN8Qo.s:1264   .text.ETH_MACAddressPerfectFilterCmd:000000000000001e .L0 
C:\Users\LOCALH~1\AppData\Local\Temp\ccskN8Qo.s:1305   .text.ETH_MACAddressFilterConfig:0000000000000028 .L0 
C:\Users\LOCALH~1\AppData\Local\Temp\ccskN8Qo.s:1337   .text.ETH_MACAddressMaskBytesFilterConfig:000000000000001e .L0 
C:\Users\LOCALH~1\AppData\Local\Temp\ccskN8Qo.s:1403   .text.ETH_DMATxDescChainInit:0000000000000046 .L0 
C:\Users\LOCALH~1\AppData\Local\Temp\ccskN8Qo.s:1467   .text.ETH_DMATxDescRingInit:0000000000000044 .L0 
C:\Users\LOCALH~1\AppData\Local\Temp\ccskN8Qo.s:1491   .text.ETH_GetDMATxDescFlagStatus:000000000000000a .L0 
C:\Users\LOCALH~1\AppData\Local\Temp\ccskN8Qo.s:1512   .text.ETH_GetDMATxDescCollisionCount:0000000000000008 .L0 
C:\Users\LOCALH~1\AppData\Local\Temp\ccskN8Qo.s:1533   .text.ETH_SetDMATxDescOwnBit:000000000000000c .L0 
C:\Users\LOCALH~1\AppData\Local\Temp\ccskN8Qo.s:1566   .text.ETH_DMATxDescTransmitITConfig:0000000000000018 .L0 
C:\Users\LOCALH~1\AppData\Local\Temp\ccskN8Qo.s:1586   .text.ETH_DMATxDescFrameSegmentConfig:0000000000000008 .L0 
C:\Users\LOCALH~1\AppData\Local\Temp\ccskN8Qo.s:1601   .text.ETH_DMATxDescChecksumInsertionConfig:0000000000000008 .L0 
C:\Users\LOCALH~1\AppData\Local\Temp\ccskN8Qo.s:1634   .text.ETH_DMATxDescCRCCmd:0000000000000018 .L0 
C:\Users\LOCALH~1\AppData\Local\Temp\ccskN8Qo.s:1667   .text.ETH_DMATxDescEndOfRingCmd:0000000000000018 .L0 
C:\Users\LOCALH~1\AppData\Local\Temp\ccskN8Qo.s:1700   .text.ETH_DMATxDescSecondAddressChainedCmd:0000000000000018 .L0 
C:\Users\LOCALH~1\AppData\Local\Temp\ccskN8Qo.s:1733   .text.ETH_DMATxDescShortFramePaddingCmd:0000000000000018 .L0 
C:\Users\LOCALH~1\AppData\Local\Temp\ccskN8Qo.s:1766   .text.ETH_DMATxDescTimeStampCmd:0000000000000018 .L0 
C:\Users\LOCALH~1\AppData\Local\Temp\ccskN8Qo.s:1791   .text.ETH_DMATxDescBufferSizeConfig:000000000000000c .L0 
C:\Users\LOCALH~1\AppData\Local\Temp\ccskN8Qo.s:1864   .text.ETH_DMARxDescChainInit:0000000000000050 .L0 
C:\Users\LOCALH~1\AppData\Local\Temp\ccskN8Qo.s:1937   .text.ETH_DMARxDescRingInit:0000000000000054 .L0 
C:\Users\LOCALH~1\AppData\Local\Temp\ccskN8Qo.s:1952   .text.ETH_GetDMARxDescFlagStatus:000000000000000c .L0 
C:\Users\LOCALH~1\AppData\Local\Temp\ccskN8Qo.s:1968   .text.ETH_SetDMARxDescOwnBit:000000000000000c .L0 
C:\Users\LOCALH~1\AppData\Local\Temp\ccskN8Qo.s:1989   .text.ETH_GetDMARxDescFrameLength:0000000000000008 .L0 
C:\Users\LOCALH~1\AppData\Local\Temp\ccskN8Qo.s:2020   .text.ETH_DMARxDescReceiveITConfig:0000000000000014 .L0 
C:\Users\LOCALH~1\AppData\Local\Temp\ccskN8Qo.s:2052   .text.ETH_DMARxDescEndOfRingCmd:0000000000000014 .L0 
C:\Users\LOCALH~1\AppData\Local\Temp\ccskN8Qo.s:2084   .text.ETH_DMARxDescSecondAddressChainedCmd:0000000000000014 .L0 
C:\Users\LOCALH~1\AppData\Local\Temp\ccskN8Qo.s:2113   .text.ETH_GetDMARxDescBufferSize:000000000000000e .L0 
C:\Users\LOCALH~1\AppData\Local\Temp\ccskN8Qo.s:2133   .text.ETH_SoftwareReset:000000000000000e .L0 
C:\Users\LOCALH~1\AppData\Local\Temp\ccskN8Qo.s:2156   .text.ETH_GetSoftwareResetStatus:000000000000000a .L0 
C:\Users\LOCALH~1\AppData\Local\Temp\ccskN8Qo.s:2179   .text.ETH_GetlinkStaus:000000000000000a .L0 
C:\Users\LOCALH~1\AppData\Local\Temp\ccskN8Qo.s:2204   .text.ETH_GetDMAFlagStatus:000000000000000e .L0 
C:\Users\LOCALH~1\AppData\Local\Temp\ccskN8Qo.s:2222   .text.ETH_DMAClearFlag:0000000000000008 .L0 
C:\Users\LOCALH~1\AppData\Local\Temp\ccskN8Qo.s:2234   .text.ETH_GetDMAITStatus:0000000000000008 .L0 
C:\Users\LOCALH~1\AppData\Local\Temp\ccskN8Qo.s:2248   .text.ETH_DMAClearITPendingBit:0000000000000008 .L0 
C:\Users\LOCALH~1\AppData\Local\Temp\ccskN8Qo.s:2266   .text.ETH_GetTransmitProcessState:000000000000000a .L0 
C:\Users\LOCALH~1\AppData\Local\Temp\ccskN8Qo.s:2284   .text.ETH_GetReceiveProcessState:000000000000000c .L0 
C:\Users\LOCALH~1\AppData\Local\Temp\ccskN8Qo.s:2305   .text.ETH_FlushTransmitFIFO:0000000000000010 .L0 
C:\Users\LOCALH~1\AppData\Local\Temp\ccskN8Qo.s:2405   .text.ETH_Start:0000000000000040 .L0 
C:\Users\LOCALH~1\AppData\Local\Temp\ccskN8Qo.s:2430   .text.ETH_GetFlushTransmitFIFOStatus:000000000000000c .L0 
C:\Users\LOCALH~1\AppData\Local\Temp\ccskN8Qo.s:2473   .text.ETH_DMATransmissionCmd:0000000000000020 .L0 
C:\Users\LOCALH~1\AppData\Local\Temp\ccskN8Qo.s:2514   .text.ETH_DMAReceptionCmd:0000000000000014 .L0 
C:\Users\LOCALH~1\AppData\Local\Temp\ccskN8Qo.s:2551   .text.ETH_DMAITConfig:000000000000001e .L0 
C:\Users\LOCALH~1\AppData\Local\Temp\ccskN8Qo.s:2576   .text.ETH_GetDMAOverflowStatus:000000000000000e .L0 
C:\Users\LOCALH~1\AppData\Local\Temp\ccskN8Qo.s:2596   .text.ETH_GetRxOverflowMissedFrameCounter:000000000000000e .L0 
C:\Users\LOCALH~1\AppData\Local\Temp\ccskN8Qo.s:2615   .text.ETH_GetBufferUnavailableMissedFrameCounter:000000000000000c .L0 
C:\Users\LOCALH~1\AppData\Local\Temp\ccskN8Qo.s:2632   .text.ETH_GetCurrentTxDescStartAddress:0000000000000008 .L0 
C:\Users\LOCALH~1\AppData\Local\Temp\ccskN8Qo.s:2649   .text.ETH_GetCurrentRxDescStartAddress:0000000000000008 .L0 
C:\Users\LOCALH~1\AppData\Local\Temp\ccskN8Qo.s:2666   .text.ETH_GetCurrentTxBufferAddress:000000000000000c .L0 
C:\Users\LOCALH~1\AppData\Local\Temp\ccskN8Qo.s:2683   .text.ETH_GetCurrentRxBufferAddress:0000000000000008 .L0 
C:\Users\LOCALH~1\AppData\Local\Temp\ccskN8Qo.s:2700   .text.ETH_ResumeDMATransmission:000000000000000a .L0 
C:\Users\LOCALH~1\AppData\Local\Temp\ccskN8Qo.s:2717   .text.ETH_ResumeDMAReception:000000000000000a .L0 
C:\Users\LOCALH~1\AppData\Local\Temp\ccskN8Qo.s:2738   .text.ETH_ResetWakeUpFrameFilterRegisterPointer:0000000000000010 .L0 
C:\Users\LOCALH~1\AppData\Local\Temp\ccskN8Qo.s:2770   .text.ETH_SetWakeUpFrameFilterRegister:0000000000000014 .L0 
C:\Users\LOCALH~1\AppData\Local\Temp\ccskN8Qo.s:2801   .text.ETH_GlobalUnicastWakeUpCmd:0000000000000016 .L0 
C:\Users\LOCALH~1\AppData\Local\Temp\ccskN8Qo.s:2826   .text.ETH_GetPMTFlagStatus:000000000000000e .L0 
C:\Users\LOCALH~1\AppData\Local\Temp\ccskN8Qo.s:2857   .text.ETH_WakeUpFrameDetectionCmd:0000000000000014 .L0 
C:\Users\LOCALH~1\AppData\Local\Temp\ccskN8Qo.s:2888   .text.ETH_MagicPacketDetectionCmd:0000000000000014 .L0 
C:\Users\LOCALH~1\AppData\Local\Temp\ccskN8Qo.s:2919   .text.ETH_PowerDownCmd:0000000000000014 .L0 
C:\Users\LOCALH~1\AppData\Local\Temp\ccskN8Qo.s:2950   .text.ETH_MMCCounterFreezeCmd:0000000000000018 .L0 
C:\Users\LOCALH~1\AppData\Local\Temp\ccskN8Qo.s:2981   .text.ETH_MMCResetOnReadCmd:0000000000000018 .L0 
C:\Users\LOCALH~1\AppData\Local\Temp\ccskN8Qo.s:3012   .text.ETH_MMCCounterRolloverCmd:0000000000000018 .L0 
C:\Users\LOCALH~1\AppData\Local\Temp\ccskN8Qo.s:3032   .text.ETH_MMCCountersReset:0000000000000012 .L0 
C:\Users\LOCALH~1\AppData\Local\Temp\ccskN8Qo.s:3108   .text.ETH_MMCITConfig:000000000000005c .L0 
C:\Users\LOCALH~1\AppData\Local\Temp\ccskN8Qo.s:3157   .text.ETH_GetMMCITStatus:000000000000002c .L0 
C:\Users\LOCALH~1\AppData\Local\Temp\ccskN8Qo.s:3179   .text.ETH_GetMMCRegister:000000000000000a .L0 
C:\Users\LOCALH~1\AppData\Local\Temp\ccskN8Qo.s:3199   .text.ETH_EnablePTPTimeStampAddend:0000000000000012 .L0 
C:\Users\LOCALH~1\AppData\Local\Temp\ccskN8Qo.s:3219   .text.ETH_EnablePTPTimeStampInterruptTrigger:0000000000000012 .L0 
C:\Users\LOCALH~1\AppData\Local\Temp\ccskN8Qo.s:3239   .text.ETH_EnablePTPTimeStampUpdate:0000000000000012 .L0 
C:\Users\LOCALH~1\AppData\Local\Temp\ccskN8Qo.s:3259   .text.ETH_InitializePTPTimeStamp:0000000000000012 .L0 
C:\Users\LOCALH~1\AppData\Local\Temp\ccskN8Qo.s:3290   .text.ETH_PTPUpdateMethodConfig:0000000000000018 .L0 
C:\Users\LOCALH~1\AppData\Local\Temp\ccskN8Qo.s:3321   .text.ETH_PTPTimeStampCmd:0000000000000018 .L0 
C:\Users\LOCALH~1\AppData\Local\Temp\ccskN8Qo.s:3346   .text.ETH_GetPTPFlagStatus:0000000000000010 .L0 
C:\Users\LOCALH~1\AppData\Local\Temp\ccskN8Qo.s:3364   .text.ETH_SetPTPSubSecondIncrement:000000000000000a .L0 
C:\Users\LOCALH~1\AppData\Local\Temp\ccskN8Qo.s:3388   .text.ETH_SetPTPTimeStampUpdate:0000000000000010 .L0 
C:\Users\LOCALH~1\AppData\Local\Temp\ccskN8Qo.s:3406   .text.ETH_SetPTPTimeStampAddend:000000000000000a .L0 
C:\Users\LOCALH~1\AppData\Local\Temp\ccskN8Qo.s:3427   .text.ETH_SetPTPTargetTime:000000000000000e .L0 
C:\Users\LOCALH~1\AppData\Local\Temp\ccskN8Qo.s:3442   .text.ETH_GetPTPRegister:000000000000000a .L0 
C:\Users\LOCALH~1\AppData\Local\Temp\ccskN8Qo.s:3527   .text.ETH_DMAPTPTxDescChainInit:0000000000000066 .L0 
C:\Users\LOCALH~1\AppData\Local\Temp\ccskN8Qo.s:3618   .text.ETH_DMAPTPRxDescChainInit:0000000000000070 .L0 
C:\Users\LOCALH~1\AppData\Local\Temp\ccskN8Qo.s:3830   .text.ETH_HandlePTPTxPkt:00000000000000e8 .L0 
C:\Users\LOCALH~1\AppData\Local\Temp\ccskN8Qo.s:4019   .text.ETH_HandlePTPRxPkt:00000000000000cc .L0 
C:\Users\LOCALH~1\AppData\Local\Temp\ccskN8Qo.s:4067   .text.RGMII_TXC_Delay:0000000000000026 .L0 
                     .debug_frame:0000000000000000 .L0 
C:\Users\LOCALH~1\AppData\Local\Temp\ccskN8Qo.s:216    .text.ETH_HandleTxPkt:0000000000000000 .L0 
C:\Users\LOCALH~1\AppData\Local\Temp\ccskN8Qo.s:245    .text.ETH_HandleTxPkt:0000000000000024 .L6
C:\Users\LOCALH~1\AppData\Local\Temp\ccskN8Qo.s:230    .text.ETH_HandleTxPkt:0000000000000016 .L7
C:\Users\LOCALH~1\AppData\Local\Temp\ccskN8Qo.s:291    .text.ETH_HandleTxPkt:0000000000000056 .L8
C:\Users\LOCALH~1\AppData\Local\Temp\ccskN8Qo.s:311    .text.ETH_HandleTxPkt:0000000000000068 .L9
C:\Users\LOCALH~1\AppData\Local\Temp\ccskN8Qo.s:325    .text.ETH_HandleTxPkt:000000000000007a .L10
C:\Users\LOCALH~1\AppData\Local\Temp\ccskN8Qo.s:303    .text.ETH_HandleTxPkt:0000000000000062 .L11
C:\Users\LOCALH~1\AppData\Local\Temp\ccskN8Qo.s:353    .text.ETH_HandleRxPkt:0000000000000000 .L0 
C:\Users\LOCALH~1\AppData\Local\Temp\ccskN8Qo.s:486    .text.ETH_HandleRxPkt:0000000000000096 .L25
C:\Users\LOCALH~1\AppData\Local\Temp\ccskN8Qo.s:402    .text.ETH_HandleRxPkt:000000000000003c .L18
C:\Users\LOCALH~1\AppData\Local\Temp\ccskN8Qo.s:442    .text.ETH_HandleRxPkt:0000000000000068 .L20
C:\Users\LOCALH~1\AppData\Local\Temp\ccskN8Qo.s:425    .text.ETH_HandleRxPkt:000000000000005a .L21
C:\Users\LOCALH~1\AppData\Local\Temp\ccskN8Qo.s:460    .text.ETH_HandleRxPkt:0000000000000078 .L22
C:\Users\LOCALH~1\AppData\Local\Temp\ccskN8Qo.s:395    .text.ETH_HandleRxPkt:0000000000000036 .L19
C:\Users\LOCALH~1\AppData\Local\Temp\ccskN8Qo.s:472    .text.ETH_HandleRxPkt:0000000000000086 .L23
C:\Users\LOCALH~1\AppData\Local\Temp\ccskN8Qo.s:437    .text.ETH_HandleRxPkt:0000000000000064 .L24
C:\Users\LOCALH~1\AppData\Local\Temp\ccskN8Qo.s:507    .text.ETH_GetRxPktSize:0000000000000000 .L0 
C:\Users\LOCALH~1\AppData\Local\Temp\ccskN8Qo.s:543    .text.ETH_GetRxPktSize:000000000000002e .L36
C:\Users\LOCALH~1\AppData\Local\Temp\ccskN8Qo.s:561    .text.ETH_DropRxPkt:0000000000000000 .L0 
C:\Users\LOCALH~1\AppData\Local\Temp\ccskN8Qo.s:584    .text.ETH_DropRxPkt:000000000000001e .L47
C:\Users\LOCALH~1\AppData\Local\Temp\ccskN8Qo.s:596    .text.ETH_DropRxPkt:000000000000002c .L49
C:\Users\LOCALH~1\AppData\Local\Temp\ccskN8Qo.s:579    .text.ETH_DropRxPkt:000000000000001a .L48
C:\Users\LOCALH~1\AppData\Local\Temp\ccskN8Qo.s:693    .text.ETH_ReadPHYRegister:000000000000003c .L51
C:\Users\LOCALH~1\AppData\Local\Temp\ccskN8Qo.s:672    .text.ETH_ReadPHYRegister:000000000000002a .L52
C:\Users\LOCALH~1\AppData\Local\Temp\ccskN8Qo.s:711    .text.ETH_ReadPHYRegister:0000000000000054 .L53
C:\Users\LOCALH~1\AppData\Local\Temp\ccskN8Qo.s:805    .text.ETH_WritePHYRegister:0000000000000042 .L61
C:\Users\LOCALH~1\AppData\Local\Temp\ccskN8Qo.s:784    .text.ETH_WritePHYRegister:0000000000000030 .L62
C:\Users\LOCALH~1\AppData\Local\Temp\ccskN8Qo.s:873    .text.ETH_PHYLoopBackCmd:000000000000003a .L69
C:\Users\LOCALH~1\AppData\Local\Temp\ccskN8Qo.s:853    .text.ETH_PHYLoopBackCmd:000000000000001e .L72
C:\Users\LOCALH~1\AppData\Local\Temp\ccskN8Qo.s:917    .text.ETH_MACTransmissionCmd:0000000000000010 .L74
C:\Users\LOCALH~1\AppData\Local\Temp\ccskN8Qo.s:910    .text.ETH_MACTransmissionCmd:000000000000000c .L76
C:\Users\LOCALH~1\AppData\Local\Temp\ccskN8Qo.s:958    .text.ETH_MACReceptionCmd:0000000000000010 .L78
C:\Users\LOCALH~1\AppData\Local\Temp\ccskN8Qo.s:951    .text.ETH_MACReceptionCmd:000000000000000c .L80
C:\Users\LOCALH~1\AppData\Local\Temp\ccskN8Qo.s:1032   .text.ETH_BackPressureActivationCmd:0000000000000010 .L84
C:\Users\LOCALH~1\AppData\Local\Temp\ccskN8Qo.s:1027   .text.ETH_BackPressureActivationCmd:000000000000000c .L86
C:\Users\LOCALH~1\AppData\Local\Temp\ccskN8Qo.s:1102   .text.ETH_MACITConfig:0000000000000012 .L91
C:\Users\LOCALH~1\AppData\Local\Temp\ccskN8Qo.s:1255   .text.ETH_MACAddressPerfectFilterCmd:0000000000000018 .L96
C:\Users\LOCALH~1\AppData\Local\Temp\ccskN8Qo.s:1250   .text.ETH_MACAddressPerfectFilterCmd:0000000000000014 .L98
C:\Users\LOCALH~1\AppData\Local\Temp\ccskN8Qo.s:1293   .text.ETH_MACAddressFilterConfig:000000000000001c .L100
C:\Users\LOCALH~1\AppData\Local\Temp\ccskN8Qo.s:1288   .text.ETH_MACAddressFilterConfig:0000000000000018 .L102
C:\Users\LOCALH~1\AppData\Local\Temp\ccskN8Qo.s:1350   .text.ETH_DMATxDescChainInit:0000000000000000 .L0 
C:\Users\LOCALH~1\AppData\Local\Temp\ccskN8Qo.s:1372   .text.ETH_DMATxDescChainInit:0000000000000024 .L107
C:\Users\LOCALH~1\AppData\Local\Temp\ccskN8Qo.s:1391   .text.ETH_DMATxDescChainInit:000000000000003c .L106
C:\Users\LOCALH~1\AppData\Local\Temp\ccskN8Qo.s:1361   .text.ETH_DMATxDescChainInit:0000000000000018 .L105
C:\Users\LOCALH~1\AppData\Local\Temp\ccskN8Qo.s:1416   .text.ETH_DMATxDescRingInit:0000000000000000 .L0 
C:\Users\LOCALH~1\AppData\Local\Temp\ccskN8Qo.s:1438   .text.ETH_DMATxDescRingInit:0000000000000024 .L112
C:\Users\LOCALH~1\AppData\Local\Temp\ccskN8Qo.s:1457   .text.ETH_DMATxDescRingInit:000000000000003e .L111
C:\Users\LOCALH~1\AppData\Local\Temp\ccskN8Qo.s:1427   .text.ETH_DMATxDescRingInit:0000000000000018 .L110
C:\Users\LOCALH~1\AppData\Local\Temp\ccskN8Qo.s:1556   .text.ETH_DMATxDescTransmitITConfig:000000000000000e .L117
C:\Users\LOCALH~1\AppData\Local\Temp\ccskN8Qo.s:1551   .text.ETH_DMATxDescTransmitITConfig:000000000000000a .L119
C:\Users\LOCALH~1\AppData\Local\Temp\ccskN8Qo.s:1625   .text.ETH_DMATxDescCRCCmd:0000000000000010 .L123
C:\Users\LOCALH~1\AppData\Local\Temp\ccskN8Qo.s:1620   .text.ETH_DMATxDescCRCCmd:000000000000000c .L125
C:\Users\LOCALH~1\AppData\Local\Temp\ccskN8Qo.s:1657   .text.ETH_DMATxDescEndOfRingCmd:000000000000000e .L127
C:\Users\LOCALH~1\AppData\Local\Temp\ccskN8Qo.s:1652   .text.ETH_DMATxDescEndOfRingCmd:000000000000000a .L129
C:\Users\LOCALH~1\AppData\Local\Temp\ccskN8Qo.s:1690   .text.ETH_DMATxDescSecondAddressChainedCmd:000000000000000e .L131
C:\Users\LOCALH~1\AppData\Local\Temp\ccskN8Qo.s:1685   .text.ETH_DMATxDescSecondAddressChainedCmd:000000000000000a .L133
C:\Users\LOCALH~1\AppData\Local\Temp\ccskN8Qo.s:1724   .text.ETH_DMATxDescShortFramePaddingCmd:0000000000000010 .L135
C:\Users\LOCALH~1\AppData\Local\Temp\ccskN8Qo.s:1719   .text.ETH_DMATxDescShortFramePaddingCmd:000000000000000c .L137
C:\Users\LOCALH~1\AppData\Local\Temp\ccskN8Qo.s:1756   .text.ETH_DMATxDescTimeStampCmd:000000000000000e .L139
C:\Users\LOCALH~1\AppData\Local\Temp\ccskN8Qo.s:1751   .text.ETH_DMATxDescTimeStampCmd:000000000000000a .L141
C:\Users\LOCALH~1\AppData\Local\Temp\ccskN8Qo.s:1804   .text.ETH_DMARxDescChainInit:0000000000000000 .L0 
C:\Users\LOCALH~1\AppData\Local\Temp\ccskN8Qo.s:1829   .text.ETH_DMARxDescChainInit:000000000000002a .L146
C:\Users\LOCALH~1\AppData\Local\Temp\ccskN8Qo.s:1852   .text.ETH_DMARxDescChainInit:0000000000000046 .L145
C:\Users\LOCALH~1\AppData\Local\Temp\ccskN8Qo.s:1820   .text.ETH_DMARxDescChainInit:000000000000001e .L144
C:\Users\LOCALH~1\AppData\Local\Temp\ccskN8Qo.s:1877   .text.ETH_DMARxDescRingInit:0000000000000000 .L0 
C:\Users\LOCALH~1\AppData\Local\Temp\ccskN8Qo.s:1902   .text.ETH_DMARxDescRingInit:000000000000002a .L151
C:\Users\LOCALH~1\AppData\Local\Temp\ccskN8Qo.s:1926   .text.ETH_DMARxDescRingInit:000000000000004a .L150
C:\Users\LOCALH~1\AppData\Local\Temp\ccskN8Qo.s:1893   .text.ETH_DMARxDescRingInit:000000000000001e .L149
C:\Users\LOCALH~1\AppData\Local\Temp\ccskN8Qo.s:2011   .text.ETH_DMARxDescReceiveITConfig:000000000000000c .L157
C:\Users\LOCALH~1\AppData\Local\Temp\ccskN8Qo.s:2007   .text.ETH_DMARxDescReceiveITConfig:0000000000000008 .L158
C:\Users\LOCALH~1\AppData\Local\Temp\ccskN8Qo.s:2042   .text.ETH_DMARxDescEndOfRingCmd:000000000000000c .L160
C:\Users\LOCALH~1\AppData\Local\Temp\ccskN8Qo.s:2038   .text.ETH_DMARxDescEndOfRingCmd:0000000000000008 .L161
C:\Users\LOCALH~1\AppData\Local\Temp\ccskN8Qo.s:2074   .text.ETH_DMARxDescSecondAddressChainedCmd:000000000000000c .L163
C:\Users\LOCALH~1\AppData\Local\Temp\ccskN8Qo.s:2070   .text.ETH_DMARxDescSecondAddressChainedCmd:0000000000000008 .L164
C:\Users\LOCALH~1\AppData\Local\Temp\ccskN8Qo.s:2104   .text.ETH_GetDMARxDescBufferSize:000000000000000a .L166
C:\Users\LOCALH~1\AppData\Local\Temp\ccskN8Qo.s:2456   .text.ETH_DMATransmissionCmd:0000000000000010 .L183
C:\Users\LOCALH~1\AppData\Local\Temp\ccskN8Qo.s:2506   .text.ETH_DMAReceptionCmd:0000000000000010 .L186
C:\Users\LOCALH~1\AppData\Local\Temp\ccskN8Qo.s:2499   .text.ETH_DMAReceptionCmd:000000000000000c .L188
C:\Users\LOCALH~1\AppData\Local\Temp\ccskN8Qo.s:2534   .text.ETH_DMAITConfig:000000000000000e .L190
C:\Users\LOCALH~1\AppData\Local\Temp\ccskN8Qo.s:2659   .text.ETH_GetCurrentTxBufferAddress:0000000000000000 .L0 
C:\Users\LOCALH~1\AppData\Local\Temp\ccskN8Qo.s:2754   .text.ETH_SetWakeUpFrameFilterRegister:0000000000000008 .L203
C:\Users\LOCALH~1\AppData\Local\Temp\ccskN8Qo.s:2793   .text.ETH_GlobalUnicastWakeUpCmd:0000000000000010 .L206
C:\Users\LOCALH~1\AppData\Local\Temp\ccskN8Qo.s:2788   .text.ETH_GlobalUnicastWakeUpCmd:000000000000000c .L208
C:\Users\LOCALH~1\AppData\Local\Temp\ccskN8Qo.s:2849   .text.ETH_WakeUpFrameDetectionCmd:0000000000000010 .L211
C:\Users\LOCALH~1\AppData\Local\Temp\ccskN8Qo.s:2844   .text.ETH_WakeUpFrameDetectionCmd:000000000000000c .L213
C:\Users\LOCALH~1\AppData\Local\Temp\ccskN8Qo.s:2880   .text.ETH_MagicPacketDetectionCmd:0000000000000010 .L215
C:\Users\LOCALH~1\AppData\Local\Temp\ccskN8Qo.s:2875   .text.ETH_MagicPacketDetectionCmd:000000000000000c .L217
C:\Users\LOCALH~1\AppData\Local\Temp\ccskN8Qo.s:2911   .text.ETH_PowerDownCmd:0000000000000010 .L219
C:\Users\LOCALH~1\AppData\Local\Temp\ccskN8Qo.s:2906   .text.ETH_PowerDownCmd:000000000000000c .L221
C:\Users\LOCALH~1\AppData\Local\Temp\ccskN8Qo.s:2942   .text.ETH_MMCCounterFreezeCmd:0000000000000014 .L223
C:\Users\LOCALH~1\AppData\Local\Temp\ccskN8Qo.s:2937   .text.ETH_MMCCounterFreezeCmd:000000000000000e .L225
C:\Users\LOCALH~1\AppData\Local\Temp\ccskN8Qo.s:2973   .text.ETH_MMCResetOnReadCmd:0000000000000014 .L227
C:\Users\LOCALH~1\AppData\Local\Temp\ccskN8Qo.s:2968   .text.ETH_MMCResetOnReadCmd:000000000000000e .L229
C:\Users\LOCALH~1\AppData\Local\Temp\ccskN8Qo.s:3004   .text.ETH_MMCCounterRolloverCmd:0000000000000012 .L231
C:\Users\LOCALH~1\AppData\Local\Temp\ccskN8Qo.s:2999   .text.ETH_MMCCounterRolloverCmd:000000000000000c .L233
C:\Users\LOCALH~1\AppData\Local\Temp\ccskN8Qo.s:3078   .text.ETH_MMCITConfig:0000000000000036 .L236
C:\Users\LOCALH~1\AppData\Local\Temp\ccskN8Qo.s:3069   .text.ETH_MMCITConfig:0000000000000026 .L237
C:\Users\LOCALH~1\AppData\Local\Temp\ccskN8Qo.s:3095   .text.ETH_MMCITConfig:000000000000004c .L239
C:\Users\LOCALH~1\AppData\Local\Temp\ccskN8Qo.s:3149   .text.ETH_GetMMCITStatus:0000000000000026 .L241
C:\Users\LOCALH~1\AppData\Local\Temp\ccskN8Qo.s:3145   .text.ETH_GetMMCITStatus:0000000000000024 .L240
C:\Users\LOCALH~1\AppData\Local\Temp\ccskN8Qo.s:3131   .text.ETH_GetMMCITStatus:0000000000000012 .L251
C:\Users\LOCALH~1\AppData\Local\Temp\ccskN8Qo.s:3282   .text.ETH_PTPUpdateMethodConfig:0000000000000014 .L258
C:\Users\LOCALH~1\AppData\Local\Temp\ccskN8Qo.s:3277   .text.ETH_PTPUpdateMethodConfig:000000000000000e .L260
C:\Users\LOCALH~1\AppData\Local\Temp\ccskN8Qo.s:3313   .text.ETH_PTPTimeStampCmd:0000000000000014 .L262
C:\Users\LOCALH~1\AppData\Local\Temp\ccskN8Qo.s:3308   .text.ETH_PTPTimeStampCmd:000000000000000e .L264
C:\Users\LOCALH~1\AppData\Local\Temp\ccskN8Qo.s:3455   .text.ETH_DMAPTPTxDescChainInit:0000000000000000 .L0 
C:\Users\LOCALH~1\AppData\Local\Temp\ccskN8Qo.s:3458   .text.ETH_DMAPTPTxDescChainInit:0000000000000008 .L0 
C:\Users\LOCALH~1\AppData\Local\Temp\ccskN8Qo.s:3488   .text.ETH_DMAPTPTxDescChainInit:0000000000000038 .L274
C:\Users\LOCALH~1\AppData\Local\Temp\ccskN8Qo.s:3508   .text.ETH_DMAPTPTxDescChainInit:0000000000000052 .L273
C:\Users\LOCALH~1\AppData\Local\Temp\ccskN8Qo.s:3469   .text.ETH_DMAPTPTxDescChainInit:0000000000000024 .L272
C:\Users\LOCALH~1\AppData\Local\Temp\ccskN8Qo.s:3540   .text.ETH_DMAPTPRxDescChainInit:0000000000000000 .L0 
C:\Users\LOCALH~1\AppData\Local\Temp\ccskN8Qo.s:3543   .text.ETH_DMAPTPRxDescChainInit:0000000000000008 .L0 
C:\Users\LOCALH~1\AppData\Local\Temp\ccskN8Qo.s:3578   .text.ETH_DMAPTPRxDescChainInit:000000000000003e .L279
C:\Users\LOCALH~1\AppData\Local\Temp\ccskN8Qo.s:3599   .text.ETH_DMAPTPRxDescChainInit:000000000000005c .L278
C:\Users\LOCALH~1\AppData\Local\Temp\ccskN8Qo.s:3559   .text.ETH_DMAPTPRxDescChainInit:000000000000002a .L277
C:\Users\LOCALH~1\AppData\Local\Temp\ccskN8Qo.s:3630   .text.ETH_HandlePTPTxPkt:0000000000000000 .L0 
C:\Users\LOCALH~1\AppData\Local\Temp\ccskN8Qo.s:3638   .text.ETH_HandlePTPTxPkt:0000000000000012 .L0 
C:\Users\LOCALH~1\AppData\Local\Temp\ccskN8Qo.s:3732   .text.ETH_HandlePTPTxPkt:0000000000000078 .L0 
C:\Users\LOCALH~1\AppData\Local\Temp\ccskN8Qo.s:3821   .text.ETH_HandlePTPTxPkt:00000000000000e4 .L292
C:\Users\LOCALH~1\AppData\Local\Temp\ccskN8Qo.s:3758   .text.ETH_HandlePTPTxPkt:0000000000000098 .L284
C:\Users\LOCALH~1\AppData\Local\Temp\ccskN8Qo.s:3682   .text.ETH_HandlePTPTxPkt:000000000000004c .L285
C:\Users\LOCALH~1\AppData\Local\Temp\ccskN8Qo.s:3704   .text.ETH_HandlePTPTxPkt:000000000000005e .L286
C:\Users\LOCALH~1\AppData\Local\Temp\ccskN8Qo.s:3689   .text.ETH_HandlePTPTxPkt:0000000000000054 .L287
C:\Users\LOCALH~1\AppData\Local\Temp\ccskN8Qo.s:3775   .text.ETH_HandlePTPTxPkt:00000000000000b0 .L288
C:\Users\LOCALH~1\AppData\Local\Temp\ccskN8Qo.s:3751   .text.ETH_HandlePTPTxPkt:0000000000000092 .L290
C:\Users\LOCALH~1\AppData\Local\Temp\ccskN8Qo.s:3640   .text.ETH_HandlePTPTxPkt:000000000000001a .L283
C:\Users\LOCALH~1\AppData\Local\Temp\ccskN8Qo.s:3794   .text.ETH_HandlePTPTxPkt:00000000000000c6 .L291
C:\Users\LOCALH~1\AppData\Local\Temp\ccskN8Qo.s:3842   .text.ETH_HandlePTPRxPkt:0000000000000000 .L0 
C:\Users\LOCALH~1\AppData\Local\Temp\ccskN8Qo.s:3877   .text.ETH_HandlePTPRxPkt:000000000000002e .L0 
C:\Users\LOCALH~1\AppData\Local\Temp\ccskN8Qo.s:3938   .text.ETH_HandlePTPRxPkt:0000000000000074 .L0 
C:\Users\LOCALH~1\AppData\Local\Temp\ccskN8Qo.s:4010   .text.ETH_HandlePTPRxPkt:00000000000000c8 .L308
C:\Users\LOCALH~1\AppData\Local\Temp\ccskN8Qo.s:3889   .text.ETH_HandlePTPRxPkt:0000000000000042 .L300
C:\Users\LOCALH~1\AppData\Local\Temp\ccskN8Qo.s:3956   .text.ETH_HandlePTPRxPkt:000000000000008c .L302
C:\Users\LOCALH~1\AppData\Local\Temp\ccskN8Qo.s:3905   .text.ETH_HandlePTPRxPkt:0000000000000058 .L303
C:\Users\LOCALH~1\AppData\Local\Temp\ccskN8Qo.s:3981   .text.ETH_HandlePTPRxPkt:00000000000000a8 .L304
C:\Users\LOCALH~1\AppData\Local\Temp\ccskN8Qo.s:3976   .text.ETH_HandlePTPRxPkt:00000000000000a4 .L305
C:\Users\LOCALH~1\AppData\Local\Temp\ccskN8Qo.s:3885   .text.ETH_HandlePTPRxPkt:000000000000003e .L301
C:\Users\LOCALH~1\AppData\Local\Temp\ccskN8Qo.s:3951   .text.ETH_HandlePTPRxPkt:0000000000000088 .L319
C:\Users\LOCALH~1\AppData\Local\Temp\ccskN8Qo.s:3996   .text.ETH_HandlePTPRxPkt:00000000000000b8 .L307
C:\Users\LOCALH~1\AppData\Local\Temp\ccskN8Qo.s:3992   .text.ETH_HandlePTPRxPkt:00000000000000b4 .L320
C:\Users\LOCALH~1\AppData\Local\Temp\ccskN8Qo.s:4058   .text.RGMII_TXC_Delay:0000000000000022 .L322
C:\Users\LOCALH~1\AppData\Local\Temp\ccskN8Qo.s:4054   .text.RGMII_TXC_Delay:0000000000000020 .L321
C:\Users\LOCALH~1\AppData\Local\Temp\ccskN8Qo.s:4037   .text.RGMII_TXC_Delay:000000000000000c .L325
C:\Users\LOCALH~1\AppData\Local\Temp\ccskN8Qo.s:7229   .debug_abbrev:0000000000000000 .Ldebug_abbrev0
C:\Users\LOCALH~1\AppData\Local\Temp\ccskN8Qo.s:10932  .debug_str:0000000000000da3 .LASF309
C:\Users\LOCALH~1\AppData\Local\Temp\ccskN8Qo.s:11143  .debug_line_str:0000000000000055 .LASF0
C:\Users\LOCALH~1\AppData\Local\Temp\ccskN8Qo.s:11141  .debug_line_str:0000000000000000 .LASF1
C:\Users\LOCALH~1\AppData\Local\Temp\ccskN8Qo.s:10218  .debug_rnglists:000000000000006b .LLRL93
C:\Users\LOCALH~1\AppData\Local\Temp\ccskN8Qo.s:10522  .debug_line:0000000000000000 .Ldebug_line0
C:\Users\LOCALH~1\AppData\Local\Temp\ccskN8Qo.s:10868  .debug_str:0000000000000b77 .LASF2
C:\Users\LOCALH~1\AppData\Local\Temp\ccskN8Qo.s:10646  .debug_str:000000000000047d .LASF3
C:\Users\LOCALH~1\AppData\Local\Temp\ccskN8Qo.s:10598  .debug_str:00000000000002d9 .LASF6
C:\Users\LOCALH~1\AppData\Local\Temp\ccskN8Qo.s:10668  .debug_str:0000000000000518 .LASF4
C:\Users\LOCALH~1\AppData\Local\Temp\ccskN8Qo.s:11028  .debug_str:00000000000011b5 .LASF5
C:\Users\LOCALH~1\AppData\Local\Temp\ccskN8Qo.s:10720  .debug_str:000000000000068b .LASF7
C:\Users\LOCALH~1\AppData\Local\Temp\ccskN8Qo.s:11088  .debug_str:000000000000139f .LASF8
C:\Users\LOCALH~1\AppData\Local\Temp\ccskN8Qo.s:10610  .debug_str:0000000000000347 .LASF9
C:\Users\LOCALH~1\AppData\Local\Temp\ccskN8Qo.s:10814  .debug_str:000000000000099d .LASF10
C:\Users\LOCALH~1\AppData\Local\Temp\ccskN8Qo.s:10770  .debug_str:0000000000000834 .LASF11
C:\Users\LOCALH~1\AppData\Local\Temp\ccskN8Qo.s:10816  .debug_str:00000000000009a8 .LASF12
C:\Users\LOCALH~1\AppData\Local\Temp\ccskN8Qo.s:10942  .debug_str:0000000000000f10 .LASF13
C:\Users\LOCALH~1\AppData\Local\Temp\ccskN8Qo.s:10648  .debug_str:0000000000000489 .LASF14
C:\Users\LOCALH~1\AppData\Local\Temp\ccskN8Qo.s:10944  .debug_str:0000000000000f27 .LASF15
C:\Users\LOCALH~1\AppData\Local\Temp\ccskN8Qo.s:11070  .debug_str:00000000000012fd .LASF16
C:\Users\LOCALH~1\AppData\Local\Temp\ccskN8Qo.s:10908  .debug_str:0000000000000cd1 .LASF17
C:\Users\LOCALH~1\AppData\Local\Temp\ccskN8Qo.s:11040  .debug_str:0000000000001219 .LASF18
C:\Users\LOCALH~1\AppData\Local\Temp\ccskN8Qo.s:10936  .debug_str:0000000000000ece .LASF19
C:\Users\LOCALH~1\AppData\Local\Temp\ccskN8Qo.s:10978  .debug_str:0000000000001018 .LASF20
C:\Users\LOCALH~1\AppData\Local\Temp\ccskN8Qo.s:10994  .debug_str:0000000000001097 .LASF21
C:\Users\LOCALH~1\AppData\Local\Temp\ccskN8Qo.s:10910  .debug_str:0000000000000cd9 .LASF22
C:\Users\LOCALH~1\AppData\Local\Temp\ccskN8Qo.s:10652  .debug_str:00000000000004ae .LASF23
C:\Users\LOCALH~1\AppData\Local\Temp\ccskN8Qo.s:10558  .debug_str:000000000000015e .LASF24
C:\Users\LOCALH~1\AppData\Local\Temp\ccskN8Qo.s:10546  .debug_str:00000000000000df .LASF25
C:\Users\LOCALH~1\AppData\Local\Temp\ccskN8Qo.s:10618  .debug_str:0000000000000384 .LASF26
C:\Users\LOCALH~1\AppData\Local\Temp\ccskN8Qo.s:11122  .debug_str:0000000000001496 .LASF27
C:\Users\LOCALH~1\AppData\Local\Temp\ccskN8Qo.s:10568  .debug_str:00000000000001b5 .LASF28
C:\Users\LOCALH~1\AppData\Local\Temp\ccskN8Qo.s:11114  .debug_str:0000000000001460 .LASF29
C:\Users\LOCALH~1\AppData\Local\Temp\ccskN8Qo.s:10656  .debug_str:00000000000004be .LASF30
C:\Users\LOCALH~1\AppData\Local\Temp\ccskN8Qo.s:10664  .debug_str:0000000000000504 .LASF31
C:\Users\LOCALH~1\AppData\Local\Temp\ccskN8Qo.s:10980  .debug_str:000000000000101e .LASF32
C:\Users\LOCALH~1\AppData\Local\Temp\ccskN8Qo.s:10562  .debug_str:0000000000000174 .LASF33
C:\Users\LOCALH~1\AppData\Local\Temp\ccskN8Qo.s:10666  .debug_str:000000000000050e .LASF34
C:\Users\LOCALH~1\AppData\Local\Temp\ccskN8Qo.s:10972  .debug_str:0000000000000fee .LASF35
C:\Users\LOCALH~1\AppData\Local\Temp\ccskN8Qo.s:11066  .debug_str:00000000000012f0 .LASF36
C:\Users\LOCALH~1\AppData\Local\Temp\ccskN8Qo.s:10688  .debug_str:0000000000000594 .LASF37
C:\Users\LOCALH~1\AppData\Local\Temp\ccskN8Qo.s:10752  .debug_str:00000000000007a7 .LASF38
C:\Users\LOCALH~1\AppData\Local\Temp\ccskN8Qo.s:10788  .debug_str:00000000000008b8 .LASF39
C:\Users\LOCALH~1\AppData\Local\Temp\ccskN8Qo.s:10874  .debug_str:0000000000000bb4 .LASF40
C:\Users\LOCALH~1\AppData\Local\Temp\ccskN8Qo.s:10914  .debug_str:0000000000000cee .LASF41
C:\Users\LOCALH~1\AppData\Local\Temp\ccskN8Qo.s:11002  .debug_str:00000000000010cb .LASF42
C:\Users\LOCALH~1\AppData\Local\Temp\ccskN8Qo.s:11042  .debug_str:0000000000001220 .LASF43
C:\Users\LOCALH~1\AppData\Local\Temp\ccskN8Qo.s:11124  .debug_str:000000000000149f .LASF44
C:\Users\LOCALH~1\AppData\Local\Temp\ccskN8Qo.s:10700  .debug_str:000000000000060e .LASF45
C:\Users\LOCALH~1\AppData\Local\Temp\ccskN8Qo.s:10906  .debug_str:0000000000000cc9 .LASF46
C:\Users\LOCALH~1\AppData\Local\Temp\ccskN8Qo.s:10952  .debug_str:0000000000000f53 .LASF47
C:\Users\LOCALH~1\AppData\Local\Temp\ccskN8Qo.s:10712  .debug_str:0000000000000659 .LASF48
C:\Users\LOCALH~1\AppData\Local\Temp\ccskN8Qo.s:10956  .debug_str:0000000000000f74 .LASF49
C:\Users\LOCALH~1\AppData\Local\Temp\ccskN8Qo.s:10596  .debug_str:00000000000002d2 .LASF50
C:\Users\LOCALH~1\AppData\Local\Temp\ccskN8Qo.s:10958  .debug_str:0000000000000f7b .LASF51
C:\Users\LOCALH~1\AppData\Local\Temp\ccskN8Qo.s:10964  .debug_str:0000000000000f9c .LASF52
C:\Users\LOCALH~1\AppData\Local\Temp\ccskN8Qo.s:10670  .debug_str:0000000000000526 .LASF53
C:\Users\LOCALH~1\AppData\Local\Temp\ccskN8Qo.s:11032  .debug_str:00000000000011da .LASF54
C:\Users\LOCALH~1\AppData\Local\Temp\ccskN8Qo.s:10882  .debug_str:0000000000000bf3 .LASF55
C:\Users\LOCALH~1\AppData\Local\Temp\ccskN8Qo.s:10672  .debug_str:0000000000000530 .LASF56
C:\Users\LOCALH~1\AppData\Local\Temp\ccskN8Qo.s:11096  .debug_str:00000000000013cc .LASF57
C:\Users\LOCALH~1\AppData\Local\Temp\ccskN8Qo.s:10674  .debug_str:000000000000053a .LASF58
C:\Users\LOCALH~1\AppData\Local\Temp\ccskN8Qo.s:11110  .debug_str:0000000000001438 .LASF59
C:\Users\LOCALH~1\AppData\Local\Temp\ccskN8Qo.s:11104  .debug_str:0000000000001405 .LASF60
C:\Users\LOCALH~1\AppData\Local\Temp\ccskN8Qo.s:10676  .debug_str:0000000000000544 .LASF61
C:\Users\LOCALH~1\AppData\Local\Temp\ccskN8Qo.s:10580  .debug_str:0000000000000229 .LASF62
C:\Users\LOCALH~1\AppData\Local\Temp\ccskN8Qo.s:10678  .debug_str:000000000000054e .LASF63
C:\Users\LOCALH~1\AppData\Local\Temp\ccskN8Qo.s:10828  .debug_str:0000000000000a0f .LASF64
C:\Users\LOCALH~1\AppData\Local\Temp\ccskN8Qo.s:10640  .debug_str:0000000000000450 .LASF65
C:\Users\LOCALH~1\AppData\Local\Temp\ccskN8Qo.s:10928  .debug_str:0000000000000d84 .LASF66
C:\Users\LOCALH~1\AppData\Local\Temp\ccskN8Qo.s:11024  .debug_str:0000000000001191 .LASF67
C:\Users\LOCALH~1\AppData\Local\Temp\ccskN8Qo.s:11054  .debug_str:000000000000128a .LASF68
C:\Users\LOCALH~1\AppData\Local\Temp\ccskN8Qo.s:10892  .debug_str:0000000000000c3f .LASF69
C:\Users\LOCALH~1\AppData\Local\Temp\ccskN8Qo.s:10786  .debug_str:00000000000008b0 .LASF70
C:\Users\LOCALH~1\AppData\Local\Temp\ccskN8Qo.s:11052  .debug_str:0000000000001282 .LASF71
C:\Users\LOCALH~1\AppData\Local\Temp\ccskN8Qo.s:10524  .debug_str:0000000000000000 .LASF72
C:\Users\LOCALH~1\AppData\Local\Temp\ccskN8Qo.s:10680  .debug_str:0000000000000558 .LASF73
C:\Users\LOCALH~1\AppData\Local\Temp\ccskN8Qo.s:10582  .debug_str:0000000000000233 .LASF74
C:\Users\LOCALH~1\AppData\Local\Temp\ccskN8Qo.s:10754  .debug_str:00000000000007af .LASF75
C:\Users\LOCALH~1\AppData\Local\Temp\ccskN8Qo.s:10750  .debug_str:000000000000079f .LASF76
C:\Users\LOCALH~1\AppData\Local\Temp\ccskN8Qo.s:10886  .debug_str:0000000000000c14 .LASF77
C:\Users\LOCALH~1\AppData\Local\Temp\ccskN8Qo.s:10716  .debug_str:0000000000000679 .LASF78
C:\Users\LOCALH~1\AppData\Local\Temp\ccskN8Qo.s:11012  .debug_str:0000000000001129 .LASF79
C:\Users\LOCALH~1\AppData\Local\Temp\ccskN8Qo.s:10960  .debug_str:0000000000000f83 .LASF80
C:\Users\LOCALH~1\AppData\Local\Temp\ccskN8Qo.s:10692  .debug_str:00000000000005bb .LASF81
C:\Users\LOCALH~1\AppData\Local\Temp\ccskN8Qo.s:11118  .debug_str:000000000000147d .LASF82
C:\Users\LOCALH~1\AppData\Local\Temp\ccskN8Qo.s:10682  .debug_str:0000000000000562 .LASF83
C:\Users\LOCALH~1\AppData\Local\Temp\ccskN8Qo.s:10918  .debug_str:0000000000000d09 .LASF84
C:\Users\LOCALH~1\AppData\Local\Temp\ccskN8Qo.s:10694  .debug_str:00000000000005c2 .LASF85
C:\Users\LOCALH~1\AppData\Local\Temp\ccskN8Qo.s:11098  .debug_str:00000000000013d5 .LASF86
C:\Users\LOCALH~1\AppData\Local\Temp\ccskN8Qo.s:11090  .debug_str:00000000000013b2 .LASF87
C:\Users\LOCALH~1\AppData\Local\Temp\ccskN8Qo.s:10818  .debug_str:00000000000009b6 .LASF88
C:\Users\LOCALH~1\AppData\Local\Temp\ccskN8Qo.s:10912  .debug_str:0000000000000ce2 .LASF89
C:\Users\LOCALH~1\AppData\Local\Temp\ccskN8Qo.s:10708  .debug_str:0000000000000643 .LASF90
C:\Users\LOCALH~1\AppData\Local\Temp\ccskN8Qo.s:11010  .debug_str:0000000000001115 .LASF91
C:\Users\LOCALH~1\AppData\Local\Temp\ccskN8Qo.s:10780  .debug_str:0000000000000887 .LASF92
C:\Users\LOCALH~1\AppData\Local\Temp\ccskN8Qo.s:10612  .debug_str:0000000000000350 .LASF93
C:\Users\LOCALH~1\AppData\Local\Temp\ccskN8Qo.s:11128  .debug_str:00000000000014b1 .LASF94
C:\Users\LOCALH~1\AppData\Local\Temp\ccskN8Qo.s:10632  .debug_str:0000000000000401 .LASF95
C:\Users\LOCALH~1\AppData\Local\Temp\ccskN8Qo.s:10604  .debug_str:000000000000030e .LASF96
C:\Users\LOCALH~1\AppData\Local\Temp\ccskN8Qo.s:11134  .debug_str:00000000000014e5 .LASF97
C:\Users\LOCALH~1\AppData\Local\Temp\ccskN8Qo.s:11064  .debug_str:00000000000012df .LASF98
C:\Users\LOCALH~1\AppData\Local\Temp\ccskN8Qo.s:10718  .debug_str:0000000000000682 .LASF99
C:\Users\LOCALH~1\AppData\Local\Temp\ccskN8Qo.s:11082  .debug_str:0000000000001361 .LASF100
C:\Users\LOCALH~1\AppData\Local\Temp\ccskN8Qo.s:11074  .debug_str:0000000000001321 .LASF101
C:\Users\LOCALH~1\AppData\Local\Temp\ccskN8Qo.s:10864  .debug_str:0000000000000b44 .LASF102
C:\Users\LOCALH~1\AppData\Local\Temp\ccskN8Qo.s:11132  .debug_str:00000000000014d4 .LASF103
C:\Users\LOCALH~1\AppData\Local\Temp\ccskN8Qo.s:10732  .debug_str:00000000000006d9 .LASF104
C:\Users\LOCALH~1\AppData\Local\Temp\ccskN8Qo.s:10560  .debug_str:0000000000000165 .LASF105
C:\Users\LOCALH~1\AppData\Local\Temp\ccskN8Qo.s:10634  .debug_str:0000000000000412 .LASF106
C:\Users\LOCALH~1\AppData\Local\Temp\ccskN8Qo.s:10526  .debug_str:0000000000000008 .LASF107
C:\Users\LOCALH~1\AppData\Local\Temp\ccskN8Qo.s:10532  .debug_str:000000000000004a .LASF108
C:\Users\LOCALH~1\AppData\Local\Temp\ccskN8Qo.s:11100  .debug_str:00000000000013df .LASF109
C:\Users\LOCALH~1\AppData\Local\Temp\ccskN8Qo.s:11062  .debug_str:00000000000012cb .LASF110
C:\Users\LOCALH~1\AppData\Local\Temp\ccskN8Qo.s:10742  .debug_str:0000000000000735 .LASF111
C:\Users\LOCALH~1\AppData\Local\Temp\ccskN8Qo.s:11020  .debug_str:0000000000001166 .LASF112
C:\Users\LOCALH~1\AppData\Local\Temp\ccskN8Qo.s:10962  .debug_str:0000000000000f8a .LASF113
C:\Users\LOCALH~1\AppData\Local\Temp\ccskN8Qo.s:11000  .debug_str:00000000000010ba .LASF114
C:\Users\LOCALH~1\AppData\Local\Temp\ccskN8Qo.s:10792  .debug_str:00000000000008d0 .LASF115
C:\Users\LOCALH~1\AppData\Local\Temp\ccskN8Qo.s:11138  .debug_str:0000000000001503 .LASF116
C:\Users\LOCALH~1\AppData\Local\Temp\ccskN8Qo.s:11086  .debug_str:0000000000001389 .LASF117
C:\Users\LOCALH~1\AppData\Local\Temp\ccskN8Qo.s:11026  .debug_str:0000000000001199 .LASF118
C:\Users\LOCALH~1\AppData\Local\Temp\ccskN8Qo.s:10658  .debug_str:00000000000004c8 .LASF119
C:\Users\LOCALH~1\AppData\Local\Temp\ccskN8Qo.s:10832  .debug_str:0000000000000a2e .LASF120
C:\Users\LOCALH~1\AppData\Local\Temp\ccskN8Qo.s:10954  .debug_str:0000000000000f5e .LASF121
C:\Users\LOCALH~1\AppData\Local\Temp\ccskN8Qo.s:10846  .debug_str:0000000000000aaa .LASF122
C:\Users\LOCALH~1\AppData\Local\Temp\ccskN8Qo.s:10606  .debug_str:0000000000000318 .LASF123
C:\Users\LOCALH~1\AppData\Local\Temp\ccskN8Qo.s:10556  .debug_str:0000000000000146 .LASF124
C:\Users\LOCALH~1\AppData\Local\Temp\ccskN8Qo.s:10930  .debug_str:0000000000000d8c .LASF125
C:\Users\LOCALH~1\AppData\Local\Temp\ccskN8Qo.s:10548  .debug_str:00000000000000e7 .LASF126
C:\Users\LOCALH~1\AppData\Local\Temp\ccskN8Qo.s:10756  .debug_str:00000000000007b7 .LASF127
C:\Users\LOCALH~1\AppData\Local\Temp\ccskN8Qo.s:10542  .debug_str:00000000000000bb .LASF128
C:\Users\LOCALH~1\AppData\Local\Temp\ccskN8Qo.s:10922  .debug_str:0000000000000d37 .LASF129
C:\Users\LOCALH~1\AppData\Local\Temp\ccskN8Qo.s:10896  .debug_str:0000000000000c5d .LASF130
C:\Users\LOCALH~1\AppData\Local\Temp\ccskN8Qo.s:10938  .debug_str:0000000000000ede .LASF131
C:\Users\LOCALH~1\AppData\Local\Temp\ccskN8Qo.s:10696  .debug_str:00000000000005cb .LASF132
C:\Users\LOCALH~1\AppData\Local\Temp\ccskN8Qo.s:11120  .debug_str:0000000000001487 .LASF133
C:\Users\LOCALH~1\AppData\Local\Temp\ccskN8Qo.s:10802  .debug_str:0000000000000927 .LASF134
C:\Users\LOCALH~1\AppData\Local\Temp\ccskN8Qo.s:10902  .debug_str:0000000000000ca2 .LASF135
C:\Users\LOCALH~1\AppData\Local\Temp\ccskN8Qo.s:11016  .debug_str:000000000000113a .LASF136
C:\Users\LOCALH~1\AppData\Local\Temp\ccskN8Qo.s:11022  .debug_str:000000000000117e .LASF137
C:\Users\LOCALH~1\AppData\Local\Temp\ccskN8Qo.s:10644  .debug_str:000000000000046d .LASF138
C:\Users\LOCALH~1\AppData\Local\Temp\ccskN8Qo.s:10810  .debug_str:0000000000000981 .LASF139
C:\Users\LOCALH~1\AppData\Local\Temp\ccskN8Qo.s:10622  .debug_str:0000000000000398 .LASF140
C:\Users\LOCALH~1\AppData\Local\Temp\ccskN8Qo.s:11102  .debug_str:00000000000013f9 .LASF141
C:\Users\LOCALH~1\AppData\Local\Temp\ccskN8Qo.s:11056  .debug_str:0000000000001293 .LASF142
C:\Users\LOCALH~1\AppData\Local\Temp\ccskN8Qo.s:10948  .debug_str:0000000000000f39 .LASF143
C:\Users\LOCALH~1\AppData\Local\Temp\ccskN8Qo.s:10824  .debug_str:00000000000009dc .LASF144
C:\Users\LOCALH~1\AppData\Local\Temp\ccskN8Qo.s:10602  .debug_str:00000000000002ff .LASF145
C:\Users\LOCALH~1\AppData\Local\Temp\ccskN8Qo.s:10528  .debug_str:000000000000001e .LASF146
C:\Users\LOCALH~1\AppData\Local\Temp\ccskN8Qo.s:10904  .debug_str:0000000000000cb7 .LASF147
C:\Users\LOCALH~1\AppData\Local\Temp\ccskN8Qo.s:11046  .debug_str:0000000000001235 .LASF172
C:\Users\LOCALH~1\AppData\Local\Temp\ccskN8Qo.s:10992  .debug_str:0000000000001087 .LASF159
C:\Users\LOCALH~1\AppData\Local\Temp\ccskN8Qo.s:4024   .text.RGMII_TXC_Delay:0000000000000000 .LFB128
C:\Users\LOCALH~1\AppData\Local\Temp\ccskN8Qo.s:4064   .text.RGMII_TXC_Delay:0000000000000026 .LFE128
C:\Users\LOCALH~1\AppData\Local\Temp\ccskN8Qo.s:10926  .debug_str:0000000000000d75 .LASF148
C:\Users\LOCALH~1\AppData\Local\Temp\ccskN8Qo.s:10836  .debug_str:0000000000000a59 .LASF149
C:\Users\LOCALH~1\AppData\Local\Temp\ccskN8Qo.s:8169   .debug_loclists:000000000000000c .LLST92
C:\Users\LOCALH~1\AppData\Local\Temp\ccskN8Qo.s:10638  .debug_str:000000000000043d .LASF154
C:\Users\LOCALH~1\AppData\Local\Temp\ccskN8Qo.s:3835   .text.ETH_HandlePTPRxPkt:0000000000000000 .LFB127
C:\Users\LOCALH~1\AppData\Local\Temp\ccskN8Qo.s:4017   .text.ETH_HandlePTPRxPkt:00000000000000cc .LFE127
C:\Users\LOCALH~1\AppData\Local\Temp\ccskN8Qo.s:10998  .debug_str:00000000000010b5 .LASF150
C:\Users\LOCALH~1\AppData\Local\Temp\ccskN8Qo.s:8189   .debug_loclists:0000000000000031 .LLST88
C:\Users\LOCALH~1\AppData\Local\Temp\ccskN8Qo.s:10946  .debug_str:0000000000000f30 .LASF151
C:\Users\LOCALH~1\AppData\Local\Temp\ccskN8Qo.s:8232   .debug_loclists:0000000000000085 .LLST89
C:\Users\LOCALH~1\AppData\Local\Temp\ccskN8Qo.s:10890  .debug_str:0000000000000c38 .LASF152
C:\Users\LOCALH~1\AppData\Local\Temp\ccskN8Qo.s:8263   .debug_loclists:00000000000000c1 .LLST90
C:\Users\LOCALH~1\AppData\Local\Temp\ccskN8Qo.s:10784  .debug_str:00000000000008a4 .LASF153
C:\Users\LOCALH~1\AppData\Local\Temp\ccskN8Qo.s:8299   .debug_loclists:0000000000000108 .LLST91
C:\Users\LOCALH~1\AppData\Local\Temp\ccskN8Qo.s:11060  .debug_str:00000000000012b8 .LASF155
C:\Users\LOCALH~1\AppData\Local\Temp\ccskN8Qo.s:3623   .text.ETH_HandlePTPTxPkt:0000000000000000 .LFB126
C:\Users\LOCALH~1\AppData\Local\Temp\ccskN8Qo.s:3828   .text.ETH_HandlePTPTxPkt:00000000000000e8 .LFE126
C:\Users\LOCALH~1\AppData\Local\Temp\ccskN8Qo.s:8318   .debug_loclists:000000000000012c .LLST83
C:\Users\LOCALH~1\AppData\Local\Temp\ccskN8Qo.s:11076  .debug_str:0000000000001337 .LASF156
C:\Users\LOCALH~1\AppData\Local\Temp\ccskN8Qo.s:8359   .debug_loclists:0000000000000178 .LLST84
C:\Users\LOCALH~1\AppData\Local\Temp\ccskN8Qo.s:10760  .debug_str:00000000000007d9 .LASF157
C:\Users\LOCALH~1\AppData\Local\Temp\ccskN8Qo.s:8392   .debug_loclists:00000000000001b6 .LLST85
C:\Users\LOCALH~1\AppData\Local\Temp\ccskN8Qo.s:8436   .debug_loclists:0000000000000205 .LLST86
C:\Users\LOCALH~1\AppData\Local\Temp\ccskN8Qo.s:10852  .debug_str:0000000000000aec .LASF158
C:\Users\LOCALH~1\AppData\Local\Temp\ccskN8Qo.s:8460   .debug_loclists:0000000000000234 .LLST87
C:\Users\LOCALH~1\AppData\Local\Temp\ccskN8Qo.s:11034  .debug_str:00000000000011e5 .LASF160
C:\Users\LOCALH~1\AppData\Local\Temp\ccskN8Qo.s:3532   .text.ETH_DMAPTPRxDescChainInit:0000000000000000 .LFB125
C:\Users\LOCALH~1\AppData\Local\Temp\ccskN8Qo.s:3616   .text.ETH_DMAPTPRxDescChainInit:0000000000000070 .LFE125
C:\Users\LOCALH~1\AppData\Local\Temp\ccskN8Qo.s:11044  .debug_str:0000000000001228 .LASF161
C:\Users\LOCALH~1\AppData\Local\Temp\ccskN8Qo.s:10586  .debug_str:000000000000025b .LASF162
C:\Users\LOCALH~1\AppData\Local\Temp\ccskN8Qo.s:10722  .debug_str:0000000000000696 .LASF163
C:\Users\LOCALH~1\AppData\Local\Temp\ccskN8Qo.s:10620  .debug_str:000000000000038c .LASF164
C:\Users\LOCALH~1\AppData\Local\Temp\ccskN8Qo.s:8501   .debug_loclists:000000000000027b .LLST81
C:\Users\LOCALH~1\AppData\Local\Temp\ccskN8Qo.s:11126  .debug_str:00000000000014a7 .LASF165
C:\Users\LOCALH~1\AppData\Local\Temp\ccskN8Qo.s:8531   .debug_loclists:00000000000002b6 .LLST82
C:\Users\LOCALH~1\AppData\Local\Temp\ccskN8Qo.s:10798  .debug_str:0000000000000905 .LASF166
C:\Users\LOCALH~1\AppData\Local\Temp\ccskN8Qo.s:3447   .text.ETH_DMAPTPTxDescChainInit:0000000000000000 .LFB124
C:\Users\LOCALH~1\AppData\Local\Temp\ccskN8Qo.s:3525   .text.ETH_DMAPTPTxDescChainInit:0000000000000066 .LFE124
C:\Users\LOCALH~1\AppData\Local\Temp\ccskN8Qo.s:10726  .debug_str:00000000000006b1 .LASF167
C:\Users\LOCALH~1\AppData\Local\Temp\ccskN8Qo.s:8545   .debug_loclists:00000000000002cf .LLST78
C:\Users\LOCALH~1\AppData\Local\Temp\ccskN8Qo.s:10858  .debug_str:0000000000000b0a .LASF168
C:\Users\LOCALH~1\AppData\Local\Temp\ccskN8Qo.s:10840  .debug_str:0000000000000a89 .LASF169
C:\Users\LOCALH~1\AppData\Local\Temp\ccskN8Qo.s:10796  .debug_str:00000000000008f9 .LASF170
C:\Users\LOCALH~1\AppData\Local\Temp\ccskN8Qo.s:8562   .debug_loclists:00000000000002f1 .LLST79
C:\Users\LOCALH~1\AppData\Local\Temp\ccskN8Qo.s:10654  .debug_str:00000000000004b4 .LASF171
C:\Users\LOCALH~1\AppData\Local\Temp\ccskN8Qo.s:8592   .debug_loclists:000000000000032c .LLST80
C:\Users\LOCALH~1\AppData\Local\Temp\ccskN8Qo.s:10916  .debug_str:0000000000000cf6 .LASF173
C:\Users\LOCALH~1\AppData\Local\Temp\ccskN8Qo.s:10630  .debug_str:00000000000003f6 .LASF195
C:\Users\LOCALH~1\AppData\Local\Temp\ccskN8Qo.s:10884  .debug_str:0000000000000bff .LASF174
C:\Users\LOCALH~1\AppData\Local\Temp\ccskN8Qo.s:3411   .text.ETH_SetPTPTargetTime:0000000000000000 .LFB122
C:\Users\LOCALH~1\AppData\Local\Temp\ccskN8Qo.s:3425   .text.ETH_SetPTPTargetTime:000000000000000e .LFE122
C:\Users\LOCALH~1\AppData\Local\Temp\ccskN8Qo.s:10768  .debug_str:000000000000082a .LASF175
C:\Users\LOCALH~1\AppData\Local\Temp\ccskN8Qo.s:10728  .debug_str:00000000000006be .LASF176
C:\Users\LOCALH~1\AppData\Local\Temp\ccskN8Qo.s:10714  .debug_str:000000000000065f .LASF177
C:\Users\LOCALH~1\AppData\Local\Temp\ccskN8Qo.s:3393   .text.ETH_SetPTPTimeStampAddend:0000000000000000 .LFB121
C:\Users\LOCALH~1\AppData\Local\Temp\ccskN8Qo.s:3404   .text.ETH_SetPTPTimeStampAddend:000000000000000a .LFE121
C:\Users\LOCALH~1\AppData\Local\Temp\ccskN8Qo.s:11068  .debug_str:00000000000012f7 .LASF178
C:\Users\LOCALH~1\AppData\Local\Temp\ccskN8Qo.s:10566  .debug_str:000000000000019b .LASF179
C:\Users\LOCALH~1\AppData\Local\Temp\ccskN8Qo.s:3369   .text.ETH_SetPTPTimeStampUpdate:0000000000000000 .LFB120
C:\Users\LOCALH~1\AppData\Local\Temp\ccskN8Qo.s:3386   .text.ETH_SetPTPTimeStampUpdate:0000000000000010 .LFE120
C:\Users\LOCALH~1\AppData\Local\Temp\ccskN8Qo.s:10880  .debug_str:0000000000000bee .LASF180
C:\Users\LOCALH~1\AppData\Local\Temp\ccskN8Qo.s:8606   .debug_loclists:0000000000000345 .LLST77
C:\Users\LOCALH~1\AppData\Local\Temp\ccskN8Qo.s:10702  .debug_str:0000000000000618 .LASF181
C:\Users\LOCALH~1\AppData\Local\Temp\ccskN8Qo.s:10844  .debug_str:0000000000000a9b .LASF182
C:\Users\LOCALH~1\AppData\Local\Temp\ccskN8Qo.s:10966  .debug_str:0000000000000fa4 .LASF183
C:\Users\LOCALH~1\AppData\Local\Temp\ccskN8Qo.s:3351   .text.ETH_SetPTPSubSecondIncrement:0000000000000000 .LFB119
C:\Users\LOCALH~1\AppData\Local\Temp\ccskN8Qo.s:3362   .text.ETH_SetPTPSubSecondIncrement:000000000000000a .LFE119
C:\Users\LOCALH~1\AppData\Local\Temp\ccskN8Qo.s:10986  .debug_str:000000000000104f .LASF184
C:\Users\LOCALH~1\AppData\Local\Temp\ccskN8Qo.s:3326   .text.ETH_GetPTPFlagStatus:0000000000000000 .LFB118
C:\Users\LOCALH~1\AppData\Local\Temp\ccskN8Qo.s:3344   .text.ETH_GetPTPFlagStatus:0000000000000010 .LFE118
C:\Users\LOCALH~1\AppData\Local\Temp\ccskN8Qo.s:10544  .debug_str:00000000000000d2 .LASF185
C:\Users\LOCALH~1\AppData\Local\Temp\ccskN8Qo.s:8621   .debug_loclists:000000000000035f .LLST75
C:\Users\LOCALH~1\AppData\Local\Temp\ccskN8Qo.s:11036  .debug_str:00000000000011ff .LASF186
C:\Users\LOCALH~1\AppData\Local\Temp\ccskN8Qo.s:8636   .debug_loclists:0000000000000379 .LLST76
C:\Users\LOCALH~1\AppData\Local\Temp\ccskN8Qo.s:11084  .debug_str:0000000000001375 .LASF187
C:\Users\LOCALH~1\AppData\Local\Temp\ccskN8Qo.s:3295   .text.ETH_PTPTimeStampCmd:0000000000000000 .LFB117
C:\Users\LOCALH~1\AppData\Local\Temp\ccskN8Qo.s:3319   .text.ETH_PTPTimeStampCmd:0000000000000018 .LFE117
C:\Users\LOCALH~1\AppData\Local\Temp\ccskN8Qo.s:10872  .debug_str:0000000000000bab .LASF188
C:\Users\LOCALH~1\AppData\Local\Temp\ccskN8Qo.s:10806  .debug_str:0000000000000949 .LASF189
C:\Users\LOCALH~1\AppData\Local\Temp\ccskN8Qo.s:3264   .text.ETH_PTPUpdateMethodConfig:0000000000000000 .LFB116
C:\Users\LOCALH~1\AppData\Local\Temp\ccskN8Qo.s:3288   .text.ETH_PTPUpdateMethodConfig:0000000000000018 .LFE116
C:\Users\LOCALH~1\AppData\Local\Temp\ccskN8Qo.s:10774  .debug_str:000000000000084d .LASF190
C:\Users\LOCALH~1\AppData\Local\Temp\ccskN8Qo.s:10888  .debug_str:0000000000000c1d .LASF191
C:\Users\LOCALH~1\AppData\Local\Temp\ccskN8Qo.s:3244   .text.ETH_InitializePTPTimeStamp:0000000000000000 .LFB115
C:\Users\LOCALH~1\AppData\Local\Temp\ccskN8Qo.s:3257   .text.ETH_InitializePTPTimeStamp:0000000000000012 .LFE115
C:\Users\LOCALH~1\AppData\Local\Temp\ccskN8Qo.s:11048  .debug_str:000000000000124b .LASF192
C:\Users\LOCALH~1\AppData\Local\Temp\ccskN8Qo.s:3224   .text.ETH_EnablePTPTimeStampUpdate:0000000000000000 .LFB114
C:\Users\LOCALH~1\AppData\Local\Temp\ccskN8Qo.s:3237   .text.ETH_EnablePTPTimeStampUpdate:0000000000000012 .LFE114
C:\Users\LOCALH~1\AppData\Local\Temp\ccskN8Qo.s:10870  .debug_str:0000000000000b84 .LASF193
C:\Users\LOCALH~1\AppData\Local\Temp\ccskN8Qo.s:3204   .text.ETH_EnablePTPTimeStampInterruptTrigger:0000000000000000 .LFB113
C:\Users\LOCALH~1\AppData\Local\Temp\ccskN8Qo.s:3217   .text.ETH_EnablePTPTimeStampInterruptTrigger:0000000000000012 .LFE113
C:\Users\LOCALH~1\AppData\Local\Temp\ccskN8Qo.s:10564  .debug_str:000000000000017e .LASF194
C:\Users\LOCALH~1\AppData\Local\Temp\ccskN8Qo.s:3184   .text.ETH_EnablePTPTimeStampAddend:0000000000000000 .LFB112
C:\Users\LOCALH~1\AppData\Local\Temp\ccskN8Qo.s:3197   .text.ETH_EnablePTPTimeStampAddend:0000000000000012 .LFE112
C:\Users\LOCALH~1\AppData\Local\Temp\ccskN8Qo.s:10996  .debug_str:00000000000010a2 .LASF243
C:\Users\LOCALH~1\AppData\Local\Temp\ccskN8Qo.s:10842  .debug_str:0000000000000a90 .LASF196
C:\Users\LOCALH~1\AppData\Local\Temp\ccskN8Qo.s:10534  .debug_str:0000000000000067 .LASF197
C:\Users\LOCALH~1\AppData\Local\Temp\ccskN8Qo.s:3113   .text.ETH_GetMMCITStatus:0000000000000000 .LFB110
C:\Users\LOCALH~1\AppData\Local\Temp\ccskN8Qo.s:3155   .text.ETH_GetMMCITStatus:000000000000002c .LFE110
C:\Users\LOCALH~1\AppData\Local\Temp\ccskN8Qo.s:10660  .debug_str:00000000000004df .LASF198
C:\Users\LOCALH~1\AppData\Local\Temp\ccskN8Qo.s:8675   .debug_loclists:00000000000003b1 .LLST72
C:\Users\LOCALH~1\AppData\Local\Temp\ccskN8Qo.s:8692   .debug_loclists:00000000000003d3 .LLST73
C:\Users\LOCALH~1\AppData\Local\Temp\ccskN8Qo.s:10744  .debug_str:000000000000074f .LASF199
C:\Users\LOCALH~1\AppData\Local\Temp\ccskN8Qo.s:3037   .text.ETH_MMCITConfig:0000000000000000 .LFB109
C:\Users\LOCALH~1\AppData\Local\Temp\ccskN8Qo.s:3106   .text.ETH_MMCITConfig:000000000000005c .LFE109
C:\Users\LOCALH~1\AppData\Local\Temp\ccskN8Qo.s:8706   .debug_loclists:00000000000003ec .LLST71
C:\Users\LOCALH~1\AppData\Local\Temp\ccskN8Qo.s:10642  .debug_str:0000000000000458 .LASF200
C:\Users\LOCALH~1\AppData\Local\Temp\ccskN8Qo.s:3017   .text.ETH_MMCCountersReset:0000000000000000 .LFB108
C:\Users\LOCALH~1\AppData\Local\Temp\ccskN8Qo.s:3030   .text.ETH_MMCCountersReset:0000000000000012 .LFE108
C:\Users\LOCALH~1\AppData\Local\Temp\ccskN8Qo.s:10866  .debug_str:0000000000000b5d .LASF201
C:\Users\LOCALH~1\AppData\Local\Temp\ccskN8Qo.s:2986   .text.ETH_MMCCounterRolloverCmd:0000000000000000 .LFB107
C:\Users\LOCALH~1\AppData\Local\Temp\ccskN8Qo.s:3010   .text.ETH_MMCCounterRolloverCmd:0000000000000018 .LFE107
C:\Users\LOCALH~1\AppData\Local\Temp\ccskN8Qo.s:10740  .debug_str:000000000000071f .LASF202
C:\Users\LOCALH~1\AppData\Local\Temp\ccskN8Qo.s:2955   .text.ETH_MMCResetOnReadCmd:0000000000000000 .LFB106
C:\Users\LOCALH~1\AppData\Local\Temp\ccskN8Qo.s:2979   .text.ETH_MMCResetOnReadCmd:0000000000000018 .LFE106
C:\Users\LOCALH~1\AppData\Local\Temp\ccskN8Qo.s:10550  .debug_str:0000000000000100 .LASF203
C:\Users\LOCALH~1\AppData\Local\Temp\ccskN8Qo.s:2924   .text.ETH_MMCCounterFreezeCmd:0000000000000000 .LFB105
C:\Users\LOCALH~1\AppData\Local\Temp\ccskN8Qo.s:2948   .text.ETH_MMCCounterFreezeCmd:0000000000000018 .LFE105
C:\Users\LOCALH~1\AppData\Local\Temp\ccskN8Qo.s:10570  .debug_str:00000000000001be .LASF204
C:\Users\LOCALH~1\AppData\Local\Temp\ccskN8Qo.s:2893   .text.ETH_PowerDownCmd:0000000000000000 .LFB104
C:\Users\LOCALH~1\AppData\Local\Temp\ccskN8Qo.s:2917   .text.ETH_PowerDownCmd:0000000000000014 .LFE104
C:\Users\LOCALH~1\AppData\Local\Temp\ccskN8Qo.s:10600  .debug_str:00000000000002e3 .LASF205
C:\Users\LOCALH~1\AppData\Local\Temp\ccskN8Qo.s:2862   .text.ETH_MagicPacketDetectionCmd:0000000000000000 .LFB103
C:\Users\LOCALH~1\AppData\Local\Temp\ccskN8Qo.s:2886   .text.ETH_MagicPacketDetectionCmd:0000000000000014 .LFE103
C:\Users\LOCALH~1\AppData\Local\Temp\ccskN8Qo.s:10746  .debug_str:000000000000075f .LASF206
C:\Users\LOCALH~1\AppData\Local\Temp\ccskN8Qo.s:2831   .text.ETH_WakeUpFrameDetectionCmd:0000000000000000 .LFB102
C:\Users\LOCALH~1\AppData\Local\Temp\ccskN8Qo.s:2855   .text.ETH_WakeUpFrameDetectionCmd:0000000000000014 .LFE102
C:\Users\LOCALH~1\AppData\Local\Temp\ccskN8Qo.s:10894  .debug_str:0000000000000c48 .LASF207
C:\Users\LOCALH~1\AppData\Local\Temp\ccskN8Qo.s:2806   .text.ETH_GetPMTFlagStatus:0000000000000000 .LFB101
C:\Users\LOCALH~1\AppData\Local\Temp\ccskN8Qo.s:2824   .text.ETH_GetPMTFlagStatus:000000000000000e .LFE101
C:\Users\LOCALH~1\AppData\Local\Temp\ccskN8Qo.s:10804  .debug_str:000000000000093c .LASF208
C:\Users\LOCALH~1\AppData\Local\Temp\ccskN8Qo.s:8763   .debug_loclists:0000000000000458 .LLST69
C:\Users\LOCALH~1\AppData\Local\Temp\ccskN8Qo.s:8778   .debug_loclists:0000000000000472 .LLST70
C:\Users\LOCALH~1\AppData\Local\Temp\ccskN8Qo.s:10576  .debug_str:00000000000001ee .LASF209
C:\Users\LOCALH~1\AppData\Local\Temp\ccskN8Qo.s:2775   .text.ETH_GlobalUnicastWakeUpCmd:0000000000000000 .LFB100
C:\Users\LOCALH~1\AppData\Local\Temp\ccskN8Qo.s:2799   .text.ETH_GlobalUnicastWakeUpCmd:0000000000000016 .LFE100
C:\Users\LOCALH~1\AppData\Local\Temp\ccskN8Qo.s:10584  .debug_str:000000000000023a .LASF210
C:\Users\LOCALH~1\AppData\Local\Temp\ccskN8Qo.s:2743   .text.ETH_SetWakeUpFrameFilterRegister:0000000000000000 .LFB99
C:\Users\LOCALH~1\AppData\Local\Temp\ccskN8Qo.s:2768   .text.ETH_SetWakeUpFrameFilterRegister:0000000000000014 .LFE99
C:\Users\LOCALH~1\AppData\Local\Temp\ccskN8Qo.s:10772  .debug_str:0000000000000846 .LASF211
C:\Users\LOCALH~1\AppData\Local\Temp\ccskN8Qo.s:8817   .debug_loclists:00000000000004aa .LLST67
C:\Users\LOCALH~1\AppData\Local\Temp\ccskN8Qo.s:8831   .debug_loclists:00000000000004c3 .LLST68
C:\Users\LOCALH~1\AppData\Local\Temp\ccskN8Qo.s:10934  .debug_str:0000000000000ea4 .LASF212
C:\Users\LOCALH~1\AppData\Local\Temp\ccskN8Qo.s:2722   .text.ETH_ResetWakeUpFrameFilterRegisterPointer:0000000000000000 .LFB98
C:\Users\LOCALH~1\AppData\Local\Temp\ccskN8Qo.s:2736   .text.ETH_ResetWakeUpFrameFilterRegisterPointer:0000000000000010 .LFE98
C:\Users\LOCALH~1\AppData\Local\Temp\ccskN8Qo.s:11108  .debug_str:0000000000001421 .LASF213
C:\Users\LOCALH~1\AppData\Local\Temp\ccskN8Qo.s:2705   .text.ETH_ResumeDMAReception:0000000000000000 .LFB97
C:\Users\LOCALH~1\AppData\Local\Temp\ccskN8Qo.s:2715   .text.ETH_ResumeDMAReception:000000000000000a .LFE97
C:\Users\LOCALH~1\AppData\Local\Temp\ccskN8Qo.s:10662  .debug_str:00000000000004ea .LASF214
C:\Users\LOCALH~1\AppData\Local\Temp\ccskN8Qo.s:2688   .text.ETH_ResumeDMATransmission:0000000000000000 .LFB96
C:\Users\LOCALH~1\AppData\Local\Temp\ccskN8Qo.s:2698   .text.ETH_ResumeDMATransmission:000000000000000a .LFE96
C:\Users\LOCALH~1\AppData\Local\Temp\ccskN8Qo.s:10808  .debug_str:0000000000000963 .LASF215
C:\Users\LOCALH~1\AppData\Local\Temp\ccskN8Qo.s:2671   .text.ETH_GetCurrentRxBufferAddress:0000000000000000 .LFB95
C:\Users\LOCALH~1\AppData\Local\Temp\ccskN8Qo.s:2681   .text.ETH_GetCurrentRxBufferAddress:0000000000000008 .LFE95
C:\Users\LOCALH~1\AppData\Local\Temp\ccskN8Qo.s:10628  .debug_str:00000000000003d8 .LASF216
C:\Users\LOCALH~1\AppData\Local\Temp\ccskN8Qo.s:2654   .text.ETH_GetCurrentTxBufferAddress:0000000000000000 .LFB94
C:\Users\LOCALH~1\AppData\Local\Temp\ccskN8Qo.s:2664   .text.ETH_GetCurrentTxBufferAddress:000000000000000c .LFE94
C:\Users\LOCALH~1\AppData\Local\Temp\ccskN8Qo.s:11006  .debug_str:00000000000010dd .LASF217
C:\Users\LOCALH~1\AppData\Local\Temp\ccskN8Qo.s:2637   .text.ETH_GetCurrentRxDescStartAddress:0000000000000000 .LFB93
C:\Users\LOCALH~1\AppData\Local\Temp\ccskN8Qo.s:2647   .text.ETH_GetCurrentRxDescStartAddress:0000000000000008 .LFE93
C:\Users\LOCALH~1\AppData\Local\Temp\ccskN8Qo.s:10762  .debug_str:00000000000007e2 .LASF218
C:\Users\LOCALH~1\AppData\Local\Temp\ccskN8Qo.s:2620   .text.ETH_GetCurrentTxDescStartAddress:0000000000000000 .LFB92
C:\Users\LOCALH~1\AppData\Local\Temp\ccskN8Qo.s:2630   .text.ETH_GetCurrentTxDescStartAddress:0000000000000008 .LFE92
C:\Users\LOCALH~1\AppData\Local\Temp\ccskN8Qo.s:10698  .debug_str:00000000000005e3 .LASF219
C:\Users\LOCALH~1\AppData\Local\Temp\ccskN8Qo.s:2601   .text.ETH_GetBufferUnavailableMissedFrameCounter:0000000000000000 .LFB91
C:\Users\LOCALH~1\AppData\Local\Temp\ccskN8Qo.s:2613   .text.ETH_GetBufferUnavailableMissedFrameCounter:000000000000000c .LFE91
C:\Users\LOCALH~1\AppData\Local\Temp\ccskN8Qo.s:10748  .debug_str:000000000000077b .LASF220
C:\Users\LOCALH~1\AppData\Local\Temp\ccskN8Qo.s:2581   .text.ETH_GetRxOverflowMissedFrameCounter:0000000000000000 .LFB90
C:\Users\LOCALH~1\AppData\Local\Temp\ccskN8Qo.s:2594   .text.ETH_GetRxOverflowMissedFrameCounter:000000000000000e .LFE90
C:\Users\LOCALH~1\AppData\Local\Temp\ccskN8Qo.s:10878  .debug_str:0000000000000bd5 .LASF221
C:\Users\LOCALH~1\AppData\Local\Temp\ccskN8Qo.s:2556   .text.ETH_GetDMAOverflowStatus:0000000000000000 .LFB89
C:\Users\LOCALH~1\AppData\Local\Temp\ccskN8Qo.s:2574   .text.ETH_GetDMAOverflowStatus:000000000000000e .LFE89
C:\Users\LOCALH~1\AppData\Local\Temp\ccskN8Qo.s:10850  .debug_str:0000000000000adb .LASF222
C:\Users\LOCALH~1\AppData\Local\Temp\ccskN8Qo.s:8839   .debug_loclists:00000000000004d0 .LLST65
C:\Users\LOCALH~1\AppData\Local\Temp\ccskN8Qo.s:8854   .debug_loclists:00000000000004ea .LLST66
C:\Users\LOCALH~1\AppData\Local\Temp\ccskN8Qo.s:10790  .debug_str:00000000000008c0 .LASF223
C:\Users\LOCALH~1\AppData\Local\Temp\ccskN8Qo.s:2519   .text.ETH_DMAITConfig:0000000000000000 .LFB88
C:\Users\LOCALH~1\AppData\Local\Temp\ccskN8Qo.s:2549   .text.ETH_DMAITConfig:000000000000001e .LFE88
C:\Users\LOCALH~1\AppData\Local\Temp\ccskN8Qo.s:10970  .debug_str:0000000000000fe3 .LASF224
C:\Users\LOCALH~1\AppData\Local\Temp\ccskN8Qo.s:8893   .debug_loclists:0000000000000522 .LLST64
C:\Users\LOCALH~1\AppData\Local\Temp\ccskN8Qo.s:10574  .debug_str:00000000000001da .LASF225
C:\Users\LOCALH~1\AppData\Local\Temp\ccskN8Qo.s:11078  .debug_str:0000000000001343 .LASF226
C:\Users\LOCALH~1\AppData\Local\Temp\ccskN8Qo.s:10690  .debug_str:000000000000059c .LASF227
C:\Users\LOCALH~1\AppData\Local\Temp\ccskN8Qo.s:2410   .text.ETH_GetFlushTransmitFIFOStatus:0000000000000000 .LFB85
C:\Users\LOCALH~1\AppData\Local\Temp\ccskN8Qo.s:2428   .text.ETH_GetFlushTransmitFIFOStatus:000000000000000c .LFE85
C:\Users\LOCALH~1\AppData\Local\Temp\ccskN8Qo.s:8916   .debug_loclists:000000000000054a .LLST60
C:\Users\LOCALH~1\AppData\Local\Temp\ccskN8Qo.s:10704  .debug_str:0000000000000624 .LASF228
C:\Users\LOCALH~1\AppData\Local\Temp\ccskN8Qo.s:2289   .text.ETH_FlushTransmitFIFO:0000000000000000 .LFB84
C:\Users\LOCALH~1\AppData\Local\Temp\ccskN8Qo.s:2303   .text.ETH_FlushTransmitFIFO:0000000000000010 .LFE84
C:\Users\LOCALH~1\AppData\Local\Temp\ccskN8Qo.s:10940  .debug_str:0000000000000ef5 .LASF229
C:\Users\LOCALH~1\AppData\Local\Temp\ccskN8Qo.s:2271   .text.ETH_GetReceiveProcessState:0000000000000000 .LFB83
C:\Users\LOCALH~1\AppData\Local\Temp\ccskN8Qo.s:2282   .text.ETH_GetReceiveProcessState:000000000000000c .LFE83
C:\Users\LOCALH~1\AppData\Local\Temp\ccskN8Qo.s:10988  .debug_str:0000000000001064 .LASF230
C:\Users\LOCALH~1\AppData\Local\Temp\ccskN8Qo.s:2253   .text.ETH_GetTransmitProcessState:0000000000000000 .LFB82
C:\Users\LOCALH~1\AppData\Local\Temp\ccskN8Qo.s:2264   .text.ETH_GetTransmitProcessState:000000000000000a .LFE82
C:\Users\LOCALH~1\AppData\Local\Temp\ccskN8Qo.s:10876  .debug_str:0000000000000bbc .LASF245
C:\Users\LOCALH~1\AppData\Local\Temp\ccskN8Qo.s:11018  .debug_str:0000000000001153 .LASF231
C:\Users\LOCALH~1\AppData\Local\Temp\ccskN8Qo.s:10626  .debug_str:00000000000003c7 .LASF232
C:\Users\LOCALH~1\AppData\Local\Temp\ccskN8Qo.s:10854  .debug_str:0000000000000af4 .LASF233
C:\Users\LOCALH~1\AppData\Local\Temp\ccskN8Qo.s:10982  .debug_str:0000000000001028 .LASF234
C:\Users\LOCALH~1\AppData\Local\Temp\ccskN8Qo.s:2184   .text.ETH_GetDMAFlagStatus:0000000000000000 .LFB78
C:\Users\LOCALH~1\AppData\Local\Temp\ccskN8Qo.s:2202   .text.ETH_GetDMAFlagStatus:000000000000000e .LFE78
C:\Users\LOCALH~1\AppData\Local\Temp\ccskN8Qo.s:8940   .debug_loclists:000000000000056d .LLST48
C:\Users\LOCALH~1\AppData\Local\Temp\ccskN8Qo.s:8955   .debug_loclists:0000000000000587 .LLST49
C:\Users\LOCALH~1\AppData\Local\Temp\ccskN8Qo.s:11130  .debug_str:00000000000014c3 .LASF235
C:\Users\LOCALH~1\AppData\Local\Temp\ccskN8Qo.s:2161   .text.ETH_GetlinkStaus:0000000000000000 .LFB77
C:\Users\LOCALH~1\AppData\Local\Temp\ccskN8Qo.s:2177   .text.ETH_GetlinkStaus:000000000000000a .LFE77
C:\Users\LOCALH~1\AppData\Local\Temp\ccskN8Qo.s:8994   .debug_loclists:00000000000005bf .LLST47
C:\Users\LOCALH~1\AppData\Local\Temp\ccskN8Qo.s:10848  .debug_str:0000000000000ac0 .LASF236
C:\Users\LOCALH~1\AppData\Local\Temp\ccskN8Qo.s:2138   .text.ETH_GetSoftwareResetStatus:0000000000000000 .LFB76
C:\Users\LOCALH~1\AppData\Local\Temp\ccskN8Qo.s:2154   .text.ETH_GetSoftwareResetStatus:000000000000000a .LFE76
C:\Users\LOCALH~1\AppData\Local\Temp\ccskN8Qo.s:9014   .debug_loclists:00000000000005de .LLST46
C:\Users\LOCALH~1\AppData\Local\Temp\ccskN8Qo.s:10984  .debug_str:000000000000103d .LASF237
C:\Users\LOCALH~1\AppData\Local\Temp\ccskN8Qo.s:2118   .text.ETH_SoftwareReset:0000000000000000 .LFB75
C:\Users\LOCALH~1\AppData\Local\Temp\ccskN8Qo.s:2131   .text.ETH_SoftwareReset:000000000000000e .LFE75
C:\Users\LOCALH~1\AppData\Local\Temp\ccskN8Qo.s:11030  .debug_str:00000000000011bf .LASF238
C:\Users\LOCALH~1\AppData\Local\Temp\ccskN8Qo.s:2089   .text.ETH_GetDMARxDescBufferSize:0000000000000000 .LFB74
C:\Users\LOCALH~1\AppData\Local\Temp\ccskN8Qo.s:2111   .text.ETH_GetDMARxDescBufferSize:000000000000000e .LFE74
C:\Users\LOCALH~1\AppData\Local\Temp\ccskN8Qo.s:9036   .debug_loclists:0000000000000605 .LLST45
C:\Users\LOCALH~1\AppData\Local\Temp\ccskN8Qo.s:11058  .debug_str:00000000000012a7 .LASF239
C:\Users\LOCALH~1\AppData\Local\Temp\ccskN8Qo.s:10920  .debug_str:0000000000000d12 .LASF240
C:\Users\LOCALH~1\AppData\Local\Temp\ccskN8Qo.s:2057   .text.ETH_DMARxDescSecondAddressChainedCmd:0000000000000000 .LFB73
C:\Users\LOCALH~1\AppData\Local\Temp\ccskN8Qo.s:2082   .text.ETH_DMARxDescSecondAddressChainedCmd:0000000000000014 .LFE73
C:\Users\LOCALH~1\AppData\Local\Temp\ccskN8Qo.s:11050  .debug_str:0000000000001268 .LASF241
C:\Users\LOCALH~1\AppData\Local\Temp\ccskN8Qo.s:2025   .text.ETH_DMARxDescEndOfRingCmd:0000000000000000 .LFB72
C:\Users\LOCALH~1\AppData\Local\Temp\ccskN8Qo.s:2050   .text.ETH_DMARxDescEndOfRingCmd:0000000000000014 .LFE72
C:\Users\LOCALH~1\AppData\Local\Temp\ccskN8Qo.s:10650  .debug_str:0000000000000491 .LASF242
C:\Users\LOCALH~1\AppData\Local\Temp\ccskN8Qo.s:1994   .text.ETH_DMARxDescReceiveITConfig:0000000000000000 .LFB71
C:\Users\LOCALH~1\AppData\Local\Temp\ccskN8Qo.s:2018   .text.ETH_DMARxDescReceiveITConfig:0000000000000014 .LFE71
C:\Users\LOCALH~1\AppData\Local\Temp\ccskN8Qo.s:10738  .debug_str:0000000000000703 .LASF244
C:\Users\LOCALH~1\AppData\Local\Temp\ccskN8Qo.s:10830  .debug_str:0000000000000a17 .LASF246
C:\Users\LOCALH~1\AppData\Local\Temp\ccskN8Qo.s:10794  .debug_str:00000000000008de .LASF247
C:\Users\LOCALH~1\AppData\Local\Temp\ccskN8Qo.s:10730  .debug_str:00000000000006c7 .LASF248
C:\Users\LOCALH~1\AppData\Local\Temp\ccskN8Qo.s:11116  .debug_str:0000000000001467 .LASF249
C:\Users\LOCALH~1\AppData\Local\Temp\ccskN8Qo.s:1869   .text.ETH_DMARxDescRingInit:0000000000000000 .LFB67
C:\Users\LOCALH~1\AppData\Local\Temp\ccskN8Qo.s:1935   .text.ETH_DMARxDescRingInit:0000000000000054 .LFE67
C:\Users\LOCALH~1\AppData\Local\Temp\ccskN8Qo.s:10778  .debug_str:000000000000087f .LASF250
C:\Users\LOCALH~1\AppData\Local\Temp\ccskN8Qo.s:10800  .debug_str:000000000000091f .LASF251
C:\Users\LOCALH~1\AppData\Local\Temp\ccskN8Qo.s:9051   .debug_loclists:000000000000061f .LLST42
C:\Users\LOCALH~1\AppData\Local\Temp\ccskN8Qo.s:9064   .debug_loclists:0000000000000637 .LLST43
C:\Users\LOCALH~1\AppData\Local\Temp\ccskN8Qo.s:11008  .debug_str:00000000000010fe .LASF252
C:\Users\LOCALH~1\AppData\Local\Temp\ccskN8Qo.s:1796   .text.ETH_DMARxDescChainInit:0000000000000000 .LFB66
C:\Users\LOCALH~1\AppData\Local\Temp\ccskN8Qo.s:1862   .text.ETH_DMARxDescChainInit:0000000000000050 .LFE66
C:\Users\LOCALH~1\AppData\Local\Temp\ccskN8Qo.s:9078   .debug_loclists:0000000000000650 .LLST40
C:\Users\LOCALH~1\AppData\Local\Temp\ccskN8Qo.s:9103   .debug_loclists:0000000000000680 .LLST41
C:\Users\LOCALH~1\AppData\Local\Temp\ccskN8Qo.s:10924  .debug_str:0000000000000d57 .LASF253
C:\Users\LOCALH~1\AppData\Local\Temp\ccskN8Qo.s:1771   .text.ETH_DMATxDescBufferSizeConfig:0000000000000000 .LFB65
C:\Users\LOCALH~1\AppData\Local\Temp\ccskN8Qo.s:1789   .text.ETH_DMATxDescBufferSizeConfig:000000000000000c .LFE65
C:\Users\LOCALH~1\AppData\Local\Temp\ccskN8Qo.s:10734  .debug_str:00000000000006eb .LASF254
C:\Users\LOCALH~1\AppData\Local\Temp\ccskN8Qo.s:10736  .debug_str:00000000000006f7 .LASF255
C:\Users\LOCALH~1\AppData\Local\Temp\ccskN8Qo.s:9117   .debug_loclists:0000000000000699 .LLST39
C:\Users\LOCALH~1\AppData\Local\Temp\ccskN8Qo.s:10530  .debug_str:0000000000000030 .LASF256
C:\Users\LOCALH~1\AppData\Local\Temp\ccskN8Qo.s:1738   .text.ETH_DMATxDescTimeStampCmd:0000000000000000 .LFB64
C:\Users\LOCALH~1\AppData\Local\Temp\ccskN8Qo.s:1764   .text.ETH_DMATxDescTimeStampCmd:0000000000000018 .LFE64
C:\Users\LOCALH~1\AppData\Local\Temp\ccskN8Qo.s:10968  .debug_str:0000000000000fc1 .LASF257
C:\Users\LOCALH~1\AppData\Local\Temp\ccskN8Qo.s:1705   .text.ETH_DMATxDescShortFramePaddingCmd:0000000000000000 .LFB63
C:\Users\LOCALH~1\AppData\Local\Temp\ccskN8Qo.s:1731   .text.ETH_DMATxDescShortFramePaddingCmd:0000000000000018 .LFE63
C:\Users\LOCALH~1\AppData\Local\Temp\ccskN8Qo.s:10838  .debug_str:0000000000000a64 .LASF258
C:\Users\LOCALH~1\AppData\Local\Temp\ccskN8Qo.s:1672   .text.ETH_DMATxDescSecondAddressChainedCmd:0000000000000000 .LFB62
C:\Users\LOCALH~1\AppData\Local\Temp\ccskN8Qo.s:1698   .text.ETH_DMATxDescSecondAddressChainedCmd:0000000000000018 .LFE62
C:\Users\LOCALH~1\AppData\Local\Temp\ccskN8Qo.s:10766  .debug_str:0000000000000810 .LASF259
C:\Users\LOCALH~1\AppData\Local\Temp\ccskN8Qo.s:1639   .text.ETH_DMATxDescEndOfRingCmd:0000000000000000 .LFB61
C:\Users\LOCALH~1\AppData\Local\Temp\ccskN8Qo.s:1665   .text.ETH_DMATxDescEndOfRingCmd:0000000000000018 .LFE61
C:\Users\LOCALH~1\AppData\Local\Temp\ccskN8Qo.s:10724  .debug_str:000000000000069d .LASF260
C:\Users\LOCALH~1\AppData\Local\Temp\ccskN8Qo.s:1606   .text.ETH_DMATxDescCRCCmd:0000000000000000 .LFB60
C:\Users\LOCALH~1\AppData\Local\Temp\ccskN8Qo.s:1632   .text.ETH_DMATxDescCRCCmd:0000000000000018 .LFE60
C:\Users\LOCALH~1\AppData\Local\Temp\ccskN8Qo.s:10776  .debug_str:000000000000085a .LASF261
C:\Users\LOCALH~1\AppData\Local\Temp\ccskN8Qo.s:10862  .debug_str:0000000000000b31 .LASF262
C:\Users\LOCALH~1\AppData\Local\Temp\ccskN8Qo.s:10578  .debug_str:0000000000000209 .LASF263
C:\Users\LOCALH~1\AppData\Local\Temp\ccskN8Qo.s:10860  .debug_str:0000000000000b1a .LASF264
C:\Users\LOCALH~1\AppData\Local\Temp\ccskN8Qo.s:10592  .debug_str:0000000000000295 .LASF265
C:\Users\LOCALH~1\AppData\Local\Temp\ccskN8Qo.s:1538   .text.ETH_DMATxDescTransmitITConfig:0000000000000000 .LFB57
C:\Users\LOCALH~1\AppData\Local\Temp\ccskN8Qo.s:1564   .text.ETH_DMATxDescTransmitITConfig:0000000000000018 .LFE57
C:\Users\LOCALH~1\AppData\Local\Temp\ccskN8Qo.s:10554  .debug_str:000000000000012f .LASF266
C:\Users\LOCALH~1\AppData\Local\Temp\ccskN8Qo.s:10590  .debug_str:0000000000000276 .LASF267
C:\Users\LOCALH~1\AppData\Local\Temp\ccskN8Qo.s:1496   .text.ETH_GetDMATxDescCollisionCount:0000000000000000 .LFB55
C:\Users\LOCALH~1\AppData\Local\Temp\ccskN8Qo.s:1510   .text.ETH_GetDMATxDescCollisionCount:0000000000000008 .LFE55
C:\Users\LOCALH~1\AppData\Local\Temp\ccskN8Qo.s:9132   .debug_loclists:00000000000006b3 .LLST38
C:\Users\LOCALH~1\AppData\Local\Temp\ccskN8Qo.s:11072  .debug_str:0000000000001306 .LASF268
C:\Users\LOCALH~1\AppData\Local\Temp\ccskN8Qo.s:11106  .debug_str:000000000000140f .LASF269
C:\Users\LOCALH~1\AppData\Local\Temp\ccskN8Qo.s:10636  .debug_str:0000000000000427 .LASF270
C:\Users\LOCALH~1\AppData\Local\Temp\ccskN8Qo.s:1408   .text.ETH_DMATxDescRingInit:0000000000000000 .LFB53
C:\Users\LOCALH~1\AppData\Local\Temp\ccskN8Qo.s:1465   .text.ETH_DMATxDescRingInit:0000000000000044 .LFE53
C:\Users\LOCALH~1\AppData\Local\Temp\ccskN8Qo.s:11092  .debug_str:00000000000013bc .LASF271
C:\Users\LOCALH~1\AppData\Local\Temp\ccskN8Qo.s:11094  .debug_str:00000000000013c4 .LASF272
C:\Users\LOCALH~1\AppData\Local\Temp\ccskN8Qo.s:9147   .debug_loclists:00000000000006cd .LLST34
C:\Users\LOCALH~1\AppData\Local\Temp\ccskN8Qo.s:9165   .debug_loclists:00000000000006f0 .LLST35
C:\Users\LOCALH~1\AppData\Local\Temp\ccskN8Qo.s:10616  .debug_str:000000000000036d .LASF273
C:\Users\LOCALH~1\AppData\Local\Temp\ccskN8Qo.s:1342   .text.ETH_DMATxDescChainInit:0000000000000000 .LFB52
C:\Users\LOCALH~1\AppData\Local\Temp\ccskN8Qo.s:1401   .text.ETH_DMATxDescChainInit:0000000000000046 .LFE52
C:\Users\LOCALH~1\AppData\Local\Temp\ccskN8Qo.s:9179   .debug_loclists:0000000000000709 .LLST32
C:\Users\LOCALH~1\AppData\Local\Temp\ccskN8Qo.s:9209   .debug_loclists:0000000000000744 .LLST33
C:\Users\LOCALH~1\AppData\Local\Temp\ccskN8Qo.s:10826  .debug_str:00000000000009eb .LASF274
C:\Users\LOCALH~1\AppData\Local\Temp\ccskN8Qo.s:1310   .text.ETH_MACAddressMaskBytesFilterConfig:0000000000000000 .LFB51
C:\Users\LOCALH~1\AppData\Local\Temp\ccskN8Qo.s:1335   .text.ETH_MACAddressMaskBytesFilterConfig:000000000000001e .LFE51
C:\Users\LOCALH~1\AppData\Local\Temp\ccskN8Qo.s:10538  .debug_str:0000000000000095 .LASF275
C:\Users\LOCALH~1\AppData\Local\Temp\ccskN8Qo.s:9223   .debug_loclists:000000000000075d .LLST31
C:\Users\LOCALH~1\AppData\Local\Temp\ccskN8Qo.s:10706  .debug_str:000000000000063a .LASF276
C:\Users\LOCALH~1\AppData\Local\Temp\ccskN8Qo.s:10536  .debug_str:000000000000007a .LASF277
C:\Users\LOCALH~1\AppData\Local\Temp\ccskN8Qo.s:1269   .text.ETH_MACAddressFilterConfig:0000000000000000 .LFB50
C:\Users\LOCALH~1\AppData\Local\Temp\ccskN8Qo.s:1303   .text.ETH_MACAddressFilterConfig:0000000000000028 .LFE50
C:\Users\LOCALH~1\AppData\Local\Temp\ccskN8Qo.s:9237   .debug_loclists:000000000000077a .LLST30
C:\Users\LOCALH~1\AppData\Local\Temp\ccskN8Qo.s:11080  .debug_str:000000000000135a .LASF278
C:\Users\LOCALH~1\AppData\Local\Temp\ccskN8Qo.s:10594  .debug_str:00000000000002b3 .LASF279
C:\Users\LOCALH~1\AppData\Local\Temp\ccskN8Qo.s:1233   .text.ETH_MACAddressPerfectFilterCmd:0000000000000000 .LFB49
C:\Users\LOCALH~1\AppData\Local\Temp\ccskN8Qo.s:1262   .text.ETH_MACAddressPerfectFilterCmd:000000000000001e .LFE49
C:\Users\LOCALH~1\AppData\Local\Temp\ccskN8Qo.s:9251   .debug_loclists:0000000000000797 .LLST29
C:\Users\LOCALH~1\AppData\Local\Temp\ccskN8Qo.s:10614  .debug_str:000000000000035b .LASF280
C:\Users\LOCALH~1\AppData\Local\Temp\ccskN8Qo.s:1176   .text.ETH_GetMACAddress:0000000000000000 .LFB48
C:\Users\LOCALH~1\AppData\Local\Temp\ccskN8Qo.s:1226   .text.ETH_GetMACAddress:0000000000000032 .LFE48
C:\Users\LOCALH~1\AppData\Local\Temp\ccskN8Qo.s:9265   .debug_loclists:00000000000007b4 .LLST27
C:\Users\LOCALH~1\AppData\Local\Temp\ccskN8Qo.s:10758  .debug_str:00000000000007d4 .LASF281
C:\Users\LOCALH~1\AppData\Local\Temp\ccskN8Qo.s:10990  .debug_str:0000000000001080 .LASF282
C:\Users\LOCALH~1\AppData\Local\Temp\ccskN8Qo.s:9279   .debug_loclists:00000000000007d1 .LLST28
C:\Users\LOCALH~1\AppData\Local\Temp\ccskN8Qo.s:10812  .debug_str:0000000000000988 .LASF283
C:\Users\LOCALH~1\AppData\Local\Temp\ccskN8Qo.s:1120   .text.ETH_MACAddressConfig:0000000000000000 .LFB47
C:\Users\LOCALH~1\AppData\Local\Temp\ccskN8Qo.s:1169   .text.ETH_MACAddressConfig:0000000000000032 .LFE47
C:\Users\LOCALH~1\AppData\Local\Temp\ccskN8Qo.s:9291   .debug_loclists:00000000000007e8 .LLST25
C:\Users\LOCALH~1\AppData\Local\Temp\ccskN8Qo.s:9305   .debug_loclists:0000000000000805 .LLST26
C:\Users\LOCALH~1\AppData\Local\Temp\ccskN8Qo.s:11038  .debug_str:0000000000001209 .LASF284
C:\Users\LOCALH~1\AppData\Local\Temp\ccskN8Qo.s:1082   .text.ETH_MACITConfig:0000000000000000 .LFB46
C:\Users\LOCALH~1\AppData\Local\Temp\ccskN8Qo.s:1113   .text.ETH_MACITConfig:000000000000001e .LFE46
C:\Users\LOCALH~1\AppData\Local\Temp\ccskN8Qo.s:10572  .debug_str:00000000000001cf .LASF285
C:\Users\LOCALH~1\AppData\Local\Temp\ccskN8Qo.s:9371   .debug_loclists:0000000000000852 .LLST24
C:\Users\LOCALH~1\AppData\Local\Temp\ccskN8Qo.s:10834  .debug_str:0000000000000a46 .LASF286
C:\Users\LOCALH~1\AppData\Local\Temp\ccskN8Qo.s:10684  .debug_str:000000000000056c .LASF287
C:\Users\LOCALH~1\AppData\Local\Temp\ccskN8Qo.s:1045   .text.ETH_GetMACFlagStatus:0000000000000000 .LFB44
C:\Users\LOCALH~1\AppData\Local\Temp\ccskN8Qo.s:1063   .text.ETH_GetMACFlagStatus:000000000000000e .LFE44
C:\Users\LOCALH~1\AppData\Local\Temp\ccskN8Qo.s:10764  .debug_str:0000000000000803 .LASF288
C:\Users\LOCALH~1\AppData\Local\Temp\ccskN8Qo.s:9399   .debug_loclists:0000000000000885 .LLST22
C:\Users\LOCALH~1\AppData\Local\Temp\ccskN8Qo.s:9414   .debug_loclists:000000000000089f .LLST23
C:\Users\LOCALH~1\AppData\Local\Temp\ccskN8Qo.s:11112  .debug_str:0000000000001442 .LASF289
C:\Users\LOCALH~1\AppData\Local\Temp\ccskN8Qo.s:1014   .text.ETH_BackPressureActivationCmd:0000000000000000 .LFB43
C:\Users\LOCALH~1\AppData\Local\Temp\ccskN8Qo.s:1038   .text.ETH_BackPressureActivationCmd:0000000000000014 .LFE43
C:\Users\LOCALH~1\AppData\Local\Temp\ccskN8Qo.s:10540  .debug_str:000000000000009d .LASF290
C:\Users\LOCALH~1\AppData\Local\Temp\ccskN8Qo.s:994    .text.ETH_InitiatePauseControlFrame:0000000000000000 .LFB42
C:\Users\LOCALH~1\AppData\Local\Temp\ccskN8Qo.s:1007   .text.ETH_InitiatePauseControlFrame:000000000000000e .LFE42
C:\Users\LOCALH~1\AppData\Local\Temp\ccskN8Qo.s:10624  .debug_str:00000000000003aa .LASF291
C:\Users\LOCALH~1\AppData\Local\Temp\ccskN8Qo.s:971    .text.ETH_GetFlowControlBusyStatus:0000000000000000 .LFB41
C:\Users\LOCALH~1\AppData\Local\Temp\ccskN8Qo.s:987    .text.ETH_GetFlowControlBusyStatus:000000000000000a .LFE41
C:\Users\LOCALH~1\AppData\Local\Temp\ccskN8Qo.s:9453   .debug_loclists:00000000000008d7 .LLST21
C:\Users\LOCALH~1\AppData\Local\Temp\ccskN8Qo.s:10898  .debug_str:0000000000000c79 .LASF292
C:\Users\LOCALH~1\AppData\Local\Temp\ccskN8Qo.s:10552  .debug_str:0000000000000118 .LASF293
C:\Users\LOCALH~1\AppData\Local\Temp\ccskN8Qo.s:10686  .debug_str:0000000000000581 .LASF294
C:\Users\LOCALH~1\AppData\Local\Temp\ccskN8Qo.s:824    .text.ETH_PHYLoopBackCmd:0000000000000000 .LFB38
C:\Users\LOCALH~1\AppData\Local\Temp\ccskN8Qo.s:882    .text.ETH_PHYLoopBackCmd:0000000000000044 .LFE38
C:\Users\LOCALH~1\AppData\Local\Temp\ccskN8Qo.s:11014  .debug_str:000000000000112f .LASF295
C:\Users\LOCALH~1\AppData\Local\Temp\ccskN8Qo.s:9475   .debug_loclists:00000000000008fe .LLST14
C:\Users\LOCALH~1\AppData\Local\Temp\ccskN8Qo.s:9490   .debug_loclists:0000000000000918 .LLST15
C:\Users\LOCALH~1\AppData\Local\Temp\ccskN8Qo.s:9502   .debug_loclists:000000000000092f .LLST16
C:\Users\LOCALH~1\AppData\Local\Temp\ccskN8Qo.s:845    .text.ETH_PHYLoopBackCmd:0000000000000016 .LVL50
C:\Users\LOCALH~1\AppData\Local\Temp\ccskN8Qo.s:863    .text.ETH_PHYLoopBackCmd:000000000000002e .LVL52
C:\Users\LOCALH~1\AppData\Local\Temp\ccskN8Qo.s:10900  .debug_str:0000000000000c8d .LASF296
C:\Users\LOCALH~1\AppData\Local\Temp\ccskN8Qo.s:724    .text.ETH_WritePHYRegister:0000000000000000 .LFB37
C:\Users\LOCALH~1\AppData\Local\Temp\ccskN8Qo.s:817    .text.ETH_WritePHYRegister:0000000000000052 .LFE37
C:\Users\LOCALH~1\AppData\Local\Temp\ccskN8Qo.s:9525   .debug_loclists:000000000000095d .LLST11
C:\Users\LOCALH~1\AppData\Local\Temp\ccskN8Qo.s:10950  .debug_str:0000000000000f4c .LASF297
C:\Users\LOCALH~1\AppData\Local\Temp\ccskN8Qo.s:9540   .debug_loclists:0000000000000977 .LLST12
C:\Users\LOCALH~1\AppData\Local\Temp\ccskN8Qo.s:10856  .debug_str:0000000000000b01 .LASF298
C:\Users\LOCALH~1\AppData\Local\Temp\ccskN8Qo.s:9555   .debug_loclists:0000000000000991 .LLST13
C:\Users\LOCALH~1\AppData\Local\Temp\ccskN8Qo.s:10974  .debug_str:0000000000000ff4 .LASF299
C:\Users\LOCALH~1\AppData\Local\Temp\ccskN8Qo.s:617    .text.ETH_ReadPHYRegister:0000000000000000 .LFB36
C:\Users\LOCALH~1\AppData\Local\Temp\ccskN8Qo.s:717    .text.ETH_ReadPHYRegister:0000000000000058 .LFE36
C:\Users\LOCALH~1\AppData\Local\Temp\ccskN8Qo.s:9592   .debug_loclists:00000000000009d9 .LLST8
C:\Users\LOCALH~1\AppData\Local\Temp\ccskN8Qo.s:9607   .debug_loclists:00000000000009f3 .LLST9
C:\Users\LOCALH~1\AppData\Local\Temp\ccskN8Qo.s:9622   .debug_loclists:0000000000000a0d .LLST10
C:\Users\LOCALH~1\AppData\Local\Temp\ccskN8Qo.s:10820  .debug_str:00000000000009c2 .LASF300
C:\Users\LOCALH~1\AppData\Local\Temp\ccskN8Qo.s:556    .text.ETH_DropRxPkt:0000000000000000 .LFB35
C:\Users\LOCALH~1\AppData\Local\Temp\ccskN8Qo.s:610    .text.ETH_DropRxPkt:000000000000003c .LFE35
C:\Users\LOCALH~1\AppData\Local\Temp\ccskN8Qo.s:10710  .debug_str:0000000000000648 .LASF301
C:\Users\LOCALH~1\AppData\Local\Temp\ccskN8Qo.s:500    .text.ETH_GetRxPktSize:0000000000000000 .LFB34
C:\Users\LOCALH~1\AppData\Local\Temp\ccskN8Qo.s:549    .text.ETH_GetRxPktSize:0000000000000030 .LFE34
C:\Users\LOCALH~1\AppData\Local\Temp\ccskN8Qo.s:10822  .debug_str:00000000000009d0 .LASF302
C:\Users\LOCALH~1\AppData\Local\Temp\ccskN8Qo.s:9650   .debug_loclists:0000000000000a46 .LLST6
C:\Users\LOCALH~1\AppData\Local\Temp\ccskN8Qo.s:534    .text.ETH_GetRxPktSize:0000000000000028 .LBB12
C:\Users\LOCALH~1\AppData\Local\Temp\ccskN8Qo.s:545    .text.ETH_GetRxPktSize:000000000000002e .LBE12
C:\Users\LOCALH~1\AppData\Local\Temp\ccskN8Qo.s:9658   .debug_loclists:0000000000000a53 .LLST7
C:\Users\LOCALH~1\AppData\Local\Temp\ccskN8Qo.s:10976  .debug_str:0000000000001008 .LASF303
C:\Users\LOCALH~1\AppData\Local\Temp\ccskN8Qo.s:346    .text.ETH_HandleRxPkt:0000000000000000 .LFB33
C:\Users\LOCALH~1\AppData\Local\Temp\ccskN8Qo.s:493    .text.ETH_HandleRxPkt:000000000000009a .LFE33
C:\Users\LOCALH~1\AppData\Local\Temp\ccskN8Qo.s:9665   .debug_loclists:0000000000000a5f .LLST3
C:\Users\LOCALH~1\AppData\Local\Temp\ccskN8Qo.s:9708   .debug_loclists:0000000000000ab3 .LLST4
C:\Users\LOCALH~1\AppData\Local\Temp\ccskN8Qo.s:9744   .debug_loclists:0000000000000afa .LLST5
C:\Users\LOCALH~1\AppData\Local\Temp\ccskN8Qo.s:10782  .debug_str:0000000000000894 .LASF304
C:\Users\LOCALH~1\AppData\Local\Temp\ccskN8Qo.s:209    .text.ETH_HandleTxPkt:0000000000000000 .LFB32
C:\Users\LOCALH~1\AppData\Local\Temp\ccskN8Qo.s:339    .text.ETH_HandleTxPkt:000000000000008a .LFE32
C:\Users\LOCALH~1\AppData\Local\Temp\ccskN8Qo.s:9763   .debug_loclists:0000000000000b1e .LLST0
C:\Users\LOCALH~1\AppData\Local\Temp\ccskN8Qo.s:9796   .debug_loclists:0000000000000b5c .LLST1
C:\Users\LOCALH~1\AppData\Local\Temp\ccskN8Qo.s:9811   .debug_loclists:0000000000000b76 .LLST2
C:\Users\LOCALH~1\AppData\Local\Temp\ccskN8Qo.s:11004  .debug_str:00000000000010d3 .LASF305
C:\Users\LOCALH~1\AppData\Local\Temp\ccskN8Qo.s:2310   .text.ETH_Start:0000000000000000 .LFB31
C:\Users\LOCALH~1\AppData\Local\Temp\ccskN8Qo.s:2403   .text.ETH_Start:0000000000000040 .LFE31
C:\Users\LOCALH~1\AppData\Local\Temp\ccskN8Qo.s:2319   .text.ETH_Start:0000000000000008 .LBB42
C:\Users\LOCALH~1\AppData\Local\Temp\ccskN8Qo.s:2333   .text.ETH_Start:0000000000000014 .LBE42
C:\Users\LOCALH~1\AppData\Local\Temp\ccskN8Qo.s:9824   .debug_loclists:0000000000000b8e .LLST50
C:\Users\LOCALH~1\AppData\Local\Temp\ccskN8Qo.s:2321   .text.ETH_Start:0000000000000008 .LBB43
C:\Users\LOCALH~1\AppData\Local\Temp\ccskN8Qo.s:2332   .text.ETH_Start:0000000000000014 .LBE43
C:\Users\LOCALH~1\AppData\Local\Temp\ccskN8Qo.s:2338   .text.ETH_Start:000000000000001c .LBB45
C:\Users\LOCALH~1\AppData\Local\Temp\ccskN8Qo.s:10194  .debug_rnglists:0000000000000032 .LLRL52
C:\Users\LOCALH~1\AppData\Local\Temp\ccskN8Qo.s:9832   .debug_loclists:0000000000000b9b .LLST53
C:\Users\LOCALH~1\AppData\Local\Temp\ccskN8Qo.s:2340   .text.ETH_Start:000000000000001c .LBB46
C:\Users\LOCALH~1\AppData\Local\Temp\ccskN8Qo.s:2348   .text.ETH_Start:000000000000001e .LBB50
C:\Users\LOCALH~1\AppData\Local\Temp\ccskN8Qo.s:10202  .debug_rnglists:0000000000000045 .LLRL55
C:\Users\LOCALH~1\AppData\Local\Temp\ccskN8Qo.s:9840   .debug_loclists:0000000000000ba8 .LLST56
C:\Users\LOCALH~1\AppData\Local\Temp\ccskN8Qo.s:2349   .text.ETH_Start:000000000000001e .LBB51
C:\Users\LOCALH~1\AppData\Local\Temp\ccskN8Qo.s:2383   .text.ETH_Start:0000000000000030 .LBB57
C:\Users\LOCALH~1\AppData\Local\Temp\ccskN8Qo.s:2396   .text.ETH_Start:0000000000000038 .LBE57
C:\Users\LOCALH~1\AppData\Local\Temp\ccskN8Qo.s:9848   .debug_loclists:0000000000000bb5 .LLST58
C:\Users\LOCALH~1\AppData\Local\Temp\ccskN8Qo.s:2385   .text.ETH_Start:0000000000000030 .LBB58
C:\Users\LOCALH~1\AppData\Local\Temp\ccskN8Qo.s:2395   .text.ETH_Start:0000000000000038 .LBE58
C:\Users\LOCALH~1\AppData\Local\Temp\ccskN8Qo.s:2336   .text.ETH_Start:000000000000001c .LVL145
C:\Users\LOCALH~1\AppData\Local\Temp\ccskN8Qo.s:11136  .debug_str:00000000000014f4 .LASF306
C:\Users\LOCALH~1\AppData\Local\Temp\ccskN8Qo.s:44     .text.ETH_StructInit:0000000000000000 .LFB30
C:\Users\LOCALH~1\AppData\Local\Temp\ccskN8Qo.s:202    .text.ETH_StructInit:00000000000000d0 .LFE30
C:\Users\LOCALH~1\AppData\Local\Temp\ccskN8Qo.s:10608  .debug_str:0000000000000338 .LASF307
C:\Users\LOCALH~1\AppData\Local\Temp\ccskN8Qo.s:10588  .debug_str:000000000000026b .LASF308
C:\Users\LOCALH~1\AppData\Local\Temp\ccskN8Qo.s:15     .text.ETH_DeInit:0000000000000000 .LFB29
C:\Users\LOCALH~1\AppData\Local\Temp\ccskN8Qo.s:37     .text.ETH_DeInit:0000000000000028 .LFE29
C:\Users\LOCALH~1\AppData\Local\Temp\ccskN8Qo.s:26     .text.ETH_DeInit:0000000000000014 .LVL0
C:\Users\LOCALH~1\AppData\Local\Temp\ccskN8Qo.s:31     .text.ETH_DeInit:0000000000000020 .LVL1
C:\Users\LOCALH~1\AppData\Local\Temp\ccskN8Qo.s:889    .text.ETH_MACTransmissionCmd:0000000000000000 .LFB39
C:\Users\LOCALH~1\AppData\Local\Temp\ccskN8Qo.s:923    .text.ETH_MACTransmissionCmd:0000000000000014 .LFE39
C:\Users\LOCALH~1\AppData\Local\Temp\ccskN8Qo.s:894    .text.ETH_MACTransmissionCmd:0000000000000000 .LBB16
C:\Users\LOCALH~1\AppData\Local\Temp\ccskN8Qo.s:10178  .debug_rnglists:000000000000000c .LLRL17
C:\Users\LOCALH~1\AppData\Local\Temp\ccskN8Qo.s:9856   .debug_loclists:0000000000000bc2 .LLST18
C:\Users\LOCALH~1\AppData\Local\Temp\ccskN8Qo.s:930    .text.ETH_MACReceptionCmd:0000000000000000 .LFB40
C:\Users\LOCALH~1\AppData\Local\Temp\ccskN8Qo.s:964    .text.ETH_MACReceptionCmd:0000000000000014 .LFE40
C:\Users\LOCALH~1\AppData\Local\Temp\ccskN8Qo.s:935    .text.ETH_MACReceptionCmd:0000000000000000 .LBB22
C:\Users\LOCALH~1\AppData\Local\Temp\ccskN8Qo.s:10186  .debug_rnglists:000000000000001f .LLRL19
C:\Users\LOCALH~1\AppData\Local\Temp\ccskN8Qo.s:9863   .debug_loclists:0000000000000bce .LLST20
C:\Users\LOCALH~1\AppData\Local\Temp\ccskN8Qo.s:1472   .text.ETH_GetDMATxDescFlagStatus:0000000000000000 .LFB54
C:\Users\LOCALH~1\AppData\Local\Temp\ccskN8Qo.s:1489   .text.ETH_GetDMATxDescFlagStatus:000000000000000a .LFE54
C:\Users\LOCALH~1\AppData\Local\Temp\ccskN8Qo.s:9870   .debug_loclists:0000000000000bda .LLST36
C:\Users\LOCALH~1\AppData\Local\Temp\ccskN8Qo.s:9885   .debug_loclists:0000000000000bf4 .LLST37
C:\Users\LOCALH~1\AppData\Local\Temp\ccskN8Qo.s:1517   .text.ETH_SetDMATxDescOwnBit:0000000000000000 .LFB56
C:\Users\LOCALH~1\AppData\Local\Temp\ccskN8Qo.s:1531   .text.ETH_SetDMATxDescOwnBit:000000000000000c .LFE56
C:\Users\LOCALH~1\AppData\Local\Temp\ccskN8Qo.s:1571   .text.ETH_DMATxDescFrameSegmentConfig:0000000000000000 .LFB58
C:\Users\LOCALH~1\AppData\Local\Temp\ccskN8Qo.s:1584   .text.ETH_DMATxDescFrameSegmentConfig:0000000000000008 .LFE58
C:\Users\LOCALH~1\AppData\Local\Temp\ccskN8Qo.s:1973   .text.ETH_GetDMARxDescFrameLength:0000000000000000 .LFB70
C:\Users\LOCALH~1\AppData\Local\Temp\ccskN8Qo.s:1987   .text.ETH_GetDMARxDescFrameLength:0000000000000008 .LFE70
C:\Users\LOCALH~1\AppData\Local\Temp\ccskN8Qo.s:9908   .debug_loclists:0000000000000c16 .LLST44
C:\Users\LOCALH~1\AppData\Local\Temp\ccskN8Qo.s:2209   .text.ETH_DMAClearFlag:0000000000000000 .LFB79
C:\Users\LOCALH~1\AppData\Local\Temp\ccskN8Qo.s:2220   .text.ETH_DMAClearFlag:0000000000000008 .LFE79
C:\Users\LOCALH~1\AppData\Local\Temp\ccskN8Qo.s:2435   .text.ETH_DMATransmissionCmd:0000000000000000 .LFB86
C:\Users\LOCALH~1\AppData\Local\Temp\ccskN8Qo.s:2471   .text.ETH_DMATransmissionCmd:0000000000000020 .LFE86
C:\Users\LOCALH~1\AppData\Local\Temp\ccskN8Qo.s:2443   .text.ETH_DMATransmissionCmd:0000000000000002 .LBB62
C:\Users\LOCALH~1\AppData\Local\Temp\ccskN8Qo.s:2458   .text.ETH_DMATransmissionCmd:0000000000000010 .LBE62
C:\Users\LOCALH~1\AppData\Local\Temp\ccskN8Qo.s:9923   .debug_loclists:0000000000000c30 .LLST61
C:\Users\LOCALH~1\AppData\Local\Temp\ccskN8Qo.s:2478   .text.ETH_DMAReceptionCmd:0000000000000000 .LFB87
C:\Users\LOCALH~1\AppData\Local\Temp\ccskN8Qo.s:2512   .text.ETH_DMAReceptionCmd:0000000000000014 .LFE87
C:\Users\LOCALH~1\AppData\Local\Temp\ccskN8Qo.s:2483   .text.ETH_DMAReceptionCmd:0000000000000000 .LBB66
C:\Users\LOCALH~1\AppData\Local\Temp\ccskN8Qo.s:10210  .debug_rnglists:0000000000000058 .LLRL62
C:\Users\LOCALH~1\AppData\Local\Temp\ccskN8Qo.s:9930   .debug_loclists:0000000000000c3c .LLST63
C:\Users\LOCALH~1\AppData\Local\Temp\ccskN8Qo.s:3162   .text.ETH_GetMMCRegister:0000000000000000 .LFB111
C:\Users\LOCALH~1\AppData\Local\Temp\ccskN8Qo.s:3177   .text.ETH_GetMMCRegister:000000000000000a .LFE111
C:\Users\LOCALH~1\AppData\Local\Temp\ccskN8Qo.s:9937   .debug_loclists:0000000000000c48 .LLST74
C:\Users\LOCALH~1\AppData\Local\Temp\ccskN8Qo.s:4027   .text.RGMII_TXC_Delay:0000000000000000 .LVL243
C:\Users\LOCALH~1\AppData\Local\Temp\ccskN8Qo.s:4050   .text.RGMII_TXC_Delay:000000000000001c .LVL244
C:\Users\LOCALH~1\AppData\Local\Temp\ccskN8Qo.s:4057   .text.RGMII_TXC_Delay:0000000000000022 .LVL245
C:\Users\LOCALH~1\AppData\Local\Temp\ccskN8Qo.s:3838   .text.ETH_HandlePTPRxPkt:0000000000000000 .LVL231
C:\Users\LOCALH~1\AppData\Local\Temp\ccskN8Qo.s:3855   .text.ETH_HandlePTPRxPkt:0000000000000016 .LVL232
C:\Users\LOCALH~1\AppData\Local\Temp\ccskN8Qo.s:3912   .text.ETH_HandlePTPRxPkt:000000000000005e .LVL236
C:\Users\LOCALH~1\AppData\Local\Temp\ccskN8Qo.s:3955   .text.ETH_HandlePTPRxPkt:000000000000008c .LVL237
C:\Users\LOCALH~1\AppData\Local\Temp\ccskN8Qo.s:3975   .text.ETH_HandlePTPRxPkt:00000000000000a4 .LVL240
C:\Users\LOCALH~1\AppData\Local\Temp\ccskN8Qo.s:4009   .text.ETH_HandlePTPRxPkt:00000000000000c8 .LVL241
C:\Users\LOCALH~1\AppData\Local\Temp\ccskN8Qo.s:4013   .text.ETH_HandlePTPRxPkt:00000000000000ca .LVL242
C:\Users\LOCALH~1\AppData\Local\Temp\ccskN8Qo.s:3909   .text.ETH_HandlePTPRxPkt:000000000000005a .LVL235
C:\Users\LOCALH~1\AppData\Local\Temp\ccskN8Qo.s:3883   .text.ETH_HandlePTPRxPkt:000000000000003e .LVL233
C:\Users\LOCALH~1\AppData\Local\Temp\ccskN8Qo.s:3888   .text.ETH_HandlePTPRxPkt:0000000000000042 .LVL234
C:\Users\LOCALH~1\AppData\Local\Temp\ccskN8Qo.s:3969   .text.ETH_HandlePTPRxPkt:000000000000009e .LVL238
C:\Users\LOCALH~1\AppData\Local\Temp\ccskN8Qo.s:3973   .text.ETH_HandlePTPRxPkt:00000000000000a2 .LVL239
C:\Users\LOCALH~1\AppData\Local\Temp\ccskN8Qo.s:3626   .text.ETH_HandlePTPTxPkt:0000000000000000 .LVL217
C:\Users\LOCALH~1\AppData\Local\Temp\ccskN8Qo.s:3688   .text.ETH_HandlePTPTxPkt:0000000000000054 .LVL221
C:\Users\LOCALH~1\AppData\Local\Temp\ccskN8Qo.s:3757   .text.ETH_HandlePTPTxPkt:0000000000000098 .LVL226
C:\Users\LOCALH~1\AppData\Local\Temp\ccskN8Qo.s:3774   .text.ETH_HandlePTPTxPkt:00000000000000b0 .LVL228
C:\Users\LOCALH~1\AppData\Local\Temp\ccskN8Qo.s:3820   .text.ETH_HandlePTPTxPkt:00000000000000e4 .LVL229
C:\Users\LOCALH~1\AppData\Local\Temp\ccskN8Qo.s:3824   .text.ETH_HandlePTPTxPkt:00000000000000e6 .LVL230
C:\Users\LOCALH~1\AppData\Local\Temp\ccskN8Qo.s:3649   .text.ETH_HandlePTPTxPkt:0000000000000022 .LVL220
C:\Users\LOCALH~1\AppData\Local\Temp\ccskN8Qo.s:3715   .text.ETH_HandlePTPTxPkt:0000000000000068 .LVL224
C:\Users\LOCALH~1\AppData\Local\Temp\ccskN8Qo.s:3730   .text.ETH_HandlePTPTxPkt:0000000000000076 .LVL225
C:\Users\LOCALH~1\AppData\Local\Temp\ccskN8Qo.s:3639   .text.ETH_HandlePTPTxPkt:000000000000001a .LVL218
C:\Users\LOCALH~1\AppData\Local\Temp\ccskN8Qo.s:3646   .text.ETH_HandlePTPTxPkt:0000000000000020 .LVL219
C:\Users\LOCALH~1\AppData\Local\Temp\ccskN8Qo.s:3701   .text.ETH_HandlePTPTxPkt:000000000000005c .LVL222
C:\Users\LOCALH~1\AppData\Local\Temp\ccskN8Qo.s:3703   .text.ETH_HandlePTPTxPkt:000000000000005e .LVL223
C:\Users\LOCALH~1\AppData\Local\Temp\ccskN8Qo.s:3535   .text.ETH_DMAPTPRxDescChainInit:0000000000000000 .LVL210
C:\Users\LOCALH~1\AppData\Local\Temp\ccskN8Qo.s:3558   .text.ETH_DMAPTPRxDescChainInit:000000000000002a .LVL211
C:\Users\LOCALH~1\AppData\Local\Temp\ccskN8Qo.s:3565   .text.ETH_DMAPTPRxDescChainInit:0000000000000030 .LVL212
C:\Users\LOCALH~1\AppData\Local\Temp\ccskN8Qo.s:3577   .text.ETH_DMAPTPRxDescChainInit:000000000000003e .LVL213
C:\Users\LOCALH~1\AppData\Local\Temp\ccskN8Qo.s:3608   .text.ETH_DMAPTPRxDescChainInit:0000000000000068 .LVL214
C:\Users\LOCALH~1\AppData\Local\Temp\ccskN8Qo.s:3610   .text.ETH_DMAPTPRxDescChainInit:000000000000006a .LVL215
C:\Users\LOCALH~1\AppData\Local\Temp\ccskN8Qo.s:3612   .text.ETH_DMAPTPRxDescChainInit:000000000000006c .LVL216
C:\Users\LOCALH~1\AppData\Local\Temp\ccskN8Qo.s:3450   .text.ETH_DMAPTPTxDescChainInit:0000000000000000 .LVL201
C:\Users\LOCALH~1\AppData\Local\Temp\ccskN8Qo.s:3504   .text.ETH_DMAPTPTxDescChainInit:0000000000000050 .LVL205
C:\Users\LOCALH~1\AppData\Local\Temp\ccskN8Qo.s:3507   .text.ETH_DMAPTPTxDescChainInit:0000000000000052 .LVL206
C:\Users\LOCALH~1\AppData\Local\Temp\ccskN8Qo.s:3468   .text.ETH_DMAPTPTxDescChainInit:0000000000000024 .LVL202
C:\Users\LOCALH~1\AppData\Local\Temp\ccskN8Qo.s:3475   .text.ETH_DMAPTPTxDescChainInit:000000000000002a .LVL203
C:\Users\LOCALH~1\AppData\Local\Temp\ccskN8Qo.s:3487   .text.ETH_DMAPTPTxDescChainInit:0000000000000038 .LVL204
C:\Users\LOCALH~1\AppData\Local\Temp\ccskN8Qo.s:3517   .text.ETH_DMAPTPTxDescChainInit:000000000000005e .LVL207
C:\Users\LOCALH~1\AppData\Local\Temp\ccskN8Qo.s:3519   .text.ETH_DMAPTPTxDescChainInit:0000000000000060 .LVL208
C:\Users\LOCALH~1\AppData\Local\Temp\ccskN8Qo.s:3521   .text.ETH_DMAPTPTxDescChainInit:0000000000000062 .LVL209
C:\Users\LOCALH~1\AppData\Local\Temp\ccskN8Qo.s:3372   .text.ETH_SetPTPTimeStampUpdate:0000000000000000 .LVL197
C:\Users\LOCALH~1\AppData\Local\Temp\ccskN8Qo.s:3380   .text.ETH_SetPTPTimeStampUpdate:000000000000000a .LVL198
C:\Users\LOCALH~1\AppData\Local\Temp\ccskN8Qo.s:3329   .text.ETH_GetPTPFlagStatus:0000000000000000 .LVL193
C:\Users\LOCALH~1\AppData\Local\Temp\ccskN8Qo.s:3339   .text.ETH_GetPTPFlagStatus:000000000000000a .LVL195
C:\Users\LOCALH~1\AppData\Local\Temp\ccskN8Qo.s:3335   .text.ETH_GetPTPFlagStatus:0000000000000008 .LVL194
C:\Users\LOCALH~1\AppData\Local\Temp\ccskN8Qo.s:3116   .text.ETH_GetMMCITStatus:0000000000000000 .LVL184
C:\Users\LOCALH~1\AppData\Local\Temp\ccskN8Qo.s:3134   .text.ETH_GetMMCITStatus:0000000000000016 .LVL185
C:\Users\LOCALH~1\AppData\Local\Temp\ccskN8Qo.s:3148   .text.ETH_GetMMCITStatus:0000000000000026 .LVL187
C:\Users\LOCALH~1\AppData\Local\Temp\ccskN8Qo.s:3143   .text.ETH_GetMMCITStatus:0000000000000024 .LVL186
C:\Users\LOCALH~1\AppData\Local\Temp\ccskN8Qo.s:3040   .text.ETH_MMCITConfig:0000000000000000 .LVL176
C:\Users\LOCALH~1\AppData\Local\Temp\ccskN8Qo.s:3052   .text.ETH_MMCITConfig:0000000000000010 .LVL177
C:\Users\LOCALH~1\AppData\Local\Temp\ccskN8Qo.s:3062   .text.ETH_MMCITConfig:000000000000001e .LVL178
C:\Users\LOCALH~1\AppData\Local\Temp\ccskN8Qo.s:3065   .text.ETH_MMCITConfig:0000000000000020 .LVL179
C:\Users\LOCALH~1\AppData\Local\Temp\ccskN8Qo.s:3068   .text.ETH_MMCITConfig:0000000000000026 .LVL180
C:\Users\LOCALH~1\AppData\Local\Temp\ccskN8Qo.s:3088   .text.ETH_MMCITConfig:0000000000000044 .LVL181
C:\Users\LOCALH~1\AppData\Local\Temp\ccskN8Qo.s:3091   .text.ETH_MMCITConfig:0000000000000046 .LVL182
C:\Users\LOCALH~1\AppData\Local\Temp\ccskN8Qo.s:3094   .text.ETH_MMCITConfig:000000000000004c .LVL183
C:\Users\LOCALH~1\AppData\Local\Temp\ccskN8Qo.s:2809   .text.ETH_GetPMTFlagStatus:0000000000000000 .LVL167
C:\Users\LOCALH~1\AppData\Local\Temp\ccskN8Qo.s:2819   .text.ETH_GetPMTFlagStatus:0000000000000008 .LVL169
C:\Users\LOCALH~1\AppData\Local\Temp\ccskN8Qo.s:2815   .text.ETH_GetPMTFlagStatus:0000000000000006 .LVL168
C:\Users\LOCALH~1\AppData\Local\Temp\ccskN8Qo.s:2746   .text.ETH_SetWakeUpFrameFilterRegister:0000000000000000 .LVL164
C:\Users\LOCALH~1\AppData\Local\Temp\ccskN8Qo.s:2753   .text.ETH_SetWakeUpFrameFilterRegister:0000000000000008 .LVL165
C:\Users\LOCALH~1\AppData\Local\Temp\ccskN8Qo.s:2559   .text.ETH_GetDMAOverflowStatus:0000000000000000 .LVL161
C:\Users\LOCALH~1\AppData\Local\Temp\ccskN8Qo.s:2569   .text.ETH_GetDMAOverflowStatus:0000000000000008 .LVL163
C:\Users\LOCALH~1\AppData\Local\Temp\ccskN8Qo.s:2565   .text.ETH_GetDMAOverflowStatus:0000000000000006 .LVL162
C:\Users\LOCALH~1\AppData\Local\Temp\ccskN8Qo.s:2522   .text.ETH_DMAITConfig:0000000000000000 .LVL158
C:\Users\LOCALH~1\AppData\Local\Temp\ccskN8Qo.s:2541   .text.ETH_DMAITConfig:0000000000000018 .LVL159
C:\Users\LOCALH~1\AppData\Local\Temp\ccskN8Qo.s:2544   .text.ETH_DMAITConfig:000000000000001a .LVL160
C:\Users\LOCALH~1\AppData\Local\Temp\ccskN8Qo.s:2414   .text.ETH_GetFlushTransmitFIFOStatus:0000000000000000 .LVL149
C:\Users\LOCALH~1\AppData\Local\Temp\ccskN8Qo.s:2419   .text.ETH_GetFlushTransmitFIFOStatus:0000000000000006 .LVL150
C:\Users\LOCALH~1\AppData\Local\Temp\ccskN8Qo.s:2423   .text.ETH_GetFlushTransmitFIFOStatus:0000000000000008 .LVL151
C:\Users\LOCALH~1\AppData\Local\Temp\ccskN8Qo.s:2187   .text.ETH_GetDMAFlagStatus:0000000000000000 .LVL139
C:\Users\LOCALH~1\AppData\Local\Temp\ccskN8Qo.s:2197   .text.ETH_GetDMAFlagStatus:0000000000000008 .LVL141
C:\Users\LOCALH~1\AppData\Local\Temp\ccskN8Qo.s:2193   .text.ETH_GetDMAFlagStatus:0000000000000006 .LVL140
C:\Users\LOCALH~1\AppData\Local\Temp\ccskN8Qo.s:2165   .text.ETH_GetlinkStaus:0000000000000000 .LVL136
C:\Users\LOCALH~1\AppData\Local\Temp\ccskN8Qo.s:2170   .text.ETH_GetlinkStaus:0000000000000006 .LVL137
C:\Users\LOCALH~1\AppData\Local\Temp\ccskN8Qo.s:2174   .text.ETH_GetlinkStaus:0000000000000008 .LVL138
C:\Users\LOCALH~1\AppData\Local\Temp\ccskN8Qo.s:2142   .text.ETH_GetSoftwareResetStatus:0000000000000000 .LVL133
C:\Users\LOCALH~1\AppData\Local\Temp\ccskN8Qo.s:2147   .text.ETH_GetSoftwareResetStatus:0000000000000006 .LVL134
C:\Users\LOCALH~1\AppData\Local\Temp\ccskN8Qo.s:2151   .text.ETH_GetSoftwareResetStatus:0000000000000008 .LVL135
C:\Users\LOCALH~1\AppData\Local\Temp\ccskN8Qo.s:2092   .text.ETH_GetDMARxDescBufferSize:0000000000000000 .LVL131
C:\Users\LOCALH~1\AppData\Local\Temp\ccskN8Qo.s:2097   .text.ETH_GetDMARxDescBufferSize:0000000000000004 .LVL132
C:\Users\LOCALH~1\AppData\Local\Temp\ccskN8Qo.s:1872   .text.ETH_DMARxDescRingInit:0000000000000000 .LVL121
C:\Users\LOCALH~1\AppData\Local\Temp\ccskN8Qo.s:1892   .text.ETH_DMARxDescRingInit:000000000000001e .LVL122
C:\Users\LOCALH~1\AppData\Local\Temp\ccskN8Qo.s:1904   .text.ETH_DMARxDescRingInit:000000000000002a .LVL123
C:\Users\LOCALH~1\AppData\Local\Temp\ccskN8Qo.s:1932   .text.ETH_DMARxDescRingInit:0000000000000052 .LVL125
C:\Users\LOCALH~1\AppData\Local\Temp\ccskN8Qo.s:1799   .text.ETH_DMARxDescChainInit:0000000000000000 .LVL115
C:\Users\LOCALH~1\AppData\Local\Temp\ccskN8Qo.s:1819   .text.ETH_DMARxDescChainInit:000000000000001e .LVL116
C:\Users\LOCALH~1\AppData\Local\Temp\ccskN8Qo.s:1855   .text.ETH_DMARxDescChainInit:000000000000004a .LVL118
C:\Users\LOCALH~1\AppData\Local\Temp\ccskN8Qo.s:1857   .text.ETH_DMARxDescChainInit:000000000000004c .LVL119
C:\Users\LOCALH~1\AppData\Local\Temp\ccskN8Qo.s:1831   .text.ETH_DMARxDescChainInit:000000000000002a .LVL117
C:\Users\LOCALH~1\AppData\Local\Temp\ccskN8Qo.s:1859   .text.ETH_DMARxDescChainInit:000000000000004e .LVL120
C:\Users\LOCALH~1\AppData\Local\Temp\ccskN8Qo.s:1774   .text.ETH_DMATxDescBufferSizeConfig:0000000000000000 .LVL113
C:\Users\LOCALH~1\AppData\Local\Temp\ccskN8Qo.s:1780   .text.ETH_DMATxDescBufferSizeConfig:0000000000000004 .LVL114
C:\Users\LOCALH~1\AppData\Local\Temp\ccskN8Qo.s:1499   .text.ETH_GetDMATxDescCollisionCount:0000000000000000 .LVL103
C:\Users\LOCALH~1\AppData\Local\Temp\ccskN8Qo.s:1503   .text.ETH_GetDMATxDescCollisionCount:0000000000000002 .LVL104
C:\Users\LOCALH~1\AppData\Local\Temp\ccskN8Qo.s:1411   .text.ETH_DMATxDescRingInit:0000000000000000 .LVL94
C:\Users\LOCALH~1\AppData\Local\Temp\ccskN8Qo.s:1426   .text.ETH_DMATxDescRingInit:0000000000000018 .LVL95
C:\Users\LOCALH~1\AppData\Local\Temp\ccskN8Qo.s:1433   .text.ETH_DMATxDescRingInit:0000000000000020 .LVL96
C:\Users\LOCALH~1\AppData\Local\Temp\ccskN8Qo.s:1437   .text.ETH_DMATxDescRingInit:0000000000000024 .LVL97
C:\Users\LOCALH~1\AppData\Local\Temp\ccskN8Qo.s:1462   .text.ETH_DMATxDescRingInit:0000000000000042 .LVL99
C:\Users\LOCALH~1\AppData\Local\Temp\ccskN8Qo.s:1345   .text.ETH_DMATxDescChainInit:0000000000000000 .LVL87
C:\Users\LOCALH~1\AppData\Local\Temp\ccskN8Qo.s:1360   .text.ETH_DMATxDescChainInit:0000000000000018 .LVL88
C:\Users\LOCALH~1\AppData\Local\Temp\ccskN8Qo.s:1367   .text.ETH_DMATxDescChainInit:0000000000000020 .LVL89
C:\Users\LOCALH~1\AppData\Local\Temp\ccskN8Qo.s:1371   .text.ETH_DMATxDescChainInit:0000000000000024 .LVL90
C:\Users\LOCALH~1\AppData\Local\Temp\ccskN8Qo.s:1394   .text.ETH_DMATxDescChainInit:0000000000000040 .LVL91
C:\Users\LOCALH~1\AppData\Local\Temp\ccskN8Qo.s:1396   .text.ETH_DMATxDescChainInit:0000000000000042 .LVL92
C:\Users\LOCALH~1\AppData\Local\Temp\ccskN8Qo.s:1398   .text.ETH_DMATxDescChainInit:0000000000000044 .LVL93
C:\Users\LOCALH~1\AppData\Local\Temp\ccskN8Qo.s:1313   .text.ETH_MACAddressMaskBytesFilterConfig:0000000000000000 .LVL85
C:\Users\LOCALH~1\AppData\Local\Temp\ccskN8Qo.s:1319   .text.ETH_MACAddressMaskBytesFilterConfig:000000000000000a .LVL86
C:\Users\LOCALH~1\AppData\Local\Temp\ccskN8Qo.s:1272   .text.ETH_MACAddressFilterConfig:0000000000000000 .LVL83
C:\Users\LOCALH~1\AppData\Local\Temp\ccskN8Qo.s:1278   .text.ETH_MACAddressFilterConfig:000000000000000a .LVL84
C:\Users\LOCALH~1\AppData\Local\Temp\ccskN8Qo.s:1236   .text.ETH_MACAddressPerfectFilterCmd:0000000000000000 .LVL81
C:\Users\LOCALH~1\AppData\Local\Temp\ccskN8Qo.s:1242   .text.ETH_MACAddressPerfectFilterCmd:000000000000000a .LVL82
C:\Users\LOCALH~1\AppData\Local\Temp\ccskN8Qo.s:1179   .text.ETH_GetMACAddress:0000000000000000 .LVL77
C:\Users\LOCALH~1\AppData\Local\Temp\ccskN8Qo.s:1193   .text.ETH_GetMACAddress:0000000000000012 .LVL79
C:\Users\LOCALH~1\AppData\Local\Temp\ccskN8Qo.s:1188   .text.ETH_GetMACAddress:000000000000000c .LVL78
C:\Users\LOCALH~1\AppData\Local\Temp\ccskN8Qo.s:1204   .text.ETH_GetMACAddress:000000000000001c .LVL80
C:\Users\LOCALH~1\AppData\Local\Temp\ccskN8Qo.s:1123   .text.ETH_MACAddressConfig:0000000000000000 .LVL71
C:\Users\LOCALH~1\AppData\Local\Temp\ccskN8Qo.s:1154   .text.ETH_MACAddressConfig:0000000000000024 .LVL74
C:\Users\LOCALH~1\AppData\Local\Temp\ccskN8Qo.s:1134   .text.ETH_MACAddressConfig:000000000000000c .LVL72
C:\Users\LOCALH~1\AppData\Local\Temp\ccskN8Qo.s:1141   .text.ETH_MACAddressConfig:0000000000000014 .LVL73
C:\Users\LOCALH~1\AppData\Local\Temp\ccskN8Qo.s:1161   .text.ETH_MACAddressConfig:000000000000002e .LVL75
C:\Users\LOCALH~1\AppData\Local\Temp\ccskN8Qo.s:1165   .text.ETH_MACAddressConfig:0000000000000030 .LVL76
C:\Users\LOCALH~1\AppData\Local\Temp\ccskN8Qo.s:1085   .text.ETH_MACITConfig:0000000000000000 .LVL67
C:\Users\LOCALH~1\AppData\Local\Temp\ccskN8Qo.s:1095   .text.ETH_MACITConfig:000000000000000c .LVL68
C:\Users\LOCALH~1\AppData\Local\Temp\ccskN8Qo.s:1098   .text.ETH_MACITConfig:000000000000000e .LVL69
C:\Users\LOCALH~1\AppData\Local\Temp\ccskN8Qo.s:1101   .text.ETH_MACITConfig:0000000000000012 .LVL70
C:\Users\LOCALH~1\AppData\Local\Temp\ccskN8Qo.s:1048   .text.ETH_GetMACFlagStatus:0000000000000000 .LVL64
C:\Users\LOCALH~1\AppData\Local\Temp\ccskN8Qo.s:1058   .text.ETH_GetMACFlagStatus:0000000000000008 .LVL66
C:\Users\LOCALH~1\AppData\Local\Temp\ccskN8Qo.s:1054   .text.ETH_GetMACFlagStatus:0000000000000006 .LVL65
C:\Users\LOCALH~1\AppData\Local\Temp\ccskN8Qo.s:975    .text.ETH_GetFlowControlBusyStatus:0000000000000000 .LVL60
C:\Users\LOCALH~1\AppData\Local\Temp\ccskN8Qo.s:980    .text.ETH_GetFlowControlBusyStatus:0000000000000006 .LVL61
C:\Users\LOCALH~1\AppData\Local\Temp\ccskN8Qo.s:984    .text.ETH_GetFlowControlBusyStatus:0000000000000008 .LVL62
C:\Users\LOCALH~1\AppData\Local\Temp\ccskN8Qo.s:827    .text.ETH_PHYLoopBackCmd:0000000000000000 .LVL47
C:\Users\LOCALH~1\AppData\Local\Temp\ccskN8Qo.s:840    .text.ETH_PHYLoopBackCmd:000000000000000c .LVL49
C:\Users\LOCALH~1\AppData\Local\Temp\ccskN8Qo.s:834    .text.ETH_PHYLoopBackCmd:0000000000000008 .LVL48
C:\Users\LOCALH~1\AppData\Local\Temp\ccskN8Qo.s:857    .text.ETH_PHYLoopBackCmd:0000000000000022 .LVL51
C:\Users\LOCALH~1\AppData\Local\Temp\ccskN8Qo.s:872    .text.ETH_PHYLoopBackCmd:000000000000003a .LVL53
C:\Users\LOCALH~1\AppData\Local\Temp\ccskN8Qo.s:727    .text.ETH_WritePHYRegister:0000000000000000 .LVL36
C:\Users\LOCALH~1\AppData\Local\Temp\ccskN8Qo.s:747    .text.ETH_WritePHYRegister:0000000000000010 .LVL38
C:\Users\LOCALH~1\AppData\Local\Temp\ccskN8Qo.s:756    .text.ETH_WritePHYRegister:0000000000000016 .LVL40
C:\Users\LOCALH~1\AppData\Local\Temp\ccskN8Qo.s:740    .text.ETH_WritePHYRegister:000000000000000a .LVL37
C:\Users\LOCALH~1\AppData\Local\Temp\ccskN8Qo.s:759    .text.ETH_WritePHYRegister:0000000000000018 .LVL41
C:\Users\LOCALH~1\AppData\Local\Temp\ccskN8Qo.s:765    .text.ETH_WritePHYRegister:000000000000001e .LVL42
C:\Users\LOCALH~1\AppData\Local\Temp\ccskN8Qo.s:772    .text.ETH_WritePHYRegister:0000000000000024 .LVL43
C:\Users\LOCALH~1\AppData\Local\Temp\ccskN8Qo.s:783    .text.ETH_WritePHYRegister:0000000000000030 .LVL44
C:\Users\LOCALH~1\AppData\Local\Temp\ccskN8Qo.s:794    .text.ETH_WritePHYRegister:0000000000000038 .LVL45
C:\Users\LOCALH~1\AppData\Local\Temp\ccskN8Qo.s:798    .text.ETH_WritePHYRegister:000000000000003a .LVL46
C:\Users\LOCALH~1\AppData\Local\Temp\ccskN8Qo.s:620    .text.ETH_ReadPHYRegister:0000000000000000 .LVL25
C:\Users\LOCALH~1\AppData\Local\Temp\ccskN8Qo.s:638    .text.ETH_ReadPHYRegister:000000000000000e .LVL27
C:\Users\LOCALH~1\AppData\Local\Temp\ccskN8Qo.s:649    .text.ETH_ReadPHYRegister:0000000000000016 .LVL29
C:\Users\LOCALH~1\AppData\Local\Temp\ccskN8Qo.s:632    .text.ETH_ReadPHYRegister:000000000000000a .LVL26
C:\Users\LOCALH~1\AppData\Local\Temp\ccskN8Qo.s:652    .text.ETH_ReadPHYRegister:0000000000000018 .LVL30
C:\Users\LOCALH~1\AppData\Local\Temp\ccskN8Qo.s:658    .text.ETH_ReadPHYRegister:000000000000001e .LVL31
C:\Users\LOCALH~1\AppData\Local\Temp\ccskN8Qo.s:671    .text.ETH_ReadPHYRegister:000000000000002a .LVL33
C:\Users\LOCALH~1\AppData\Local\Temp\ccskN8Qo.s:682    .text.ETH_ReadPHYRegister:0000000000000032 .LVL34
C:\Users\LOCALH~1\AppData\Local\Temp\ccskN8Qo.s:686    .text.ETH_ReadPHYRegister:0000000000000034 .LVL35
C:\Users\LOCALH~1\AppData\Local\Temp\ccskN8Qo.s:504    .text.ETH_GetRxPktSize:0000000000000000 .LVL22
C:\Users\LOCALH~1\AppData\Local\Temp\ccskN8Qo.s:542    .text.ETH_GetRxPktSize:000000000000002e .LVL24
C:\Users\LOCALH~1\AppData\Local\Temp\ccskN8Qo.s:533    .text.ETH_GetRxPktSize:0000000000000028 .LVL23
C:\Users\LOCALH~1\AppData\Local\Temp\ccskN8Qo.s:349    .text.ETH_HandleRxPkt:0000000000000000 .LVL11
C:\Users\LOCALH~1\AppData\Local\Temp\ccskN8Qo.s:368    .text.ETH_HandleRxPkt:0000000000000018 .LVL12
C:\Users\LOCALH~1\AppData\Local\Temp\ccskN8Qo.s:413    .text.ETH_HandleRxPkt:000000000000004a .LVL15
C:\Users\LOCALH~1\AppData\Local\Temp\ccskN8Qo.s:441    .text.ETH_HandleRxPkt:0000000000000068 .LVL16
C:\Users\LOCALH~1\AppData\Local\Temp\ccskN8Qo.s:459    .text.ETH_HandleRxPkt:0000000000000078 .LVL19
C:\Users\LOCALH~1\AppData\Local\Temp\ccskN8Qo.s:485    .text.ETH_HandleRxPkt:0000000000000096 .LVL20
C:\Users\LOCALH~1\AppData\Local\Temp\ccskN8Qo.s:489    .text.ETH_HandleRxPkt:0000000000000098 .LVL21
C:\Users\LOCALH~1\AppData\Local\Temp\ccskN8Qo.s:393    .text.ETH_HandleRxPkt:0000000000000036 .LVL13
C:\Users\LOCALH~1\AppData\Local\Temp\ccskN8Qo.s:401    .text.ETH_HandleRxPkt:000000000000003c .LVL14
C:\Users\LOCALH~1\AppData\Local\Temp\ccskN8Qo.s:453    .text.ETH_HandleRxPkt:0000000000000074 .LVL17
C:\Users\LOCALH~1\AppData\Local\Temp\ccskN8Qo.s:457    .text.ETH_HandleRxPkt:0000000000000076 .LVL18
C:\Users\LOCALH~1\AppData\Local\Temp\ccskN8Qo.s:212    .text.ETH_HandleTxPkt:0000000000000000 .LVL3
C:\Users\LOCALH~1\AppData\Local\Temp\ccskN8Qo.s:226    .text.ETH_HandleTxPkt:0000000000000014 .LVL4
C:\Users\LOCALH~1\AppData\Local\Temp\ccskN8Qo.s:229    .text.ETH_HandleTxPkt:0000000000000016 .LVL5
C:\Users\LOCALH~1\AppData\Local\Temp\ccskN8Qo.s:308    .text.ETH_HandleTxPkt:0000000000000066 .LVL9
C:\Users\LOCALH~1\AppData\Local\Temp\ccskN8Qo.s:310    .text.ETH_HandleTxPkt:0000000000000068 .LVL10
C:\Users\LOCALH~1\AppData\Local\Temp\ccskN8Qo.s:259    .text.ETH_HandleTxPkt:0000000000000032 .LVL8
C:\Users\LOCALH~1\AppData\Local\Temp\ccskN8Qo.s:254    .text.ETH_HandleTxPkt:000000000000002c .LVL7
C:\Users\LOCALH~1\AppData\Local\Temp\ccskN8Qo.s:2318   .text.ETH_Start:0000000000000008 .LVL143
C:\Users\LOCALH~1\AppData\Local\Temp\ccskN8Qo.s:2330   .text.ETH_Start:0000000000000014 .LVL144
C:\Users\LOCALH~1\AppData\Local\Temp\ccskN8Qo.s:2362   .text.ETH_Start:0000000000000026 .LVL146
C:\Users\LOCALH~1\AppData\Local\Temp\ccskN8Qo.s:2378   .text.ETH_Start:0000000000000030 .LVL147
C:\Users\LOCALH~1\AppData\Local\Temp\ccskN8Qo.s:2393   .text.ETH_Start:0000000000000038 .LVL148
C:\Users\LOCALH~1\AppData\Local\Temp\ccskN8Qo.s:903    .text.ETH_MACTransmissionCmd:0000000000000008 .LVL55
C:\Users\LOCALH~1\AppData\Local\Temp\ccskN8Qo.s:909    .text.ETH_MACTransmissionCmd:000000000000000c .LVL56
C:\Users\LOCALH~1\AppData\Local\Temp\ccskN8Qo.s:944    .text.ETH_MACReceptionCmd:0000000000000008 .LVL58
C:\Users\LOCALH~1\AppData\Local\Temp\ccskN8Qo.s:950    .text.ETH_MACReceptionCmd:000000000000000c .LVL59
C:\Users\LOCALH~1\AppData\Local\Temp\ccskN8Qo.s:1475   .text.ETH_GetDMATxDescFlagStatus:0000000000000000 .LVL100
C:\Users\LOCALH~1\AppData\Local\Temp\ccskN8Qo.s:1480   .text.ETH_GetDMATxDescFlagStatus:0000000000000002 .LVL101
C:\Users\LOCALH~1\AppData\Local\Temp\ccskN8Qo.s:1484   .text.ETH_GetDMATxDescFlagStatus:0000000000000004 .LVL102
C:\Users\LOCALH~1\AppData\Local\Temp\ccskN8Qo.s:1976   .text.ETH_GetDMARxDescFrameLength:0000000000000000 .LVL126
C:\Users\LOCALH~1\AppData\Local\Temp\ccskN8Qo.s:1980   .text.ETH_GetDMARxDescFrameLength:0000000000000002 .LVL127
C:\Users\LOCALH~1\AppData\Local\Temp\ccskN8Qo.s:2442   .text.ETH_DMATransmissionCmd:0000000000000002 .LVL153
C:\Users\LOCALH~1\AppData\Local\Temp\ccskN8Qo.s:2455   .text.ETH_DMATransmissionCmd:0000000000000010 .LVL154
C:\Users\LOCALH~1\AppData\Local\Temp\ccskN8Qo.s:2492   .text.ETH_DMAReceptionCmd:0000000000000008 .LVL156
C:\Users\LOCALH~1\AppData\Local\Temp\ccskN8Qo.s:2498   .text.ETH_DMAReceptionCmd:000000000000000c .LVL157
C:\Users\LOCALH~1\AppData\Local\Temp\ccskN8Qo.s:3165   .text.ETH_GetMMCRegister:0000000000000000 .LVL188
C:\Users\LOCALH~1\AppData\Local\Temp\ccskN8Qo.s:3170   .text.ETH_GetMMCRegister:0000000000000006 .LVL189
C:\Users\LOCALH~1\AppData\Local\Temp\ccskN8Qo.s:3173   .text.ETH_GetMMCRegister:0000000000000008 .LVL190
C:\Users\LOCALH~1\AppData\Local\Temp\ccskN8Qo.s:4103   .debug_info:0000000000000000 .Ldebug_info0
C:\Users\LOCALH~1\AppData\Local\Temp\ccskN8Qo.s:1070   .text.ETH_GetMACITStatus:0000000000000000 .LFB134
C:\Users\LOCALH~1\AppData\Local\Temp\ccskN8Qo.s:1075   .text.ETH_GetMACITStatus:0000000000000008 .LFE134
C:\Users\LOCALH~1\AppData\Local\Temp\ccskN8Qo.s:1591   .text.ETH_DMATxDescChecksumInsertionConfig:0000000000000000 .LFB140
C:\Users\LOCALH~1\AppData\Local\Temp\ccskN8Qo.s:1599   .text.ETH_DMATxDescChecksumInsertionConfig:0000000000000008 .LFE140
C:\Users\LOCALH~1\AppData\Local\Temp\ccskN8Qo.s:1942   .text.ETH_GetDMARxDescFlagStatus:0000000000000000 .LFB136
C:\Users\LOCALH~1\AppData\Local\Temp\ccskN8Qo.s:1950   .text.ETH_GetDMARxDescFlagStatus:000000000000000c .LFE136
C:\Users\LOCALH~1\AppData\Local\Temp\ccskN8Qo.s:1957   .text.ETH_SetDMARxDescOwnBit:0000000000000000 .LFB138
C:\Users\LOCALH~1\AppData\Local\Temp\ccskN8Qo.s:1966   .text.ETH_SetDMARxDescOwnBit:000000000000000c .LFE138
C:\Users\LOCALH~1\AppData\Local\Temp\ccskN8Qo.s:2227   .text.ETH_GetDMAITStatus:0000000000000000 .LFB142
C:\Users\LOCALH~1\AppData\Local\Temp\ccskN8Qo.s:2232   .text.ETH_GetDMAITStatus:0000000000000008 .LFE142
C:\Users\LOCALH~1\AppData\Local\Temp\ccskN8Qo.s:2239   .text.ETH_DMAClearITPendingBit:0000000000000000 .LFB144
C:\Users\LOCALH~1\AppData\Local\Temp\ccskN8Qo.s:2246   .text.ETH_DMAClearITPendingBit:0000000000000008 .LFE144
C:\Users\LOCALH~1\AppData\Local\Temp\ccskN8Qo.s:3432   .text.ETH_GetPTPRegister:0000000000000000 .LFB146
C:\Users\LOCALH~1\AppData\Local\Temp\ccskN8Qo.s:3440   .text.ETH_GetPTPRegister:000000000000000a .LFE146
C:\Users\LOCALH~1\AppData\Local\Temp\ccskN8Qo.s:900    .text.ETH_MACTransmissionCmd:0000000000000006 .LBE16
C:\Users\LOCALH~1\AppData\Local\Temp\ccskN8Qo.s:904    .text.ETH_MACTransmissionCmd:0000000000000008 .LBB19
C:\Users\LOCALH~1\AppData\Local\Temp\ccskN8Qo.s:912    .text.ETH_MACTransmissionCmd:000000000000000c .LBE19
C:\Users\LOCALH~1\AppData\Local\Temp\ccskN8Qo.s:941    .text.ETH_MACReceptionCmd:0000000000000006 .LBE22
C:\Users\LOCALH~1\AppData\Local\Temp\ccskN8Qo.s:945    .text.ETH_MACReceptionCmd:0000000000000008 .LBB25
C:\Users\LOCALH~1\AppData\Local\Temp\ccskN8Qo.s:953    .text.ETH_MACReceptionCmd:000000000000000c .LBE25
C:\Users\LOCALH~1\AppData\Local\Temp\ccskN8Qo.s:2347   .text.ETH_Start:000000000000001e .LBE45
C:\Users\LOCALH~1\AppData\Local\Temp\ccskN8Qo.s:2356   .text.ETH_Start:0000000000000020 .LBB55
C:\Users\LOCALH~1\AppData\Local\Temp\ccskN8Qo.s:2365   .text.ETH_Start:0000000000000026 .LBE55
C:\Users\LOCALH~1\AppData\Local\Temp\ccskN8Qo.s:2355   .text.ETH_Start:0000000000000020 .LBE50
C:\Users\LOCALH~1\AppData\Local\Temp\ccskN8Qo.s:2367   .text.ETH_Start:0000000000000026 .LBB56
C:\Users\LOCALH~1\AppData\Local\Temp\ccskN8Qo.s:2381   .text.ETH_Start:0000000000000030 .LBE56
C:\Users\LOCALH~1\AppData\Local\Temp\ccskN8Qo.s:2489   .text.ETH_DMAReceptionCmd:0000000000000006 .LBE66
C:\Users\LOCALH~1\AppData\Local\Temp\ccskN8Qo.s:2493   .text.ETH_DMAReceptionCmd:0000000000000008 .LBB69
C:\Users\LOCALH~1\AppData\Local\Temp\ccskN8Qo.s:2501   .text.ETH_DMAReceptionCmd:000000000000000c .LBE69

UNDEFINED SYMBOLS
__riscv_save_0
RCC_AHBPeriphResetCmd
__riscv_restore_0
__riscv_save_2
__riscv_restore_2
__riscv_save_1
__riscv_restore_1
