   1              		.file	"ch32v30x_can.c"
   2              		.option nopic
   3              		.attribute arch, "rv32i2p0_m2p0_a2p0_f2p0_c2p0_xw"
   4              		.attribute unaligned_access, 0
   5              		.attribute stack_align, 16
   6              		.text
   7              	.Ltext0:
   8              		.cfi_sections	.debug_frame
   9              		.file 0 "C:\\Users\\localhost\\Documents\\turbomoskal-repo\\qqexpert\\firmware\\MasterController\\
  10              		.section	.text.CAN_DeInit,"ax",@progbits
  11              		.align	1
  12              		.globl	CAN_DeInit
  14              	CAN_DeInit:
  15              	.LFB29:
  16              		.file 1 "../Peripheral/src/ch32v30x_can.c"
   1:../Peripheral/src/ch32v30x_can.c **** /********************************** (C) COPYRIGHT  *******************************
   2:../Peripheral/src/ch32v30x_can.c **** * File Name          : ch32v30x_can.c
   3:../Peripheral/src/ch32v30x_can.c **** * Author             : WCH
   4:../Peripheral/src/ch32v30x_can.c **** * Version            : V1.0.0
   5:../Peripheral/src/ch32v30x_can.c **** * Date               : 2021/06/06
   6:../Peripheral/src/ch32v30x_can.c **** * Description        : This file provides all the CAN firmware functions.
   7:../Peripheral/src/ch32v30x_can.c **** *********************************************************************************
   8:../Peripheral/src/ch32v30x_can.c **** * Copyright (c) 2021 Nanjing Qinheng Microelectronics Co., Ltd.
   9:../Peripheral/src/ch32v30x_can.c **** * Attention: This software (modified or not) and binary are used for 
  10:../Peripheral/src/ch32v30x_can.c **** * microcontroller manufactured by Nanjing Qinheng Microelectronics.
  11:../Peripheral/src/ch32v30x_can.c **** *******************************************************************************/
  12:../Peripheral/src/ch32v30x_can.c **** #include "ch32v30x_can.h"
  13:../Peripheral/src/ch32v30x_can.c **** #include "ch32v30x_rcc.h"
  14:../Peripheral/src/ch32v30x_can.c **** 
  15:../Peripheral/src/ch32v30x_can.c **** /* CAN CTLR Register bits */
  16:../Peripheral/src/ch32v30x_can.c **** #define CTLR_DBF            ((uint32_t)0x00010000)
  17:../Peripheral/src/ch32v30x_can.c **** 
  18:../Peripheral/src/ch32v30x_can.c **** /* CAN Mailbox Transmit Request */
  19:../Peripheral/src/ch32v30x_can.c **** #define TMIDxR_TXRQ         ((uint32_t)0x00000001)
  20:../Peripheral/src/ch32v30x_can.c **** 
  21:../Peripheral/src/ch32v30x_can.c **** /* CAN FCTLR Register bits */
  22:../Peripheral/src/ch32v30x_can.c **** #define FCTLR_FINIT         ((uint32_t)0x00000001)
  23:../Peripheral/src/ch32v30x_can.c **** 
  24:../Peripheral/src/ch32v30x_can.c **** /* Time out for INAK bit */
  25:../Peripheral/src/ch32v30x_can.c **** #define INAK_TIMEOUT        ((uint32_t)0x0000FFFF)
  26:../Peripheral/src/ch32v30x_can.c **** /* Time out for SLAK bit */
  27:../Peripheral/src/ch32v30x_can.c **** #define SLAK_TIMEOUT        ((uint32_t)0x0000FFFF)
  28:../Peripheral/src/ch32v30x_can.c **** 
  29:../Peripheral/src/ch32v30x_can.c **** /* Flags in TSTATR register */
  30:../Peripheral/src/ch32v30x_can.c **** #define CAN_FLAGS_TSTATR    ((uint32_t)0x08000000)
  31:../Peripheral/src/ch32v30x_can.c **** /* Flags in RFIFO1 register */
  32:../Peripheral/src/ch32v30x_can.c **** #define CAN_FLAGS_RFIFO1    ((uint32_t)0x04000000)
  33:../Peripheral/src/ch32v30x_can.c **** /* Flags in RFIFO0 register */
  34:../Peripheral/src/ch32v30x_can.c **** #define CAN_FLAGS_RFIFO0    ((uint32_t)0x02000000)
  35:../Peripheral/src/ch32v30x_can.c **** /* Flags in STATR register */
  36:../Peripheral/src/ch32v30x_can.c **** #define CAN_FLAGS_STATR     ((uint32_t)0x01000000)
  37:../Peripheral/src/ch32v30x_can.c **** /* Flags in ERRSR register */
  38:../Peripheral/src/ch32v30x_can.c **** #define CAN_FLAGS_ERRSR     ((uint32_t)0x00F00000)
  39:../Peripheral/src/ch32v30x_can.c **** 
  40:../Peripheral/src/ch32v30x_can.c **** /* Mailboxes definition */
  41:../Peripheral/src/ch32v30x_can.c **** #define CAN_TXMAILBOX_0     ((uint8_t)0x00)
  42:../Peripheral/src/ch32v30x_can.c **** #define CAN_TXMAILBOX_1     ((uint8_t)0x01)
  43:../Peripheral/src/ch32v30x_can.c **** #define CAN_TXMAILBOX_2     ((uint8_t)0x02)
  44:../Peripheral/src/ch32v30x_can.c **** 
  45:../Peripheral/src/ch32v30x_can.c **** #define CAN_MODE_MASK       ((uint32_t)0x00000003)
  46:../Peripheral/src/ch32v30x_can.c **** 
  47:../Peripheral/src/ch32v30x_can.c **** static ITStatus CheckITStatus(uint32_t CAN_Reg, uint32_t It_Bit);
  48:../Peripheral/src/ch32v30x_can.c **** 
  49:../Peripheral/src/ch32v30x_can.c **** /*********************************************************************
  50:../Peripheral/src/ch32v30x_can.c ****  * @fn      CAN_DeInit
  51:../Peripheral/src/ch32v30x_can.c ****  *
  52:../Peripheral/src/ch32v30x_can.c ****  * @brief   Deinitializes the CAN peripheral registers to their default reset
  53:../Peripheral/src/ch32v30x_can.c ****  *        values.
  54:../Peripheral/src/ch32v30x_can.c ****  *
  55:../Peripheral/src/ch32v30x_can.c ****  * @param   CANx - where x can be 1 or 2 to select the CAN peripheral.
  56:../Peripheral/src/ch32v30x_can.c ****  *
  57:../Peripheral/src/ch32v30x_can.c ****  * @return  none
  58:../Peripheral/src/ch32v30x_can.c ****  */
  59:../Peripheral/src/ch32v30x_can.c **** void CAN_DeInit(CAN_TypeDef *CANx)
  60:../Peripheral/src/ch32v30x_can.c **** {
  17              		.loc 1 60 1
  18              		.cfi_startproc
  19              	.LVL0:
  20 0000 17030000 		call	t0,__riscv_save_0
  20      E7020300 
  21              		.cfi_offset 1, -4
  22              		.cfi_def_cfa_offset 16
  61:../Peripheral/src/ch32v30x_can.c ****     if(CANx == CAN1)
  23              		.loc 1 61 5
  24              		.loc 1 61 7 is_stmt 0
  25 0008 B7670040 		li	a5,1073766400
  26 000c 93870740 		addi	a5,a5,1024
  62:../Peripheral/src/ch32v30x_can.c ****     {
  63:../Peripheral/src/ch32v30x_can.c ****         RCC_APB1PeriphResetCmd(RCC_APB1Periph_CAN1, ENABLE);
  27              		.loc 1 63 9
  28 0010 8545     		li	a1,1
  61:../Peripheral/src/ch32v30x_can.c ****     if(CANx == CAN1)
  29              		.loc 1 61 7
  30 0012 6313F502 		bne	a0,a5,.L2
  31              		.loc 1 63 9 is_stmt 1
  32 0016 37050002 		li	a0,33554432
  33              	.LVL1:
  34 001a 97000000 		call	RCC_APB1PeriphResetCmd
  34      E7800000 
  35              	.LVL2:
  64:../Peripheral/src/ch32v30x_can.c ****         RCC_APB1PeriphResetCmd(RCC_APB1Periph_CAN1, DISABLE);
  36              		.loc 1 64 9
  37 0022 8145     		li	a1,0
  38 0024 37050002 		li	a0,33554432
  39              	.L5:
  65:../Peripheral/src/ch32v30x_can.c ****     }
  66:../Peripheral/src/ch32v30x_can.c ****     else
  67:../Peripheral/src/ch32v30x_can.c ****     {
  68:../Peripheral/src/ch32v30x_can.c ****         RCC_APB1PeriphResetCmd(RCC_APB1Periph_CAN2, ENABLE);
  69:../Peripheral/src/ch32v30x_can.c ****         RCC_APB1PeriphResetCmd(RCC_APB1Periph_CAN2, DISABLE);
  40              		.loc 1 69 9 is_stmt 0
  41 0028 97000000 		call	RCC_APB1PeriphResetCmd
  41      E7800000 
  42              	.LVL3:
  70:../Peripheral/src/ch32v30x_can.c ****     }
  71:../Peripheral/src/ch32v30x_can.c **** }
  43              		.loc 1 71 1
  44 0030 17030000 		tail	__riscv_restore_0
  44      67000300 
  45              		.cfi_remember_state
  46              		.cfi_restore 1
  47              		.cfi_def_cfa_offset 0
  48              	.LVL4:
  49              	.L2:
  50              		.cfi_restore_state
  68:../Peripheral/src/ch32v30x_can.c ****         RCC_APB1PeriphResetCmd(RCC_APB1Periph_CAN2, DISABLE);
  51              		.loc 1 68 9 is_stmt 1
  52 0038 37050004 		li	a0,67108864
  53              	.LVL5:
  54 003c 97000000 		call	RCC_APB1PeriphResetCmd
  54      E7800000 
  55              	.LVL6:
  69:../Peripheral/src/ch32v30x_can.c ****     }
  56              		.loc 1 69 9
  57 0044 8145     		li	a1,0
  58 0046 37050004 		li	a0,67108864
  59 004a F9BF     		j	.L5
  60              		.cfi_endproc
  61              	.LFE29:
  63              		.section	.text.CAN_Init,"ax",@progbits
  64              		.align	1
  65              		.globl	CAN_Init
  67              	CAN_Init:
  68              	.LFB30:
  72:../Peripheral/src/ch32v30x_can.c **** 
  73:../Peripheral/src/ch32v30x_can.c **** /*********************************************************************
  74:../Peripheral/src/ch32v30x_can.c ****  * @fn      CAN_Init
  75:../Peripheral/src/ch32v30x_can.c ****  *
  76:../Peripheral/src/ch32v30x_can.c ****  * @brief   Initializes the CAN peripheral according to the specified
  77:../Peripheral/src/ch32v30x_can.c ****  *        parameters in the CAN_InitStruct.
  78:../Peripheral/src/ch32v30x_can.c ****  *
  79:../Peripheral/src/ch32v30x_can.c ****  * @param   CANx - where x can be 1 to select the CAN peripheral.
  80:../Peripheral/src/ch32v30x_can.c ****  *          CAN_InitStruct - pointer to a CAN_InitTypeDef structure that
  81:../Peripheral/src/ch32v30x_can.c ****  *        contains the configuration information for the CAN peripheral.
  82:../Peripheral/src/ch32v30x_can.c ****  *
  83:../Peripheral/src/ch32v30x_can.c ****  * @return  InitStatus - CAN InitStatus state.
  84:../Peripheral/src/ch32v30x_can.c ****  *             CAN_InitStatus_Failed.
  85:../Peripheral/src/ch32v30x_can.c ****  *             CAN_InitStatus_Success.
  86:../Peripheral/src/ch32v30x_can.c ****  */
  87:../Peripheral/src/ch32v30x_can.c **** uint8_t CAN_Init(CAN_TypeDef *CANx, CAN_InitTypeDef *CAN_InitStruct)
  88:../Peripheral/src/ch32v30x_can.c **** {
  69              		.loc 1 88 1
  70              		.cfi_startproc
  71              	.LVL7:
  89:../Peripheral/src/ch32v30x_can.c ****     uint8_t  InitStatus = CAN_InitStatus_Failed;
  72              		.loc 1 89 5
  90:../Peripheral/src/ch32v30x_can.c ****     uint32_t wait_ack = 0x00000000;
  73              		.loc 1 90 5
  91:../Peripheral/src/ch32v30x_can.c **** 
  92:../Peripheral/src/ch32v30x_can.c ****     CANx->CTLR &= (~(uint32_t)CAN_CTLR_SLEEP);
  74              		.loc 1 92 5
  75              		.loc 1 92 9 is_stmt 0
  76 0000 1841     		lw	a4,0(a0)
  88:../Peripheral/src/ch32v30x_can.c ****     uint8_t  InitStatus = CAN_InitStatus_Failed;
  77              		.loc 1 88 1
  78 0002 AA87     		mv	a5,a0
  79              		.loc 1 92 16
  80 0004 759B     		andi	a4,a4,-3
  81 0006 18C1     		sw	a4,0(a0)
  93:../Peripheral/src/ch32v30x_can.c ****     CANx->CTLR |= CAN_CTLR_INRQ;
  82              		.loc 1 93 5 is_stmt 1
  83              		.loc 1 93 9 is_stmt 0
  84 0008 1841     		lw	a4,0(a0)
  85              		.loc 1 93 16
  86 000a 13671700 		ori	a4,a4,1
  87 000e 18C1     		sw	a4,0(a0)
  94:../Peripheral/src/ch32v30x_can.c **** 
  95:../Peripheral/src/ch32v30x_can.c ****     while(((CANx->STATR & CAN_STATR_INAK) != CAN_STATR_INAK) && (wait_ack != INAK_TIMEOUT))
  88              		.loc 1 95 5 is_stmt 1
  89              		.loc 1 95 10 is_stmt 0
  90 0010 4167     		li	a4,65536
  91              	.LVL8:
  92              	.L8:
  93              		.loc 1 95 62 is_stmt 1
  94              		.loc 1 95 17 is_stmt 0
  95 0012 D443     		lw	a3,4(a5)
  96              		.loc 1 95 25
  97 0014 858A     		andi	a3,a3,1
  98              		.loc 1 95 62
  99 0016 99E2     		bne	a3,zero,.L7
 100              		.loc 1 95 62 discriminator 1
 101 0018 7D17     		addi	a4,a4,-1
 102              	.LVL9:
 103 001a 65FF     		bne	a4,zero,.L8
 104              	.LVL10:
 105              	.L7:
  96:../Peripheral/src/ch32v30x_can.c ****     {
  97:../Peripheral/src/ch32v30x_can.c ****         wait_ack++;
  98:../Peripheral/src/ch32v30x_can.c ****     }
  99:../Peripheral/src/ch32v30x_can.c **** 
 100:../Peripheral/src/ch32v30x_can.c ****     if((CANx->STATR & CAN_STATR_INAK) != CAN_STATR_INAK)
 106              		.loc 1 100 5 is_stmt 1
 107              		.loc 1 100 13 is_stmt 0
 108 001c D843     		lw	a4,4(a5)
 101:../Peripheral/src/ch32v30x_can.c ****     {
 102:../Peripheral/src/ch32v30x_can.c ****         InitStatus = CAN_InitStatus_Failed;
 109              		.loc 1 102 20
 110 001e 0145     		li	a0,0
 111              	.LVL11:
 100:../Peripheral/src/ch32v30x_can.c ****     {
 112              		.loc 1 100 21
 113 0020 058B     		andi	a4,a4,1
 100:../Peripheral/src/ch32v30x_can.c ****     {
 114              		.loc 1 100 7
 115 0022 49CF     		beq	a4,zero,.L9
 103:../Peripheral/src/ch32v30x_can.c ****     }
 104:../Peripheral/src/ch32v30x_can.c ****     else
 105:../Peripheral/src/ch32v30x_can.c ****     {
 106:../Peripheral/src/ch32v30x_can.c ****         if(CAN_InitStruct->CAN_TTCM == ENABLE)
 116              		.loc 1 106 9 is_stmt 1
 117              		.loc 1 106 11 is_stmt 0
 118 0024 9445     		lw	a3,8(a1)
 119 0026 0547     		li	a4,1
 120 0028 639BE608 		bne	a3,a4,.L10
 107:../Peripheral/src/ch32v30x_can.c ****         {
 108:../Peripheral/src/ch32v30x_can.c ****             CANx->CTLR |= CAN_CTLR_TTCM;
 121              		.loc 1 108 13 is_stmt 1
 122              		.loc 1 108 17 is_stmt 0
 123 002c 9843     		lw	a4,0(a5)
 124              		.loc 1 108 24
 125 002e 13670708 		ori	a4,a4,128
 126              	.L31:
 109:../Peripheral/src/ch32v30x_can.c ****         }
 110:../Peripheral/src/ch32v30x_can.c ****         else
 111:../Peripheral/src/ch32v30x_can.c ****         {
 112:../Peripheral/src/ch32v30x_can.c ****             CANx->CTLR &= ~(uint32_t)CAN_CTLR_TTCM;
 113:../Peripheral/src/ch32v30x_can.c ****         }
 114:../Peripheral/src/ch32v30x_can.c **** 
 115:../Peripheral/src/ch32v30x_can.c ****         if(CAN_InitStruct->CAN_ABOM == ENABLE)
 127              		.loc 1 115 11
 128 0032 D445     		lw	a3,12(a1)
 112:../Peripheral/src/ch32v30x_can.c ****         }
 129              		.loc 1 112 24
 130 0034 98C3     		sw	a4,0(a5)
 131              		.loc 1 115 9 is_stmt 1
 132              		.loc 1 115 11 is_stmt 0
 133 0036 0547     		li	a4,1
 134 0038 6397E608 		bne	a3,a4,.L12
 116:../Peripheral/src/ch32v30x_can.c ****         {
 117:../Peripheral/src/ch32v30x_can.c ****             CANx->CTLR |= CAN_CTLR_ABOM;
 135              		.loc 1 117 13 is_stmt 1
 136              		.loc 1 117 17 is_stmt 0
 137 003c 9843     		lw	a4,0(a5)
 138              		.loc 1 117 24
 139 003e 13670704 		ori	a4,a4,64
 140              	.L32:
 118:../Peripheral/src/ch32v30x_can.c ****         }
 119:../Peripheral/src/ch32v30x_can.c ****         else
 120:../Peripheral/src/ch32v30x_can.c ****         {
 121:../Peripheral/src/ch32v30x_can.c ****             CANx->CTLR &= ~(uint32_t)CAN_CTLR_ABOM;
 122:../Peripheral/src/ch32v30x_can.c ****         }
 123:../Peripheral/src/ch32v30x_can.c **** 
 124:../Peripheral/src/ch32v30x_can.c ****         if(CAN_InitStruct->CAN_AWUM == ENABLE)
 141              		.loc 1 124 11
 142 0042 9449     		lw	a3,16(a1)
 121:../Peripheral/src/ch32v30x_can.c ****         }
 143              		.loc 1 121 24
 144 0044 98C3     		sw	a4,0(a5)
 145              		.loc 1 124 9 is_stmt 1
 146              		.loc 1 124 11 is_stmt 0
 147 0046 0547     		li	a4,1
 148 0048 6393E608 		bne	a3,a4,.L14
 125:../Peripheral/src/ch32v30x_can.c ****         {
 126:../Peripheral/src/ch32v30x_can.c ****             CANx->CTLR |= CAN_CTLR_AWUM;
 149              		.loc 1 126 13 is_stmt 1
 150              		.loc 1 126 17 is_stmt 0
 151 004c 9843     		lw	a4,0(a5)
 152              		.loc 1 126 24
 153 004e 13670702 		ori	a4,a4,32
 154              	.L33:
 127:../Peripheral/src/ch32v30x_can.c ****         }
 128:../Peripheral/src/ch32v30x_can.c ****         else
 129:../Peripheral/src/ch32v30x_can.c ****         {
 130:../Peripheral/src/ch32v30x_can.c ****             CANx->CTLR &= ~(uint32_t)CAN_CTLR_AWUM;
 131:../Peripheral/src/ch32v30x_can.c ****         }
 132:../Peripheral/src/ch32v30x_can.c **** 
 133:../Peripheral/src/ch32v30x_can.c ****         if(CAN_InitStruct->CAN_NART == ENABLE)
 155              		.loc 1 133 11
 156 0052 D449     		lw	a3,20(a1)
 130:../Peripheral/src/ch32v30x_can.c ****         }
 157              		.loc 1 130 24
 158 0054 98C3     		sw	a4,0(a5)
 159              		.loc 1 133 9 is_stmt 1
 160              		.loc 1 133 11 is_stmt 0
 161 0056 0547     		li	a4,1
 162 0058 639FE606 		bne	a3,a4,.L16
 134:../Peripheral/src/ch32v30x_can.c ****         {
 135:../Peripheral/src/ch32v30x_can.c ****             CANx->CTLR |= CAN_CTLR_NART;
 163              		.loc 1 135 13 is_stmt 1
 164              		.loc 1 135 17 is_stmt 0
 165 005c 9843     		lw	a4,0(a5)
 166              		.loc 1 135 24
 167 005e 13670701 		ori	a4,a4,16
 168              	.L34:
 136:../Peripheral/src/ch32v30x_can.c ****         }
 137:../Peripheral/src/ch32v30x_can.c ****         else
 138:../Peripheral/src/ch32v30x_can.c ****         {
 139:../Peripheral/src/ch32v30x_can.c ****             CANx->CTLR &= ~(uint32_t)CAN_CTLR_NART;
 140:../Peripheral/src/ch32v30x_can.c ****         }
 141:../Peripheral/src/ch32v30x_can.c **** 
 142:../Peripheral/src/ch32v30x_can.c ****         if(CAN_InitStruct->CAN_RFLM == ENABLE)
 169              		.loc 1 142 11
 170 0062 944D     		lw	a3,24(a1)
 139:../Peripheral/src/ch32v30x_can.c ****         }
 171              		.loc 1 139 24
 172 0064 98C3     		sw	a4,0(a5)
 173              		.loc 1 142 9 is_stmt 1
 174              		.loc 1 142 11 is_stmt 0
 175 0066 0547     		li	a4,1
 176 0068 639AE606 		bne	a3,a4,.L18
 143:../Peripheral/src/ch32v30x_can.c ****         {
 144:../Peripheral/src/ch32v30x_can.c ****             CANx->CTLR |= CAN_CTLR_RFLM;
 177              		.loc 1 144 13 is_stmt 1
 178              		.loc 1 144 17 is_stmt 0
 179 006c 9843     		lw	a4,0(a5)
 180              		.loc 1 144 24
 181 006e 13678700 		ori	a4,a4,8
 182              	.L35:
 145:../Peripheral/src/ch32v30x_can.c ****         }
 146:../Peripheral/src/ch32v30x_can.c ****         else
 147:../Peripheral/src/ch32v30x_can.c ****         {
 148:../Peripheral/src/ch32v30x_can.c ****             CANx->CTLR &= ~(uint32_t)CAN_CTLR_RFLM;
 149:../Peripheral/src/ch32v30x_can.c ****         }
 150:../Peripheral/src/ch32v30x_can.c **** 
 151:../Peripheral/src/ch32v30x_can.c ****         if(CAN_InitStruct->CAN_TXFP == ENABLE)
 183              		.loc 1 151 11
 184 0072 D44D     		lw	a3,28(a1)
 148:../Peripheral/src/ch32v30x_can.c ****         }
 185              		.loc 1 148 24
 186 0074 98C3     		sw	a4,0(a5)
 187              		.loc 1 151 9 is_stmt 1
 188              		.loc 1 151 11 is_stmt 0
 189 0076 0547     		li	a4,1
 190 0078 6395E606 		bne	a3,a4,.L20
 152:../Peripheral/src/ch32v30x_can.c ****         {
 153:../Peripheral/src/ch32v30x_can.c ****             CANx->CTLR |= CAN_CTLR_TXFP;
 191              		.loc 1 153 13 is_stmt 1
 192              		.loc 1 153 17 is_stmt 0
 193 007c 9843     		lw	a4,0(a5)
 194              		.loc 1 153 24
 195 007e 13674700 		ori	a4,a4,4
 196              	.L36:
 154:../Peripheral/src/ch32v30x_can.c ****         }
 155:../Peripheral/src/ch32v30x_can.c ****         else
 156:../Peripheral/src/ch32v30x_can.c ****         {
 157:../Peripheral/src/ch32v30x_can.c ****             CANx->CTLR &= ~(uint32_t)CAN_CTLR_TXFP;
 197              		.loc 1 157 24
 198 0082 98C3     		sw	a4,0(a5)
 158:../Peripheral/src/ch32v30x_can.c ****         }
 159:../Peripheral/src/ch32v30x_can.c **** 
 160:../Peripheral/src/ch32v30x_can.c ****         CANx->BTIMR = (uint32_t)((uint32_t)CAN_InitStruct->CAN_Mode << 30) |
 199              		.loc 1 160 9 is_stmt 1
 200              		.loc 1 160 34 is_stmt 0
 201 0084 B821     		lbu	a4,2(a1)
 161:../Peripheral/src/ch32v30x_can.c ****                       ((uint32_t)CAN_InitStruct->CAN_SJW << 24) |
 202              		.loc 1 161 24
 203 0086 B431     		lbu	a3,3(a1)
 160:../Peripheral/src/ch32v30x_can.c ****                       ((uint32_t)CAN_InitStruct->CAN_SJW << 24) |
 204              		.loc 1 160 23
 205 0088 7A07     		slli	a4,a4,30
 206              		.loc 1 161 58
 207 008a E206     		slli	a3,a3,24
 160:../Peripheral/src/ch32v30x_can.c ****                       ((uint32_t)CAN_InitStruct->CAN_SJW << 24) |
 208              		.loc 1 160 76
 209 008c 558F     		or	a4,a4,a3
 162:../Peripheral/src/ch32v30x_can.c ****                       ((uint32_t)CAN_InitStruct->CAN_BS1 << 16) |
 210              		.loc 1 162 24
 211 008e D421     		lbu	a3,4(a1)
 212              		.loc 1 162 58
 213 0090 C206     		slli	a3,a3,16
 161:../Peripheral/src/ch32v30x_can.c ****                       ((uint32_t)CAN_InitStruct->CAN_SJW << 24) |
 214              		.loc 1 161 65
 215 0092 558F     		or	a4,a4,a3
 163:../Peripheral/src/ch32v30x_can.c ****                       ((uint32_t)CAN_InitStruct->CAN_BS2 << 20) |
 216              		.loc 1 163 24
 217 0094 D431     		lbu	a3,5(a1)
 218              		.loc 1 163 58
 219 0096 D206     		slli	a3,a3,20
 162:../Peripheral/src/ch32v30x_can.c ****                       ((uint32_t)CAN_InitStruct->CAN_BS1 << 16) |
 220              		.loc 1 162 65
 221 0098 558F     		or	a4,a4,a3
 164:../Peripheral/src/ch32v30x_can.c ****                       ((uint32_t)CAN_InitStruct->CAN_Prescaler - 1);
 222              		.loc 1 164 24
 223 009a 9621     		lhu	a3,0(a1)
 224              		.loc 1 164 64
 225 009c FD16     		addi	a3,a3,-1
 163:../Peripheral/src/ch32v30x_can.c ****                       ((uint32_t)CAN_InitStruct->CAN_BS2 << 20) |
 226              		.loc 1 163 65
 227 009e 558F     		or	a4,a4,a3
 160:../Peripheral/src/ch32v30x_can.c ****                       ((uint32_t)CAN_InitStruct->CAN_SJW << 24) |
 228              		.loc 1 160 21
 229 00a0 D8CF     		sw	a4,28(a5)
 165:../Peripheral/src/ch32v30x_can.c ****         CANx->CTLR &= ~(uint32_t)CAN_CTLR_INRQ;
 230              		.loc 1 165 9 is_stmt 1
 231              		.loc 1 165 13 is_stmt 0
 232 00a2 9843     		lw	a4,0(a5)
 233              		.loc 1 165 20
 234 00a4 799B     		andi	a4,a4,-2
 235 00a6 98C3     		sw	a4,0(a5)
 166:../Peripheral/src/ch32v30x_can.c ****         wait_ack = 0;
 236              		.loc 1 166 9 is_stmt 1
 237              	.LVL12:
 167:../Peripheral/src/ch32v30x_can.c **** 
 168:../Peripheral/src/ch32v30x_can.c ****         while(((CANx->STATR & CAN_STATR_INAK) == CAN_STATR_INAK) && (wait_ack != INAK_TIMEOUT))
 238              		.loc 1 168 9
 239              		.loc 1 168 14 is_stmt 0
 240 00a8 4167     		li	a4,65536
 241              	.LVL13:
 242              	.L23:
 243              		.loc 1 168 66 is_stmt 1
 244              		.loc 1 168 21 is_stmt 0
 245 00aa D443     		lw	a3,4(a5)
 246              		.loc 1 168 29
 247 00ac 858A     		andi	a3,a3,1
 248              		.loc 1 168 66
 249 00ae 99C2     		beq	a3,zero,.L22
 250              		.loc 1 168 66 discriminator 1
 251 00b0 7D17     		addi	a4,a4,-1
 252              	.LVL14:
 253 00b2 65FF     		bne	a4,zero,.L23
 254              	.LVL15:
 255              	.L22:
 169:../Peripheral/src/ch32v30x_can.c ****         {
 170:../Peripheral/src/ch32v30x_can.c ****             wait_ack++;
 171:../Peripheral/src/ch32v30x_can.c ****         }
 172:../Peripheral/src/ch32v30x_can.c **** 
 173:../Peripheral/src/ch32v30x_can.c ****         if((CANx->STATR & CAN_STATR_INAK) == CAN_STATR_INAK)
 256              		.loc 1 173 9 is_stmt 1
 257              		.loc 1 173 17 is_stmt 0
 258 00b4 C843     		lw	a0,4(a5)
 259 00b6 1345F5FF 		not	a0,a0
 260 00ba 0589     		andi	a0,a0,1
 261              	.LVL16:
 262              	.L9:
 174:../Peripheral/src/ch32v30x_can.c ****         {
 175:../Peripheral/src/ch32v30x_can.c ****             InitStatus = CAN_InitStatus_Failed;
 176:../Peripheral/src/ch32v30x_can.c ****         }
 177:../Peripheral/src/ch32v30x_can.c ****         else
 178:../Peripheral/src/ch32v30x_can.c ****         {
 179:../Peripheral/src/ch32v30x_can.c ****             InitStatus = CAN_InitStatus_Success;
 180:../Peripheral/src/ch32v30x_can.c ****         }
 181:../Peripheral/src/ch32v30x_can.c ****     }
 182:../Peripheral/src/ch32v30x_can.c **** 
 183:../Peripheral/src/ch32v30x_can.c ****     return InitStatus;
 263              		.loc 1 183 5 is_stmt 1
 184:../Peripheral/src/ch32v30x_can.c **** }
 264              		.loc 1 184 1 is_stmt 0
 265 00bc 8280     		ret
 266              	.LVL17:
 267              	.L10:
 112:../Peripheral/src/ch32v30x_can.c ****         }
 268              		.loc 1 112 13 is_stmt 1
 112:../Peripheral/src/ch32v30x_can.c ****         }
 269              		.loc 1 112 17 is_stmt 0
 270 00be 9843     		lw	a4,0(a5)
 112:../Peripheral/src/ch32v30x_can.c ****         }
 271              		.loc 1 112 24
 272 00c0 1377F7F7 		andi	a4,a4,-129
 273 00c4 BDB7     		j	.L31
 274              	.L12:
 121:../Peripheral/src/ch32v30x_can.c ****         }
 275              		.loc 1 121 13 is_stmt 1
 121:../Peripheral/src/ch32v30x_can.c ****         }
 276              		.loc 1 121 17 is_stmt 0
 277 00c6 9843     		lw	a4,0(a5)
 121:../Peripheral/src/ch32v30x_can.c ****         }
 278              		.loc 1 121 24
 279 00c8 1377F7FB 		andi	a4,a4,-65
 280 00cc 9DBF     		j	.L32
 281              	.L14:
 130:../Peripheral/src/ch32v30x_can.c ****         }
 282              		.loc 1 130 13 is_stmt 1
 130:../Peripheral/src/ch32v30x_can.c ****         }
 283              		.loc 1 130 17 is_stmt 0
 284 00ce 9843     		lw	a4,0(a5)
 130:../Peripheral/src/ch32v30x_can.c ****         }
 285              		.loc 1 130 24
 286 00d0 1377F7FD 		andi	a4,a4,-33
 287 00d4 BDBF     		j	.L33
 288              	.L16:
 139:../Peripheral/src/ch32v30x_can.c ****         }
 289              		.loc 1 139 13 is_stmt 1
 139:../Peripheral/src/ch32v30x_can.c ****         }
 290              		.loc 1 139 17 is_stmt 0
 291 00d6 9843     		lw	a4,0(a5)
 139:../Peripheral/src/ch32v30x_can.c ****         }
 292              		.loc 1 139 24
 293 00d8 3D9B     		andi	a4,a4,-17
 294 00da 61B7     		j	.L34
 295              	.L18:
 148:../Peripheral/src/ch32v30x_can.c ****         }
 296              		.loc 1 148 13 is_stmt 1
 148:../Peripheral/src/ch32v30x_can.c ****         }
 297              		.loc 1 148 17 is_stmt 0
 298 00dc 9843     		lw	a4,0(a5)
 148:../Peripheral/src/ch32v30x_can.c ****         }
 299              		.loc 1 148 24
 300 00de 5D9B     		andi	a4,a4,-9
 301 00e0 49BF     		j	.L35
 302              	.L20:
 157:../Peripheral/src/ch32v30x_can.c ****         }
 303              		.loc 1 157 13 is_stmt 1
 157:../Peripheral/src/ch32v30x_can.c ****         }
 304              		.loc 1 157 17 is_stmt 0
 305 00e2 9843     		lw	a4,0(a5)
 157:../Peripheral/src/ch32v30x_can.c ****         }
 306              		.loc 1 157 24
 307 00e4 6D9B     		andi	a4,a4,-5
 308 00e6 71BF     		j	.L36
 309              		.cfi_endproc
 310              	.LFE30:
 312              		.section	.text.CAN_FilterInit,"ax",@progbits
 313              		.align	1
 314              		.globl	CAN_FilterInit
 316              	CAN_FilterInit:
 317              	.LFB31:
 185:../Peripheral/src/ch32v30x_can.c **** 
 186:../Peripheral/src/ch32v30x_can.c **** /*********************************************************************
 187:../Peripheral/src/ch32v30x_can.c ****  * @fn      CAN_FilterInit
 188:../Peripheral/src/ch32v30x_can.c ****  *
 189:../Peripheral/src/ch32v30x_can.c ****  * @brief   Initializes the CAN peripheral according to the specified
 190:../Peripheral/src/ch32v30x_can.c ****  *        parameters in the CAN_FilterInitStruct.
 191:../Peripheral/src/ch32v30x_can.c ****  *
 192:../Peripheral/src/ch32v30x_can.c ****  * @param   CAN_FilterInitStruct - pointer to a CAN_FilterInitTypeDef
 193:../Peripheral/src/ch32v30x_can.c ****  *        structure that contains the configuration information.
 194:../Peripheral/src/ch32v30x_can.c ****  *
 195:../Peripheral/src/ch32v30x_can.c ****  * @return  none
 196:../Peripheral/src/ch32v30x_can.c ****  */
 197:../Peripheral/src/ch32v30x_can.c **** void CAN_FilterInit(CAN_FilterInitTypeDef *CAN_FilterInitStruct)
 198:../Peripheral/src/ch32v30x_can.c **** {
 318              		.loc 1 198 1 is_stmt 1
 319              		.cfi_startproc
 320              	.LVL18:
 199:../Peripheral/src/ch32v30x_can.c ****     uint32_t filter_number_bit_pos = 0;
 321              		.loc 1 199 5
 200:../Peripheral/src/ch32v30x_can.c **** 
 201:../Peripheral/src/ch32v30x_can.c ****     filter_number_bit_pos = ((uint32_t)1) << CAN_FilterInitStruct->CAN_FilterNumber;
 322              		.loc 1 201 5
 202:../Peripheral/src/ch32v30x_can.c ****     CAN1->FCTLR |= FCTLR_FINIT;
 323              		.loc 1 202 9 is_stmt 0
 324 0000 37670040 		li	a4,1073766400
 325 0004 13060740 		addi	a2,a4,1024
 326 0008 13070760 		addi	a4,a4,1536
 327 000c 1443     		lw	a3,0(a4)
 201:../Peripheral/src/ch32v30x_can.c ****     CAN1->FCTLR |= FCTLR_FINIT;
 328              		.loc 1 201 66
 329 000e 3C25     		lbu	a5,10(a0)
 201:../Peripheral/src/ch32v30x_can.c ****     CAN1->FCTLR |= FCTLR_FINIT;
 330              		.loc 1 201 27
 331 0010 8548     		li	a7,1
 332              		.loc 1 202 17
 333 0012 93E61600 		ori	a3,a3,1
 334 0016 14C3     		sw	a3,0(a4)
 203:../Peripheral/src/ch32v30x_can.c ****     CAN1->FWR &= ~(uint32_t)filter_number_bit_pos;
 335              		.loc 1 203 9
 336 0018 0328C701 		lw	a6,28(a4)
 201:../Peripheral/src/ch32v30x_can.c ****     CAN1->FCTLR |= FCTLR_FINIT;
 337              		.loc 1 201 27
 338 001c B395F800 		sll	a1,a7,a5
 339              	.LVL19:
 202:../Peripheral/src/ch32v30x_can.c ****     CAN1->FCTLR |= FCTLR_FINIT;
 340              		.loc 1 202 5 is_stmt 1
 341              		.loc 1 203 5
 342              		.loc 1 203 18 is_stmt 0
 343 0020 93C6F5FF 		not	a3,a1
 344              		.loc 1 203 15
 345 0024 3378D800 		and	a6,a6,a3
 346 0028 232E0701 		sw	a6,28(a4)
 204:../Peripheral/src/ch32v30x_can.c **** 
 205:../Peripheral/src/ch32v30x_can.c ****     if(CAN_FilterInitStruct->CAN_FilterScale == CAN_FilterScale_16bit)
 347              		.loc 1 205 5 is_stmt 1
 348              		.loc 1 205 28 is_stmt 0
 349 002c 5825     		lbu	a4,12(a0)
 350              		.loc 1 205 7
 351 002e 3DEF     		bne	a4,zero,.L38
 206:../Peripheral/src/ch32v30x_can.c ****     {
 207:../Peripheral/src/ch32v30x_can.c ****         CAN1->FSCFGR &= ~(uint32_t)filter_number_bit_pos;
 352              		.loc 1 207 9 is_stmt 1
 353              		.loc 1 207 13 is_stmt 0
 354 0030 0327C620 		lw	a4,524(a2)
 208:../Peripheral/src/ch32v30x_can.c **** 
 209:../Peripheral/src/ch32v30x_can.c ****         CAN1->sFilterRegister[CAN_FilterInitStruct->CAN_FilterNumber].FR1 =
 210:../Peripheral/src/ch32v30x_can.c ****             ((0x0000FFFF & (uint32_t)CAN_FilterInitStruct->CAN_FilterMaskIdLow) << 16) |
 211:../Peripheral/src/ch32v30x_can.c ****             (0x0000FFFF & (uint32_t)CAN_FilterInitStruct->CAN_FilterIdLow);
 355              		.loc 1 211 25
 356 0034 03582500 		lhu	a6,2(a0)
 357 0038 8E07     		slli	a5,a5,3
 207:../Peripheral/src/ch32v30x_can.c **** 
 358              		.loc 1 207 22
 359 003a 758F     		and	a4,a3,a4
 360 003c 2326E620 		sw	a4,524(a2)
 209:../Peripheral/src/ch32v30x_can.c ****             ((0x0000FFFF & (uint32_t)CAN_FilterInitStruct->CAN_FilterMaskIdLow) << 16) |
 361              		.loc 1 209 9 is_stmt 1
 210:../Peripheral/src/ch32v30x_can.c ****             (0x0000FFFF & (uint32_t)CAN_FilterInitStruct->CAN_FilterIdLow);
 362              		.loc 1 210 26 is_stmt 0
 363 0040 7A21     		lhu	a4,6(a0)
 364 0042 B297     		add	a5,a5,a2
 212:../Peripheral/src/ch32v30x_can.c **** 
 213:../Peripheral/src/ch32v30x_can.c ****         CAN1->sFilterRegister[CAN_FilterInitStruct->CAN_FilterNumber].FR2 =
 214:../Peripheral/src/ch32v30x_can.c ****             ((0x0000FFFF & (uint32_t)CAN_FilterInitStruct->CAN_FilterMaskIdHigh) << 16) |
 215:../Peripheral/src/ch32v30x_can.c ****             (0x0000FFFF & (uint32_t)CAN_FilterInitStruct->CAN_FilterIdHigh);
 365              		.loc 1 215 25
 366 0044 1221     		lhu	a2,0(a0)
 210:../Peripheral/src/ch32v30x_can.c ****             (0x0000FFFF & (uint32_t)CAN_FilterInitStruct->CAN_FilterIdLow);
 367              		.loc 1 210 81
 368 0046 4207     		slli	a4,a4,16
 210:../Peripheral/src/ch32v30x_can.c ****             (0x0000FFFF & (uint32_t)CAN_FilterInitStruct->CAN_FilterIdLow);
 369              		.loc 1 210 88
 370 0048 33670701 		or	a4,a4,a6
 209:../Peripheral/src/ch32v30x_can.c ****             ((0x0000FFFF & (uint32_t)CAN_FilterInitStruct->CAN_FilterMaskIdLow) << 16) |
 371              		.loc 1 209 75
 372 004c 23A0E724 		sw	a4,576(a5)
 213:../Peripheral/src/ch32v30x_can.c ****             ((0x0000FFFF & (uint32_t)CAN_FilterInitStruct->CAN_FilterMaskIdHigh) << 16) |
 373              		.loc 1 213 9 is_stmt 1
 214:../Peripheral/src/ch32v30x_can.c ****             (0x0000FFFF & (uint32_t)CAN_FilterInitStruct->CAN_FilterIdHigh);
 374              		.loc 1 214 26 is_stmt 0
 375 0050 5A21     		lhu	a4,4(a0)
 214:../Peripheral/src/ch32v30x_can.c ****             (0x0000FFFF & (uint32_t)CAN_FilterInitStruct->CAN_FilterIdHigh);
 376              		.loc 1 214 82
 377 0052 4207     		slli	a4,a4,16
 378              	.L45:
 216:../Peripheral/src/ch32v30x_can.c ****     }
 217:../Peripheral/src/ch32v30x_can.c **** 
 218:../Peripheral/src/ch32v30x_can.c ****     if(CAN_FilterInitStruct->CAN_FilterScale == CAN_FilterScale_32bit)
 219:../Peripheral/src/ch32v30x_can.c ****     {
 220:../Peripheral/src/ch32v30x_can.c ****         CAN1->FSCFGR |= filter_number_bit_pos;
 221:../Peripheral/src/ch32v30x_can.c **** 
 222:../Peripheral/src/ch32v30x_can.c ****         CAN1->sFilterRegister[CAN_FilterInitStruct->CAN_FilterNumber].FR1 =
 223:../Peripheral/src/ch32v30x_can.c ****             ((0x0000FFFF & (uint32_t)CAN_FilterInitStruct->CAN_FilterIdHigh) << 16) |
 224:../Peripheral/src/ch32v30x_can.c ****             (0x0000FFFF & (uint32_t)CAN_FilterInitStruct->CAN_FilterIdLow);
 225:../Peripheral/src/ch32v30x_can.c **** 
 226:../Peripheral/src/ch32v30x_can.c ****         CAN1->sFilterRegister[CAN_FilterInitStruct->CAN_FilterNumber].FR2 =
 227:../Peripheral/src/ch32v30x_can.c ****             ((0x0000FFFF & (uint32_t)CAN_FilterInitStruct->CAN_FilterMaskIdHigh) << 16) |
 379              		.loc 1 227 89
 380 0054 518F     		or	a4,a4,a2
 226:../Peripheral/src/ch32v30x_can.c ****             ((0x0000FFFF & (uint32_t)CAN_FilterInitStruct->CAN_FilterMaskIdHigh) << 16) |
 381              		.loc 1 226 75
 382 0056 23A2E724 		sw	a4,580(a5)
 383              	.L39:
 228:../Peripheral/src/ch32v30x_can.c ****             (0x0000FFFF & (uint32_t)CAN_FilterInitStruct->CAN_FilterMaskIdLow);
 229:../Peripheral/src/ch32v30x_can.c ****     }
 230:../Peripheral/src/ch32v30x_can.c **** 
 231:../Peripheral/src/ch32v30x_can.c ****     if(CAN_FilterInitStruct->CAN_FilterMode == CAN_FilterMode_IdMask)
 384              		.loc 1 231 5 is_stmt 1
 385              		.loc 1 231 7 is_stmt 0
 386 005a 3835     		lbu	a4,11(a0)
 387 005c B7670040 		li	a5,1073766400
 388 0060 93870740 		addi	a5,a5,1024
 389 0064 2DEB     		bne	a4,zero,.L40
 232:../Peripheral/src/ch32v30x_can.c ****     {
 233:../Peripheral/src/ch32v30x_can.c ****         CAN1->FMCFGR &= ~(uint32_t)filter_number_bit_pos;
 390              		.loc 1 233 9 is_stmt 1
 391              		.loc 1 233 13 is_stmt 0
 392 0066 03A74720 		lw	a4,516(a5)
 393              		.loc 1 233 22
 394 006a 758F     		and	a4,a3,a4
 395              	.L46:
 234:../Peripheral/src/ch32v30x_can.c ****     }
 235:../Peripheral/src/ch32v30x_can.c ****     else
 236:../Peripheral/src/ch32v30x_can.c ****     {
 237:../Peripheral/src/ch32v30x_can.c ****         CAN1->FMCFGR |= (uint32_t)filter_number_bit_pos;
 396              		.loc 1 237 22
 397 006c 23A2E720 		sw	a4,516(a5)
 238:../Peripheral/src/ch32v30x_can.c ****     }
 239:../Peripheral/src/ch32v30x_can.c **** 
 240:../Peripheral/src/ch32v30x_can.c ****     if(CAN_FilterInitStruct->CAN_FilterFIFOAssignment == CAN_Filter_FIFO0)
 398              		.loc 1 240 5 is_stmt 1
 399              		.loc 1 240 28 is_stmt 0
 400 0070 1A25     		lhu	a4,8(a0)
 401 0072 B7670040 		li	a5,1073766400
 402 0076 93870740 		addi	a5,a5,1024
 403              		.loc 1 240 7
 404 007a 35E3     		bne	a4,zero,.L42
 241:../Peripheral/src/ch32v30x_can.c ****     {
 242:../Peripheral/src/ch32v30x_can.c ****         CAN1->FAFIFOR &= ~(uint32_t)filter_number_bit_pos;
 405              		.loc 1 242 9 is_stmt 1
 406              		.loc 1 242 13 is_stmt 0
 407 007c 03A74721 		lw	a4,532(a5)
 408              		.loc 1 242 23
 409 0080 F98E     		and	a3,a3,a4
 410 0082 23AAD720 		sw	a3,532(a5)
 243:../Peripheral/src/ch32v30x_can.c ****     }
 244:../Peripheral/src/ch32v30x_can.c **** 
 245:../Peripheral/src/ch32v30x_can.c ****     if(CAN_FilterInitStruct->CAN_FilterFIFOAssignment == CAN_Filter_FIFO1)
 411              		.loc 1 245 5 is_stmt 1
 412              	.L43:
 246:../Peripheral/src/ch32v30x_can.c ****     {
 247:../Peripheral/src/ch32v30x_can.c ****         CAN1->FAFIFOR |= (uint32_t)filter_number_bit_pos;
 248:../Peripheral/src/ch32v30x_can.c ****     }
 249:../Peripheral/src/ch32v30x_can.c **** 
 250:../Peripheral/src/ch32v30x_can.c ****     if(CAN_FilterInitStruct->CAN_FilterActivation == ENABLE)
 413              		.loc 1 250 5
 414              		.loc 1 250 7 is_stmt 0
 415 0086 1849     		lw	a4,16(a0)
 416 0088 8547     		li	a5,1
 417 008a 6319F700 		bne	a4,a5,.L44
 251:../Peripheral/src/ch32v30x_can.c ****     {
 252:../Peripheral/src/ch32v30x_can.c ****         CAN1->FWR |= filter_number_bit_pos;
 418              		.loc 1 252 9 is_stmt 1
 419              		.loc 1 252 13 is_stmt 0
 420 008e B7670040 		li	a5,1073766400
 421 0092 03A7C761 		lw	a4,1564(a5)
 422              		.loc 1 252 19
 423 0096 4D8F     		or	a4,a4,a1
 424 0098 23AEE760 		sw	a4,1564(a5)
 425              	.L44:
 253:../Peripheral/src/ch32v30x_can.c ****     }
 254:../Peripheral/src/ch32v30x_can.c **** 
 255:../Peripheral/src/ch32v30x_can.c ****     CAN1->FCTLR &= ~FCTLR_FINIT;
 426              		.loc 1 255 5 is_stmt 1
 427              		.loc 1 255 9 is_stmt 0
 428 009c B7670040 		li	a5,1073766400
 429 00a0 03A70760 		lw	a4,1536(a5)
 430              		.loc 1 255 17
 431 00a4 799B     		andi	a4,a4,-2
 432 00a6 23A0E760 		sw	a4,1536(a5)
 256:../Peripheral/src/ch32v30x_can.c **** }
 433              		.loc 1 256 1
 434 00aa 8280     		ret
 435              	.L38:
 218:../Peripheral/src/ch32v30x_can.c ****     {
 436              		.loc 1 218 5 is_stmt 1
 218:../Peripheral/src/ch32v30x_can.c ****     {
 437              		.loc 1 218 7 is_stmt 0
 438 00ac E31717FB 		bne	a4,a7,.L39
 220:../Peripheral/src/ch32v30x_can.c **** 
 439              		.loc 1 220 9 is_stmt 1
 220:../Peripheral/src/ch32v30x_can.c **** 
 440              		.loc 1 220 13 is_stmt 0
 441 00b0 0327C620 		lw	a4,524(a2)
 224:../Peripheral/src/ch32v30x_can.c **** 
 442              		.loc 1 224 25
 443 00b4 03582500 		lhu	a6,2(a0)
 444 00b8 8E07     		slli	a5,a5,3
 220:../Peripheral/src/ch32v30x_can.c **** 
 445              		.loc 1 220 22
 446 00ba 4D8F     		or	a4,a4,a1
 447 00bc 2326E620 		sw	a4,524(a2)
 222:../Peripheral/src/ch32v30x_can.c ****             ((0x0000FFFF & (uint32_t)CAN_FilterInitStruct->CAN_FilterIdHigh) << 16) |
 448              		.loc 1 222 9 is_stmt 1
 223:../Peripheral/src/ch32v30x_can.c ****             (0x0000FFFF & (uint32_t)CAN_FilterInitStruct->CAN_FilterIdLow);
 449              		.loc 1 223 26 is_stmt 0
 450 00c0 1A21     		lhu	a4,0(a0)
 451 00c2 B297     		add	a5,a5,a2
 228:../Peripheral/src/ch32v30x_can.c ****     }
 452              		.loc 1 228 25
 453 00c4 7221     		lhu	a2,6(a0)
 223:../Peripheral/src/ch32v30x_can.c ****             (0x0000FFFF & (uint32_t)CAN_FilterInitStruct->CAN_FilterIdLow);
 454              		.loc 1 223 78
 455 00c6 4207     		slli	a4,a4,16
 223:../Peripheral/src/ch32v30x_can.c ****             (0x0000FFFF & (uint32_t)CAN_FilterInitStruct->CAN_FilterIdLow);
 456              		.loc 1 223 85
 457 00c8 33670701 		or	a4,a4,a6
 222:../Peripheral/src/ch32v30x_can.c ****             ((0x0000FFFF & (uint32_t)CAN_FilterInitStruct->CAN_FilterIdHigh) << 16) |
 458              		.loc 1 222 75
 459 00cc 23A0E724 		sw	a4,576(a5)
 226:../Peripheral/src/ch32v30x_can.c ****             ((0x0000FFFF & (uint32_t)CAN_FilterInitStruct->CAN_FilterMaskIdHigh) << 16) |
 460              		.loc 1 226 9 is_stmt 1
 227:../Peripheral/src/ch32v30x_can.c ****             (0x0000FFFF & (uint32_t)CAN_FilterInitStruct->CAN_FilterMaskIdLow);
 461              		.loc 1 227 26 is_stmt 0
 462 00d0 5A21     		lhu	a4,4(a0)
 227:../Peripheral/src/ch32v30x_can.c ****             (0x0000FFFF & (uint32_t)CAN_FilterInitStruct->CAN_FilterMaskIdLow);
 463              		.loc 1 227 82
 464 00d2 4207     		slli	a4,a4,16
 465 00d4 41B7     		j	.L45
 466              	.L40:
 237:../Peripheral/src/ch32v30x_can.c ****     }
 467              		.loc 1 237 9 is_stmt 1
 237:../Peripheral/src/ch32v30x_can.c ****     }
 468              		.loc 1 237 13 is_stmt 0
 469 00d6 03A74720 		lw	a4,516(a5)
 237:../Peripheral/src/ch32v30x_can.c ****     }
 470              		.loc 1 237 22
 471 00da 4D8F     		or	a4,a4,a1
 472 00dc 41BF     		j	.L46
 473              	.L42:
 245:../Peripheral/src/ch32v30x_can.c ****     {
 474              		.loc 1 245 5 is_stmt 1
 245:../Peripheral/src/ch32v30x_can.c ****     {
 475              		.loc 1 245 7 is_stmt 0
 476 00de 8546     		li	a3,1
 477 00e0 E313D7FA 		bne	a4,a3,.L43
 247:../Peripheral/src/ch32v30x_can.c ****     }
 478              		.loc 1 247 9 is_stmt 1
 247:../Peripheral/src/ch32v30x_can.c ****     }
 479              		.loc 1 247 13 is_stmt 0
 480 00e4 03A74721 		lw	a4,532(a5)
 247:../Peripheral/src/ch32v30x_can.c ****     }
 481              		.loc 1 247 23
 482 00e8 4D8F     		or	a4,a4,a1
 483 00ea 23AAE720 		sw	a4,532(a5)
 484 00ee 61BF     		j	.L43
 485              		.cfi_endproc
 486              	.LFE31:
 488              		.section	.text.CAN_StructInit,"ax",@progbits
 489              		.align	1
 490              		.globl	CAN_StructInit
 492              	CAN_StructInit:
 493              	.LFB32:
 257:../Peripheral/src/ch32v30x_can.c **** 
 258:../Peripheral/src/ch32v30x_can.c **** /*********************************************************************
 259:../Peripheral/src/ch32v30x_can.c ****  * @fn      CAN_StructInit
 260:../Peripheral/src/ch32v30x_can.c ****  *
 261:../Peripheral/src/ch32v30x_can.c ****  * @brief   Fills each CAN_InitStruct member with its default value.
 262:../Peripheral/src/ch32v30x_can.c ****  *
 263:../Peripheral/src/ch32v30x_can.c ****  * @param   CAN_InitStruct - pointer to a CAN_InitTypeDef structure which
 264:../Peripheral/src/ch32v30x_can.c ****  *        will be initialized.
 265:../Peripheral/src/ch32v30x_can.c ****  *
 266:../Peripheral/src/ch32v30x_can.c ****  * @return  none
 267:../Peripheral/src/ch32v30x_can.c ****  */
 268:../Peripheral/src/ch32v30x_can.c **** void CAN_StructInit(CAN_InitTypeDef *CAN_InitStruct)
 269:../Peripheral/src/ch32v30x_can.c **** {
 494              		.loc 1 269 1 is_stmt 1
 495              		.cfi_startproc
 496              	.LVL20:
 270:../Peripheral/src/ch32v30x_can.c ****     CAN_InitStruct->CAN_TTCM = DISABLE;
 497              		.loc 1 270 5
 271:../Peripheral/src/ch32v30x_can.c ****     CAN_InitStruct->CAN_ABOM = DISABLE;
 272:../Peripheral/src/ch32v30x_can.c ****     CAN_InitStruct->CAN_AWUM = DISABLE;
 273:../Peripheral/src/ch32v30x_can.c ****     CAN_InitStruct->CAN_NART = DISABLE;
 274:../Peripheral/src/ch32v30x_can.c ****     CAN_InitStruct->CAN_RFLM = DISABLE;
 275:../Peripheral/src/ch32v30x_can.c ****     CAN_InitStruct->CAN_TXFP = DISABLE;
 276:../Peripheral/src/ch32v30x_can.c ****     CAN_InitStruct->CAN_Mode = CAN_Mode_Normal;
 277:../Peripheral/src/ch32v30x_can.c ****     CAN_InitStruct->CAN_SJW = CAN_SJW_1tq;
 278:../Peripheral/src/ch32v30x_can.c ****     CAN_InitStruct->CAN_BS1 = CAN_BS1_4tq;
 279:../Peripheral/src/ch32v30x_can.c ****     CAN_InitStruct->CAN_BS2 = CAN_BS2_3tq;
 280:../Peripheral/src/ch32v30x_can.c ****     CAN_InitStruct->CAN_Prescaler = 1;
 498              		.loc 1 280 35 is_stmt 0
 499 0000 8547     		li	a5,1
 500 0002 1CC1     		sw	a5,0(a0)
 278:../Peripheral/src/ch32v30x_can.c ****     CAN_InitStruct->CAN_BS2 = CAN_BS2_3tq;
 501              		.loc 1 278 29
 502 0004 93073020 		li	a5,515
 270:../Peripheral/src/ch32v30x_can.c ****     CAN_InitStruct->CAN_TTCM = DISABLE;
 503              		.loc 1 270 30
 504 0008 23240500 		sw	zero,8(a0)
 271:../Peripheral/src/ch32v30x_can.c ****     CAN_InitStruct->CAN_ABOM = DISABLE;
 505              		.loc 1 271 5 is_stmt 1
 271:../Peripheral/src/ch32v30x_can.c ****     CAN_InitStruct->CAN_ABOM = DISABLE;
 506              		.loc 1 271 30 is_stmt 0
 507 000c 23260500 		sw	zero,12(a0)
 272:../Peripheral/src/ch32v30x_can.c ****     CAN_InitStruct->CAN_NART = DISABLE;
 508              		.loc 1 272 5 is_stmt 1
 272:../Peripheral/src/ch32v30x_can.c ****     CAN_InitStruct->CAN_NART = DISABLE;
 509              		.loc 1 272 30 is_stmt 0
 510 0010 23280500 		sw	zero,16(a0)
 273:../Peripheral/src/ch32v30x_can.c ****     CAN_InitStruct->CAN_RFLM = DISABLE;
 511              		.loc 1 273 5 is_stmt 1
 273:../Peripheral/src/ch32v30x_can.c ****     CAN_InitStruct->CAN_RFLM = DISABLE;
 512              		.loc 1 273 30 is_stmt 0
 513 0014 232A0500 		sw	zero,20(a0)
 274:../Peripheral/src/ch32v30x_can.c ****     CAN_InitStruct->CAN_TXFP = DISABLE;
 514              		.loc 1 274 5 is_stmt 1
 274:../Peripheral/src/ch32v30x_can.c ****     CAN_InitStruct->CAN_TXFP = DISABLE;
 515              		.loc 1 274 30 is_stmt 0
 516 0018 232C0500 		sw	zero,24(a0)
 275:../Peripheral/src/ch32v30x_can.c ****     CAN_InitStruct->CAN_Mode = CAN_Mode_Normal;
 517              		.loc 1 275 5 is_stmt 1
 275:../Peripheral/src/ch32v30x_can.c ****     CAN_InitStruct->CAN_Mode = CAN_Mode_Normal;
 518              		.loc 1 275 30 is_stmt 0
 519 001c 232E0500 		sw	zero,28(a0)
 276:../Peripheral/src/ch32v30x_can.c ****     CAN_InitStruct->CAN_SJW = CAN_SJW_1tq;
 520              		.loc 1 276 5 is_stmt 1
 277:../Peripheral/src/ch32v30x_can.c ****     CAN_InitStruct->CAN_BS1 = CAN_BS1_4tq;
 521              		.loc 1 277 5
 278:../Peripheral/src/ch32v30x_can.c ****     CAN_InitStruct->CAN_BS2 = CAN_BS2_3tq;
 522              		.loc 1 278 5
 279:../Peripheral/src/ch32v30x_can.c ****     CAN_InitStruct->CAN_Prescaler = 1;
 523              		.loc 1 279 5
 524              		.loc 1 280 5
 278:../Peripheral/src/ch32v30x_can.c ****     CAN_InitStruct->CAN_BS2 = CAN_BS2_3tq;
 525              		.loc 1 278 29 is_stmt 0
 526 0020 5EA1     		sh	a5,4(a0)
 281:../Peripheral/src/ch32v30x_can.c **** }
 527              		.loc 1 281 1
 528 0022 8280     		ret
 529              		.cfi_endproc
 530              	.LFE32:
 532              		.section	.text.CAN_SlaveStartBank,"ax",@progbits
 533              		.align	1
 534              		.globl	CAN_SlaveStartBank
 536              	CAN_SlaveStartBank:
 537              	.LFB33:
 282:../Peripheral/src/ch32v30x_can.c **** 
 283:../Peripheral/src/ch32v30x_can.c **** /*********************************************************************
 284:../Peripheral/src/ch32v30x_can.c ****  * @fn      CAN_SlaveStartBank
 285:../Peripheral/src/ch32v30x_can.c ****  *
 286:../Peripheral/src/ch32v30x_can.c ****  * @brief   This function applies only to CH32 Connectivity line devices.
 287:../Peripheral/src/ch32v30x_can.c ****  *
 288:../Peripheral/src/ch32v30x_can.c ****  * @param   CAN_BankNumber - Select the start slave bank filter from 1..27.
 289:../Peripheral/src/ch32v30x_can.c ****  *
 290:../Peripheral/src/ch32v30x_can.c ****  * @return  none
 291:../Peripheral/src/ch32v30x_can.c ****  */
 292:../Peripheral/src/ch32v30x_can.c **** void CAN_SlaveStartBank(uint8_t CAN_BankNumber)
 293:../Peripheral/src/ch32v30x_can.c **** {
 538              		.loc 1 293 1 is_stmt 1
 539              		.cfi_startproc
 540              	.LVL21:
 294:../Peripheral/src/ch32v30x_can.c ****     CAN1->FCTLR |= FCTLR_FINIT;
 541              		.loc 1 294 5
 542              		.loc 1 294 9 is_stmt 0
 543 0000 B7670040 		li	a5,1073766400
 544 0004 93870760 		addi	a5,a5,1536
 545 0008 9843     		lw	a4,0(a5)
 295:../Peripheral/src/ch32v30x_can.c ****     CAN1->FCTLR &= (uint32_t)0xFFFFC0F1;
 546              		.loc 1 295 17
 547 000a F176     		li	a3,-16384
 548 000c 9386160F 		addi	a3,a3,241
 294:../Peripheral/src/ch32v30x_can.c ****     CAN1->FCTLR |= FCTLR_FINIT;
 549              		.loc 1 294 17
 550 0010 13671700 		ori	a4,a4,1
 551 0014 98C3     		sw	a4,0(a5)
 552              		.loc 1 295 5 is_stmt 1
 553              		.loc 1 295 9 is_stmt 0
 554 0016 9843     		lw	a4,0(a5)
 296:../Peripheral/src/ch32v30x_can.c ****     CAN1->FCTLR |= (uint32_t)(CAN_BankNumber) << 8;
 555              		.loc 1 296 47
 556 0018 2205     		slli	a0,a0,8
 557              	.LVL22:
 295:../Peripheral/src/ch32v30x_can.c ****     CAN1->FCTLR &= (uint32_t)0xFFFFC0F1;
 558              		.loc 1 295 17
 559 001a 758F     		and	a4,a4,a3
 560 001c 98C3     		sw	a4,0(a5)
 561              		.loc 1 296 5 is_stmt 1
 562              		.loc 1 296 9 is_stmt 0
 563 001e 9843     		lw	a4,0(a5)
 564              		.loc 1 296 17
 565 0020 598D     		or	a0,a0,a4
 566 0022 88C3     		sw	a0,0(a5)
 297:../Peripheral/src/ch32v30x_can.c ****     CAN1->FCTLR &= ~FCTLR_FINIT;
 567              		.loc 1 297 5 is_stmt 1
 568              		.loc 1 297 9 is_stmt 0
 569 0024 9843     		lw	a4,0(a5)
 570              		.loc 1 297 17
 571 0026 799B     		andi	a4,a4,-2
 572 0028 98C3     		sw	a4,0(a5)
 298:../Peripheral/src/ch32v30x_can.c **** }
 573              		.loc 1 298 1
 574 002a 8280     		ret
 575              		.cfi_endproc
 576              	.LFE33:
 578              		.section	.text.CAN_DBGFreeze,"ax",@progbits
 579              		.align	1
 580              		.globl	CAN_DBGFreeze
 582              	CAN_DBGFreeze:
 583              	.LFB34:
 299:../Peripheral/src/ch32v30x_can.c **** 
 300:../Peripheral/src/ch32v30x_can.c **** /*********************************************************************
 301:../Peripheral/src/ch32v30x_can.c ****  * @fn      CAN_DBGFreeze
 302:../Peripheral/src/ch32v30x_can.c ****  *
 303:../Peripheral/src/ch32v30x_can.c ****  * @brief   Enables or disables the DBG Freeze for CAN.
 304:../Peripheral/src/ch32v30x_can.c ****  *
 305:../Peripheral/src/ch32v30x_can.c ****  * @param   CANx - where x can be 1 to select the CAN peripheral.
 306:../Peripheral/src/ch32v30x_can.c ****  *          NewState - ENABLE or DISABLE.
 307:../Peripheral/src/ch32v30x_can.c ****  *
 308:../Peripheral/src/ch32v30x_can.c ****  * @return  none
 309:../Peripheral/src/ch32v30x_can.c ****  */
 310:../Peripheral/src/ch32v30x_can.c **** void CAN_DBGFreeze(CAN_TypeDef *CANx, FunctionalState NewState)
 311:../Peripheral/src/ch32v30x_can.c **** {
 584              		.loc 1 311 1 is_stmt 1
 585              		.cfi_startproc
 586              	.LVL23:
 312:../Peripheral/src/ch32v30x_can.c ****     if(NewState != DISABLE)
 587              		.loc 1 312 5
 313:../Peripheral/src/ch32v30x_can.c ****     {
 314:../Peripheral/src/ch32v30x_can.c ****         CANx->CTLR |= CTLR_DBF;
 588              		.loc 1 314 13 is_stmt 0
 589 0000 1C41     		lw	a5,0(a0)
 312:../Peripheral/src/ch32v30x_can.c ****     if(NewState != DISABLE)
 590              		.loc 1 312 7
 591 0002 89C5     		beq	a1,zero,.L50
 592              		.loc 1 314 9 is_stmt 1
 593              		.loc 1 314 20 is_stmt 0
 594 0004 4167     		li	a4,65536
 595 0006 D98F     		or	a5,a5,a4
 596              	.L52:
 315:../Peripheral/src/ch32v30x_can.c ****     }
 316:../Peripheral/src/ch32v30x_can.c ****     else
 317:../Peripheral/src/ch32v30x_can.c ****     {
 318:../Peripheral/src/ch32v30x_can.c ****         CANx->CTLR &= ~CTLR_DBF;
 597              		.loc 1 318 20
 598 0008 1CC1     		sw	a5,0(a0)
 319:../Peripheral/src/ch32v30x_can.c ****     }
 320:../Peripheral/src/ch32v30x_can.c **** }
 599              		.loc 1 320 1
 600 000a 8280     		ret
 601              	.L50:
 318:../Peripheral/src/ch32v30x_can.c ****     }
 602              		.loc 1 318 9 is_stmt 1
 318:../Peripheral/src/ch32v30x_can.c ****     }
 603              		.loc 1 318 20 is_stmt 0
 604 000c 4177     		li	a4,-65536
 605 000e 7D17     		addi	a4,a4,-1
 606 0010 F98F     		and	a5,a5,a4
 607 0012 DDBF     		j	.L52
 608              		.cfi_endproc
 609              	.LFE34:
 611              		.section	.text.CAN_TTComModeCmd,"ax",@progbits
 612              		.align	1
 613              		.globl	CAN_TTComModeCmd
 615              	CAN_TTComModeCmd:
 616              	.LFB35:
 321:../Peripheral/src/ch32v30x_can.c **** 
 322:../Peripheral/src/ch32v30x_can.c **** /*********************************************************************
 323:../Peripheral/src/ch32v30x_can.c ****  * @fn      CAN_TTComModeCmd
 324:../Peripheral/src/ch32v30x_can.c ****  *
 325:../Peripheral/src/ch32v30x_can.c ****  * @brief   Enables or disabes the CAN Time TriggerOperation communication mode.
 326:../Peripheral/src/ch32v30x_can.c ****  *
 327:../Peripheral/src/ch32v30x_can.c ****  * @param   CANx - where x can be 1 to select the CAN peripheral.
 328:../Peripheral/src/ch32v30x_can.c ****  *          NewState - ENABLE or DISABLE.
 329:../Peripheral/src/ch32v30x_can.c ****  *          Note-
 330:../Peripheral/src/ch32v30x_can.c ****  *          DLC must be programmed as 8 in order Time Stamp (2 bytes) to be 
 331:../Peripheral/src/ch32v30x_can.c ****  *          sent over the CAN bus. 
 332:../Peripheral/src/ch32v30x_can.c ****  *
 333:../Peripheral/src/ch32v30x_can.c ****  * @return  none
 334:../Peripheral/src/ch32v30x_can.c ****  */
 335:../Peripheral/src/ch32v30x_can.c **** void CAN_TTComModeCmd(CAN_TypeDef *CANx, FunctionalState NewState)
 336:../Peripheral/src/ch32v30x_can.c **** {
 617              		.loc 1 336 1 is_stmt 1
 618              		.cfi_startproc
 619              	.LVL24:
 337:../Peripheral/src/ch32v30x_can.c ****     if(NewState != DISABLE)
 620              		.loc 1 337 5
 338:../Peripheral/src/ch32v30x_can.c ****     {
 339:../Peripheral/src/ch32v30x_can.c ****         CANx->CTLR |= CAN_CTLR_TTCM;
 621              		.loc 1 339 13 is_stmt 0
 622 0000 1C41     		lw	a5,0(a0)
 337:../Peripheral/src/ch32v30x_can.c ****     if(NewState != DISABLE)
 623              		.loc 1 337 7
 624 0002 9DC1     		beq	a1,zero,.L54
 625              		.loc 1 339 9 is_stmt 1
 626              		.loc 1 339 20 is_stmt 0
 627 0004 93E70708 		ori	a5,a5,128
 628 0008 1CC1     		sw	a5,0(a0)
 340:../Peripheral/src/ch32v30x_can.c **** 
 341:../Peripheral/src/ch32v30x_can.c ****         CANx->sTxMailBox[0].TXMDTR |= ((uint32_t)CAN_TXMDT0R_TGT);
 629              		.loc 1 341 9 is_stmt 1
 630              		.loc 1 341 28 is_stmt 0
 631 000a 13050518 		addi	a0,a0,384
 632              	.LVL25:
 633 000e 5C41     		lw	a5,4(a0)
 634              		.loc 1 341 36
 635 0010 93E70710 		ori	a5,a5,256
 636 0014 5CC1     		sw	a5,4(a0)
 342:../Peripheral/src/ch32v30x_can.c ****         CANx->sTxMailBox[1].TXMDTR |= ((uint32_t)CAN_TXMDT1R_TGT);
 637              		.loc 1 342 9 is_stmt 1
 638              		.loc 1 342 28 is_stmt 0
 639 0016 5C49     		lw	a5,20(a0)
 640              		.loc 1 342 36
 641 0018 93E70710 		ori	a5,a5,256
 642 001c 5CC9     		sw	a5,20(a0)
 343:../Peripheral/src/ch32v30x_can.c ****         CANx->sTxMailBox[2].TXMDTR |= ((uint32_t)CAN_TXMDT2R_TGT);
 643              		.loc 1 343 9 is_stmt 1
 644              		.loc 1 343 28 is_stmt 0
 645 001e 5C51     		lw	a5,36(a0)
 646              		.loc 1 343 36
 647 0020 93E70710 		ori	a5,a5,256
 648              	.LVL26:
 649              	.L56:
 344:../Peripheral/src/ch32v30x_can.c ****     }
 345:../Peripheral/src/ch32v30x_can.c ****     else
 346:../Peripheral/src/ch32v30x_can.c ****     {
 347:../Peripheral/src/ch32v30x_can.c ****         CANx->CTLR &= (uint32_t)(~(uint32_t)CAN_CTLR_TTCM);
 348:../Peripheral/src/ch32v30x_can.c **** 
 349:../Peripheral/src/ch32v30x_can.c ****         CANx->sTxMailBox[0].TXMDTR &= ((uint32_t)~CAN_TXMDT0R_TGT);
 350:../Peripheral/src/ch32v30x_can.c ****         CANx->sTxMailBox[1].TXMDTR &= ((uint32_t)~CAN_TXMDT1R_TGT);
 351:../Peripheral/src/ch32v30x_can.c ****         CANx->sTxMailBox[2].TXMDTR &= ((uint32_t)~CAN_TXMDT2R_TGT);
 650              		.loc 1 351 36
 651 0024 5CD1     		sw	a5,36(a0)
 352:../Peripheral/src/ch32v30x_can.c ****     }
 353:../Peripheral/src/ch32v30x_can.c **** }
 652              		.loc 1 353 1
 653 0026 8280     		ret
 654              	.LVL27:
 655              	.L54:
 347:../Peripheral/src/ch32v30x_can.c **** 
 656              		.loc 1 347 9 is_stmt 1
 347:../Peripheral/src/ch32v30x_can.c **** 
 657              		.loc 1 347 20 is_stmt 0
 658 0028 93F7F7F7 		andi	a5,a5,-129
 659 002c 1CC1     		sw	a5,0(a0)
 349:../Peripheral/src/ch32v30x_can.c ****         CANx->sTxMailBox[1].TXMDTR &= ((uint32_t)~CAN_TXMDT1R_TGT);
 660              		.loc 1 349 9 is_stmt 1
 349:../Peripheral/src/ch32v30x_can.c ****         CANx->sTxMailBox[1].TXMDTR &= ((uint32_t)~CAN_TXMDT1R_TGT);
 661              		.loc 1 349 28 is_stmt 0
 662 002e 13050518 		addi	a0,a0,384
 663              	.LVL28:
 664 0032 5C41     		lw	a5,4(a0)
 349:../Peripheral/src/ch32v30x_can.c ****         CANx->sTxMailBox[1].TXMDTR &= ((uint32_t)~CAN_TXMDT1R_TGT);
 665              		.loc 1 349 36
 666 0034 93F7F7EF 		andi	a5,a5,-257
 667 0038 5CC1     		sw	a5,4(a0)
 350:../Peripheral/src/ch32v30x_can.c ****         CANx->sTxMailBox[2].TXMDTR &= ((uint32_t)~CAN_TXMDT2R_TGT);
 668              		.loc 1 350 9 is_stmt 1
 350:../Peripheral/src/ch32v30x_can.c ****         CANx->sTxMailBox[2].TXMDTR &= ((uint32_t)~CAN_TXMDT2R_TGT);
 669              		.loc 1 350 28 is_stmt 0
 670 003a 5C49     		lw	a5,20(a0)
 350:../Peripheral/src/ch32v30x_can.c ****         CANx->sTxMailBox[2].TXMDTR &= ((uint32_t)~CAN_TXMDT2R_TGT);
 671              		.loc 1 350 36
 672 003c 93F7F7EF 		andi	a5,a5,-257
 673 0040 5CC9     		sw	a5,20(a0)
 351:../Peripheral/src/ch32v30x_can.c ****     }
 674              		.loc 1 351 9 is_stmt 1
 351:../Peripheral/src/ch32v30x_can.c ****     }
 675              		.loc 1 351 28 is_stmt 0
 676 0042 5C51     		lw	a5,36(a0)
 351:../Peripheral/src/ch32v30x_can.c ****     }
 677              		.loc 1 351 36
 678 0044 93F7F7EF 		andi	a5,a5,-257
 679 0048 F1BF     		j	.L56
 680              		.cfi_endproc
 681              	.LFE35:
 683              		.section	.text.CAN_Transmit,"ax",@progbits
 684              		.align	1
 685              		.globl	CAN_Transmit
 687              	CAN_Transmit:
 688              	.LFB36:
 354:../Peripheral/src/ch32v30x_can.c **** 
 355:../Peripheral/src/ch32v30x_can.c **** /*********************************************************************
 356:../Peripheral/src/ch32v30x_can.c ****  * @fn      CAN_Transmit
 357:../Peripheral/src/ch32v30x_can.c ****  *
 358:../Peripheral/src/ch32v30x_can.c ****  * @brief   Initiates the transmission of a message.
 359:../Peripheral/src/ch32v30x_can.c ****  *
 360:../Peripheral/src/ch32v30x_can.c ****  * @param   CANx - where x can be 1 to select the CAN peripheral.
 361:../Peripheral/src/ch32v30x_can.c ****  *          TxMessage - pointer to a structure which contains CAN Id, CAN
 362:../Peripheral/src/ch32v30x_can.c ****  *        DLC and CAN data.
 363:../Peripheral/src/ch32v30x_can.c ****  *
 364:../Peripheral/src/ch32v30x_can.c ****  * @return  transmit_mailbox - The number of the mailbox that is used for
 365:../Peripheral/src/ch32v30x_can.c ****  *        transmission or CAN_TxStatus_NoMailBox if there is no empty mailbox.
 366:../Peripheral/src/ch32v30x_can.c ****  */
 367:../Peripheral/src/ch32v30x_can.c **** uint8_t CAN_Transmit(CAN_TypeDef *CANx, CanTxMsg *TxMessage)
 368:../Peripheral/src/ch32v30x_can.c **** {
 689              		.loc 1 368 1 is_stmt 1
 690              		.cfi_startproc
 691              	.LVL29:
 369:../Peripheral/src/ch32v30x_can.c ****     uint8_t transmit_mailbox = 0;
 692              		.loc 1 369 5
 370:../Peripheral/src/ch32v30x_can.c **** 
 371:../Peripheral/src/ch32v30x_can.c ****     if((CANx->TSTATR & CAN_TSTATR_TME0) == CAN_TSTATR_TME0)
 693              		.loc 1 371 5
 694              		.loc 1 371 13 is_stmt 0
 695 0000 1845     		lw	a4,8(a0)
 696              		.loc 1 371 22
 697 0002 B7060004 		li	a3,67108864
 368:../Peripheral/src/ch32v30x_can.c ****     uint8_t transmit_mailbox = 0;
 698              		.loc 1 368 1
 699 0006 AA87     		mv	a5,a0
 700              		.loc 1 371 22
 701 0008 758F     		and	a4,a4,a3
 702              		.loc 1 371 7
 703 000a 51E7     		bne	a4,zero,.L62
 372:../Peripheral/src/ch32v30x_can.c ****     {
 373:../Peripheral/src/ch32v30x_can.c ****         transmit_mailbox = 0;
 374:../Peripheral/src/ch32v30x_can.c ****     }
 375:../Peripheral/src/ch32v30x_can.c ****     else if((CANx->TSTATR & CAN_TSTATR_TME1) == CAN_TSTATR_TME1)
 704              		.loc 1 375 10 is_stmt 1
 705              		.loc 1 375 18 is_stmt 0
 706 000c 1845     		lw	a4,8(a0)
 707              		.loc 1 375 27
 708 000e B7060008 		li	a3,134217728
 709 0012 758F     		and	a4,a4,a3
 710              		.loc 1 375 12
 711 0014 59E3     		bne	a4,zero,.L63
 376:../Peripheral/src/ch32v30x_can.c ****     {
 377:../Peripheral/src/ch32v30x_can.c ****         transmit_mailbox = 1;
 378:../Peripheral/src/ch32v30x_can.c ****     }
 379:../Peripheral/src/ch32v30x_can.c ****     else if((CANx->TSTATR & CAN_TSTATR_TME2) == CAN_TSTATR_TME2)
 712              		.loc 1 379 10 is_stmt 1
 713              		.loc 1 379 18 is_stmt 0
 714 0016 1845     		lw	a4,8(a0)
 715              		.loc 1 379 27
 716 0018 B7060010 		li	a3,268435456
 380:../Peripheral/src/ch32v30x_can.c ****     {
 381:../Peripheral/src/ch32v30x_can.c ****         transmit_mailbox = 2;
 382:../Peripheral/src/ch32v30x_can.c ****     }
 383:../Peripheral/src/ch32v30x_can.c ****     else
 384:../Peripheral/src/ch32v30x_can.c ****     {
 385:../Peripheral/src/ch32v30x_can.c ****         transmit_mailbox = CAN_TxStatus_NoMailBox;
 717              		.loc 1 385 26
 718 001c 1145     		li	a0,4
 719              	.LVL30:
 379:../Peripheral/src/ch32v30x_can.c ****     {
 720              		.loc 1 379 27
 721 001e 758F     		and	a4,a4,a3
 379:../Peripheral/src/ch32v30x_can.c ****     {
 722              		.loc 1 379 12
 723 0020 35CB     		beq	a4,zero,.L59
 381:../Peripheral/src/ch32v30x_can.c ****     }
 724              		.loc 1 381 26
 725 0022 0945     		li	a0,2
 726              	.L58:
 727              	.LVL31:
 386:../Peripheral/src/ch32v30x_can.c ****     }
 387:../Peripheral/src/ch32v30x_can.c **** 
 388:../Peripheral/src/ch32v30x_can.c ****     if(transmit_mailbox != CAN_TxStatus_NoMailBox)
 389:../Peripheral/src/ch32v30x_can.c ****     {
 390:../Peripheral/src/ch32v30x_can.c ****         CANx->sTxMailBox[transmit_mailbox].TXMIR &= TMIDxR_TXRQ;
 728              		.loc 1 390 9 is_stmt 1
 729 0024 13174500 		slli	a4,a0,4
 730 0028 BA97     		add	a5,a5,a4
 731              	.LVL32:
 732              		.loc 1 390 43 is_stmt 0
 733 002a 03A70718 		lw	a4,384(a5)
 734              		.loc 1 390 50
 735 002e 058B     		andi	a4,a4,1
 736 0030 23A0E718 		sw	a4,384(a5)
 391:../Peripheral/src/ch32v30x_can.c ****         if(TxMessage->IDE == CAN_Id_Standard)
 737              		.loc 1 391 9 is_stmt 1
 738              		.loc 1 391 21 is_stmt 0
 739 0034 9425     		lbu	a3,8(a1)
 392:../Peripheral/src/ch32v30x_can.c ****         {
 393:../Peripheral/src/ch32v30x_can.c ****             CANx->sTxMailBox[transmit_mailbox].TXMIR |= ((TxMessage->StdId << 21) |
 394:../Peripheral/src/ch32v30x_can.c ****                                                          TxMessage->RTR);
 740              		.loc 1 394 67
 741 0036 9035     		lbu	a2,9(a1)
 391:../Peripheral/src/ch32v30x_can.c ****         if(TxMessage->IDE == CAN_Id_Standard)
 742              		.loc 1 391 11
 743 0038 BDE2     		bne	a3,zero,.L60
 393:../Peripheral/src/ch32v30x_can.c ****                                                          TxMessage->RTR);
 744              		.loc 1 393 13 is_stmt 1
 393:../Peripheral/src/ch32v30x_can.c ****                                                          TxMessage->RTR);
 745              		.loc 1 393 76 is_stmt 0
 746 003a 9841     		lw	a4,0(a1)
 393:../Peripheral/src/ch32v30x_can.c ****                                                          TxMessage->RTR);
 747              		.loc 1 393 47
 748 003c 83A60718 		lw	a3,384(a5)
 393:../Peripheral/src/ch32v30x_can.c ****                                                          TxMessage->RTR);
 749              		.loc 1 393 76
 750 0040 5607     		slli	a4,a4,21
 393:../Peripheral/src/ch32v30x_can.c ****                                                          TxMessage->RTR);
 751              		.loc 1 393 83
 752 0042 518F     		or	a4,a4,a2
 393:../Peripheral/src/ch32v30x_can.c ****                                                          TxMessage->RTR);
 753              		.loc 1 393 54
 754 0044 558F     		or	a4,a4,a3
 755              	.L65:
 395:../Peripheral/src/ch32v30x_can.c ****         }
 396:../Peripheral/src/ch32v30x_can.c ****         else
 397:../Peripheral/src/ch32v30x_can.c ****         {
 398:../Peripheral/src/ch32v30x_can.c ****             CANx->sTxMailBox[transmit_mailbox].TXMIR |= ((TxMessage->ExtId << 3) |
 756              		.loc 1 398 54
 757 0046 23A0E718 		sw	a4,384(a5)
 399:../Peripheral/src/ch32v30x_can.c ****                                                          TxMessage->IDE |
 400:../Peripheral/src/ch32v30x_can.c ****                                                          TxMessage->RTR);
 401:../Peripheral/src/ch32v30x_can.c ****         }
 402:../Peripheral/src/ch32v30x_can.c **** 
 403:../Peripheral/src/ch32v30x_can.c ****         TxMessage->DLC &= (uint8_t)0x0000000F;
 758              		.loc 1 403 9 is_stmt 1
 759              		.loc 1 403 24 is_stmt 0
 760 004a B825     		lbu	a4,10(a1)
 404:../Peripheral/src/ch32v30x_can.c ****         CANx->sTxMailBox[transmit_mailbox].TXMDTR &= (uint32_t)0xFFFFFFF0;
 761              		.loc 1 404 43
 762 004c 93870718 		addi	a5,a5,384
 403:../Peripheral/src/ch32v30x_can.c ****         CANx->sTxMailBox[transmit_mailbox].TXMDTR &= (uint32_t)0xFFFFFFF0;
 763              		.loc 1 403 24
 764 0050 3D8B     		andi	a4,a4,15
 765 0052 B8A5     		sb	a4,10(a1)
 766              		.loc 1 404 9 is_stmt 1
 767              		.loc 1 404 43 is_stmt 0
 768 0054 D443     		lw	a3,4(a5)
 769              		.loc 1 404 51
 770 0056 C19A     		andi	a3,a3,-16
 771 0058 D4C3     		sw	a3,4(a5)
 405:../Peripheral/src/ch32v30x_can.c ****         CANx->sTxMailBox[transmit_mailbox].TXMDTR |= TxMessage->DLC;
 772              		.loc 1 405 9 is_stmt 1
 773              		.loc 1 405 43 is_stmt 0
 774 005a D443     		lw	a3,4(a5)
 775              		.loc 1 405 51
 776 005c 558F     		or	a4,a4,a3
 777 005e D8C3     		sw	a4,4(a5)
 406:../Peripheral/src/ch32v30x_can.c **** 
 407:../Peripheral/src/ch32v30x_can.c ****         CANx->sTxMailBox[transmit_mailbox].TXMDLR = (((uint32_t)TxMessage->Data[3] << 24) |
 778              		.loc 1 407 9 is_stmt 1
 408:../Peripheral/src/ch32v30x_can.c ****                                                      ((uint32_t)TxMessage->Data[2] << 16) |
 409:../Peripheral/src/ch32v30x_can.c ****                                                      ((uint32_t)TxMessage->Data[1] << 8) |
 779              		.loc 1 409 90 is_stmt 0
 780 0060 D825     		lbu	a4,12(a1)
 781 0062 B435     		lbu	a3,11(a1)
 782 0064 2207     		slli	a4,a4,8
 783 0066 558F     		or	a4,a4,a3
 784 0068 D435     		lbu	a3,13(a1)
 785 006a C206     		slli	a3,a3,16
 786 006c D98E     		or	a3,a3,a4
 787 006e F825     		lbu	a4,14(a1)
 788 0070 6207     		slli	a4,a4,24
 789 0072 558F     		or	a4,a4,a3
 407:../Peripheral/src/ch32v30x_can.c ****                                                      ((uint32_t)TxMessage->Data[2] << 16) |
 790              		.loc 1 407 51
 791 0074 98C7     		sw	a4,8(a5)
 410:../Peripheral/src/ch32v30x_can.c ****                                                      ((uint32_t)TxMessage->Data[0]));
 411:../Peripheral/src/ch32v30x_can.c ****         CANx->sTxMailBox[transmit_mailbox].TXMDHR = (((uint32_t)TxMessage->Data[7] << 24) |
 792              		.loc 1 411 9 is_stmt 1
 412:../Peripheral/src/ch32v30x_can.c ****                                                      ((uint32_t)TxMessage->Data[6] << 16) |
 413:../Peripheral/src/ch32v30x_can.c ****                                                      ((uint32_t)TxMessage->Data[5] << 8) |
 793              		.loc 1 413 90 is_stmt 0
 794 0076 9829     		lbu	a4,16(a1)
 795 0078 F435     		lbu	a3,15(a1)
 796 007a 2207     		slli	a4,a4,8
 797 007c 558F     		or	a4,a4,a3
 798 007e 9439     		lbu	a3,17(a1)
 799 0080 C206     		slli	a3,a3,16
 800 0082 D98E     		or	a3,a3,a4
 801 0084 B829     		lbu	a4,18(a1)
 802 0086 6207     		slli	a4,a4,24
 803 0088 558F     		or	a4,a4,a3
 411:../Peripheral/src/ch32v30x_can.c ****                                                      ((uint32_t)TxMessage->Data[6] << 16) |
 804              		.loc 1 411 51
 805 008a D8C7     		sw	a4,12(a5)
 414:../Peripheral/src/ch32v30x_can.c ****                                                      ((uint32_t)TxMessage->Data[4]));
 415:../Peripheral/src/ch32v30x_can.c ****         CANx->sTxMailBox[transmit_mailbox].TXMIR |= TMIDxR_TXRQ;
 806              		.loc 1 415 9 is_stmt 1
 807              		.loc 1 415 43 is_stmt 0
 808 008c 9843     		lw	a4,0(a5)
 809              		.loc 1 415 50
 810 008e 13671700 		ori	a4,a4,1
 811 0092 98C3     		sw	a4,0(a5)
 812              	.L59:
 416:../Peripheral/src/ch32v30x_can.c ****     }
 417:../Peripheral/src/ch32v30x_can.c **** 
 418:../Peripheral/src/ch32v30x_can.c ****     return transmit_mailbox;
 813              		.loc 1 418 5 is_stmt 1
 419:../Peripheral/src/ch32v30x_can.c **** }
 814              		.loc 1 419 1 is_stmt 0
 815 0094 8280     		ret
 816              	.LVL33:
 817              	.L62:
 373:../Peripheral/src/ch32v30x_can.c ****     }
 818              		.loc 1 373 26
 819 0096 0145     		li	a0,0
 820              	.LVL34:
 821 0098 71B7     		j	.L58
 822              	.LVL35:
 823              	.L63:
 377:../Peripheral/src/ch32v30x_can.c ****     }
 824              		.loc 1 377 26
 825 009a 0545     		li	a0,1
 826              	.LVL36:
 827 009c 61B7     		j	.L58
 828              	.LVL37:
 829              	.L60:
 398:../Peripheral/src/ch32v30x_can.c ****                                                          TxMessage->IDE |
 830              		.loc 1 398 13 is_stmt 1
 398:../Peripheral/src/ch32v30x_can.c ****                                                          TxMessage->IDE |
 831              		.loc 1 398 76 is_stmt 0
 832 009e D841     		lw	a4,4(a1)
 398:../Peripheral/src/ch32v30x_can.c ****                                                          TxMessage->IDE |
 833              		.loc 1 398 47
 834 00a0 03A80718 		lw	a6,384(a5)
 398:../Peripheral/src/ch32v30x_can.c ****                                                          TxMessage->IDE |
 835              		.loc 1 398 76
 836 00a4 0E07     		slli	a4,a4,3
 399:../Peripheral/src/ch32v30x_can.c ****                                                          TxMessage->RTR);
 837              		.loc 1 399 73
 838 00a6 518F     		or	a4,a4,a2
 839 00a8 558F     		or	a4,a4,a3
 398:../Peripheral/src/ch32v30x_can.c ****                                                          TxMessage->IDE |
 840              		.loc 1 398 54
 841 00aa 33670701 		or	a4,a4,a6
 842 00ae 61BF     		j	.L65
 843              		.cfi_endproc
 844              	.LFE36:
 846              		.section	.text.CAN_TransmitStatus,"ax",@progbits
 847              		.align	1
 848              		.globl	CAN_TransmitStatus
 850              	CAN_TransmitStatus:
 851              	.LFB37:
 420:../Peripheral/src/ch32v30x_can.c **** 
 421:../Peripheral/src/ch32v30x_can.c **** /*********************************************************************
 422:../Peripheral/src/ch32v30x_can.c ****  * @fn      CAN_TransmitStatus
 423:../Peripheral/src/ch32v30x_can.c ****  *
 424:../Peripheral/src/ch32v30x_can.c ****  * @brief   Checks the transmission of a message.
 425:../Peripheral/src/ch32v30x_can.c ****  *
 426:../Peripheral/src/ch32v30x_can.c ****  * @param   CANx - where x can be 1 to select the CAN peripheral.
 427:../Peripheral/src/ch32v30x_can.c ****  *          TransmitMailbox - the number of the mailbox that is used for
 428:../Peripheral/src/ch32v30x_can.c ****  *        transmission.
 429:../Peripheral/src/ch32v30x_can.c ****  *
 430:../Peripheral/src/ch32v30x_can.c ****  * @return  state -
 431:../Peripheral/src/ch32v30x_can.c ****  *            CAN_TxStatus_Ok.
 432:../Peripheral/src/ch32v30x_can.c ****  *            CAN_TxStatus_Failed.
 433:../Peripheral/src/ch32v30x_can.c ****  */
 434:../Peripheral/src/ch32v30x_can.c **** uint8_t CAN_TransmitStatus(CAN_TypeDef *CANx, uint8_t TransmitMailbox)
 435:../Peripheral/src/ch32v30x_can.c **** {
 852              		.loc 1 435 1 is_stmt 1
 853              		.cfi_startproc
 854              	.LVL38:
 436:../Peripheral/src/ch32v30x_can.c ****     uint32_t state = 0;
 855              		.loc 1 436 5
 437:../Peripheral/src/ch32v30x_can.c **** 
 438:../Peripheral/src/ch32v30x_can.c ****     switch(TransmitMailbox)
 856              		.loc 1 438 5
 857 0000 0547     		li	a4,1
 435:../Peripheral/src/ch32v30x_can.c ****     uint32_t state = 0;
 858              		.loc 1 435 1 is_stmt 0
 859 0002 AA87     		mv	a5,a0
 860              		.loc 1 438 5
 861 0004 6380E502 		beq	a1,a4,.L67
 862 0008 0947     		li	a4,2
 863 000a 638CE502 		beq	a1,a4,.L68
 439:../Peripheral/src/ch32v30x_can.c ****     {
 440:../Peripheral/src/ch32v30x_can.c ****         case(CAN_TXMAILBOX_0):
 441:../Peripheral/src/ch32v30x_can.c ****             state = CANx->TSTATR & (CAN_TSTATR_RQCP0 | CAN_TSTATR_TXOK0 | CAN_TSTATR_TME0);
 442:../Peripheral/src/ch32v30x_can.c ****             break;
 443:../Peripheral/src/ch32v30x_can.c **** 
 444:../Peripheral/src/ch32v30x_can.c ****         case(CAN_TXMAILBOX_1):
 445:../Peripheral/src/ch32v30x_can.c ****             state = CANx->TSTATR & (CAN_TSTATR_RQCP1 | CAN_TSTATR_TXOK1 | CAN_TSTATR_TME1);
 446:../Peripheral/src/ch32v30x_can.c ****             break;
 447:../Peripheral/src/ch32v30x_can.c **** 
 448:../Peripheral/src/ch32v30x_can.c ****         case(CAN_TXMAILBOX_2):
 449:../Peripheral/src/ch32v30x_can.c ****             state = CANx->TSTATR & (CAN_TSTATR_RQCP2 | CAN_TSTATR_TXOK2 | CAN_TSTATR_TME2);
 450:../Peripheral/src/ch32v30x_can.c ****             break;
 451:../Peripheral/src/ch32v30x_can.c **** 
 452:../Peripheral/src/ch32v30x_can.c ****         default:
 453:../Peripheral/src/ch32v30x_can.c ****             state = CAN_TxStatus_Failed;
 454:../Peripheral/src/ch32v30x_can.c ****             break;
 455:../Peripheral/src/ch32v30x_can.c ****     }
 456:../Peripheral/src/ch32v30x_can.c **** 
 457:../Peripheral/src/ch32v30x_can.c ****     switch(state)
 458:../Peripheral/src/ch32v30x_can.c ****     {
 459:../Peripheral/src/ch32v30x_can.c ****         case(0x0):
 460:../Peripheral/src/ch32v30x_can.c ****             state = CAN_TxStatus_Pending;
 864              		.loc 1 460 19
 865 000e 0945     		li	a0,2
 866              	.LVL39:
 438:../Peripheral/src/ch32v30x_can.c ****     {
 867              		.loc 1 438 5
 868 0010 85E9     		bne	a1,zero,.L69
 441:../Peripheral/src/ch32v30x_can.c ****             break;
 869              		.loc 1 441 13 is_stmt 1
 441:../Peripheral/src/ch32v30x_can.c ****             break;
 870              		.loc 1 441 25 is_stmt 0
 871 0012 9C47     		lw	a5,8(a5)
 872              	.LVL40:
 441:../Peripheral/src/ch32v30x_can.c ****             break;
 873              		.loc 1 441 19
 874 0014 37070004 		li	a4,67108864
 875 0018 0D07     		addi	a4,a4,3
 876 001a F98F     		and	a5,a5,a4
 877              	.LVL41:
 442:../Peripheral/src/ch32v30x_can.c **** 
 878              		.loc 1 442 13 is_stmt 1
 457:../Peripheral/src/ch32v30x_can.c ****     {
 879              		.loc 1 457 5
 880 001c 0545     		li	a0,1
 881 001e 639BE702 		bne	a5,a4,.L70
 882 0022 8280     		ret
 883              	.LVL42:
 884              	.L67:
 445:../Peripheral/src/ch32v30x_can.c ****             break;
 885              		.loc 1 445 13
 445:../Peripheral/src/ch32v30x_can.c ****             break;
 886              		.loc 1 445 25 is_stmt 0
 887 0024 1C45     		lw	a5,8(a0)
 445:../Peripheral/src/ch32v30x_can.c ****             break;
 888              		.loc 1 445 19
 889 0026 37070008 		li	a4,134217728
 890 002a 13070730 		addi	a4,a4,768
 457:../Peripheral/src/ch32v30x_can.c ****     {
 891              		.loc 1 457 5
 892 002e B7060004 		li	a3,67108864
 445:../Peripheral/src/ch32v30x_can.c ****             break;
 893              		.loc 1 445 19
 894 0032 F98F     		and	a5,a5,a4
 895              	.LVL43:
 446:../Peripheral/src/ch32v30x_can.c **** 
 896              		.loc 1 446 13 is_stmt 1
 457:../Peripheral/src/ch32v30x_can.c ****     {
 897              		.loc 1 457 5
 898 0034 8D06     		addi	a3,a3,3
 899 0036 63FFF600 		bleu	a5,a3,.L70
 900 003a 998F     		sub	a5,a5,a4
 901              	.LVL44:
 902              	.L74:
 903 003c 13B51700 		seqz	a0,a5
 904              	.LVL45:
 905              	.L69:
 461:../Peripheral/src/ch32v30x_can.c ****             break;
 462:../Peripheral/src/ch32v30x_can.c **** 
 463:../Peripheral/src/ch32v30x_can.c ****         case(CAN_TSTATR_RQCP0 | CAN_TSTATR_TME0):
 464:../Peripheral/src/ch32v30x_can.c ****             state = CAN_TxStatus_Failed;
 465:../Peripheral/src/ch32v30x_can.c ****             break;
 466:../Peripheral/src/ch32v30x_can.c **** 
 467:../Peripheral/src/ch32v30x_can.c ****         case(CAN_TSTATR_RQCP1 | CAN_TSTATR_TME1):
 468:../Peripheral/src/ch32v30x_can.c ****             state = CAN_TxStatus_Failed;
 469:../Peripheral/src/ch32v30x_can.c ****             break;
 470:../Peripheral/src/ch32v30x_can.c **** 
 471:../Peripheral/src/ch32v30x_can.c ****         case(CAN_TSTATR_RQCP2 | CAN_TSTATR_TME2):
 472:../Peripheral/src/ch32v30x_can.c ****             state = CAN_TxStatus_Failed;
 473:../Peripheral/src/ch32v30x_can.c ****             break;
 474:../Peripheral/src/ch32v30x_can.c **** 
 475:../Peripheral/src/ch32v30x_can.c ****         case(CAN_TSTATR_RQCP0 | CAN_TSTATR_TXOK0 | CAN_TSTATR_TME0):
 476:../Peripheral/src/ch32v30x_can.c ****             state = CAN_TxStatus_Ok;
 477:../Peripheral/src/ch32v30x_can.c ****             break;
 478:../Peripheral/src/ch32v30x_can.c **** 
 479:../Peripheral/src/ch32v30x_can.c ****         case(CAN_TSTATR_RQCP1 | CAN_TSTATR_TXOK1 | CAN_TSTATR_TME1):
 480:../Peripheral/src/ch32v30x_can.c ****             state = CAN_TxStatus_Ok;
 481:../Peripheral/src/ch32v30x_can.c ****             break;
 482:../Peripheral/src/ch32v30x_can.c **** 
 483:../Peripheral/src/ch32v30x_can.c ****         case(CAN_TSTATR_RQCP2 | CAN_TSTATR_TXOK2 | CAN_TSTATR_TME2):
 484:../Peripheral/src/ch32v30x_can.c ****             state = CAN_TxStatus_Ok;
 485:../Peripheral/src/ch32v30x_can.c ****             break;
 486:../Peripheral/src/ch32v30x_can.c **** 
 487:../Peripheral/src/ch32v30x_can.c ****         default:
 488:../Peripheral/src/ch32v30x_can.c ****             state = CAN_TxStatus_Failed;
 489:../Peripheral/src/ch32v30x_can.c ****             break;
 490:../Peripheral/src/ch32v30x_can.c ****     }
 491:../Peripheral/src/ch32v30x_can.c **** 
 492:../Peripheral/src/ch32v30x_can.c ****     return (uint8_t)state;
 906              		.loc 1 492 5
 493:../Peripheral/src/ch32v30x_can.c **** }
 907              		.loc 1 493 1 is_stmt 0
 908 0040 8280     		ret
 909              	.LVL46:
 910              	.L68:
 449:../Peripheral/src/ch32v30x_can.c ****             break;
 911              		.loc 1 449 13 is_stmt 1
 449:../Peripheral/src/ch32v30x_can.c ****             break;
 912              		.loc 1 449 25 is_stmt 0
 913 0042 1C45     		lw	a5,8(a0)
 449:../Peripheral/src/ch32v30x_can.c ****             break;
 914              		.loc 1 449 19
 915 0044 B7060310 		li	a3,268632064
 457:../Peripheral/src/ch32v30x_can.c ****     {
 916              		.loc 1 457 5
 917 0048 37070004 		li	a4,67108864
 449:../Peripheral/src/ch32v30x_can.c ****             break;
 918              		.loc 1 449 19
 919 004c F58F     		and	a5,a5,a3
 920              	.LVL47:
 450:../Peripheral/src/ch32v30x_can.c **** 
 921              		.loc 1 450 13 is_stmt 1
 457:../Peripheral/src/ch32v30x_can.c ****     {
 922              		.loc 1 457 5
 923 004e 0D07     		addi	a4,a4,3
 924 0050 6367F700 		bgtu	a5,a4,.L71
 925              	.LVL48:
 926              	.L70:
 927 0054 93B71700 		seqz	a5,a5
 928              	.LVL49:
 929 0058 13951700 		slli	a0,a5,1
 930 005c 8280     		ret
 931              	.LVL50:
 932              	.L71:
 933 005e 958F     		sub	a5,a5,a3
 934              	.LVL51:
 935 0060 F1BF     		j	.L74
 936              		.cfi_endproc
 937              	.LFE37:
 939              		.section	.text.CAN_CancelTransmit,"ax",@progbits
 940              		.align	1
 941              		.globl	CAN_CancelTransmit
 943              	CAN_CancelTransmit:
 944              	.LFB38:
 494:../Peripheral/src/ch32v30x_can.c **** 
 495:../Peripheral/src/ch32v30x_can.c **** /*********************************************************************
 496:../Peripheral/src/ch32v30x_can.c ****  * @fn      CAN_CancelTransmit
 497:../Peripheral/src/ch32v30x_can.c ****  *
 498:../Peripheral/src/ch32v30x_can.c ****  * @brief   Cancels a transmit request.
 499:../Peripheral/src/ch32v30x_can.c ****  *
 500:../Peripheral/src/ch32v30x_can.c ****  * @param   CANx - where x can be 1 to select the CAN peripheral.
 501:../Peripheral/src/ch32v30x_can.c ****  *          Mailbox -  Mailbox number.
 502:../Peripheral/src/ch32v30x_can.c ****  *            CAN_TXMAILBOX_0.
 503:../Peripheral/src/ch32v30x_can.c ****  *            CAN_TXMAILBOX_1.
 504:../Peripheral/src/ch32v30x_can.c ****  *            CAN_TXMAILBOX_2.
 505:../Peripheral/src/ch32v30x_can.c ****  *
 506:../Peripheral/src/ch32v30x_can.c ****  * @return  none
 507:../Peripheral/src/ch32v30x_can.c ****  */
 508:../Peripheral/src/ch32v30x_can.c **** void CAN_CancelTransmit(CAN_TypeDef *CANx, uint8_t Mailbox)
 509:../Peripheral/src/ch32v30x_can.c **** {
 945              		.loc 1 509 1
 946              		.cfi_startproc
 947              	.LVL52:
 510:../Peripheral/src/ch32v30x_can.c ****     switch(Mailbox)
 948              		.loc 1 510 5
 949 0000 8547     		li	a5,1
 950 0002 638BF500 		beq	a1,a5,.L76
 951 0006 8947     		li	a5,2
 952 0008 638CF500 		beq	a1,a5,.L77
 953 000c 89E5     		bne	a1,zero,.L75
 511:../Peripheral/src/ch32v30x_can.c ****     {
 512:../Peripheral/src/ch32v30x_can.c ****         case(CAN_TXMAILBOX_0):
 513:../Peripheral/src/ch32v30x_can.c ****             CANx->TSTATR |= CAN_TSTATR_ABRQ0;
 954              		.loc 1 513 13
 955              		.loc 1 513 17 is_stmt 0
 956 000e 1C45     		lw	a5,8(a0)
 957              		.loc 1 513 26
 958 0010 93E70708 		ori	a5,a5,128
 959              	.L79:
 514:../Peripheral/src/ch32v30x_can.c ****             break;
 515:../Peripheral/src/ch32v30x_can.c **** 
 516:../Peripheral/src/ch32v30x_can.c ****         case(CAN_TXMAILBOX_1):
 517:../Peripheral/src/ch32v30x_can.c ****             CANx->TSTATR |= CAN_TSTATR_ABRQ1;
 518:../Peripheral/src/ch32v30x_can.c ****             break;
 519:../Peripheral/src/ch32v30x_can.c **** 
 520:../Peripheral/src/ch32v30x_can.c ****         case(CAN_TXMAILBOX_2):
 521:../Peripheral/src/ch32v30x_can.c ****             CANx->TSTATR |= CAN_TSTATR_ABRQ2;
 960              		.loc 1 521 26
 961 0014 1CC5     		sw	a5,8(a0)
 522:../Peripheral/src/ch32v30x_can.c ****             break;
 962              		.loc 1 522 13 is_stmt 1
 963              	.L75:
 523:../Peripheral/src/ch32v30x_can.c **** 
 524:../Peripheral/src/ch32v30x_can.c ****         default:
 525:../Peripheral/src/ch32v30x_can.c ****             break;
 526:../Peripheral/src/ch32v30x_can.c ****     }
 527:../Peripheral/src/ch32v30x_can.c **** }
 964              		.loc 1 527 1 is_stmt 0
 965 0016 8280     		ret
 966              	.L76:
 517:../Peripheral/src/ch32v30x_can.c ****             break;
 967              		.loc 1 517 13 is_stmt 1
 517:../Peripheral/src/ch32v30x_can.c ****             break;
 968              		.loc 1 517 17 is_stmt 0
 969 0018 1C45     		lw	a5,8(a0)
 517:../Peripheral/src/ch32v30x_can.c ****             break;
 970              		.loc 1 517 26
 971 001a 2167     		li	a4,32768
 972              	.L80:
 521:../Peripheral/src/ch32v30x_can.c ****             break;
 973              		.loc 1 521 26
 974 001c D98F     		or	a5,a5,a4
 975 001e DDBF     		j	.L79
 976              	.L77:
 521:../Peripheral/src/ch32v30x_can.c ****             break;
 977              		.loc 1 521 13 is_stmt 1
 521:../Peripheral/src/ch32v30x_can.c ****             break;
 978              		.loc 1 521 17 is_stmt 0
 979 0020 1C45     		lw	a5,8(a0)
 521:../Peripheral/src/ch32v30x_can.c ****             break;
 980              		.loc 1 521 26
 981 0022 37078000 		li	a4,8388608
 982 0026 DDBF     		j	.L80
 983              		.cfi_endproc
 984              	.LFE38:
 986              		.section	.text.CAN_Receive,"ax",@progbits
 987              		.align	1
 988              		.globl	CAN_Receive
 990              	CAN_Receive:
 991              	.LFB39:
 528:../Peripheral/src/ch32v30x_can.c **** 
 529:../Peripheral/src/ch32v30x_can.c **** /*********************************************************************
 530:../Peripheral/src/ch32v30x_can.c ****  * @fn      CAN_Receive
 531:../Peripheral/src/ch32v30x_can.c ****  *
 532:../Peripheral/src/ch32v30x_can.c ****  * @brief   Receives a message.
 533:../Peripheral/src/ch32v30x_can.c ****  *
 534:../Peripheral/src/ch32v30x_can.c ****  * @param   CANx - where x can be 1 to select the CAN peripheral.
 535:../Peripheral/src/ch32v30x_can.c ****  *          FIFONumber - Receive FIFO number.
 536:../Peripheral/src/ch32v30x_can.c ****  *            CAN_FIFO0.
 537:../Peripheral/src/ch32v30x_can.c ****  *            CAN_FIFO1.
 538:../Peripheral/src/ch32v30x_can.c ****  *          RxMessage -  pointer to a structure receive message which contains
 539:../Peripheral/src/ch32v30x_can.c ****  *        CAN Id, CAN DLC, CAN datas and FMI number.
 540:../Peripheral/src/ch32v30x_can.c ****  *
 541:../Peripheral/src/ch32v30x_can.c ****  * @return  none
 542:../Peripheral/src/ch32v30x_can.c ****  */
 543:../Peripheral/src/ch32v30x_can.c **** void CAN_Receive(CAN_TypeDef *CANx, uint8_t FIFONumber, CanRxMsg *RxMessage)
 544:../Peripheral/src/ch32v30x_can.c **** {
 992              		.loc 1 544 1 is_stmt 1
 993              		.cfi_startproc
 994              	.LVL53:
 545:../Peripheral/src/ch32v30x_can.c ****     RxMessage->IDE = (uint8_t)0x04 & CANx->sFIFOMailBox[FIFONumber].RXMIR;
 995              		.loc 1 545 5
 996 0000 93974500 		slli	a5,a1,4
 997 0004 AA97     		add	a5,a0,a5
 998              		.loc 1 545 68 is_stmt 0
 999 0006 03A7071B 		lw	a4,432(a5)
 1000              		.loc 1 545 36
 1001 000a 118B     		andi	a4,a4,4
 1002              		.loc 1 545 20
 1003 000c 18A6     		sb	a4,8(a2)
 546:../Peripheral/src/ch32v30x_can.c **** 
 547:../Peripheral/src/ch32v30x_can.c ****     if(RxMessage->IDE == CAN_Id_Standard)
 1004              		.loc 1 547 5 is_stmt 1
 1005              		.loc 1 547 7 is_stmt 0
 1006 000e 21EF     		bne	a4,zero,.L82
 548:../Peripheral/src/ch32v30x_can.c ****     {
 549:../Peripheral/src/ch32v30x_can.c ****         RxMessage->StdId = (uint32_t)0x000007FF & (CANx->sFIFOMailBox[FIFONumber].RXMIR >> 21);
 1007              		.loc 1 549 9 is_stmt 1
 1008              		.loc 1 549 82 is_stmt 0
 1009 0010 03A7071B 		lw	a4,432(a5)
 1010              		.loc 1 549 89
 1011 0014 5583     		srli	a4,a4,21
 1012              		.loc 1 549 26
 1013 0016 18C2     		sw	a4,0(a2)
 1014              	.L83:
 550:../Peripheral/src/ch32v30x_can.c ****     }
 551:../Peripheral/src/ch32v30x_can.c ****     else
 552:../Peripheral/src/ch32v30x_can.c ****     {
 553:../Peripheral/src/ch32v30x_can.c ****         RxMessage->ExtId = (uint32_t)0x1FFFFFFF & (CANx->sFIFOMailBox[FIFONumber].RXMIR >> 3);
 554:../Peripheral/src/ch32v30x_can.c ****     }
 555:../Peripheral/src/ch32v30x_can.c **** 
 556:../Peripheral/src/ch32v30x_can.c ****     RxMessage->RTR = (uint8_t)0x02 & CANx->sFIFOMailBox[FIFONumber].RXMIR;
 1015              		.loc 1 556 5 is_stmt 1
 1016              		.loc 1 556 68 is_stmt 0
 1017 0018 93870718 		addi	a5,a5,384
 1018 001c 985B     		lw	a4,48(a5)
 1019              		.loc 1 556 36
 1020 001e 098B     		andi	a4,a4,2
 1021              		.loc 1 556 20
 1022 0020 18B6     		sb	a4,9(a2)
 557:../Peripheral/src/ch32v30x_can.c ****     RxMessage->DLC = (uint8_t)0x0F & CANx->sFIFOMailBox[FIFONumber].RXMDTR;
 1023              		.loc 1 557 5 is_stmt 1
 1024              		.loc 1 557 68 is_stmt 0
 1025 0022 D85B     		lw	a4,52(a5)
 1026              		.loc 1 557 36
 1027 0024 3D8B     		andi	a4,a4,15
 1028              		.loc 1 557 20
 1029 0026 38A6     		sb	a4,10(a2)
 558:../Peripheral/src/ch32v30x_can.c ****     RxMessage->FMI = (uint8_t)0xFF & (CANx->sFIFOMailBox[FIFONumber].RXMDTR >> 8);
 1030              		.loc 1 558 5 is_stmt 1
 1031              		.loc 1 558 69 is_stmt 0
 1032 0028 D85B     		lw	a4,52(a5)
 1033              		.loc 1 558 77
 1034 002a 2183     		srli	a4,a4,8
 1035              		.loc 1 558 20
 1036 002c 38BA     		sb	a4,19(a2)
 559:../Peripheral/src/ch32v30x_can.c ****     RxMessage->Data[0] = (uint8_t)0xFF & CANx->sFIFOMailBox[FIFONumber].RXMDLR;
 1037              		.loc 1 559 5 is_stmt 1
 1038              		.loc 1 559 72 is_stmt 0
 1039 002e 985F     		lw	a4,56(a5)
 1040              		.loc 1 559 24
 1041 0030 38B6     		sb	a4,11(a2)
 560:../Peripheral/src/ch32v30x_can.c ****     RxMessage->Data[1] = (uint8_t)0xFF & (CANx->sFIFOMailBox[FIFONumber].RXMDLR >> 8);
 1042              		.loc 1 560 5 is_stmt 1
 1043              		.loc 1 560 73 is_stmt 0
 1044 0032 985F     		lw	a4,56(a5)
 1045              		.loc 1 560 81
 1046 0034 2183     		srli	a4,a4,8
 1047              		.loc 1 560 24
 1048 0036 58A6     		sb	a4,12(a2)
 561:../Peripheral/src/ch32v30x_can.c ****     RxMessage->Data[2] = (uint8_t)0xFF & (CANx->sFIFOMailBox[FIFONumber].RXMDLR >> 16);
 1049              		.loc 1 561 5 is_stmt 1
 1050              		.loc 1 561 73 is_stmt 0
 1051 0038 985F     		lw	a4,56(a5)
 1052              		.loc 1 561 81
 1053 003a 4183     		srli	a4,a4,16
 1054              		.loc 1 561 24
 1055 003c 58B6     		sb	a4,13(a2)
 562:../Peripheral/src/ch32v30x_can.c ****     RxMessage->Data[3] = (uint8_t)0xFF & (CANx->sFIFOMailBox[FIFONumber].RXMDLR >> 24);
 1056              		.loc 1 562 5 is_stmt 1
 1057              		.loc 1 562 73 is_stmt 0
 1058 003e 985F     		lw	a4,56(a5)
 1059              		.loc 1 562 81
 1060 0040 6183     		srli	a4,a4,24
 1061              		.loc 1 562 24
 1062 0042 78A6     		sb	a4,14(a2)
 563:../Peripheral/src/ch32v30x_can.c ****     RxMessage->Data[4] = (uint8_t)0xFF & CANx->sFIFOMailBox[FIFONumber].RXMDHR;
 1063              		.loc 1 563 5 is_stmt 1
 1064              		.loc 1 563 72 is_stmt 0
 1065 0044 D85F     		lw	a4,60(a5)
 1066              		.loc 1 563 24
 1067 0046 78B6     		sb	a4,15(a2)
 564:../Peripheral/src/ch32v30x_can.c ****     RxMessage->Data[5] = (uint8_t)0xFF & (CANx->sFIFOMailBox[FIFONumber].RXMDHR >> 8);
 1068              		.loc 1 564 5 is_stmt 1
 1069              		.loc 1 564 73 is_stmt 0
 1070 0048 D85F     		lw	a4,60(a5)
 1071              		.loc 1 564 81
 1072 004a 2183     		srli	a4,a4,8
 1073              		.loc 1 564 24
 1074 004c 18AA     		sb	a4,16(a2)
 565:../Peripheral/src/ch32v30x_can.c ****     RxMessage->Data[6] = (uint8_t)0xFF & (CANx->sFIFOMailBox[FIFONumber].RXMDHR >> 16);
 1075              		.loc 1 565 5 is_stmt 1
 1076              		.loc 1 565 73 is_stmt 0
 1077 004e D85F     		lw	a4,60(a5)
 1078              		.loc 1 565 81
 1079 0050 4183     		srli	a4,a4,16
 1080              		.loc 1 565 24
 1081 0052 18BA     		sb	a4,17(a2)
 566:../Peripheral/src/ch32v30x_can.c ****     RxMessage->Data[7] = (uint8_t)0xFF & (CANx->sFIFOMailBox[FIFONumber].RXMDHR >> 24);
 1082              		.loc 1 566 5 is_stmt 1
 1083              		.loc 1 566 73 is_stmt 0
 1084 0054 DC5F     		lw	a5,60(a5)
 1085              		.loc 1 566 81
 1086 0056 E183     		srli	a5,a5,24
 1087              		.loc 1 566 24
 1088 0058 3CAA     		sb	a5,18(a2)
 567:../Peripheral/src/ch32v30x_can.c **** 
 568:../Peripheral/src/ch32v30x_can.c ****     if(FIFONumber == CAN_FIFO0)
 1089              		.loc 1 568 5 is_stmt 1
 1090              		.loc 1 568 7 is_stmt 0
 1091 005a 99E9     		bne	a1,zero,.L84
 569:../Peripheral/src/ch32v30x_can.c ****     {
 570:../Peripheral/src/ch32v30x_can.c ****         CANx->RFIFO0 |= CAN_RFIFO0_RFOM0;
 1092              		.loc 1 570 9 is_stmt 1
 1093              		.loc 1 570 13 is_stmt 0
 1094 005c 5C45     		lw	a5,12(a0)
 1095              		.loc 1 570 22
 1096 005e 93E70702 		ori	a5,a5,32
 1097 0062 5CC5     		sw	a5,12(a0)
 1098 0064 8280     		ret
 1099              	.L82:
 553:../Peripheral/src/ch32v30x_can.c ****     }
 1100              		.loc 1 553 9 is_stmt 1
 553:../Peripheral/src/ch32v30x_can.c ****     }
 1101              		.loc 1 553 82 is_stmt 0
 1102 0066 03A7071B 		lw	a4,432(a5)
 553:../Peripheral/src/ch32v30x_can.c ****     }
 1103              		.loc 1 553 89
 1104 006a 0D83     		srli	a4,a4,3
 553:../Peripheral/src/ch32v30x_can.c ****     }
 1105              		.loc 1 553 26
 1106 006c 58C2     		sw	a4,4(a2)
 1107 006e 6DB7     		j	.L83
 1108              	.L84:
 571:../Peripheral/src/ch32v30x_can.c ****     }
 572:../Peripheral/src/ch32v30x_can.c ****     else
 573:../Peripheral/src/ch32v30x_can.c ****     {
 574:../Peripheral/src/ch32v30x_can.c ****         CANx->RFIFO1 |= CAN_RFIFO1_RFOM1;
 1109              		.loc 1 574 9 is_stmt 1
 1110              		.loc 1 574 13 is_stmt 0
 1111 0070 1C49     		lw	a5,16(a0)
 1112              		.loc 1 574 22
 1113 0072 93E70702 		ori	a5,a5,32
 1114 0076 1CC9     		sw	a5,16(a0)
 575:../Peripheral/src/ch32v30x_can.c ****     }
 576:../Peripheral/src/ch32v30x_can.c **** }
 1115              		.loc 1 576 1
 1116 0078 8280     		ret
 1117              		.cfi_endproc
 1118              	.LFE39:
 1120              		.section	.text.CAN_FIFORelease,"ax",@progbits
 1121              		.align	1
 1122              		.globl	CAN_FIFORelease
 1124              	CAN_FIFORelease:
 1125              	.LFB40:
 577:../Peripheral/src/ch32v30x_can.c **** 
 578:../Peripheral/src/ch32v30x_can.c **** /*********************************************************************
 579:../Peripheral/src/ch32v30x_can.c ****  * @fn      CAN_FIFORelease
 580:../Peripheral/src/ch32v30x_can.c ****  *
 581:../Peripheral/src/ch32v30x_can.c ****  * @brief   Releases the specified FIFO.
 582:../Peripheral/src/ch32v30x_can.c ****  *
 583:../Peripheral/src/ch32v30x_can.c ****  * @param   CANx - where x can be 1 to select the CAN peripheral.
 584:../Peripheral/src/ch32v30x_can.c ****  *          FIFONumber - Receive FIFO number.
 585:../Peripheral/src/ch32v30x_can.c ****  *            CAN_FIFO0.
 586:../Peripheral/src/ch32v30x_can.c ****  *            CAN_FIFO1.
 587:../Peripheral/src/ch32v30x_can.c ****  *
 588:../Peripheral/src/ch32v30x_can.c ****  * @return  none
 589:../Peripheral/src/ch32v30x_can.c ****  */
 590:../Peripheral/src/ch32v30x_can.c **** void CAN_FIFORelease(CAN_TypeDef *CANx, uint8_t FIFONumber)
 591:../Peripheral/src/ch32v30x_can.c **** {
 1126              		.loc 1 591 1 is_stmt 1
 1127              		.cfi_startproc
 1128              	.LVL54:
 592:../Peripheral/src/ch32v30x_can.c ****     if(FIFONumber == CAN_FIFO0)
 1129              		.loc 1 592 5
 1130              		.loc 1 592 7 is_stmt 0
 1131 0000 91E5     		bne	a1,zero,.L87
 593:../Peripheral/src/ch32v30x_can.c ****     {
 594:../Peripheral/src/ch32v30x_can.c ****         CANx->RFIFO0 |= CAN_RFIFO0_RFOM0;
 1132              		.loc 1 594 9 is_stmt 1
 1133              		.loc 1 594 13 is_stmt 0
 1134 0002 5C45     		lw	a5,12(a0)
 1135              		.loc 1 594 22
 1136 0004 93E70702 		ori	a5,a5,32
 1137 0008 5CC5     		sw	a5,12(a0)
 1138 000a 8280     		ret
 1139              	.L87:
 595:../Peripheral/src/ch32v30x_can.c ****     }
 596:../Peripheral/src/ch32v30x_can.c ****     else
 597:../Peripheral/src/ch32v30x_can.c ****     {
 598:../Peripheral/src/ch32v30x_can.c ****         CANx->RFIFO1 |= CAN_RFIFO1_RFOM1;
 1140              		.loc 1 598 9 is_stmt 1
 1141              		.loc 1 598 13 is_stmt 0
 1142 000c 1C49     		lw	a5,16(a0)
 1143              		.loc 1 598 22
 1144 000e 93E70702 		ori	a5,a5,32
 1145 0012 1CC9     		sw	a5,16(a0)
 599:../Peripheral/src/ch32v30x_can.c ****     }
 600:../Peripheral/src/ch32v30x_can.c **** }
 1146              		.loc 1 600 1
 1147 0014 8280     		ret
 1148              		.cfi_endproc
 1149              	.LFE40:
 1151              		.section	.text.CAN_MessagePending,"ax",@progbits
 1152              		.align	1
 1153              		.globl	CAN_MessagePending
 1155              	CAN_MessagePending:
 1156              	.LFB41:
 601:../Peripheral/src/ch32v30x_can.c **** 
 602:../Peripheral/src/ch32v30x_can.c **** /*********************************************************************
 603:../Peripheral/src/ch32v30x_can.c ****  * @fn      CAN_MessagePending
 604:../Peripheral/src/ch32v30x_can.c ****  *
 605:../Peripheral/src/ch32v30x_can.c ****  * @brief   Returns the number of pending messages.
 606:../Peripheral/src/ch32v30x_can.c ****  *
 607:../Peripheral/src/ch32v30x_can.c ****  * @param   CANx - where x can be 1 to select the CAN peripheral.
 608:../Peripheral/src/ch32v30x_can.c ****  *          FIFONumber - Receive FIFO number.
 609:../Peripheral/src/ch32v30x_can.c ****  *            CAN_FIFO0.
 610:../Peripheral/src/ch32v30x_can.c ****  *            CAN_FIFO1.
 611:../Peripheral/src/ch32v30x_can.c ****  *
 612:../Peripheral/src/ch32v30x_can.c ****  * @return  message_pending: which is the number of pending message.
 613:../Peripheral/src/ch32v30x_can.c ****  */
 614:../Peripheral/src/ch32v30x_can.c **** uint8_t CAN_MessagePending(CAN_TypeDef *CANx, uint8_t FIFONumber)
 615:../Peripheral/src/ch32v30x_can.c **** {
 1157              		.loc 1 615 1 is_stmt 1
 1158              		.cfi_startproc
 1159              	.LVL55:
 616:../Peripheral/src/ch32v30x_can.c ****     uint8_t message_pending = 0;
 1160              		.loc 1 616 5
 617:../Peripheral/src/ch32v30x_can.c **** 
 618:../Peripheral/src/ch32v30x_can.c ****     if(FIFONumber == CAN_FIFO0)
 1161              		.loc 1 618 5
 615:../Peripheral/src/ch32v30x_can.c ****     uint8_t message_pending = 0;
 1162              		.loc 1 615 1 is_stmt 0
 1163 0000 AA87     		mv	a5,a0
 1164              		.loc 1 618 7
 1165 0002 81E5     		bne	a1,zero,.L90
 619:../Peripheral/src/ch32v30x_can.c ****     {
 620:../Peripheral/src/ch32v30x_can.c ****         message_pending = (uint8_t)(CANx->RFIFO0 & (uint32_t)0x03);
 1166              		.loc 1 620 9 is_stmt 1
 1167              		.loc 1 620 41 is_stmt 0
 1168 0004 4845     		lw	a0,12(a0)
 1169              	.LVL56:
 1170              	.L93:
 621:../Peripheral/src/ch32v30x_can.c ****     }
 622:../Peripheral/src/ch32v30x_can.c ****     else if(FIFONumber == CAN_FIFO1)
 623:../Peripheral/src/ch32v30x_can.c ****     {
 624:../Peripheral/src/ch32v30x_can.c ****         message_pending = (uint8_t)(CANx->RFIFO1 & (uint32_t)0x03);
 1171              		.loc 1 624 25
 1172 0006 0D89     		andi	a0,a0,3
 1173              	.LVL57:
 1174              	.L91:
 625:../Peripheral/src/ch32v30x_can.c ****     }
 626:../Peripheral/src/ch32v30x_can.c ****     else
 627:../Peripheral/src/ch32v30x_can.c ****     {
 628:../Peripheral/src/ch32v30x_can.c ****         message_pending = 0;
 629:../Peripheral/src/ch32v30x_can.c ****     }
 630:../Peripheral/src/ch32v30x_can.c **** 
 631:../Peripheral/src/ch32v30x_can.c ****     return message_pending;
 1175              		.loc 1 631 5 is_stmt 1
 632:../Peripheral/src/ch32v30x_can.c **** }
 1176              		.loc 1 632 1 is_stmt 0
 1177 0008 8280     		ret
 1178              	.LVL58:
 1179              	.L90:
 622:../Peripheral/src/ch32v30x_can.c ****     {
 1180              		.loc 1 622 10 is_stmt 1
 622:../Peripheral/src/ch32v30x_can.c ****     {
 1181              		.loc 1 622 12 is_stmt 0
 1182 000a 0547     		li	a4,1
 628:../Peripheral/src/ch32v30x_can.c ****     }
 1183              		.loc 1 628 25
 1184 000c 0145     		li	a0,0
 1185              	.LVL59:
 622:../Peripheral/src/ch32v30x_can.c ****     {
 1186              		.loc 1 622 12
 1187 000e E39DE5FE 		bne	a1,a4,.L91
 624:../Peripheral/src/ch32v30x_can.c ****     }
 1188              		.loc 1 624 9 is_stmt 1
 624:../Peripheral/src/ch32v30x_can.c ****     }
 1189              		.loc 1 624 41 is_stmt 0
 1190 0012 884B     		lw	a0,16(a5)
 1191 0014 CDBF     		j	.L93
 1192              		.cfi_endproc
 1193              	.LFE41:
 1195              		.section	.text.CAN_OperatingModeRequest,"ax",@progbits
 1196              		.align	1
 1197              		.globl	CAN_OperatingModeRequest
 1199              	CAN_OperatingModeRequest:
 1200              	.LFB42:
 633:../Peripheral/src/ch32v30x_can.c **** 
 634:../Peripheral/src/ch32v30x_can.c **** /*********************************************************************
 635:../Peripheral/src/ch32v30x_can.c ****  * @fn      CAN_OperatingModeRequest
 636:../Peripheral/src/ch32v30x_can.c ****  *
 637:../Peripheral/src/ch32v30x_can.c ****  * @brief   Select the CAN Operation mode.
 638:../Peripheral/src/ch32v30x_can.c ****  *
 639:../Peripheral/src/ch32v30x_can.c ****  * @param   CANx - where x can be 1 to select the CAN peripheral.
 640:../Peripheral/src/ch32v30x_can.c ****  *          CAN_OperatingMode - CAN Operating Mode.
 641:../Peripheral/src/ch32v30x_can.c ****  *            CAN_OperatingMode_Initialization.
 642:../Peripheral/src/ch32v30x_can.c ****  *            CAN_OperatingMode_Normal.
 643:../Peripheral/src/ch32v30x_can.c ****  *            CAN_OperatingMode_Sleep.
 644:../Peripheral/src/ch32v30x_can.c ****  *
 645:../Peripheral/src/ch32v30x_can.c ****  * @return  status -
 646:../Peripheral/src/ch32v30x_can.c ****  *          CAN_ModeStatus_Failed - CAN failed entering the specific mode.
 647:../Peripheral/src/ch32v30x_can.c ****  *          CAN_ModeStatus_Success - CAN Succeed entering the specific mode.
 648:../Peripheral/src/ch32v30x_can.c ****  */
 649:../Peripheral/src/ch32v30x_can.c **** uint8_t CAN_OperatingModeRequest(CAN_TypeDef *CANx, uint8_t CAN_OperatingMode)
 650:../Peripheral/src/ch32v30x_can.c **** {
 1201              		.loc 1 650 1 is_stmt 1
 1202              		.cfi_startproc
 1203              	.LVL60:
 651:../Peripheral/src/ch32v30x_can.c ****     uint8_t  status = CAN_ModeStatus_Failed;
 1204              		.loc 1 651 5
 652:../Peripheral/src/ch32v30x_can.c ****     uint32_t timeout = INAK_TIMEOUT;
 1205              		.loc 1 652 5
 653:../Peripheral/src/ch32v30x_can.c **** 
 654:../Peripheral/src/ch32v30x_can.c ****     if(CAN_OperatingMode == CAN_OperatingMode_Initialization)
 1206              		.loc 1 654 5
 650:../Peripheral/src/ch32v30x_can.c ****     uint8_t  status = CAN_ModeStatus_Failed;
 1207              		.loc 1 650 1 is_stmt 0
 1208 0000 AA87     		mv	a5,a0
 1209              		.loc 1 654 7
 1210 0002 85E5     		bne	a1,zero,.L95
 655:../Peripheral/src/ch32v30x_can.c ****     {
 656:../Peripheral/src/ch32v30x_can.c ****         CANx->CTLR = (uint32_t)((CANx->CTLR & (uint32_t)(~(uint32_t)CAN_CTLR_SLEEP)) | CAN_CTLR_INR
 1211              		.loc 1 656 9 is_stmt 1
 1212              		.loc 1 656 38 is_stmt 0
 1213 0004 1841     		lw	a4,0(a0)
 657:../Peripheral/src/ch32v30x_can.c **** 
 658:../Peripheral/src/ch32v30x_can.c ****         while(((CANx->STATR & CAN_MODE_MASK) != CAN_STATR_INAK) && (timeout != 0))
 1214              		.loc 1 658 65
 1215 0006 0546     		li	a2,1
 656:../Peripheral/src/ch32v30x_can.c **** 
 1216              		.loc 1 656 22
 1217 0008 719B     		andi	a4,a4,-4
 1218 000a 13671700 		ori	a4,a4,1
 656:../Peripheral/src/ch32v30x_can.c **** 
 1219              		.loc 1 656 20
 1220 000e 18C1     		sw	a4,0(a0)
 1221              		.loc 1 658 9 is_stmt 1
 1222              		.loc 1 658 14 is_stmt 0
 1223 0010 4167     		li	a4,65536
 1224              	.LVL61:
 1225              	.L97:
 1226              		.loc 1 658 65 is_stmt 1
 1227              		.loc 1 658 21 is_stmt 0
 1228 0012 D443     		lw	a3,4(a5)
 1229              		.loc 1 658 29
 1230 0014 8D8A     		andi	a3,a3,3
 1231              		.loc 1 658 65
 1232 0016 6384C600 		beq	a3,a2,.L96
 1233              		.loc 1 658 65 discriminator 1
 1234 001a 7D17     		addi	a4,a4,-1
 1235              	.LVL62:
 1236 001c 7DFB     		bne	a4,zero,.L97
 1237              	.LVL63:
 1238              	.L96:
 659:../Peripheral/src/ch32v30x_can.c ****         {
 660:../Peripheral/src/ch32v30x_can.c ****             timeout--;
 661:../Peripheral/src/ch32v30x_can.c ****         }
 662:../Peripheral/src/ch32v30x_can.c ****         if((CANx->STATR & CAN_MODE_MASK) != CAN_STATR_INAK)
 1239              		.loc 1 662 9 is_stmt 1
 1240              		.loc 1 662 17 is_stmt 0
 1241 001e C843     		lw	a0,4(a5)
 1242              	.LVL64:
 1243              		.loc 1 662 25
 1244 0020 0D89     		andi	a0,a0,3
 1245              		.loc 1 662 11
 1246 0022 7D15     		addi	a0,a0,-1
 1247              	.LVL65:
 1248              	.L111:
 663:../Peripheral/src/ch32v30x_can.c ****         {
 664:../Peripheral/src/ch32v30x_can.c ****             status = CAN_ModeStatus_Failed;
 665:../Peripheral/src/ch32v30x_can.c ****         }
 666:../Peripheral/src/ch32v30x_can.c ****         else
 667:../Peripheral/src/ch32v30x_can.c ****         {
 668:../Peripheral/src/ch32v30x_can.c ****             status = CAN_ModeStatus_Success;
 669:../Peripheral/src/ch32v30x_can.c ****         }
 670:../Peripheral/src/ch32v30x_can.c ****     }
 671:../Peripheral/src/ch32v30x_can.c ****     else if(CAN_OperatingMode == CAN_OperatingMode_Normal)
 672:../Peripheral/src/ch32v30x_can.c ****     {
 673:../Peripheral/src/ch32v30x_can.c ****         CANx->CTLR &= (uint32_t)(~(CAN_CTLR_SLEEP | CAN_CTLR_INRQ));
 674:../Peripheral/src/ch32v30x_can.c **** 
 675:../Peripheral/src/ch32v30x_can.c ****         while(((CANx->STATR & CAN_MODE_MASK) != 0) && (timeout != 0))
 676:../Peripheral/src/ch32v30x_can.c ****         {
 677:../Peripheral/src/ch32v30x_can.c ****             timeout--;
 678:../Peripheral/src/ch32v30x_can.c ****         }
 679:../Peripheral/src/ch32v30x_can.c ****         if((CANx->STATR & CAN_MODE_MASK) != 0)
 680:../Peripheral/src/ch32v30x_can.c ****         {
 681:../Peripheral/src/ch32v30x_can.c ****             status = CAN_ModeStatus_Failed;
 682:../Peripheral/src/ch32v30x_can.c ****         }
 683:../Peripheral/src/ch32v30x_can.c ****         else
 684:../Peripheral/src/ch32v30x_can.c ****         {
 685:../Peripheral/src/ch32v30x_can.c ****             status = CAN_ModeStatus_Success;
 686:../Peripheral/src/ch32v30x_can.c ****         }
 687:../Peripheral/src/ch32v30x_can.c ****     }
 688:../Peripheral/src/ch32v30x_can.c ****     else if(CAN_OperatingMode == CAN_OperatingMode_Sleep)
 689:../Peripheral/src/ch32v30x_can.c ****     {
 690:../Peripheral/src/ch32v30x_can.c ****         CANx->CTLR = (uint32_t)((CANx->CTLR & (uint32_t)(~(uint32_t)CAN_CTLR_INRQ)) | CAN_CTLR_SLEE
 691:../Peripheral/src/ch32v30x_can.c **** 
 692:../Peripheral/src/ch32v30x_can.c ****         while(((CANx->STATR & CAN_MODE_MASK) != CAN_STATR_SLAK) && (timeout != 0))
 693:../Peripheral/src/ch32v30x_can.c ****         {
 694:../Peripheral/src/ch32v30x_can.c ****             timeout--;
 695:../Peripheral/src/ch32v30x_can.c ****         }
 696:../Peripheral/src/ch32v30x_can.c ****         if((CANx->STATR & CAN_MODE_MASK) != CAN_STATR_SLAK)
 1249              		.loc 1 696 11
 1250 0024 13351500 		seqz	a0,a0
 1251              	.L98:
 1252              	.LVL66:
 697:../Peripheral/src/ch32v30x_can.c ****         {
 698:../Peripheral/src/ch32v30x_can.c ****             status = CAN_ModeStatus_Failed;
 699:../Peripheral/src/ch32v30x_can.c ****         }
 700:../Peripheral/src/ch32v30x_can.c ****         else
 701:../Peripheral/src/ch32v30x_can.c ****         {
 702:../Peripheral/src/ch32v30x_can.c ****             status = CAN_ModeStatus_Success;
 703:../Peripheral/src/ch32v30x_can.c ****         }
 704:../Peripheral/src/ch32v30x_can.c ****     }
 705:../Peripheral/src/ch32v30x_can.c ****     else
 706:../Peripheral/src/ch32v30x_can.c ****     {
 707:../Peripheral/src/ch32v30x_can.c ****         status = CAN_ModeStatus_Failed;
 708:../Peripheral/src/ch32v30x_can.c ****     }
 709:../Peripheral/src/ch32v30x_can.c **** 
 710:../Peripheral/src/ch32v30x_can.c ****     return (uint8_t)status;
 1253              		.loc 1 710 5 is_stmt 1
 711:../Peripheral/src/ch32v30x_can.c **** }
 1254              		.loc 1 711 1 is_stmt 0
 1255 0028 8280     		ret
 1256              	.LVL67:
 1257              	.L95:
 671:../Peripheral/src/ch32v30x_can.c ****     {
 1258              		.loc 1 671 10 is_stmt 1
 671:../Peripheral/src/ch32v30x_can.c ****     {
 1259              		.loc 1 671 12 is_stmt 0
 1260 002a 0547     		li	a4,1
 1261 002c 639EE500 		bne	a1,a4,.L99
 673:../Peripheral/src/ch32v30x_can.c **** 
 1262              		.loc 1 673 9 is_stmt 1
 673:../Peripheral/src/ch32v30x_can.c **** 
 1263              		.loc 1 673 13 is_stmt 0
 1264 0030 1841     		lw	a4,0(a0)
 673:../Peripheral/src/ch32v30x_can.c **** 
 1265              		.loc 1 673 20
 1266 0032 719B     		andi	a4,a4,-4
 1267 0034 18C1     		sw	a4,0(a0)
 675:../Peripheral/src/ch32v30x_can.c ****         {
 1268              		.loc 1 675 9 is_stmt 1
 675:../Peripheral/src/ch32v30x_can.c ****         {
 1269              		.loc 1 675 14 is_stmt 0
 1270 0036 4167     		li	a4,65536
 1271              	.LVL68:
 1272              	.L101:
 675:../Peripheral/src/ch32v30x_can.c ****         {
 1273              		.loc 1 675 52 is_stmt 1
 675:../Peripheral/src/ch32v30x_can.c ****         {
 1274              		.loc 1 675 21 is_stmt 0
 1275 0038 D443     		lw	a3,4(a5)
 675:../Peripheral/src/ch32v30x_can.c ****         {
 1276              		.loc 1 675 29
 1277 003a 8D8A     		andi	a3,a3,3
 675:../Peripheral/src/ch32v30x_can.c ****         {
 1278              		.loc 1 675 52
 1279 003c 99C2     		beq	a3,zero,.L100
 675:../Peripheral/src/ch32v30x_can.c ****         {
 1280              		.loc 1 675 52 discriminator 1
 1281 003e 7D17     		addi	a4,a4,-1
 1282              	.LVL69:
 1283 0040 65FF     		bne	a4,zero,.L101
 1284              	.LVL70:
 1285              	.L100:
 679:../Peripheral/src/ch32v30x_can.c ****         {
 1286              		.loc 1 679 9 is_stmt 1
 679:../Peripheral/src/ch32v30x_can.c ****         {
 1287              		.loc 1 679 17 is_stmt 0
 1288 0042 C843     		lw	a0,4(a5)
 1289              	.LVL71:
 679:../Peripheral/src/ch32v30x_can.c ****         {
 1290              		.loc 1 679 25
 1291 0044 0D89     		andi	a0,a0,3
 1292 0046 F9BF     		j	.L111
 1293              	.LVL72:
 1294              	.L99:
 688:../Peripheral/src/ch32v30x_can.c ****     {
 1295              		.loc 1 688 10 is_stmt 1
 688:../Peripheral/src/ch32v30x_can.c ****     {
 1296              		.loc 1 688 12 is_stmt 0
 1297 0048 0947     		li	a4,2
 707:../Peripheral/src/ch32v30x_can.c ****     }
 1298              		.loc 1 707 16
 1299 004a 0145     		li	a0,0
 1300              	.LVL73:
 688:../Peripheral/src/ch32v30x_can.c ****     {
 1301              		.loc 1 688 12
 1302 004c E39EE5FC 		bne	a1,a4,.L98
 690:../Peripheral/src/ch32v30x_can.c **** 
 1303              		.loc 1 690 9 is_stmt 1
 690:../Peripheral/src/ch32v30x_can.c **** 
 1304              		.loc 1 690 38 is_stmt 0
 1305 0050 9843     		lw	a4,0(a5)
 692:../Peripheral/src/ch32v30x_can.c ****         {
 1306              		.loc 1 692 65
 1307 0052 0946     		li	a2,2
 690:../Peripheral/src/ch32v30x_can.c **** 
 1308              		.loc 1 690 22
 1309 0054 719B     		andi	a4,a4,-4
 1310 0056 13672700 		ori	a4,a4,2
 690:../Peripheral/src/ch32v30x_can.c **** 
 1311              		.loc 1 690 20
 1312 005a 98C3     		sw	a4,0(a5)
 692:../Peripheral/src/ch32v30x_can.c ****         {
 1313              		.loc 1 692 9 is_stmt 1
 692:../Peripheral/src/ch32v30x_can.c ****         {
 1314              		.loc 1 692 14 is_stmt 0
 1315 005c 4167     		li	a4,65536
 1316              	.LVL74:
 1317              	.L103:
 692:../Peripheral/src/ch32v30x_can.c ****         {
 1318              		.loc 1 692 65 is_stmt 1
 692:../Peripheral/src/ch32v30x_can.c ****         {
 1319              		.loc 1 692 21 is_stmt 0
 1320 005e D443     		lw	a3,4(a5)
 692:../Peripheral/src/ch32v30x_can.c ****         {
 1321              		.loc 1 692 29
 1322 0060 8D8A     		andi	a3,a3,3
 692:../Peripheral/src/ch32v30x_can.c ****         {
 1323              		.loc 1 692 65
 1324 0062 6384C600 		beq	a3,a2,.L102
 692:../Peripheral/src/ch32v30x_can.c ****         {
 1325              		.loc 1 692 65 discriminator 1
 1326 0066 7D17     		addi	a4,a4,-1
 1327              	.LVL75:
 1328 0068 7DFB     		bne	a4,zero,.L103
 1329              	.LVL76:
 1330              	.L102:
 696:../Peripheral/src/ch32v30x_can.c ****         {
 1331              		.loc 1 696 9 is_stmt 1
 696:../Peripheral/src/ch32v30x_can.c ****         {
 1332              		.loc 1 696 17 is_stmt 0
 1333 006a C843     		lw	a0,4(a5)
 696:../Peripheral/src/ch32v30x_can.c ****         {
 1334              		.loc 1 696 25
 1335 006c 0D89     		andi	a0,a0,3
 696:../Peripheral/src/ch32v30x_can.c ****         {
 1336              		.loc 1 696 11
 1337 006e 7915     		addi	a0,a0,-2
 1338 0070 55BF     		j	.L111
 1339              		.cfi_endproc
 1340              	.LFE42:
 1342              		.section	.text.CAN_Sleep,"ax",@progbits
 1343              		.align	1
 1344              		.globl	CAN_Sleep
 1346              	CAN_Sleep:
 1347              	.LFB43:
 712:../Peripheral/src/ch32v30x_can.c **** 
 713:../Peripheral/src/ch32v30x_can.c **** /*********************************************************************
 714:../Peripheral/src/ch32v30x_can.c ****  * @fn      CAN_Sleep
 715:../Peripheral/src/ch32v30x_can.c ****  *
 716:../Peripheral/src/ch32v30x_can.c ****  * @brief   Enters the low power mode.
 717:../Peripheral/src/ch32v30x_can.c ****  *
 718:../Peripheral/src/ch32v30x_can.c ****  * @param   CANx - where x can be 1 to select the CAN peripheral.
 719:../Peripheral/src/ch32v30x_can.c ****  *
 720:../Peripheral/src/ch32v30x_can.c ****  * @return  sleepstatus -
 721:../Peripheral/src/ch32v30x_can.c ****  *            CAN_Sleep_Ok.
 722:../Peripheral/src/ch32v30x_can.c ****  *            CAN_Sleep_Failed.
 723:../Peripheral/src/ch32v30x_can.c ****  */
 724:../Peripheral/src/ch32v30x_can.c **** uint8_t CAN_Sleep(CAN_TypeDef *CANx)
 725:../Peripheral/src/ch32v30x_can.c **** {
 1348              		.loc 1 725 1 is_stmt 1
 1349              		.cfi_startproc
 1350              	.LVL77:
 726:../Peripheral/src/ch32v30x_can.c ****     uint8_t sleepstatus = CAN_Sleep_Failed;
 1351              		.loc 1 726 5
 727:../Peripheral/src/ch32v30x_can.c **** 
 728:../Peripheral/src/ch32v30x_can.c ****     CANx->CTLR = (((CANx->CTLR) & (uint32_t)(~(uint32_t)CAN_CTLR_INRQ)) | CAN_CTLR_SLEEP);
 1352              		.loc 1 728 5
 1353              		.loc 1 728 25 is_stmt 0
 1354 0000 1C41     		lw	a5,0(a0)
 1355              		.loc 1 728 73
 1356 0002 F19B     		andi	a5,a5,-4
 1357 0004 93E72700 		ori	a5,a5,2
 1358              		.loc 1 728 16
 1359 0008 1CC1     		sw	a5,0(a0)
 729:../Peripheral/src/ch32v30x_can.c **** 
 730:../Peripheral/src/ch32v30x_can.c ****     if((CANx->STATR & (CAN_STATR_SLAK | CAN_STATR_INAK)) == CAN_STATR_SLAK)
 1360              		.loc 1 730 5 is_stmt 1
 1361              		.loc 1 730 13 is_stmt 0
 1362 000a 4841     		lw	a0,4(a0)
 1363              	.LVL78:
 731:../Peripheral/src/ch32v30x_can.c ****     {
 732:../Peripheral/src/ch32v30x_can.c ****         sleepstatus = CAN_Sleep_Ok;
 733:../Peripheral/src/ch32v30x_can.c ****     }
 734:../Peripheral/src/ch32v30x_can.c **** 
 735:../Peripheral/src/ch32v30x_can.c ****     return (uint8_t)sleepstatus;
 1364              		.loc 1 735 5 is_stmt 1
 730:../Peripheral/src/ch32v30x_can.c ****     {
 1365              		.loc 1 730 21 is_stmt 0
 1366 000c 0D89     		andi	a0,a0,3
 1367              	.LVL79:
 730:../Peripheral/src/ch32v30x_can.c ****     {
 1368              		.loc 1 730 7
 1369 000e 7915     		addi	a0,a0,-2
 736:../Peripheral/src/ch32v30x_can.c **** }
 1370              		.loc 1 736 1
 1371 0010 13351500 		seqz	a0,a0
 1372 0014 8280     		ret
 1373              		.cfi_endproc
 1374              	.LFE43:
 1376              		.section	.text.CAN_WakeUp,"ax",@progbits
 1377              		.align	1
 1378              		.globl	CAN_WakeUp
 1380              	CAN_WakeUp:
 1381              	.LFB44:
 737:../Peripheral/src/ch32v30x_can.c **** 
 738:../Peripheral/src/ch32v30x_can.c **** /*********************************************************************
 739:../Peripheral/src/ch32v30x_can.c ****  * @fn      CAN_WakeUp
 740:../Peripheral/src/ch32v30x_can.c ****  *
 741:../Peripheral/src/ch32v30x_can.c ****  * @brief   Wakes the CAN up.
 742:../Peripheral/src/ch32v30x_can.c ****  *
 743:../Peripheral/src/ch32v30x_can.c ****  * @param   CANx - where x can be 1 to select the CAN peripheral.
 744:../Peripheral/src/ch32v30x_can.c ****  *
 745:../Peripheral/src/ch32v30x_can.c ****  * @return  wakeupstatus -
 746:../Peripheral/src/ch32v30x_can.c ****  *            CAN_WakeUp_Ok.
 747:../Peripheral/src/ch32v30x_can.c ****  *            CAN_WakeUp_Failed.
 748:../Peripheral/src/ch32v30x_can.c ****  */
 749:../Peripheral/src/ch32v30x_can.c **** uint8_t CAN_WakeUp(CAN_TypeDef *CANx)
 750:../Peripheral/src/ch32v30x_can.c **** {
 1382              		.loc 1 750 1 is_stmt 1
 1383              		.cfi_startproc
 1384              	.LVL80:
 751:../Peripheral/src/ch32v30x_can.c ****     uint32_t wait_slak = SLAK_TIMEOUT;
 1385              		.loc 1 751 5
 752:../Peripheral/src/ch32v30x_can.c ****     uint8_t  wakeupstatus = CAN_WakeUp_Failed;
 1386              		.loc 1 752 5
 753:../Peripheral/src/ch32v30x_can.c **** 
 754:../Peripheral/src/ch32v30x_can.c ****     CANx->CTLR &= ~(uint32_t)CAN_CTLR_SLEEP;
 1387              		.loc 1 754 5
 1388              		.loc 1 754 9 is_stmt 0
 1389 0000 1C41     		lw	a5,0(a0)
 1390              		.loc 1 754 16
 1391 0002 F59B     		andi	a5,a5,-3
 1392 0004 1CC1     		sw	a5,0(a0)
 755:../Peripheral/src/ch32v30x_can.c **** 
 756:../Peripheral/src/ch32v30x_can.c ****     while(((CANx->STATR & CAN_STATR_SLAK) == CAN_STATR_SLAK) && (wait_slak != 0x00))
 1393              		.loc 1 756 5 is_stmt 1
 1394              		.loc 1 756 10 is_stmt 0
 1395 0006 C167     		li	a5,65536
 1396              	.LVL81:
 1397              	.L115:
 1398              		.loc 1 756 62 is_stmt 1
 1399              		.loc 1 756 17 is_stmt 0
 1400 0008 5841     		lw	a4,4(a0)
 1401              		.loc 1 756 25
 1402 000a 098B     		andi	a4,a4,2
 1403              		.loc 1 756 62
 1404 000c 19C3     		beq	a4,zero,.L114
 1405              		.loc 1 756 62 discriminator 1
 1406 000e FD17     		addi	a5,a5,-1
 1407              	.LVL82:
 1408 0010 E5FF     		bne	a5,zero,.L115
 1409              	.LVL83:
 1410              	.L114:
 757:../Peripheral/src/ch32v30x_can.c ****     {
 758:../Peripheral/src/ch32v30x_can.c ****         wait_slak--;
 759:../Peripheral/src/ch32v30x_can.c ****     }
 760:../Peripheral/src/ch32v30x_can.c ****     if((CANx->STATR & CAN_STATR_SLAK) != CAN_STATR_SLAK)
 1411              		.loc 1 760 5 is_stmt 1
 1412              		.loc 1 760 13 is_stmt 0
 1413 0012 4841     		lw	a0,4(a0)
 1414              	.LVL84:
 761:../Peripheral/src/ch32v30x_can.c ****     {
 762:../Peripheral/src/ch32v30x_can.c ****         wakeupstatus = CAN_WakeUp_Ok;
 763:../Peripheral/src/ch32v30x_can.c ****     }
 764:../Peripheral/src/ch32v30x_can.c **** 
 765:../Peripheral/src/ch32v30x_can.c ****     return (uint8_t)wakeupstatus;
 1415              		.loc 1 765 5 is_stmt 1
 760:../Peripheral/src/ch32v30x_can.c ****     {
 1416              		.loc 1 760 7 is_stmt 0
 1417 0014 0581     		srli	a0,a0,1
 1418              	.LVL85:
 1419 0016 13451500 		xori	a0,a0,1
 766:../Peripheral/src/ch32v30x_can.c **** }
 1420              		.loc 1 766 1
 1421 001a 0589     		andi	a0,a0,1
 1422 001c 8280     		ret
 1423              		.cfi_endproc
 1424              	.LFE44:
 1426              		.section	.text.CAN_GetLastErrorCode,"ax",@progbits
 1427              		.align	1
 1428              		.globl	CAN_GetLastErrorCode
 1430              	CAN_GetLastErrorCode:
 1431              	.LFB45:
 767:../Peripheral/src/ch32v30x_can.c **** 
 768:../Peripheral/src/ch32v30x_can.c **** /*********************************************************************
 769:../Peripheral/src/ch32v30x_can.c ****  * @fn      CAN_GetLastErrorCode
 770:../Peripheral/src/ch32v30x_can.c ****  *
 771:../Peripheral/src/ch32v30x_can.c ****  * @brief   Returns the CANx's last error code (LEC).
 772:../Peripheral/src/ch32v30x_can.c ****  *
 773:../Peripheral/src/ch32v30x_can.c ****  * @param   CANx - where x can be 1 to select the CAN peripheral.
 774:../Peripheral/src/ch32v30x_can.c ****  *
 775:../Peripheral/src/ch32v30x_can.c ****  * @return  errorcode - specifies the Error code.
 776:../Peripheral/src/ch32v30x_can.c ****  *            CAN_ErrorCode_NoErr - No Error.
 777:../Peripheral/src/ch32v30x_can.c ****  *            CAN_ErrorCode_StuffErr - Stuff Error.
 778:../Peripheral/src/ch32v30x_can.c ****  *            CAN_ErrorCode_FormErr - Form Error.
 779:../Peripheral/src/ch32v30x_can.c ****  *            CAN_ErrorCode_ACKErr - Acknowledgment Error.
 780:../Peripheral/src/ch32v30x_can.c ****  *            CAN_ErrorCode_BitRecessiveErr - Bit Recessive Error.
 781:../Peripheral/src/ch32v30x_can.c ****  *            CAN_ErrorCode_BitDominantErr - Bit Dominant Error.
 782:../Peripheral/src/ch32v30x_can.c ****  *            CAN_ErrorCode_CRCErr - CRC Error.
 783:../Peripheral/src/ch32v30x_can.c ****  *            CAN_ErrorCode_SoftwareSetErr - Software Set Error.
 784:../Peripheral/src/ch32v30x_can.c ****  */
 785:../Peripheral/src/ch32v30x_can.c **** uint8_t CAN_GetLastErrorCode(CAN_TypeDef *CANx)
 786:../Peripheral/src/ch32v30x_can.c **** {
 1432              		.loc 1 786 1 is_stmt 1
 1433              		.cfi_startproc
 1434              	.LVL86:
 787:../Peripheral/src/ch32v30x_can.c ****     uint8_t errorcode = 0;
 1435              		.loc 1 787 5
 788:../Peripheral/src/ch32v30x_can.c **** 
 789:../Peripheral/src/ch32v30x_can.c ****     errorcode = (((uint8_t)CANx->ERRSR) & (uint8_t)CAN_ERRSR_LEC);
 1436              		.loc 1 789 5
 1437              		.loc 1 789 32 is_stmt 0
 1438 0000 084D     		lw	a0,24(a0)
 1439              	.LVL87:
 790:../Peripheral/src/ch32v30x_can.c **** 
 791:../Peripheral/src/ch32v30x_can.c ****     return errorcode;
 1440              		.loc 1 791 5 is_stmt 1
 792:../Peripheral/src/ch32v30x_can.c **** }
 1441              		.loc 1 792 1 is_stmt 0
 1442 0002 13750507 		andi	a0,a0,112
 1443              	.LVL88:
 1444 0006 8280     		ret
 1445              		.cfi_endproc
 1446              	.LFE45:
 1448              		.section	.text.CAN_GetReceiveErrorCounter,"ax",@progbits
 1449              		.align	1
 1450              		.globl	CAN_GetReceiveErrorCounter
 1452              	CAN_GetReceiveErrorCounter:
 1453              	.LFB46:
 793:../Peripheral/src/ch32v30x_can.c **** 
 794:../Peripheral/src/ch32v30x_can.c **** /*********************************************************************
 795:../Peripheral/src/ch32v30x_can.c ****  * @fn      CAN_GetReceiveErrorCounter
 796:../Peripheral/src/ch32v30x_can.c ****  *
 797:../Peripheral/src/ch32v30x_can.c ****  * @brief   Returns the CANx Receive Error Counter (REC).
 798:../Peripheral/src/ch32v30x_can.c ****  *
 799:../Peripheral/src/ch32v30x_can.c ****  * @param   CANx - where x can be 1 to select the CAN peripheral.
 800:../Peripheral/src/ch32v30x_can.c ****  *         Note-   
 801:../Peripheral/src/ch32v30x_can.c ****  *         In case of an error during reception, this counter is incremented 
 802:../Peripheral/src/ch32v30x_can.c ****  *         by 1 or by 8 depending on the error condition as defined by the CAN 
 803:../Peripheral/src/ch32v30x_can.c ****  *         standard. After every successful reception, the counter is 
 804:../Peripheral/src/ch32v30x_can.c ****  *         decremented by 1 or reset to 120 if its value was higher than 128. 
 805:../Peripheral/src/ch32v30x_can.c ****  *         When the counter value exceeds 127, the CAN controller enters the 
 806:../Peripheral/src/ch32v30x_can.c ****  *         error passive state.  
 807:../Peripheral/src/ch32v30x_can.c ****  * @return  counter - CAN Receive Error Counter.
 808:../Peripheral/src/ch32v30x_can.c ****  */
 809:../Peripheral/src/ch32v30x_can.c **** uint8_t CAN_GetReceiveErrorCounter(CAN_TypeDef *CANx)
 810:../Peripheral/src/ch32v30x_can.c **** {
 1454              		.loc 1 810 1 is_stmt 1
 1455              		.cfi_startproc
 1456              	.LVL89:
 811:../Peripheral/src/ch32v30x_can.c ****     uint8_t counter = 0;
 1457              		.loc 1 811 5
 812:../Peripheral/src/ch32v30x_can.c **** 
 813:../Peripheral/src/ch32v30x_can.c ****     counter = (uint8_t)((CANx->ERRSR & CAN_ERRSR_REC) >> 24);
 1458              		.loc 1 813 5
 1459              		.loc 1 813 30 is_stmt 0
 1460 0000 084D     		lw	a0,24(a0)
 1461              	.LVL90:
 814:../Peripheral/src/ch32v30x_can.c **** 
 815:../Peripheral/src/ch32v30x_can.c ****     return counter;
 1462              		.loc 1 815 5 is_stmt 1
 816:../Peripheral/src/ch32v30x_can.c **** }
 1463              		.loc 1 816 1 is_stmt 0
 1464 0002 6181     		srli	a0,a0,24
 1465              	.LVL91:
 1466 0004 8280     		ret
 1467              		.cfi_endproc
 1468              	.LFE46:
 1470              		.section	.text.CAN_GetLSBTransmitErrorCounter,"ax",@progbits
 1471              		.align	1
 1472              		.globl	CAN_GetLSBTransmitErrorCounter
 1474              	CAN_GetLSBTransmitErrorCounter:
 1475              	.LFB47:
 817:../Peripheral/src/ch32v30x_can.c **** 
 818:../Peripheral/src/ch32v30x_can.c **** /*********************************************************************
 819:../Peripheral/src/ch32v30x_can.c ****  * @fn      CAN_GetLSBTransmitErrorCounter
 820:../Peripheral/src/ch32v30x_can.c ****  *
 821:../Peripheral/src/ch32v30x_can.c ****  * @brief   Returns the LSB of the 9-bit CANx Transmit Error Counter(TEC).
 822:../Peripheral/src/ch32v30x_can.c ****  *
 823:../Peripheral/src/ch32v30x_can.c ****  * @param   CANx - where x can be 1 to select the CAN peripheral.
 824:../Peripheral/src/ch32v30x_can.c ****  *
 825:../Peripheral/src/ch32v30x_can.c ****  * @return  counter - LSB of the 9-bit CAN Transmit Error Counter.
 826:../Peripheral/src/ch32v30x_can.c ****  */
 827:../Peripheral/src/ch32v30x_can.c **** uint8_t CAN_GetLSBTransmitErrorCounter(CAN_TypeDef *CANx)
 828:../Peripheral/src/ch32v30x_can.c **** {
 1476              		.loc 1 828 1 is_stmt 1
 1477              		.cfi_startproc
 1478              	.LVL92:
 829:../Peripheral/src/ch32v30x_can.c ****     uint8_t counter = 0;
 1479              		.loc 1 829 5
 830:../Peripheral/src/ch32v30x_can.c **** 
 831:../Peripheral/src/ch32v30x_can.c ****     counter = (uint8_t)((CANx->ERRSR & CAN_ERRSR_TEC) >> 16);
 1480              		.loc 1 831 5
 1481              		.loc 1 831 30 is_stmt 0
 1482 0000 084D     		lw	a0,24(a0)
 1483              	.LVL93:
 832:../Peripheral/src/ch32v30x_can.c **** 
 833:../Peripheral/src/ch32v30x_can.c ****     return counter;
 1484              		.loc 1 833 5 is_stmt 1
 831:../Peripheral/src/ch32v30x_can.c **** 
 1485              		.loc 1 831 55 is_stmt 0
 1486 0002 4181     		srli	a0,a0,16
 1487              	.LVL94:
 834:../Peripheral/src/ch32v30x_can.c **** }
 1488              		.loc 1 834 1
 1489 0004 1375F50F 		andi	a0,a0,0xff
 1490 0008 8280     		ret
 1491              		.cfi_endproc
 1492              	.LFE47:
 1494              		.section	.text.CAN_ITConfig,"ax",@progbits
 1495              		.align	1
 1496              		.globl	CAN_ITConfig
 1498              	CAN_ITConfig:
 1499              	.LFB48:
 835:../Peripheral/src/ch32v30x_can.c **** 
 836:../Peripheral/src/ch32v30x_can.c **** /*********************************************************************
 837:../Peripheral/src/ch32v30x_can.c ****  * @fn      CAN_ITConfig
 838:../Peripheral/src/ch32v30x_can.c ****  *
 839:../Peripheral/src/ch32v30x_can.c ****  * @brief   Enables or disables the specified CANx interrupts.
 840:../Peripheral/src/ch32v30x_can.c ****  *
 841:../Peripheral/src/ch32v30x_can.c ****  * @param   CANx - where x can be 1 to select the CAN peripheral.
 842:../Peripheral/src/ch32v30x_can.c ****  *          CAN_IT - specifies the CAN interrupt sources to be enabled or disabled.
 843:../Peripheral/src/ch32v30x_can.c ****  *            CAN_IT_TME.
 844:../Peripheral/src/ch32v30x_can.c ****  *            CAN_IT_FMP0.
 845:../Peripheral/src/ch32v30x_can.c ****  *            CAN_IT_FF0.
 846:../Peripheral/src/ch32v30x_can.c ****  *            CAN_IT_FOV0.
 847:../Peripheral/src/ch32v30x_can.c ****  *            CAN_IT_FMP1.
 848:../Peripheral/src/ch32v30x_can.c ****  *            CAN_IT_FF1.
 849:../Peripheral/src/ch32v30x_can.c ****  *            CAN_IT_FOV1.
 850:../Peripheral/src/ch32v30x_can.c ****  *            CAN_IT_EWG.
 851:../Peripheral/src/ch32v30x_can.c ****  *            CAN_IT_EPV.
 852:../Peripheral/src/ch32v30x_can.c ****  *            CAN_IT_LEC.
 853:../Peripheral/src/ch32v30x_can.c ****  *            CAN_IT_ERR.
 854:../Peripheral/src/ch32v30x_can.c ****  *            CAN_IT_WKU.
 855:../Peripheral/src/ch32v30x_can.c ****  *            CAN_IT_SLK.
 856:../Peripheral/src/ch32v30x_can.c ****  *          NewState - ENABLE or DISABLE.
 857:../Peripheral/src/ch32v30x_can.c ****  *
 858:../Peripheral/src/ch32v30x_can.c ****  * @return  counter - LSB of the 9-bit CAN Transmit Error Counter.
 859:../Peripheral/src/ch32v30x_can.c ****  */
 860:../Peripheral/src/ch32v30x_can.c **** void CAN_ITConfig(CAN_TypeDef *CANx, uint32_t CAN_IT, FunctionalState NewState)
 861:../Peripheral/src/ch32v30x_can.c **** {
 1500              		.loc 1 861 1 is_stmt 1
 1501              		.cfi_startproc
 1502              	.LVL95:
 862:../Peripheral/src/ch32v30x_can.c ****     if(NewState != DISABLE)
 1503              		.loc 1 862 5
 863:../Peripheral/src/ch32v30x_can.c ****     {
 864:../Peripheral/src/ch32v30x_can.c ****         CANx->INTENR |= CAN_IT;
 1504              		.loc 1 864 13 is_stmt 0
 1505 0000 5C49     		lw	a5,20(a0)
 862:../Peripheral/src/ch32v30x_can.c ****     if(NewState != DISABLE)
 1506              		.loc 1 862 7
 1507 0002 01C6     		beq	a2,zero,.L124
 1508              		.loc 1 864 9 is_stmt 1
 1509              		.loc 1 864 22 is_stmt 0
 1510 0004 CD8F     		or	a5,a5,a1
 1511 0006 5CC9     		sw	a5,20(a0)
 1512 0008 8280     		ret
 1513              	.L124:
 865:../Peripheral/src/ch32v30x_can.c ****     }
 866:../Peripheral/src/ch32v30x_can.c ****     else
 867:../Peripheral/src/ch32v30x_can.c ****     {
 868:../Peripheral/src/ch32v30x_can.c ****         CANx->INTENR &= ~CAN_IT;
 1514              		.loc 1 868 9 is_stmt 1
 1515              		.loc 1 868 25 is_stmt 0
 1516 000a 93C5F5FF 		not	a1,a1
 1517              	.LVL96:
 1518              		.loc 1 868 22
 1519 000e FD8D     		and	a1,a1,a5
 1520              	.LVL97:
 1521 0010 4CC9     		sw	a1,20(a0)
 869:../Peripheral/src/ch32v30x_can.c ****     }
 870:../Peripheral/src/ch32v30x_can.c **** }
 1522              		.loc 1 870 1
 1523 0012 8280     		ret
 1524              		.cfi_endproc
 1525              	.LFE48:
 1527              		.section	.text.CAN_GetFlagStatus,"ax",@progbits
 1528              		.align	1
 1529              		.globl	CAN_GetFlagStatus
 1531              	CAN_GetFlagStatus:
 1532              	.LFB49:
 871:../Peripheral/src/ch32v30x_can.c **** 
 872:../Peripheral/src/ch32v30x_can.c **** /*********************************************************************
 873:../Peripheral/src/ch32v30x_can.c ****  * @fn      CAN_GetFlagStatus
 874:../Peripheral/src/ch32v30x_can.c ****  *
 875:../Peripheral/src/ch32v30x_can.c ****  * @brief   Checks whether the specified CAN flag is set or not.
 876:../Peripheral/src/ch32v30x_can.c ****  *
 877:../Peripheral/src/ch32v30x_can.c ****  * @param   CANx - where x can be 1 to select the CAN peripheral.
 878:../Peripheral/src/ch32v30x_can.c ****  *          CAN_FLAG - specifies the flag to check.
 879:../Peripheral/src/ch32v30x_can.c ****  *            CAN_FLAG_EWG.
 880:../Peripheral/src/ch32v30x_can.c ****  *            CAN_FLAG_EPV.
 881:../Peripheral/src/ch32v30x_can.c ****  *            CAN_FLAG_BOF.
 882:../Peripheral/src/ch32v30x_can.c ****  *            CAN_FLAG_RQCP0.
 883:../Peripheral/src/ch32v30x_can.c ****  *            CAN_FLAG_RQCP1.
 884:../Peripheral/src/ch32v30x_can.c ****  *            CAN_FLAG_RQCP2.
 885:../Peripheral/src/ch32v30x_can.c ****  *            CAN_FLAG_FMP1.
 886:../Peripheral/src/ch32v30x_can.c ****  *            CAN_FLAG_FF1.
 887:../Peripheral/src/ch32v30x_can.c ****  *            CAN_FLAG_FOV1.
 888:../Peripheral/src/ch32v30x_can.c ****  *            CAN_FLAG_FMP0.
 889:../Peripheral/src/ch32v30x_can.c ****  *            CAN_FLAG_FF0.
 890:../Peripheral/src/ch32v30x_can.c ****  *            CAN_FLAG_FOV0.
 891:../Peripheral/src/ch32v30x_can.c ****  *            CAN_FLAG_WKU.
 892:../Peripheral/src/ch32v30x_can.c ****  *            CAN_FLAG_SLAK.
 893:../Peripheral/src/ch32v30x_can.c ****  *            CAN_FLAG_LEC.
 894:../Peripheral/src/ch32v30x_can.c ****  *          NewState - ENABLE or DISABLE.
 895:../Peripheral/src/ch32v30x_can.c ****  *
 896:../Peripheral/src/ch32v30x_can.c ****  * @return  FlagStatus - SET or RESET.
 897:../Peripheral/src/ch32v30x_can.c ****  */
 898:../Peripheral/src/ch32v30x_can.c **** FlagStatus CAN_GetFlagStatus(CAN_TypeDef *CANx, uint32_t CAN_FLAG)
 899:../Peripheral/src/ch32v30x_can.c **** {
 1533              		.loc 1 899 1 is_stmt 1
 1534              		.cfi_startproc
 1535              	.LVL98:
 900:../Peripheral/src/ch32v30x_can.c ****     FlagStatus bitstatus = RESET;
 1536              		.loc 1 900 5
 901:../Peripheral/src/ch32v30x_can.c **** 
 902:../Peripheral/src/ch32v30x_can.c ****     if((CAN_FLAG & CAN_FLAGS_ERRSR) != (uint32_t)RESET)
 1537              		.loc 1 902 5
 1538              		.loc 1 902 18 is_stmt 0
 1539 0000 B707F000 		li	a5,15728640
 1540 0004 ED8F     		and	a5,a1,a5
 1541              		.loc 1 902 7
 1542 0006 99C7     		beq	a5,zero,.L127
 903:../Peripheral/src/ch32v30x_can.c ****     {
 904:../Peripheral/src/ch32v30x_can.c ****         if((CANx->ERRSR & (CAN_FLAG & 0x000FFFFF)) != (uint32_t)RESET)
 1543              		.loc 1 904 9 is_stmt 1
 1544              		.loc 1 904 17 is_stmt 0
 1545 0008 084D     		lw	a0,24(a0)
 1546              	.LVL99:
 1547              	.L134:
 905:../Peripheral/src/ch32v30x_can.c ****         {
 906:../Peripheral/src/ch32v30x_can.c ****             bitstatus = SET;
 907:../Peripheral/src/ch32v30x_can.c ****         }
 908:../Peripheral/src/ch32v30x_can.c ****         else
 909:../Peripheral/src/ch32v30x_can.c ****         {
 910:../Peripheral/src/ch32v30x_can.c ****             bitstatus = RESET;
 911:../Peripheral/src/ch32v30x_can.c ****         }
 912:../Peripheral/src/ch32v30x_can.c ****     }
 913:../Peripheral/src/ch32v30x_can.c ****     else if((CAN_FLAG & CAN_FLAGS_STATR) != (uint32_t)RESET)
 914:../Peripheral/src/ch32v30x_can.c ****     {
 915:../Peripheral/src/ch32v30x_can.c ****         if((CANx->STATR & (CAN_FLAG & 0x000FFFFF)) != (uint32_t)RESET)
 916:../Peripheral/src/ch32v30x_can.c ****         {
 917:../Peripheral/src/ch32v30x_can.c ****             bitstatus = SET;
 918:../Peripheral/src/ch32v30x_can.c ****         }
 919:../Peripheral/src/ch32v30x_can.c ****         else
 920:../Peripheral/src/ch32v30x_can.c ****         {
 921:../Peripheral/src/ch32v30x_can.c ****             bitstatus = RESET;
 922:../Peripheral/src/ch32v30x_can.c ****         }
 923:../Peripheral/src/ch32v30x_can.c ****     }
 924:../Peripheral/src/ch32v30x_can.c ****     else if((CAN_FLAG & CAN_FLAGS_TSTATR) != (uint32_t)RESET)
 925:../Peripheral/src/ch32v30x_can.c ****     {
 926:../Peripheral/src/ch32v30x_can.c ****         if((CANx->TSTATR & (CAN_FLAG & 0x000FFFFF)) != (uint32_t)RESET)
 1548              		.loc 1 926 26
 1549 000a 6D8D     		and	a0,a0,a1
 1550 000c 3205     		slli	a0,a0,12
 1551              	.L132:
 927:../Peripheral/src/ch32v30x_can.c ****         {
 928:../Peripheral/src/ch32v30x_can.c ****             bitstatus = SET;
 929:../Peripheral/src/ch32v30x_can.c ****         }
 930:../Peripheral/src/ch32v30x_can.c ****         else
 931:../Peripheral/src/ch32v30x_can.c ****         {
 932:../Peripheral/src/ch32v30x_can.c ****             bitstatus = RESET;
 933:../Peripheral/src/ch32v30x_can.c ****         }
 934:../Peripheral/src/ch32v30x_can.c ****     }
 935:../Peripheral/src/ch32v30x_can.c ****     else if((CAN_FLAG & CAN_FLAGS_RFIFO0) != (uint32_t)RESET)
 936:../Peripheral/src/ch32v30x_can.c ****     {
 937:../Peripheral/src/ch32v30x_can.c ****         if((CANx->RFIFO0 & (CAN_FLAG & 0x000FFFFF)) != (uint32_t)RESET)
 938:../Peripheral/src/ch32v30x_can.c ****         {
 939:../Peripheral/src/ch32v30x_can.c ****             bitstatus = SET;
 940:../Peripheral/src/ch32v30x_can.c ****         }
 941:../Peripheral/src/ch32v30x_can.c ****         else
 942:../Peripheral/src/ch32v30x_can.c ****         {
 943:../Peripheral/src/ch32v30x_can.c ****             bitstatus = RESET;
 944:../Peripheral/src/ch32v30x_can.c ****         }
 945:../Peripheral/src/ch32v30x_can.c ****     }
 946:../Peripheral/src/ch32v30x_can.c ****     else
 947:../Peripheral/src/ch32v30x_can.c ****     {
 948:../Peripheral/src/ch32v30x_can.c ****         if((uint32_t)(CANx->RFIFO1 & (CAN_FLAG & 0x000FFFFF)) != (uint32_t)RESET)
 1552              		.loc 1 948 11
 1553 000e 3335A000 		snez	a0,a0
 1554              	.LVL100:
 949:../Peripheral/src/ch32v30x_can.c ****         {
 950:../Peripheral/src/ch32v30x_can.c ****             bitstatus = SET;
 951:../Peripheral/src/ch32v30x_can.c ****         }
 952:../Peripheral/src/ch32v30x_can.c ****         else
 953:../Peripheral/src/ch32v30x_can.c ****         {
 954:../Peripheral/src/ch32v30x_can.c ****             bitstatus = RESET;
 955:../Peripheral/src/ch32v30x_can.c ****         }
 956:../Peripheral/src/ch32v30x_can.c ****     }
 957:../Peripheral/src/ch32v30x_can.c **** 
 958:../Peripheral/src/ch32v30x_can.c ****     return bitstatus;
 1555              		.loc 1 958 5 is_stmt 1
 959:../Peripheral/src/ch32v30x_can.c **** }
 1556              		.loc 1 959 1 is_stmt 0
 1557 0012 8280     		ret
 1558              	.LVL101:
 1559              	.L127:
 913:../Peripheral/src/ch32v30x_can.c ****     {
 1560              		.loc 1 913 10 is_stmt 1
 913:../Peripheral/src/ch32v30x_can.c ****     {
 1561              		.loc 1 913 23 is_stmt 0
 1562 0014 B7070001 		li	a5,16777216
 1563 0018 ED8F     		and	a5,a1,a5
 913:../Peripheral/src/ch32v30x_can.c ****     {
 1564              		.loc 1 913 12
 1565 001a 99C3     		beq	a5,zero,.L129
 915:../Peripheral/src/ch32v30x_can.c ****         {
 1566              		.loc 1 915 9 is_stmt 1
 915:../Peripheral/src/ch32v30x_can.c ****         {
 1567              		.loc 1 915 17 is_stmt 0
 1568 001c 4841     		lw	a0,4(a0)
 1569              	.LVL102:
 1570 001e F5B7     		j	.L134
 1571              	.LVL103:
 1572              	.L129:
 924:../Peripheral/src/ch32v30x_can.c ****     {
 1573              		.loc 1 924 10 is_stmt 1
 924:../Peripheral/src/ch32v30x_can.c ****     {
 1574              		.loc 1 924 23 is_stmt 0
 1575 0020 B7070008 		li	a5,134217728
 1576 0024 ED8F     		and	a5,a1,a5
 924:../Peripheral/src/ch32v30x_can.c ****     {
 1577              		.loc 1 924 12
 1578 0026 99C3     		beq	a5,zero,.L130
 926:../Peripheral/src/ch32v30x_can.c ****         {
 1579              		.loc 1 926 9 is_stmt 1
 926:../Peripheral/src/ch32v30x_can.c ****         {
 1580              		.loc 1 926 17 is_stmt 0
 1581 0028 0845     		lw	a0,8(a0)
 1582              	.LVL104:
 1583 002a C5B7     		j	.L134
 1584              	.LVL105:
 1585              	.L130:
 935:../Peripheral/src/ch32v30x_can.c ****     {
 1586              		.loc 1 935 10 is_stmt 1
 935:../Peripheral/src/ch32v30x_can.c ****     {
 1587              		.loc 1 935 23 is_stmt 0
 1588 002c 37070002 		li	a4,33554432
 1589 0030 B7071000 		li	a5,1048576
 1590 0034 6D8F     		and	a4,a1,a4
 1591 0036 FD17     		addi	a5,a5,-1
 935:../Peripheral/src/ch32v30x_can.c ****     {
 1592              		.loc 1 935 12
 1593 0038 09C7     		beq	a4,zero,.L131
 937:../Peripheral/src/ch32v30x_can.c ****         {
 1594              		.loc 1 937 9 is_stmt 1
 937:../Peripheral/src/ch32v30x_can.c ****         {
 1595              		.loc 1 937 17 is_stmt 0
 1596 003a 4845     		lw	a0,12(a0)
 1597              	.LVL106:
 1598              	.L133:
 948:../Peripheral/src/ch32v30x_can.c ****         {
 1599              		.loc 1 948 12
 1600 003c 6D8D     		and	a0,a0,a1
 1601 003e 7D8D     		and	a0,a0,a5
 1602 0040 F9B7     		j	.L132
 1603              	.LVL107:
 1604              	.L131:
 948:../Peripheral/src/ch32v30x_can.c ****         {
 1605              		.loc 1 948 9 is_stmt 1
 948:../Peripheral/src/ch32v30x_can.c ****         {
 1606              		.loc 1 948 27 is_stmt 0
 1607 0042 0849     		lw	a0,16(a0)
 1608              	.LVL108:
 1609 0044 E5BF     		j	.L133
 1610              		.cfi_endproc
 1611              	.LFE49:
 1613              		.section	.text.CAN_ClearFlag,"ax",@progbits
 1614              		.align	1
 1615              		.globl	CAN_ClearFlag
 1617              	CAN_ClearFlag:
 1618              	.LFB50:
 960:../Peripheral/src/ch32v30x_can.c **** 
 961:../Peripheral/src/ch32v30x_can.c **** /*********************************************************************
 962:../Peripheral/src/ch32v30x_can.c ****  * @fn      CAN_ClearFlag
 963:../Peripheral/src/ch32v30x_can.c ****  *
 964:../Peripheral/src/ch32v30x_can.c ****  * @brief   Clears the CAN's pending flags.
 965:../Peripheral/src/ch32v30x_can.c ****  *
 966:../Peripheral/src/ch32v30x_can.c ****  * @param   CANx - where x can be 1 to select the CAN peripheral.
 967:../Peripheral/src/ch32v30x_can.c ****  *          CAN_FLAG - specifies the flag to clear.
 968:../Peripheral/src/ch32v30x_can.c ****  *            CAN_FLAG_RQCP0.
 969:../Peripheral/src/ch32v30x_can.c ****  *            CAN_FLAG_RQCP1.
 970:../Peripheral/src/ch32v30x_can.c ****  *            CAN_FLAG_RQCP2.
 971:../Peripheral/src/ch32v30x_can.c ****  *            CAN_FLAG_FF1.
 972:../Peripheral/src/ch32v30x_can.c ****  *            CAN_FLAG_FOV1.
 973:../Peripheral/src/ch32v30x_can.c ****  *            CAN_FLAG_FF0.
 974:../Peripheral/src/ch32v30x_can.c ****  *            CAN_FLAG_FOV0.
 975:../Peripheral/src/ch32v30x_can.c ****  *            CAN_FLAG_WKU.
 976:../Peripheral/src/ch32v30x_can.c ****  *            CAN_FLAG_SLAK.
 977:../Peripheral/src/ch32v30x_can.c ****  *            CAN_FLAG_LEC.
 978:../Peripheral/src/ch32v30x_can.c ****  *
 979:../Peripheral/src/ch32v30x_can.c ****  * @return  none
 980:../Peripheral/src/ch32v30x_can.c ****  */
 981:../Peripheral/src/ch32v30x_can.c **** void CAN_ClearFlag(CAN_TypeDef *CANx, uint32_t CAN_FLAG)
 982:../Peripheral/src/ch32v30x_can.c **** {
 1619              		.loc 1 982 1 is_stmt 1
 1620              		.cfi_startproc
 1621              	.LVL109:
 983:../Peripheral/src/ch32v30x_can.c ****     uint32_t flagtmp = 0;
 1622              		.loc 1 983 5
 984:../Peripheral/src/ch32v30x_can.c **** 
 985:../Peripheral/src/ch32v30x_can.c ****     if(CAN_FLAG == CAN_FLAG_LEC)
 1623              		.loc 1 985 5
 1624              		.loc 1 985 7 is_stmt 0
 1625 0000 B707F030 		li	a5,821035008
 1626 0004 93870707 		addi	a5,a5,112
 1627 0008 6395F500 		bne	a1,a5,.L136
 986:../Peripheral/src/ch32v30x_can.c ****     {
 987:../Peripheral/src/ch32v30x_can.c ****         CANx->ERRSR = (uint32_t)RESET;
 1628              		.loc 1 987 9 is_stmt 1
 1629              		.loc 1 987 21 is_stmt 0
 1630 000c 232C0500 		sw	zero,24(a0)
 1631 0010 8280     		ret
 1632              	.L136:
 988:../Peripheral/src/ch32v30x_can.c ****     }
 989:../Peripheral/src/ch32v30x_can.c ****     else
 990:../Peripheral/src/ch32v30x_can.c ****     {
 991:../Peripheral/src/ch32v30x_can.c ****         flagtmp = CAN_FLAG & 0x000FFFFF;
 1633              		.loc 1 991 9 is_stmt 1
 992:../Peripheral/src/ch32v30x_can.c **** 
 993:../Peripheral/src/ch32v30x_can.c ****         if((CAN_FLAG & CAN_FLAGS_RFIFO0) != (uint32_t)RESET)
 1634              		.loc 1 993 22 is_stmt 0
 1635 0012 37070002 		li	a4,33554432
 991:../Peripheral/src/ch32v30x_can.c **** 
 1636              		.loc 1 991 17
 1637 0016 9397C500 		slli	a5,a1,12
 1638              		.loc 1 993 22
 1639 001a 6D8F     		and	a4,a1,a4
 991:../Peripheral/src/ch32v30x_can.c **** 
 1640              		.loc 1 991 17
 1641 001c B183     		srli	a5,a5,12
 1642              	.LVL110:
 1643              		.loc 1 993 9 is_stmt 1
 1644              		.loc 1 993 11 is_stmt 0
 1645 001e 19C3     		beq	a4,zero,.L138
 994:../Peripheral/src/ch32v30x_can.c ****         {
 995:../Peripheral/src/ch32v30x_can.c ****             CANx->RFIFO0 = (uint32_t)(flagtmp);
 1646              		.loc 1 995 13 is_stmt 1
 1647              		.loc 1 995 26 is_stmt 0
 1648 0020 5CC5     		sw	a5,12(a0)
 1649 0022 8280     		ret
 1650              	.L138:
 996:../Peripheral/src/ch32v30x_can.c ****         }
 997:../Peripheral/src/ch32v30x_can.c ****         else if((CAN_FLAG & CAN_FLAGS_RFIFO1) != (uint32_t)RESET)
 1651              		.loc 1 997 14 is_stmt 1
 1652              		.loc 1 997 27 is_stmt 0
 1653 0024 37070004 		li	a4,67108864
 1654 0028 6D8F     		and	a4,a1,a4
 1655              		.loc 1 997 16
 1656 002a 19C3     		beq	a4,zero,.L139
 998:../Peripheral/src/ch32v30x_can.c ****         {
 999:../Peripheral/src/ch32v30x_can.c ****             CANx->RFIFO1 = (uint32_t)(flagtmp);
 1657              		.loc 1 999 13 is_stmt 1
 1658              		.loc 1 999 26 is_stmt 0
 1659 002c 1CC9     		sw	a5,16(a0)
 1660 002e 8280     		ret
 1661              	.L139:
1000:../Peripheral/src/ch32v30x_can.c ****         }
1001:../Peripheral/src/ch32v30x_can.c ****         else if((CAN_FLAG & CAN_FLAGS_TSTATR) != (uint32_t)RESET)
 1662              		.loc 1 1001 14 is_stmt 1
 1663              		.loc 1 1001 27 is_stmt 0
 1664 0030 37070008 		li	a4,134217728
 1665 0034 F98D     		and	a1,a1,a4
 1666              	.LVL111:
 1667              		.loc 1 1001 16
 1668 0036 99C1     		beq	a1,zero,.L140
1002:../Peripheral/src/ch32v30x_can.c ****         {
1003:../Peripheral/src/ch32v30x_can.c ****             CANx->TSTATR = (uint32_t)(flagtmp);
 1669              		.loc 1 1003 13 is_stmt 1
 1670              		.loc 1 1003 26 is_stmt 0
 1671 0038 1CC5     		sw	a5,8(a0)
 1672 003a 8280     		ret
 1673              	.L140:
1004:../Peripheral/src/ch32v30x_can.c ****         }
1005:../Peripheral/src/ch32v30x_can.c ****         else
1006:../Peripheral/src/ch32v30x_can.c ****         {
1007:../Peripheral/src/ch32v30x_can.c ****             CANx->STATR = (uint32_t)(flagtmp);
 1674              		.loc 1 1007 13 is_stmt 1
 1675              		.loc 1 1007 25 is_stmt 0
 1676 003c 5CC1     		sw	a5,4(a0)
1008:../Peripheral/src/ch32v30x_can.c ****         }
1009:../Peripheral/src/ch32v30x_can.c ****     }
1010:../Peripheral/src/ch32v30x_can.c **** }
 1677              		.loc 1 1010 1
 1678 003e 8280     		ret
 1679              		.cfi_endproc
 1680              	.LFE50:
 1682              		.section	.text.CAN_GetITStatus,"ax",@progbits
 1683              		.align	1
 1684              		.globl	CAN_GetITStatus
 1686              	CAN_GetITStatus:
 1687              	.LFB51:
1011:../Peripheral/src/ch32v30x_can.c **** 
1012:../Peripheral/src/ch32v30x_can.c **** /*********************************************************************
1013:../Peripheral/src/ch32v30x_can.c ****  * @fn      CAN_GetITStatus
1014:../Peripheral/src/ch32v30x_can.c ****  *
1015:../Peripheral/src/ch32v30x_can.c ****  * @brief   Checks whether the specified CANx interrupt has occurred or not.
1016:../Peripheral/src/ch32v30x_can.c ****  *
1017:../Peripheral/src/ch32v30x_can.c ****  * @param   CANx - where x can be 1 to select the CAN peripheral.
1018:../Peripheral/src/ch32v30x_can.c ****  *          CAN_IT -  specifies the CAN interrupt source to check.
1019:../Peripheral/src/ch32v30x_can.c ****  *            CAN_IT_TME.
1020:../Peripheral/src/ch32v30x_can.c ****  *            CAN_IT_FMP0.
1021:../Peripheral/src/ch32v30x_can.c ****  *            CAN_IT_FF0.
1022:../Peripheral/src/ch32v30x_can.c ****  *            CAN_IT_FOV0.
1023:../Peripheral/src/ch32v30x_can.c ****  *            CAN_IT_FMP1.
1024:../Peripheral/src/ch32v30x_can.c ****  *            CAN_IT_FF1.
1025:../Peripheral/src/ch32v30x_can.c ****  *            CAN_IT_FOV1.
1026:../Peripheral/src/ch32v30x_can.c ****  *            CAN_IT_WKU.
1027:../Peripheral/src/ch32v30x_can.c ****  *            CAN_IT_SLK.
1028:../Peripheral/src/ch32v30x_can.c ****  *            CAN_IT_EWG.
1029:../Peripheral/src/ch32v30x_can.c ****  *            CAN_IT_EPV.
1030:../Peripheral/src/ch32v30x_can.c ****  *            CAN_IT_BOF.
1031:../Peripheral/src/ch32v30x_can.c ****  *            CAN_IT_LEC.
1032:../Peripheral/src/ch32v30x_can.c ****  *            CAN_IT_ERR.
1033:../Peripheral/src/ch32v30x_can.c ****  *
1034:../Peripheral/src/ch32v30x_can.c ****  * @return  ITStatus - SET or RESET.
1035:../Peripheral/src/ch32v30x_can.c ****  */
1036:../Peripheral/src/ch32v30x_can.c **** ITStatus CAN_GetITStatus(CAN_TypeDef *CANx, uint32_t CAN_IT)
1037:../Peripheral/src/ch32v30x_can.c **** {
 1688              		.loc 1 1037 1 is_stmt 1
 1689              		.cfi_startproc
 1690              	.LVL112:
1038:../Peripheral/src/ch32v30x_can.c ****     ITStatus itstatus = RESET;
 1691              		.loc 1 1038 5
1039:../Peripheral/src/ch32v30x_can.c **** 
1040:../Peripheral/src/ch32v30x_can.c ****     if((CANx->INTENR & CAN_IT) != RESET)
 1692              		.loc 1 1040 5
 1693              		.loc 1 1040 13 is_stmt 0
 1694 0000 5C49     		lw	a5,20(a0)
1037:../Peripheral/src/ch32v30x_can.c ****     ITStatus itstatus = RESET;
 1695              		.loc 1 1037 1
 1696 0002 2A87     		mv	a4,a0
 1697              		.loc 1 1040 22
 1698 0004 33F5B700 		and	a0,a5,a1
 1699              	.LVL113:
 1700              		.loc 1 1040 7
 1701 0008 51CD     		beq	a0,zero,.L141
1041:../Peripheral/src/ch32v30x_can.c ****     {
1042:../Peripheral/src/ch32v30x_can.c ****         switch(CAN_IT)
 1702              		.loc 1 1042 9 is_stmt 1
 1703 000a 93070010 		li	a5,256
 1704 000e 6385F50A 		beq	a1,a5,.L143
 1705 0012 63EFB702 		bgtu	a1,a5,.L144
 1706 0016 A147     		li	a5,8
 1707 0018 6387F508 		beq	a1,a5,.L145
 1708 001c 63EDB700 		bgtu	a1,a5,.L146
 1709 0020 8947     		li	a5,2
 1710 0022 638BF506 		beq	a1,a5,.L147
 1711 0026 9147     		li	a5,4
 1712 0028 638BF506 		beq	a1,a5,.L148
 1713 002c 8547     		li	a5,1
 1714 002e 638DF504 		beq	a1,a5,.L149
 1715              	.L168:
 1716              	.LBB30:
 1717              	.LBB31:
1043:../Peripheral/src/ch32v30x_can.c ****         {
1044:../Peripheral/src/ch32v30x_can.c ****             case CAN_IT_TME:
1045:../Peripheral/src/ch32v30x_can.c ****                 itstatus = CheckITStatus(CANx->TSTATR, CAN_TSTATR_RQCP0 | CAN_TSTATR_RQCP1 | CAN_TS
1046:../Peripheral/src/ch32v30x_can.c ****                 break;
1047:../Peripheral/src/ch32v30x_can.c **** 
1048:../Peripheral/src/ch32v30x_can.c ****             case CAN_IT_FMP0:
1049:../Peripheral/src/ch32v30x_can.c ****                 itstatus = CheckITStatus(CANx->RFIFO0, CAN_RFIFO0_FMP0);
1050:../Peripheral/src/ch32v30x_can.c ****                 break;
1051:../Peripheral/src/ch32v30x_can.c **** 
1052:../Peripheral/src/ch32v30x_can.c ****             case CAN_IT_FF0:
1053:../Peripheral/src/ch32v30x_can.c ****                 itstatus = CheckITStatus(CANx->RFIFO0, CAN_RFIFO0_FULL0);
1054:../Peripheral/src/ch32v30x_can.c ****                 break;
1055:../Peripheral/src/ch32v30x_can.c **** 
1056:../Peripheral/src/ch32v30x_can.c ****             case CAN_IT_FOV0:
1057:../Peripheral/src/ch32v30x_can.c ****                 itstatus = CheckITStatus(CANx->RFIFO0, CAN_RFIFO0_FOVR0);
1058:../Peripheral/src/ch32v30x_can.c ****                 break;
1059:../Peripheral/src/ch32v30x_can.c **** 
1060:../Peripheral/src/ch32v30x_can.c ****             case CAN_IT_FMP1:
1061:../Peripheral/src/ch32v30x_can.c ****                 itstatus = CheckITStatus(CANx->RFIFO1, CAN_RFIFO1_FMP1);
1062:../Peripheral/src/ch32v30x_can.c ****                 break;
1063:../Peripheral/src/ch32v30x_can.c **** 
1064:../Peripheral/src/ch32v30x_can.c ****             case CAN_IT_FF1:
1065:../Peripheral/src/ch32v30x_can.c ****                 itstatus = CheckITStatus(CANx->RFIFO1, CAN_RFIFO1_FULL1);
1066:../Peripheral/src/ch32v30x_can.c ****                 break;
1067:../Peripheral/src/ch32v30x_can.c **** 
1068:../Peripheral/src/ch32v30x_can.c ****             case CAN_IT_FOV1:
1069:../Peripheral/src/ch32v30x_can.c ****                 itstatus = CheckITStatus(CANx->RFIFO1, CAN_RFIFO1_FOVR1);
1070:../Peripheral/src/ch32v30x_can.c ****                 break;
1071:../Peripheral/src/ch32v30x_can.c **** 
1072:../Peripheral/src/ch32v30x_can.c ****             case CAN_IT_WKU:
1073:../Peripheral/src/ch32v30x_can.c ****                 itstatus = CheckITStatus(CANx->STATR, CAN_STATR_WKUI);
1074:../Peripheral/src/ch32v30x_can.c ****                 break;
1075:../Peripheral/src/ch32v30x_can.c **** 
1076:../Peripheral/src/ch32v30x_can.c ****             case CAN_IT_SLK:
1077:../Peripheral/src/ch32v30x_can.c ****                 itstatus = CheckITStatus(CANx->STATR, CAN_STATR_SLAKI);
1078:../Peripheral/src/ch32v30x_can.c ****                 break;
1079:../Peripheral/src/ch32v30x_can.c **** 
1080:../Peripheral/src/ch32v30x_can.c ****             case CAN_IT_EWG:
1081:../Peripheral/src/ch32v30x_can.c ****                 itstatus = CheckITStatus(CANx->ERRSR, CAN_ERRSR_EWGF);
1082:../Peripheral/src/ch32v30x_can.c ****                 break;
1083:../Peripheral/src/ch32v30x_can.c **** 
1084:../Peripheral/src/ch32v30x_can.c ****             case CAN_IT_EPV:
1085:../Peripheral/src/ch32v30x_can.c ****                 itstatus = CheckITStatus(CANx->ERRSR, CAN_ERRSR_EPVF);
1086:../Peripheral/src/ch32v30x_can.c ****                 break;
1087:../Peripheral/src/ch32v30x_can.c **** 
1088:../Peripheral/src/ch32v30x_can.c ****             case CAN_IT_BOF:
1089:../Peripheral/src/ch32v30x_can.c ****                 itstatus = CheckITStatus(CANx->ERRSR, CAN_ERRSR_BOFF);
1090:../Peripheral/src/ch32v30x_can.c ****                 break;
1091:../Peripheral/src/ch32v30x_can.c **** 
1092:../Peripheral/src/ch32v30x_can.c ****             case CAN_IT_LEC:
1093:../Peripheral/src/ch32v30x_can.c ****                 itstatus = CheckITStatus(CANx->ERRSR, CAN_ERRSR_LEC);
1094:../Peripheral/src/ch32v30x_can.c ****                 break;
1095:../Peripheral/src/ch32v30x_can.c **** 
1096:../Peripheral/src/ch32v30x_can.c ****             case CAN_IT_ERR:
1097:../Peripheral/src/ch32v30x_can.c ****                 itstatus = CheckITStatus(CANx->STATR, CAN_STATR_ERRI);
1098:../Peripheral/src/ch32v30x_can.c ****                 break;
1099:../Peripheral/src/ch32v30x_can.c **** 
1100:../Peripheral/src/ch32v30x_can.c ****             default:
1101:../Peripheral/src/ch32v30x_can.c ****                 itstatus = RESET;
1102:../Peripheral/src/ch32v30x_can.c ****                 break;
1103:../Peripheral/src/ch32v30x_can.c ****         }
1104:../Peripheral/src/ch32v30x_can.c ****     }
1105:../Peripheral/src/ch32v30x_can.c ****     else
1106:../Peripheral/src/ch32v30x_can.c ****     {
1107:../Peripheral/src/ch32v30x_can.c ****         itstatus = RESET;
1108:../Peripheral/src/ch32v30x_can.c ****     }
1109:../Peripheral/src/ch32v30x_can.c **** 
1110:../Peripheral/src/ch32v30x_can.c ****     return itstatus;
1111:../Peripheral/src/ch32v30x_can.c **** }
1112:../Peripheral/src/ch32v30x_can.c **** 
1113:../Peripheral/src/ch32v30x_can.c **** /*********************************************************************
1114:../Peripheral/src/ch32v30x_can.c ****  * @fn      CAN_ClearITPendingBit
1115:../Peripheral/src/ch32v30x_can.c ****  *
1116:../Peripheral/src/ch32v30x_can.c ****  * @brief   Clears the CANx's interrupt pending bits.
1117:../Peripheral/src/ch32v30x_can.c ****  *
1118:../Peripheral/src/ch32v30x_can.c ****  * @param   CANx - where x can be 1 to select the CAN peripheral.
1119:../Peripheral/src/ch32v30x_can.c ****  *          CAN_IT - specifies the interrupt pending bit to clear.
1120:../Peripheral/src/ch32v30x_can.c ****  *            CAN_IT_TME.
1121:../Peripheral/src/ch32v30x_can.c ****  *            CAN_IT_FF0.
1122:../Peripheral/src/ch32v30x_can.c ****  *            CAN_IT_FOV0.
1123:../Peripheral/src/ch32v30x_can.c ****  *            CAN_IT_FF1.
1124:../Peripheral/src/ch32v30x_can.c ****  *            CAN_IT_FOV1.
1125:../Peripheral/src/ch32v30x_can.c ****  *            CAN_IT_WKU.
1126:../Peripheral/src/ch32v30x_can.c ****  *            CAN_IT_SLK.
1127:../Peripheral/src/ch32v30x_can.c ****  *            CAN_IT_EWG.
1128:../Peripheral/src/ch32v30x_can.c ****  *            CAN_IT_EPV.
1129:../Peripheral/src/ch32v30x_can.c ****  *            CAN_IT_BOF.
1130:../Peripheral/src/ch32v30x_can.c ****  *            CAN_IT_LEC.
1131:../Peripheral/src/ch32v30x_can.c ****  *            CAN_IT_ERR.
1132:../Peripheral/src/ch32v30x_can.c ****  *
1133:../Peripheral/src/ch32v30x_can.c ****  * @return  none
1134:../Peripheral/src/ch32v30x_can.c ****  */
1135:../Peripheral/src/ch32v30x_can.c **** void CAN_ClearITPendingBit(CAN_TypeDef *CANx, uint32_t CAN_IT)
1136:../Peripheral/src/ch32v30x_can.c **** {
1137:../Peripheral/src/ch32v30x_can.c ****     switch(CAN_IT)
1138:../Peripheral/src/ch32v30x_can.c ****     {
1139:../Peripheral/src/ch32v30x_can.c ****         case CAN_IT_TME:
1140:../Peripheral/src/ch32v30x_can.c ****             CANx->TSTATR = CAN_TSTATR_RQCP0 | CAN_TSTATR_RQCP1 | CAN_TSTATR_RQCP2;
1141:../Peripheral/src/ch32v30x_can.c ****             break;
1142:../Peripheral/src/ch32v30x_can.c **** 
1143:../Peripheral/src/ch32v30x_can.c ****         case CAN_IT_FF0:
1144:../Peripheral/src/ch32v30x_can.c ****             CANx->RFIFO0 = CAN_RFIFO0_FULL0;
1145:../Peripheral/src/ch32v30x_can.c ****             break;
1146:../Peripheral/src/ch32v30x_can.c **** 
1147:../Peripheral/src/ch32v30x_can.c ****         case CAN_IT_FOV0:
1148:../Peripheral/src/ch32v30x_can.c ****             CANx->RFIFO0 = CAN_RFIFO0_FOVR0;
1149:../Peripheral/src/ch32v30x_can.c ****             break;
1150:../Peripheral/src/ch32v30x_can.c **** 
1151:../Peripheral/src/ch32v30x_can.c ****         case CAN_IT_FF1:
1152:../Peripheral/src/ch32v30x_can.c ****             CANx->RFIFO1 = CAN_RFIFO1_FULL1;
1153:../Peripheral/src/ch32v30x_can.c ****             break;
1154:../Peripheral/src/ch32v30x_can.c **** 
1155:../Peripheral/src/ch32v30x_can.c ****         case CAN_IT_FOV1:
1156:../Peripheral/src/ch32v30x_can.c ****             CANx->RFIFO1 = CAN_RFIFO1_FOVR1;
1157:../Peripheral/src/ch32v30x_can.c ****             break;
1158:../Peripheral/src/ch32v30x_can.c **** 
1159:../Peripheral/src/ch32v30x_can.c ****         case CAN_IT_WKU:
1160:../Peripheral/src/ch32v30x_can.c ****             CANx->STATR = CAN_STATR_WKUI;
1161:../Peripheral/src/ch32v30x_can.c ****             break;
1162:../Peripheral/src/ch32v30x_can.c **** 
1163:../Peripheral/src/ch32v30x_can.c ****         case CAN_IT_SLK:
1164:../Peripheral/src/ch32v30x_can.c ****             CANx->STATR = CAN_STATR_SLAKI;
1165:../Peripheral/src/ch32v30x_can.c ****             break;
1166:../Peripheral/src/ch32v30x_can.c **** 
1167:../Peripheral/src/ch32v30x_can.c ****         case CAN_IT_EWG:
1168:../Peripheral/src/ch32v30x_can.c ****             CANx->STATR = CAN_STATR_ERRI;
1169:../Peripheral/src/ch32v30x_can.c ****             break;
1170:../Peripheral/src/ch32v30x_can.c **** 
1171:../Peripheral/src/ch32v30x_can.c ****         case CAN_IT_EPV:
1172:../Peripheral/src/ch32v30x_can.c ****             CANx->STATR = CAN_STATR_ERRI;
1173:../Peripheral/src/ch32v30x_can.c ****             break;
1174:../Peripheral/src/ch32v30x_can.c **** 
1175:../Peripheral/src/ch32v30x_can.c ****         case CAN_IT_BOF:
1176:../Peripheral/src/ch32v30x_can.c ****             CANx->STATR = CAN_STATR_ERRI;
1177:../Peripheral/src/ch32v30x_can.c ****             break;
1178:../Peripheral/src/ch32v30x_can.c **** 
1179:../Peripheral/src/ch32v30x_can.c ****         case CAN_IT_LEC:
1180:../Peripheral/src/ch32v30x_can.c ****             CANx->ERRSR = RESET;
1181:../Peripheral/src/ch32v30x_can.c ****             CANx->STATR = CAN_STATR_ERRI;
1182:../Peripheral/src/ch32v30x_can.c ****             break;
1183:../Peripheral/src/ch32v30x_can.c **** 
1184:../Peripheral/src/ch32v30x_can.c ****         case CAN_IT_ERR:
1185:../Peripheral/src/ch32v30x_can.c ****             CANx->ERRSR = RESET;
1186:../Peripheral/src/ch32v30x_can.c ****             CANx->STATR = CAN_STATR_ERRI;
1187:../Peripheral/src/ch32v30x_can.c ****             break;
1188:../Peripheral/src/ch32v30x_can.c **** 
1189:../Peripheral/src/ch32v30x_can.c ****         default:
1190:../Peripheral/src/ch32v30x_can.c ****             break;
1191:../Peripheral/src/ch32v30x_can.c ****     }
1192:../Peripheral/src/ch32v30x_can.c **** }
1193:../Peripheral/src/ch32v30x_can.c **** 
1194:../Peripheral/src/ch32v30x_can.c **** /*********************************************************************
1195:../Peripheral/src/ch32v30x_can.c ****  * @fn      CheckITStatus
1196:../Peripheral/src/ch32v30x_can.c ****  *
1197:../Peripheral/src/ch32v30x_can.c ****  * @brief   Checks whether the CAN interrupt has occurred or not.
1198:../Peripheral/src/ch32v30x_can.c ****  *
1199:../Peripheral/src/ch32v30x_can.c ****  * @param   CAN_Reg - specifies the CAN interrupt register to check
1200:../Peripheral/src/ch32v30x_can.c ****  *          It_Bit - specifies the interrupt source bit to check.
1201:../Peripheral/src/ch32v30x_can.c ****  *
1202:../Peripheral/src/ch32v30x_can.c ****  * @return  ITStatus - SET or RESET.
1203:../Peripheral/src/ch32v30x_can.c ****  */
1204:../Peripheral/src/ch32v30x_can.c **** static ITStatus CheckITStatus(uint32_t CAN_Reg, uint32_t It_Bit)
1205:../Peripheral/src/ch32v30x_can.c **** {
1206:../Peripheral/src/ch32v30x_can.c ****     ITStatus pendingbitstatus = RESET;
1207:../Peripheral/src/ch32v30x_can.c **** 
1208:../Peripheral/src/ch32v30x_can.c ****     if((CAN_Reg & It_Bit) != (uint32_t)RESET)
1209:../Peripheral/src/ch32v30x_can.c ****     {
1210:../Peripheral/src/ch32v30x_can.c ****         pendingbitstatus = SET;
1211:../Peripheral/src/ch32v30x_can.c ****     }
1212:../Peripheral/src/ch32v30x_can.c ****     else
1213:../Peripheral/src/ch32v30x_can.c ****     {
1214:../Peripheral/src/ch32v30x_can.c ****         pendingbitstatus = RESET;
 1718              		.loc 1 1214 26 is_stmt 0
 1719 0032 0145     		li	a0,0
 1720 0034 8280     		ret
 1721              	.L146:
 1722              	.LBE31:
 1723              	.LBE30:
1042:../Peripheral/src/ch32v30x_can.c ****         {
 1724              		.loc 1 1042 9
 1725 0036 93070002 		li	a5,32
 1726 003a 6389F506 		beq	a1,a5,.L150
 1727 003e 93070004 		li	a5,64
 1728 0042 6387F506 		beq	a1,a5,.L151
 1729 0046 C147     		li	a5,16
 1730 0048 E395F5FE 		bne	a1,a5,.L168
1061:../Peripheral/src/ch32v30x_can.c ****                 break;
 1731              		.loc 1 1061 17 is_stmt 1
1061:../Peripheral/src/ch32v30x_can.c ****                 break;
 1732              		.loc 1 1061 46 is_stmt 0
 1733 004c 084B     		lw	a0,16(a4)
 1734 004e B1A0     		j	.L169
 1735              	.L144:
1042:../Peripheral/src/ch32v30x_can.c ****         {
 1736              		.loc 1 1042 9
 1737 0050 A167     		li	a5,32768
 1738 0052 638CF506 		beq	a1,a5,.L153
 1739 0056 63E0B702 		bgtu	a1,a5,.L154
 1740 005a 93070040 		li	a5,1024
 1741 005e 638FF504 		beq	a1,a5,.L155
 1742 0062 93870580 		addi	a5,a1,-2048
 1743 0066 B1CF     		beq	a5,zero,.L156
 1744 0068 93070020 		li	a5,512
 1745 006c E393F5FC 		bne	a1,a5,.L168
1085:../Peripheral/src/ch32v30x_can.c ****                 break;
 1746              		.loc 1 1085 17 is_stmt 1
1085:../Peripheral/src/ch32v30x_can.c ****                 break;
 1747              		.loc 1 1085 46 is_stmt 0
 1748 0070 084F     		lw	a0,24(a4)
 1749              	.LVL114:
 1750              	.LBB33:
 1751              	.LBB34:
1206:../Peripheral/src/ch32v30x_can.c **** 
 1752              		.loc 1 1206 5 is_stmt 1
1208:../Peripheral/src/ch32v30x_can.c ****     {
 1753              		.loc 1 1208 5
1208:../Peripheral/src/ch32v30x_can.c ****     {
 1754              		.loc 1 1208 7 is_stmt 0
 1755 0072 0581     		srli	a0,a0,1
 1756              	.LVL115:
 1757 0074 3DA0     		j	.L166
 1758              	.LVL116:
 1759              	.L154:
 1760              	.LBE34:
 1761              	.LBE33:
1042:../Peripheral/src/ch32v30x_can.c ****         {
 1762              		.loc 1 1042 9
 1763 0076 C167     		li	a5,65536
 1764 0078 638EF502 		beq	a1,a5,.L158
 1765 007c B7070200 		li	a5,131072
 1766 0080 E399F5FA 		bne	a1,a5,.L168
1077:../Peripheral/src/ch32v30x_can.c ****                 break;
 1767              		.loc 1 1077 17 is_stmt 1
1077:../Peripheral/src/ch32v30x_can.c ****                 break;
 1768              		.loc 1 1077 46 is_stmt 0
 1769 0084 4843     		lw	a0,4(a4)
 1770 0086 0DA0     		j	.L170
 1771              	.L149:
1045:../Peripheral/src/ch32v30x_can.c ****                 break;
 1772              		.loc 1 1045 17 is_stmt 1
1045:../Peripheral/src/ch32v30x_can.c ****                 break;
 1773              		.loc 1 1045 46 is_stmt 0
 1774 0088 0847     		lw	a0,8(a4)
 1775              	.LVL117:
 1776              	.LBB35:
 1777              	.LBB36:
1206:../Peripheral/src/ch32v30x_can.c **** 
 1778              		.loc 1 1206 5 is_stmt 1
1208:../Peripheral/src/ch32v30x_can.c ****     {
 1779              		.loc 1 1208 5
1208:../Peripheral/src/ch32v30x_can.c ****     {
 1780              		.loc 1 1208 17 is_stmt 0
 1781 008a C167     		li	a5,65536
 1782 008c 93871710 		addi	a5,a5,257
 1783 0090 7D8D     		and	a0,a0,a5
 1784              	.LVL118:
 1785              	.L167:
 1786              	.LBE36:
 1787              	.LBE35:
 1788              	.LBB37:
 1789              	.LBB38:
1208:../Peripheral/src/ch32v30x_can.c ****     {
 1790              		.loc 1 1208 7
 1791 0092 3335A000 		snez	a0,a0
 1792 0096 8280     		ret
 1793              	.L147:
 1794              	.LBE38:
 1795              	.LBE37:
1049:../Peripheral/src/ch32v30x_can.c ****                 break;
 1796              		.loc 1 1049 17 is_stmt 1
1049:../Peripheral/src/ch32v30x_can.c ****                 break;
 1797              		.loc 1 1049 46 is_stmt 0
 1798 0098 4847     		lw	a0,12(a4)
 1799              	.LVL119:
 1800              	.LBB40:
 1801              	.LBB32:
1206:../Peripheral/src/ch32v30x_can.c **** 
 1802              		.loc 1 1206 5 is_stmt 1
1208:../Peripheral/src/ch32v30x_can.c ****     {
 1803              		.loc 1 1208 5
 1804              	.L169:
 1805              	.LBE32:
 1806              	.LBE40:
 1807              	.LBB41:
 1808              	.LBB42:
1206:../Peripheral/src/ch32v30x_can.c **** 
 1809              		.loc 1 1206 5
1208:../Peripheral/src/ch32v30x_can.c ****     {
 1810              		.loc 1 1208 5
1208:../Peripheral/src/ch32v30x_can.c ****     {
 1811              		.loc 1 1208 17 is_stmt 0
 1812 009a 0D89     		andi	a0,a0,3
 1813              	.LVL120:
 1814 009c DDBF     		j	.L167
 1815              	.LVL121:
 1816              	.L148:
 1817              	.LBE42:
 1818              	.LBE41:
1053:../Peripheral/src/ch32v30x_can.c ****                 break;
 1819              		.loc 1 1053 17 is_stmt 1
1053:../Peripheral/src/ch32v30x_can.c ****                 break;
 1820              		.loc 1 1053 46 is_stmt 0
 1821 009e 4847     		lw	a0,12(a4)
 1822              	.LVL122:
 1823              	.LBB43:
 1824              	.LBB44:
1206:../Peripheral/src/ch32v30x_can.c **** 
 1825              		.loc 1 1206 5 is_stmt 1
1208:../Peripheral/src/ch32v30x_can.c ****     {
 1826              		.loc 1 1208 5
 1827              	.L171:
 1828              	.LBE44:
 1829              	.LBE43:
 1830              	.LBB45:
 1831              	.LBB46:
1206:../Peripheral/src/ch32v30x_can.c **** 
 1832              		.loc 1 1206 5
1208:../Peripheral/src/ch32v30x_can.c ****     {
 1833              		.loc 1 1208 5
1208:../Peripheral/src/ch32v30x_can.c ****     {
 1834              		.loc 1 1208 7 is_stmt 0
 1835 00a0 0D81     		srli	a0,a0,3
 1836              	.LVL123:
 1837              	.L166:
 1838              	.LBE46:
 1839              	.LBE45:
 1840              	.LBB47:
 1841              	.LBB48:
 1842 00a2 0589     		andi	a0,a0,1
 1843              	.LVL124:
 1844              	.LBE48:
 1845              	.LBE47:
1110:../Peripheral/src/ch32v30x_can.c **** }
 1846              		.loc 1 1110 5 is_stmt 1
 1847              	.L141:
1111:../Peripheral/src/ch32v30x_can.c **** 
 1848              		.loc 1 1111 1 is_stmt 0
 1849 00a4 8280     		ret
 1850              	.LVL125:
 1851              	.L145:
1057:../Peripheral/src/ch32v30x_can.c ****                 break;
 1852              		.loc 1 1057 17 is_stmt 1
1057:../Peripheral/src/ch32v30x_can.c ****                 break;
 1853              		.loc 1 1057 46 is_stmt 0
 1854 00a6 4847     		lw	a0,12(a4)
 1855              	.LVL126:
 1856              	.LBB50:
 1857              	.LBB51:
1206:../Peripheral/src/ch32v30x_can.c **** 
 1858              		.loc 1 1206 5 is_stmt 1
1208:../Peripheral/src/ch32v30x_can.c ****     {
 1859              		.loc 1 1208 5
 1860              	.L170:
 1861              	.LBE51:
 1862              	.LBE50:
 1863              	.LBB52:
 1864              	.LBB53:
1206:../Peripheral/src/ch32v30x_can.c **** 
 1865              		.loc 1 1206 5
1208:../Peripheral/src/ch32v30x_can.c ****     {
 1866              		.loc 1 1208 5
1208:../Peripheral/src/ch32v30x_can.c ****     {
 1867              		.loc 1 1208 7 is_stmt 0
 1868 00a8 1181     		srli	a0,a0,4
 1869              	.LVL127:
 1870 00aa E5BF     		j	.L166
 1871              	.LVL128:
 1872              	.L150:
 1873              	.LBE53:
 1874              	.LBE52:
1065:../Peripheral/src/ch32v30x_can.c ****                 break;
 1875              		.loc 1 1065 17 is_stmt 1
1065:../Peripheral/src/ch32v30x_can.c ****                 break;
 1876              		.loc 1 1065 46 is_stmt 0
 1877 00ac 084B     		lw	a0,16(a4)
 1878              	.LVL129:
 1879              	.LBB54:
 1880              	.LBB55:
1206:../Peripheral/src/ch32v30x_can.c **** 
 1881              		.loc 1 1206 5 is_stmt 1
1208:../Peripheral/src/ch32v30x_can.c ****     {
 1882              		.loc 1 1208 5
 1883 00ae CDBF     		j	.L171
 1884              	.LVL130:
 1885              	.L151:
 1886              	.LBE55:
 1887              	.LBE54:
1069:../Peripheral/src/ch32v30x_can.c ****                 break;
 1888              		.loc 1 1069 17
1069:../Peripheral/src/ch32v30x_can.c ****                 break;
 1889              		.loc 1 1069 46 is_stmt 0
 1890 00b0 084B     		lw	a0,16(a4)
 1891              	.LVL131:
 1892              	.LBB56:
 1893              	.LBB57:
1206:../Peripheral/src/ch32v30x_can.c **** 
 1894              		.loc 1 1206 5 is_stmt 1
1208:../Peripheral/src/ch32v30x_can.c ****     {
 1895              		.loc 1 1208 5
 1896 00b2 DDBF     		j	.L170
 1897              	.LVL132:
 1898              	.L158:
 1899              	.LBE57:
 1900              	.LBE56:
1073:../Peripheral/src/ch32v30x_can.c ****                 break;
 1901              		.loc 1 1073 17
1073:../Peripheral/src/ch32v30x_can.c ****                 break;
 1902              		.loc 1 1073 46 is_stmt 0
 1903 00b4 4843     		lw	a0,4(a4)
 1904 00b6 EDB7     		j	.L171
 1905              	.L143:
1081:../Peripheral/src/ch32v30x_can.c ****                 break;
 1906              		.loc 1 1081 17 is_stmt 1
1081:../Peripheral/src/ch32v30x_can.c ****                 break;
 1907              		.loc 1 1081 46 is_stmt 0
 1908 00b8 084F     		lw	a0,24(a4)
 1909              	.LVL133:
 1910              	.LBB58:
 1911              	.LBB59:
1206:../Peripheral/src/ch32v30x_can.c **** 
 1912              		.loc 1 1206 5 is_stmt 1
1208:../Peripheral/src/ch32v30x_can.c ****     {
 1913              		.loc 1 1208 5
 1914 00ba E5B7     		j	.L166
 1915              	.LVL134:
 1916              	.L155:
 1917              	.LBE59:
 1918              	.LBE58:
1089:../Peripheral/src/ch32v30x_can.c ****                 break;
 1919              		.loc 1 1089 17
1089:../Peripheral/src/ch32v30x_can.c ****                 break;
 1920              		.loc 1 1089 46 is_stmt 0
 1921 00bc 084F     		lw	a0,24(a4)
 1922              	.LVL135:
 1923              	.LBB60:
 1924              	.LBB61:
1206:../Peripheral/src/ch32v30x_can.c **** 
 1925              		.loc 1 1206 5 is_stmt 1
1208:../Peripheral/src/ch32v30x_can.c ****     {
 1926              		.loc 1 1208 5
 1927              	.L165:
 1928              	.LBE61:
 1929              	.LBE60:
 1930              	.LBB62:
 1931              	.LBB49:
1206:../Peripheral/src/ch32v30x_can.c **** 
 1932              		.loc 1 1206 5
1208:../Peripheral/src/ch32v30x_can.c ****     {
 1933              		.loc 1 1208 5
1208:../Peripheral/src/ch32v30x_can.c ****     {
 1934              		.loc 1 1208 7 is_stmt 0
 1935 00be 0981     		srli	a0,a0,2
 1936              	.LVL136:
 1937 00c0 CDB7     		j	.L166
 1938              	.LVL137:
 1939              	.L156:
 1940              	.LBE49:
 1941              	.LBE62:
1093:../Peripheral/src/ch32v30x_can.c ****                 break;
 1942              		.loc 1 1093 17 is_stmt 1
1093:../Peripheral/src/ch32v30x_can.c ****                 break;
 1943              		.loc 1 1093 46 is_stmt 0
 1944 00c2 084F     		lw	a0,24(a4)
 1945              	.LVL138:
 1946              	.LBB63:
 1947              	.LBB39:
1206:../Peripheral/src/ch32v30x_can.c **** 
 1948              		.loc 1 1206 5 is_stmt 1
1208:../Peripheral/src/ch32v30x_can.c ****     {
 1949              		.loc 1 1208 5
1208:../Peripheral/src/ch32v30x_can.c ****     {
 1950              		.loc 1 1208 17 is_stmt 0
 1951 00c4 13750507 		andi	a0,a0,112
 1952              	.LVL139:
 1953 00c8 E9B7     		j	.L167
 1954              	.LVL140:
 1955              	.L153:
 1956              	.LBE39:
 1957              	.LBE63:
1097:../Peripheral/src/ch32v30x_can.c ****                 break;
 1958              		.loc 1 1097 17 is_stmt 1
1097:../Peripheral/src/ch32v30x_can.c ****                 break;
 1959              		.loc 1 1097 46 is_stmt 0
 1960 00ca 4843     		lw	a0,4(a4)
 1961 00cc CDBF     		j	.L165
 1962              		.cfi_endproc
 1963              	.LFE51:
 1965              		.section	.text.CAN_ClearITPendingBit,"ax",@progbits
 1966              		.align	1
 1967              		.globl	CAN_ClearITPendingBit
 1969              	CAN_ClearITPendingBit:
 1970              	.LFB52:
1136:../Peripheral/src/ch32v30x_can.c ****     switch(CAN_IT)
 1971              		.loc 1 1136 1 is_stmt 1
 1972              		.cfi_startproc
 1973              	.LVL141:
1137:../Peripheral/src/ch32v30x_can.c ****     {
 1974              		.loc 1 1137 5
 1975 0000 93070020 		li	a5,512
 1976 0004 6388F508 		beq	a1,a5,.L190
 1977 0008 63EBB702 		bgtu	a1,a5,.L174
 1978 000c 93070002 		li	a5,32
 1979 0010 6386F506 		beq	a1,a5,.L175
 1980 0014 63ECB700 		bgtu	a1,a5,.L176
 1981 0018 9147     		li	a5,4
 1982 001a 638CF504 		beq	a1,a5,.L177
 1983 001e A147     		li	a5,8
 1984 0020 638CF504 		beq	a1,a5,.L178
 1985 0024 8547     		li	a5,1
 1986 0026 6381F504 		beq	a1,a5,.L179
 1987 002a 8280     		ret
 1988              	.L176:
 1989 002c 93070004 		li	a5,64
 1990 0030 6389F504 		beq	a1,a5,.L181
 1991 0034 93070010 		li	a5,256
 1992 0038 638EF504 		beq	a1,a5,.L190
 1993 003c 8280     		ret
 1994              	.L174:
 1995 003e A167     		li	a5,32768
 1996 0040 6388F504 		beq	a1,a5,.L183
 1997 0044 63EAB700 		bgtu	a1,a5,.L184
 1998 0048 93070040 		li	a5,1024
 1999 004c 6384F504 		beq	a1,a5,.L190
 2000 0050 93850580 		addi	a1,a1,-2048
 2001              	.LVL142:
 2002 0054 95CD     		beq	a1,zero,.L183
 2003 0056 8280     		ret
 2004              	.LVL143:
 2005              	.L184:
 2006 0058 C167     		li	a5,65536
 2007 005a 6386F502 		beq	a1,a5,.L187
 2008 005e B7070200 		li	a5,131072
 2009 0062 6385F502 		beq	a1,a5,.L188
 2010 0066 8280     		ret
 2011              	.L179:
1140:../Peripheral/src/ch32v30x_can.c ****             break;
 2012              		.loc 1 1140 13
1140:../Peripheral/src/ch32v30x_can.c ****             break;
 2013              		.loc 1 1140 26 is_stmt 0
 2014 0068 C167     		li	a5,65536
 2015 006a 93871710 		addi	a5,a5,257
 2016 006e 1CC5     		sw	a5,8(a0)
1141:../Peripheral/src/ch32v30x_can.c **** 
 2017              		.loc 1 1141 13 is_stmt 1
 2018 0070 8280     		ret
 2019              	.L177:
1144:../Peripheral/src/ch32v30x_can.c ****             break;
 2020              		.loc 1 1144 13
1144:../Peripheral/src/ch32v30x_can.c ****             break;
 2021              		.loc 1 1144 26 is_stmt 0
 2022 0072 A147     		li	a5,8
 2023              	.L189:
1148:../Peripheral/src/ch32v30x_can.c ****             break;
 2024              		.loc 1 1148 26
 2025 0074 5CC5     		sw	a5,12(a0)
1149:../Peripheral/src/ch32v30x_can.c **** 
 2026              		.loc 1 1149 13 is_stmt 1
 2027 0076 8280     		ret
 2028              	.L178:
1148:../Peripheral/src/ch32v30x_can.c ****             break;
 2029              		.loc 1 1148 13
1148:../Peripheral/src/ch32v30x_can.c ****             break;
 2030              		.loc 1 1148 26 is_stmt 0
 2031 0078 C147     		li	a5,16
 2032 007a EDBF     		j	.L189
 2033              	.L175:
1152:../Peripheral/src/ch32v30x_can.c ****             break;
 2034              		.loc 1 1152 13 is_stmt 1
1152:../Peripheral/src/ch32v30x_can.c ****             break;
 2035              		.loc 1 1152 26 is_stmt 0
 2036 007c A147     		li	a5,8
 2037              	.L192:
1156:../Peripheral/src/ch32v30x_can.c ****             break;
 2038              		.loc 1 1156 26
 2039 007e 1CC9     		sw	a5,16(a0)
1157:../Peripheral/src/ch32v30x_can.c **** 
 2040              		.loc 1 1157 13 is_stmt 1
 2041 0080 8280     		ret
 2042              	.L181:
1156:../Peripheral/src/ch32v30x_can.c ****             break;
 2043              		.loc 1 1156 13
1156:../Peripheral/src/ch32v30x_can.c ****             break;
 2044              		.loc 1 1156 26 is_stmt 0
 2045 0082 C147     		li	a5,16
 2046 0084 EDBF     		j	.L192
 2047              	.L187:
1160:../Peripheral/src/ch32v30x_can.c ****             break;
 2048              		.loc 1 1160 13 is_stmt 1
1160:../Peripheral/src/ch32v30x_can.c ****             break;
 2049              		.loc 1 1160 25 is_stmt 0
 2050 0086 A147     		li	a5,8
 2051              	.LVL144:
 2052              	.L191:
1186:../Peripheral/src/ch32v30x_can.c ****             break;
 2053              		.loc 1 1186 25
 2054 0088 5CC1     		sw	a5,4(a0)
1187:../Peripheral/src/ch32v30x_can.c **** 
 2055              		.loc 1 1187 13 is_stmt 1
1192:../Peripheral/src/ch32v30x_can.c **** 
 2056              		.loc 1 1192 1 is_stmt 0
 2057 008a 8280     		ret
 2058              	.LVL145:
 2059              	.L188:
1164:../Peripheral/src/ch32v30x_can.c ****             break;
 2060              		.loc 1 1164 13 is_stmt 1
1164:../Peripheral/src/ch32v30x_can.c ****             break;
 2061              		.loc 1 1164 25 is_stmt 0
 2062 008c C147     		li	a5,16
 2063 008e EDBF     		j	.L191
 2064              	.LVL146:
 2065              	.L183:
1185:../Peripheral/src/ch32v30x_can.c ****             CANx->STATR = CAN_STATR_ERRI;
 2066              		.loc 1 1185 13 is_stmt 1
1185:../Peripheral/src/ch32v30x_can.c ****             CANx->STATR = CAN_STATR_ERRI;
 2067              		.loc 1 1185 25 is_stmt 0
 2068 0090 232C0500 		sw	zero,24(a0)
 2069              	.L190:
1186:../Peripheral/src/ch32v30x_can.c ****             break;
 2070              		.loc 1 1186 13 is_stmt 1
1186:../Peripheral/src/ch32v30x_can.c ****             break;
 2071              		.loc 1 1186 25 is_stmt 0
 2072 0094 9147     		li	a5,4
 2073 0096 CDBF     		j	.L191
 2074              		.cfi_endproc
 2075              	.LFE52:
 2077              		.text
 2078              	.Letext0:
 2079              		.file 2 "d:\\software\\mounriver_studio\\toolchain\\risc-v embedded gcc12\\riscv-none-elf\\include
 2080              		.file 3 "d:\\software\\mounriver_studio\\toolchain\\risc-v embedded gcc12\\riscv-none-elf\\include
 2081              		.file 4 "C:\\Users\\localhost\\Documents\\turbomoskal-repo\\qqexpert\\firmware\\MasterController\\
 2082              		.file 5 "C:\\Users\\localhost\\Documents\\turbomoskal-repo\\qqexpert\\firmware\\MasterController\\
 2083              		.file 6 "C:\\Users\\localhost\\Documents\\turbomoskal-repo\\qqexpert\\firmware\\MasterController\\
 2084              		.file 7 "C:\\Users\\localhost\\Documents\\turbomoskal-repo\\qqexpert\\firmware\\MasterController\\