   1              		.file	"ch32v30x_rtc.c"
   2              		.option nopic
   3              		.attribute arch, "rv32i2p0_m2p0_a2p0_f2p0_c2p0_xw"
   4              		.attribute unaligned_access, 0
   5              		.attribute stack_align, 16
   6              		.text
   7              	.Ltext0:
   8              		.cfi_sections	.debug_frame
   9              		.file 0 "C:\\Users\\localhost\\Documents\\turbomoskal-repo\\qqexpert\\firmware\\MasterController\\
  10              		.section	.text.RTC_ITConfig,"ax",@progbits
  11              		.align	1
  12              		.globl	RTC_ITConfig
  14              	RTC_ITConfig:
  15              	.LFB29:
  16              		.file 1 "../Peripheral/src/ch32v30x_rtc.c"
   1:../Peripheral/src/ch32v30x_rtc.c **** /********************************** (C) COPYRIGHT *******************************
   2:../Peripheral/src/ch32v30x_rtc.c **** * File Name          : ch32v30x_rtc.c
   3:../Peripheral/src/ch32v30x_rtc.c **** * Author             : WCH
   4:../Peripheral/src/ch32v30x_rtc.c **** * Version            : V1.0.0
   5:../Peripheral/src/ch32v30x_rtc.c **** * Date               : 2021/06/06
   6:../Peripheral/src/ch32v30x_rtc.c **** * Description        : This file provides all the RTC firmware functions.
   7:../Peripheral/src/ch32v30x_rtc.c **** *********************************************************************************
   8:../Peripheral/src/ch32v30x_rtc.c **** * Copyright (c) 2021 Nanjing Qinheng Microelectronics Co., Ltd.
   9:../Peripheral/src/ch32v30x_rtc.c **** * Attention: This software (modified or not) and binary are used for 
  10:../Peripheral/src/ch32v30x_rtc.c **** * microcontroller manufactured by Nanjing Qinheng Microelectronics.
  11:../Peripheral/src/ch32v30x_rtc.c **** *******************************************************************************/
  12:../Peripheral/src/ch32v30x_rtc.c **** #include "ch32v30x_rtc.h"
  13:../Peripheral/src/ch32v30x_rtc.c **** 
  14:../Peripheral/src/ch32v30x_rtc.c **** /* RTC_Private_Defines */
  15:../Peripheral/src/ch32v30x_rtc.c **** #define RTC_LSB_MASK     ((uint32_t)0x0000FFFF) /* RTC LSB Mask */
  16:../Peripheral/src/ch32v30x_rtc.c **** #define PRLH_MSB_MASK    ((uint32_t)0x000F0000) /* RTC Prescaler MSB Mask */
  17:../Peripheral/src/ch32v30x_rtc.c **** 
  18:../Peripheral/src/ch32v30x_rtc.c **** /*********************************************************************
  19:../Peripheral/src/ch32v30x_rtc.c ****  * @fn      RTC_ITConfig
  20:../Peripheral/src/ch32v30x_rtc.c ****  *
  21:../Peripheral/src/ch32v30x_rtc.c ****  * @brief   Enables or disables the specified RTC interrupts.
  22:../Peripheral/src/ch32v30x_rtc.c ****  *
  23:../Peripheral/src/ch32v30x_rtc.c ****  * @param   RTC_IT - specifies the RTC interrupts sources to be enabled or disabled.
  24:../Peripheral/src/ch32v30x_rtc.c ****  *            RTC_IT_OW - Overflow interrupt
  25:../Peripheral/src/ch32v30x_rtc.c ****  *            RTC_IT_ALR - Alarm interrupt
  26:../Peripheral/src/ch32v30x_rtc.c ****  *            RTC_IT_SEC - Second interrupt
  27:../Peripheral/src/ch32v30x_rtc.c ****  *
  28:../Peripheral/src/ch32v30x_rtc.c ****  * @return  NewState - new state of the specified RTC interrupts(ENABLE or DISABLE).
  29:../Peripheral/src/ch32v30x_rtc.c ****  */
  30:../Peripheral/src/ch32v30x_rtc.c **** void RTC_ITConfig(uint16_t RTC_IT, FunctionalState NewState)
  31:../Peripheral/src/ch32v30x_rtc.c **** {
  17              		.loc 1 31 1
  18              		.cfi_startproc
  19              	.LVL0:
  32:../Peripheral/src/ch32v30x_rtc.c ****     if(NewState != DISABLE)
  20              		.loc 1 32 5
  33:../Peripheral/src/ch32v30x_rtc.c ****     {
  34:../Peripheral/src/ch32v30x_rtc.c ****         RTC->CTLRH |= RTC_IT;
  21              		.loc 1 34 12 is_stmt 0
  22 0000 37370040 		li	a4,1073754112
  23 0004 83570780 		lhu	a5,-2048(a4)
  32:../Peripheral/src/ch32v30x_rtc.c ****     if(NewState != DISABLE)
  24              		.loc 1 32 7
  25 0008 89C5     		beq	a1,zero,.L2
  26              		.loc 1 34 9 is_stmt 1
  27              		.loc 1 34 20 is_stmt 0
  28 000a C98F     		or	a5,a5,a0
  29              	.LVL1:
  30              	.L4:
  35:../Peripheral/src/ch32v30x_rtc.c ****     }
  36:../Peripheral/src/ch32v30x_rtc.c ****     else
  37:../Peripheral/src/ch32v30x_rtc.c ****     {
  38:../Peripheral/src/ch32v30x_rtc.c ****         RTC->CTLRH &= (uint16_t)~RTC_IT;
  31              		.loc 1 38 20
  32 000c 2310F780 		sh	a5,-2048(a4)
  39:../Peripheral/src/ch32v30x_rtc.c ****     }
  40:../Peripheral/src/ch32v30x_rtc.c **** }
  33              		.loc 1 40 1
  34 0010 8280     		ret
  35              	.LVL2:
  36              	.L2:
  38:../Peripheral/src/ch32v30x_rtc.c ****     }
  37              		.loc 1 38 9 is_stmt 1
  38:../Peripheral/src/ch32v30x_rtc.c ****     }
  38              		.loc 1 38 23 is_stmt 0
  39 0012 1345F5FF 		not	a0,a0
  40              	.LVL3:
  38:../Peripheral/src/ch32v30x_rtc.c ****     }
  41              		.loc 1 38 20
  42 0016 E98F     		and	a5,a5,a0
  43 0018 D5BF     		j	.L4
  44              		.cfi_endproc
  45              	.LFE29:
  47              		.section	.text.RTC_EnterConfigMode,"ax",@progbits
  48              		.align	1
  49              		.globl	RTC_EnterConfigMode
  51              	RTC_EnterConfigMode:
  52              	.LFB30:
  41:../Peripheral/src/ch32v30x_rtc.c **** 
  42:../Peripheral/src/ch32v30x_rtc.c **** /*********************************************************************
  43:../Peripheral/src/ch32v30x_rtc.c ****  * @fn      RTC_EnterConfigMode
  44:../Peripheral/src/ch32v30x_rtc.c ****  *
  45:../Peripheral/src/ch32v30x_rtc.c ****  * @brief   Enters the RTC configuration mode.
  46:../Peripheral/src/ch32v30x_rtc.c ****  *
  47:../Peripheral/src/ch32v30x_rtc.c ****  * @return  none
  48:../Peripheral/src/ch32v30x_rtc.c ****  */
  49:../Peripheral/src/ch32v30x_rtc.c **** void RTC_EnterConfigMode(void)
  50:../Peripheral/src/ch32v30x_rtc.c **** {
  53              		.loc 1 50 1 is_stmt 1
  54              		.cfi_startproc
  51:../Peripheral/src/ch32v30x_rtc.c ****     RTC->CTLRL |= RTC_CTLRL_CNF;
  55              		.loc 1 51 5
  56              		.loc 1 51 8 is_stmt 0
  57 0000 B7370040 		li	a5,1073754112
  58 0004 03D74780 		lhu	a4,-2044(a5)
  59              		.loc 1 51 16
  60 0008 13670701 		ori	a4,a4,16
  61 000c 2392E780 		sh	a4,-2044(a5)
  52:../Peripheral/src/ch32v30x_rtc.c **** }
  62              		.loc 1 52 1
  63 0010 8280     		ret
  64              		.cfi_endproc
  65              	.LFE30:
  67              		.section	.text.RTC_ExitConfigMode,"ax",@progbits
  68              		.align	1
  69              		.globl	RTC_ExitConfigMode
  71              	RTC_ExitConfigMode:
  72              	.LFB31:
  53:../Peripheral/src/ch32v30x_rtc.c **** 
  54:../Peripheral/src/ch32v30x_rtc.c **** /*********************************************************************
  55:../Peripheral/src/ch32v30x_rtc.c ****  * @fn      RTC_ExitConfigMode
  56:../Peripheral/src/ch32v30x_rtc.c ****  *
  57:../Peripheral/src/ch32v30x_rtc.c ****  * @brief   Exits from the RTC configuration mode.
  58:../Peripheral/src/ch32v30x_rtc.c ****  *
  59:../Peripheral/src/ch32v30x_rtc.c ****  * @return  none
  60:../Peripheral/src/ch32v30x_rtc.c ****  */
  61:../Peripheral/src/ch32v30x_rtc.c **** void RTC_ExitConfigMode(void)
  62:../Peripheral/src/ch32v30x_rtc.c **** {
  73              		.loc 1 62 1 is_stmt 1
  74              		.cfi_startproc
  63:../Peripheral/src/ch32v30x_rtc.c ****     RTC->CTLRL &= (uint16_t) ~((uint16_t)RTC_CTLRL_CNF);
  75              		.loc 1 63 5
  76              		.loc 1 63 8 is_stmt 0
  77 0000 37370040 		li	a4,1073754112
  78 0004 83574780 		lhu	a5,-2044(a4)
  79 0008 C207     		slli	a5,a5,16
  80 000a C183     		srli	a5,a5,16
  81              		.loc 1 63 16
  82 000c BD9B     		andi	a5,a5,-17
  83 000e C207     		slli	a5,a5,16
  84 0010 C183     		srli	a5,a5,16
  85 0012 2312F780 		sh	a5,-2044(a4)
  64:../Peripheral/src/ch32v30x_rtc.c **** }
  86              		.loc 1 64 1
  87 0016 8280     		ret
  88              		.cfi_endproc
  89              	.LFE31:
  91              		.section	.text.RTC_GetCounter,"ax",@progbits
  92              		.align	1
  93              		.globl	RTC_GetCounter
  95              	RTC_GetCounter:
  96              	.LFB32:
  65:../Peripheral/src/ch32v30x_rtc.c **** 
  66:../Peripheral/src/ch32v30x_rtc.c **** /*********************************************************************
  67:../Peripheral/src/ch32v30x_rtc.c ****  * @fn      RTC_GetCounter
  68:../Peripheral/src/ch32v30x_rtc.c ****  *
  69:../Peripheral/src/ch32v30x_rtc.c ****  * @brief   Gets the RTC counter value
  70:../Peripheral/src/ch32v30x_rtc.c ****  *
  71:../Peripheral/src/ch32v30x_rtc.c ****  * @return  RTC counter value
  72:../Peripheral/src/ch32v30x_rtc.c ****  */
  73:../Peripheral/src/ch32v30x_rtc.c **** uint32_t RTC_GetCounter(void)
  74:../Peripheral/src/ch32v30x_rtc.c **** {
  97              		.loc 1 74 1 is_stmt 1
  98              		.cfi_startproc
  75:../Peripheral/src/ch32v30x_rtc.c ****     uint16_t high1a = 0, high1b = 0, high2a = 0, high2b = 0;
  99              		.loc 1 75 5
 100              	.LVL4:
  76:../Peripheral/src/ch32v30x_rtc.c ****     uint16_t low1 = 0, low2 = 0;
 101              		.loc 1 76 5
  77:../Peripheral/src/ch32v30x_rtc.c **** 
  78:../Peripheral/src/ch32v30x_rtc.c ****     do{
  79:../Peripheral/src/ch32v30x_rtc.c ****         high1a = RTC->CNTH;
 102              		.loc 1 79 16 is_stmt 0
 103 0000 B7370040 		li	a5,1073754112
 104 0004 93870780 		addi	a5,a5,-2048
 105              	.LVL5:
 106              	.L8:
  78:../Peripheral/src/ch32v30x_rtc.c ****         high1a = RTC->CNTH;
 107              		.loc 1 78 5 is_stmt 1 discriminator 1
 108              		.loc 1 79 9 discriminator 1
 109              		.loc 1 79 16 is_stmt 0 discriminator 1
 110 0008 962F     		lhu	a3,24(a5)
 111              	.LVL6:
  80:../Peripheral/src/ch32v30x_rtc.c ****         high1b = RTC->CNTH;
 112              		.loc 1 80 9 is_stmt 1 discriminator 1
 113              		.loc 1 80 16 is_stmt 0 discriminator 1
 114 000a 9A2F     		lhu	a4,24(a5)
 115 000c 13160701 		slli	a2,a4,16
 116 0010 4182     		srli	a2,a2,16
 117              	.LVL7:
  81:../Peripheral/src/ch32v30x_rtc.c ****     }while( high1a != high1b );
 118              		.loc 1 81 20 is_stmt 1 discriminator 1
 119 0012 E39BE6FE 		bne	a3,a4,.L8
  82:../Peripheral/src/ch32v30x_rtc.c **** 
  83:../Peripheral/src/ch32v30x_rtc.c ****     do{
  84:../Peripheral/src/ch32v30x_rtc.c ****         low1 = RTC->CNTL;
 120              		.loc 1 84 14 is_stmt 0
 121 0016 B7370040 		li	a5,1073754112
 122 001a 93870780 		addi	a5,a5,-2048
 123              	.LVL8:
 124              	.L9:
  83:../Peripheral/src/ch32v30x_rtc.c ****         low1 = RTC->CNTL;
 125              		.loc 1 83 5 is_stmt 1 discriminator 1
 126              		.loc 1 84 9 discriminator 1
 127              		.loc 1 84 14 is_stmt 0 discriminator 1
 128 001e D62F     		lhu	a3,28(a5)
 129              	.LVL9:
  85:../Peripheral/src/ch32v30x_rtc.c ****         low2 = RTC->CNTL;
 130              		.loc 1 85 9 is_stmt 1 discriminator 1
 131              		.loc 1 85 14 is_stmt 0 discriminator 1
 132 0020 DA2F     		lhu	a4,28(a5)
 133 0022 13150701 		slli	a0,a4,16
 134 0026 4181     		srli	a0,a0,16
 135              	.LVL10:
  86:../Peripheral/src/ch32v30x_rtc.c ****     }while( low1 != low2 );
 136              		.loc 1 86 18 is_stmt 1 discriminator 1
 137 0028 E39BE6FE 		bne	a3,a4,.L9
  87:../Peripheral/src/ch32v30x_rtc.c **** 
  88:../Peripheral/src/ch32v30x_rtc.c ****     do{
  89:../Peripheral/src/ch32v30x_rtc.c ****         high2a = RTC->CNTH;
 138              		.loc 1 89 16 is_stmt 0
 139 002c 37370040 		li	a4,1073754112
 140 0030 13070780 		addi	a4,a4,-2048
 141              	.LVL11:
 142              	.L10:
  88:../Peripheral/src/ch32v30x_rtc.c ****         high2a = RTC->CNTH;
 143              		.loc 1 88 5 is_stmt 1 discriminator 1
 144              		.loc 1 89 9 discriminator 1
 145              		.loc 1 89 16 is_stmt 0 discriminator 1
 146 0034 0E2F     		lhu	a1,24(a4)
 147              	.LVL12:
  90:../Peripheral/src/ch32v30x_rtc.c ****         high2b = RTC->CNTH;
 148              		.loc 1 90 9 is_stmt 1 discriminator 1
 149              		.loc 1 90 16 is_stmt 0 discriminator 1
 150 0036 162F     		lhu	a3,24(a4)
 151 0038 93970601 		slli	a5,a3,16
 152 003c C183     		srli	a5,a5,16
 153              	.LVL13:
  91:../Peripheral/src/ch32v30x_rtc.c ****     }while( high2a != high2b );
 154              		.loc 1 91 20 is_stmt 1 discriminator 1
 155 003e E39BD5FE 		bne	a1,a3,.L10
  92:../Peripheral/src/ch32v30x_rtc.c **** 
  93:../Peripheral/src/ch32v30x_rtc.c ****     if(high1b != high2b)
 156              		.loc 1 93 5
 157              		.loc 1 93 7 is_stmt 0
 158 0042 630DF600 		beq	a2,a5,.L11
  94:../Peripheral/src/ch32v30x_rtc.c ****     {
  95:../Peripheral/src/ch32v30x_rtc.c ****         do{
  96:../Peripheral/src/ch32v30x_rtc.c ****             low1 = RTC->CNTL;
 159              		.loc 1 96 18
 160 0046 37370040 		li	a4,1073754112
 161 004a 13070780 		addi	a4,a4,-2048
 162              	.LVL14:
 163              	.L12:
  95:../Peripheral/src/ch32v30x_rtc.c ****             low1 = RTC->CNTL;
 164              		.loc 1 95 9 is_stmt 1 discriminator 1
 165              		.loc 1 96 13 discriminator 1
 166              		.loc 1 96 18 is_stmt 0 discriminator 1
 167 004e 522F     		lhu	a2,28(a4)
 168              	.LVL15:
  97:../Peripheral/src/ch32v30x_rtc.c ****             low2 = RTC->CNTL;
 169              		.loc 1 97 13 is_stmt 1 discriminator 1
 170              		.loc 1 97 18 is_stmt 0 discriminator 1
 171 0050 562F     		lhu	a3,28(a4)
 172 0052 13950601 		slli	a0,a3,16
 173              	.LVL16:
 174 0056 4181     		srli	a0,a0,16
 175              	.LVL17:
  98:../Peripheral/src/ch32v30x_rtc.c ****         }while( low1 != low2 );
 176              		.loc 1 98 22 is_stmt 1 discriminator 1
 177 0058 E31BD6FE 		bne	a2,a3,.L12
 178              	.LVL18:
 179              	.L11:
  99:../Peripheral/src/ch32v30x_rtc.c ****     }
 100:../Peripheral/src/ch32v30x_rtc.c **** 
 101:../Peripheral/src/ch32v30x_rtc.c ****     return (((uint32_t)high2b << 16) | low2);
 180              		.loc 1 101 5
 181              		.loc 1 101 31 is_stmt 0
 182 005c C207     		slli	a5,a5,16
 183              	.LVL19:
 102:../Peripheral/src/ch32v30x_rtc.c **** }
 184              		.loc 1 102 1
 185 005e 5D8D     		or	a0,a5,a0
 186              	.LVL20:
 187 0060 8280     		ret
 188              		.cfi_endproc
 189              	.LFE32:
 191              		.section	.text.RTC_SetCounter,"ax",@progbits
 192              		.align	1
 193              		.globl	RTC_SetCounter
 195              	RTC_SetCounter:
 196              	.LFB33:
 103:../Peripheral/src/ch32v30x_rtc.c **** 
 104:../Peripheral/src/ch32v30x_rtc.c **** /*********************************************************************
 105:../Peripheral/src/ch32v30x_rtc.c ****  * @fn      RTC_SetCounter
 106:../Peripheral/src/ch32v30x_rtc.c ****  *
 107:../Peripheral/src/ch32v30x_rtc.c ****  * @brief   Sets the RTC counter value.
 108:../Peripheral/src/ch32v30x_rtc.c ****  *
 109:../Peripheral/src/ch32v30x_rtc.c ****  * @param   CounterValue - RTC counter new value.
 110:../Peripheral/src/ch32v30x_rtc.c ****  *
 111:../Peripheral/src/ch32v30x_rtc.c ****  * @return  RTC counter value
 112:../Peripheral/src/ch32v30x_rtc.c ****  */
 113:../Peripheral/src/ch32v30x_rtc.c **** void RTC_SetCounter(uint32_t CounterValue)
 114:../Peripheral/src/ch32v30x_rtc.c **** {
 197              		.loc 1 114 1 is_stmt 1
 198              		.cfi_startproc
 199              	.LVL21:
 200 0000 17030000 		call	t0,__riscv_save_1
 200      E7020300 
 201              		.cfi_offset 8, -8
 202              		.cfi_offset 1, -4
 203              		.cfi_def_cfa_offset 16
 115:../Peripheral/src/ch32v30x_rtc.c ****     RTC_EnterConfigMode();
 204              		.loc 1 115 5
 114:../Peripheral/src/ch32v30x_rtc.c ****     RTC_EnterConfigMode();
 205              		.loc 1 114 1 is_stmt 0
 206 0008 2A84     		mv	s0,a0
 207              		.loc 1 115 5
 208 000a 97000000 		call	RTC_EnterConfigMode
 208      E7800000 
 209              	.LVL22:
 116:../Peripheral/src/ch32v30x_rtc.c ****     RTC->CNTH = CounterValue >> 16;
 210              		.loc 1 116 5 is_stmt 1
 211              		.loc 1 116 15 is_stmt 0
 212 0012 13570401 		srli	a4,s0,16
 213 0016 B7370040 		li	a5,1073754112
 117:../Peripheral/src/ch32v30x_rtc.c ****     RTC->CNTL = (CounterValue & RTC_LSB_MASK);
 214              		.loc 1 117 15
 215 001a 4204     		slli	s0,s0,16
 216              	.LVL23:
 116:../Peripheral/src/ch32v30x_rtc.c ****     RTC->CNTH = CounterValue >> 16;
 217              		.loc 1 116 15
 218 001c 239CE780 		sh	a4,-2024(a5)
 219              		.loc 1 117 5 is_stmt 1
 220              		.loc 1 117 15 is_stmt 0
 221 0020 4180     		srli	s0,s0,16
 222 0022 239E8780 		sh	s0,-2020(a5)
 118:../Peripheral/src/ch32v30x_rtc.c ****     RTC_ExitConfigMode();
 223              		.loc 1 118 5 is_stmt 1
 224 0026 97000000 		call	RTC_ExitConfigMode
 224      E7800000 
 225              	.LVL24:
 119:../Peripheral/src/ch32v30x_rtc.c **** }
 226              		.loc 1 119 1 is_stmt 0
 227 002e 17030000 		tail	__riscv_restore_1
 227      67000300 
 228              		.cfi_restore 8
 229              		.cfi_restore 1
 230              		.cfi_def_cfa_offset 0
 231              		.cfi_endproc
 232              	.LFE33:
 234              		.section	.text.RTC_SetPrescaler,"ax",@progbits
 235              		.align	1
 236              		.globl	RTC_SetPrescaler
 238              	RTC_SetPrescaler:
 239              	.LFB34:
 120:../Peripheral/src/ch32v30x_rtc.c **** 
 121:../Peripheral/src/ch32v30x_rtc.c **** /*********************************************************************
 122:../Peripheral/src/ch32v30x_rtc.c ****  * @fn      RTC_SetPrescaler
 123:../Peripheral/src/ch32v30x_rtc.c ****  *
 124:../Peripheral/src/ch32v30x_rtc.c ****  * @brief   Sets the RTC prescaler value
 125:../Peripheral/src/ch32v30x_rtc.c ****  *
 126:../Peripheral/src/ch32v30x_rtc.c ****  * @param   PrescalerValue - RTC prescaler new value
 127:../Peripheral/src/ch32v30x_rtc.c ****  *
 128:../Peripheral/src/ch32v30x_rtc.c ****  * @return  none
 129:../Peripheral/src/ch32v30x_rtc.c ****  */
 130:../Peripheral/src/ch32v30x_rtc.c **** void RTC_SetPrescaler(uint32_t PrescalerValue)
 131:../Peripheral/src/ch32v30x_rtc.c **** {
 240              		.loc 1 131 1 is_stmt 1
 241              		.cfi_startproc
 242              	.LVL25:
 243 0000 17030000 		call	t0,__riscv_save_1
 243      E7020300 
 244              		.cfi_offset 8, -8
 245              		.cfi_offset 1, -4
 246              		.cfi_def_cfa_offset 16
 132:../Peripheral/src/ch32v30x_rtc.c ****     RTC_EnterConfigMode();
 247              		.loc 1 132 5
 131:../Peripheral/src/ch32v30x_rtc.c ****     RTC_EnterConfigMode();
 248              		.loc 1 131 1 is_stmt 0
 249 0008 2A84     		mv	s0,a0
 250              		.loc 1 132 5
 251 000a 97000000 		call	RTC_EnterConfigMode
 251      E7800000 
 252              	.LVL26:
 133:../Peripheral/src/ch32v30x_rtc.c ****     RTC->PSCRH = (PrescalerValue & PRLH_MSB_MASK) >> 16;
 253              		.loc 1 133 5 is_stmt 1
 254              		.loc 1 133 51 is_stmt 0
 255 0012 13570401 		srli	a4,s0,16
 256              		.loc 1 133 16
 257 0016 B7370040 		li	a5,1073754112
 258              		.loc 1 133 51
 259 001a 3D8B     		andi	a4,a4,15
 134:../Peripheral/src/ch32v30x_rtc.c ****     RTC->PSCRL = (PrescalerValue & RTC_LSB_MASK);
 260              		.loc 1 134 16
 261 001c 4204     		slli	s0,s0,16
 262              	.LVL27:
 133:../Peripheral/src/ch32v30x_rtc.c ****     RTC->PSCRH = (PrescalerValue & PRLH_MSB_MASK) >> 16;
 263              		.loc 1 133 16
 264 001e 2394E780 		sh	a4,-2040(a5)
 265              		.loc 1 134 5 is_stmt 1
 266              		.loc 1 134 16 is_stmt 0
 267 0022 4180     		srli	s0,s0,16
 268 0024 23968780 		sh	s0,-2036(a5)
 135:../Peripheral/src/ch32v30x_rtc.c ****     RTC_ExitConfigMode();
 269              		.loc 1 135 5 is_stmt 1
 270 0028 97000000 		call	RTC_ExitConfigMode
 270      E7800000 
 271              	.LVL28:
 136:../Peripheral/src/ch32v30x_rtc.c **** }
 272              		.loc 1 136 1 is_stmt 0
 273 0030 17030000 		tail	__riscv_restore_1
 273      67000300 
 274              		.cfi_restore 8
 275              		.cfi_restore 1
 276              		.cfi_def_cfa_offset 0
 277              		.cfi_endproc
 278              	.LFE34:
 280              		.section	.text.RTC_SetAlarm,"ax",@progbits
 281              		.align	1
 282              		.globl	RTC_SetAlarm
 284              	RTC_SetAlarm:
 285              	.LFB35:
 137:../Peripheral/src/ch32v30x_rtc.c **** 
 138:../Peripheral/src/ch32v30x_rtc.c **** /*********************************************************************
 139:../Peripheral/src/ch32v30x_rtc.c ****  * @fn      RTC_SetAlarm
 140:../Peripheral/src/ch32v30x_rtc.c ****  *
 141:../Peripheral/src/ch32v30x_rtc.c ****  * @brief   Sets the RTC alarm value
 142:../Peripheral/src/ch32v30x_rtc.c ****  *
 143:../Peripheral/src/ch32v30x_rtc.c ****  * @param   AlarmValue - RTC alarm new value
 144:../Peripheral/src/ch32v30x_rtc.c ****  *
 145:../Peripheral/src/ch32v30x_rtc.c ****  * @return  none
 146:../Peripheral/src/ch32v30x_rtc.c ****  */
 147:../Peripheral/src/ch32v30x_rtc.c **** void RTC_SetAlarm(uint32_t AlarmValue)
 148:../Peripheral/src/ch32v30x_rtc.c **** {
 286              		.loc 1 148 1 is_stmt 1
 287              		.cfi_startproc
 288              	.LVL29:
 289 0000 17030000 		call	t0,__riscv_save_1
 289      E7020300 
 290              		.cfi_offset 8, -8
 291              		.cfi_offset 1, -4
 292              		.cfi_def_cfa_offset 16
 149:../Peripheral/src/ch32v30x_rtc.c ****     RTC_EnterConfigMode();
 293              		.loc 1 149 5
 148:../Peripheral/src/ch32v30x_rtc.c ****     RTC_EnterConfigMode();
 294              		.loc 1 148 1 is_stmt 0
 295 0008 2A84     		mv	s0,a0
 296              		.loc 1 149 5
 297 000a 97000000 		call	RTC_EnterConfigMode
 297      E7800000 
 298              	.LVL30:
 150:../Peripheral/src/ch32v30x_rtc.c ****     RTC->ALRMH = AlarmValue >> 16;
 299              		.loc 1 150 5 is_stmt 1
 300              		.loc 1 150 16 is_stmt 0
 301 0012 13570401 		srli	a4,s0,16
 302 0016 B7370040 		li	a5,1073754112
 151:../Peripheral/src/ch32v30x_rtc.c ****     RTC->ALRML = (AlarmValue & RTC_LSB_MASK);
 303              		.loc 1 151 16
 304 001a 4204     		slli	s0,s0,16
 305              	.LVL31:
 150:../Peripheral/src/ch32v30x_rtc.c ****     RTC->ALRMH = AlarmValue >> 16;
 306              		.loc 1 150 16
 307 001c 2390E782 		sh	a4,-2016(a5)
 308              		.loc 1 151 5 is_stmt 1
 309              		.loc 1 151 16 is_stmt 0
 310 0020 4180     		srli	s0,s0,16
 311 0022 23928782 		sh	s0,-2012(a5)
 152:../Peripheral/src/ch32v30x_rtc.c ****     RTC_ExitConfigMode();
 312              		.loc 1 152 5 is_stmt 1
 313 0026 97000000 		call	RTC_ExitConfigMode
 313      E7800000 
 314              	.LVL32:
 153:../Peripheral/src/ch32v30x_rtc.c **** }
 315              		.loc 1 153 1 is_stmt 0
 316 002e 17030000 		tail	__riscv_restore_1
 316      67000300 
 317              		.cfi_restore 8
 318              		.cfi_restore 1
 319              		.cfi_def_cfa_offset 0
 320              		.cfi_endproc
 321              	.LFE35:
 323              		.section	.text.RTC_GetDivider,"ax",@progbits
 324              		.align	1
 325              		.globl	RTC_GetDivider
 327              	RTC_GetDivider:
 328              	.LFB36:
 154:../Peripheral/src/ch32v30x_rtc.c **** 
 155:../Peripheral/src/ch32v30x_rtc.c **** /*********************************************************************
 156:../Peripheral/src/ch32v30x_rtc.c ****  * @fn      RTC_GetDivider
 157:../Peripheral/src/ch32v30x_rtc.c ****  *
 158:../Peripheral/src/ch32v30x_rtc.c ****  * @brief   Gets the RTC divider value
 159:../Peripheral/src/ch32v30x_rtc.c ****  *
 160:../Peripheral/src/ch32v30x_rtc.c ****  * @return  RTC Divider value
 161:../Peripheral/src/ch32v30x_rtc.c ****  */
 162:../Peripheral/src/ch32v30x_rtc.c **** uint32_t RTC_GetDivider(void)
 163:../Peripheral/src/ch32v30x_rtc.c **** {
 329              		.loc 1 163 1 is_stmt 1
 330              		.cfi_startproc
 164:../Peripheral/src/ch32v30x_rtc.c ****     uint16_t high1a = 0, high1b = 0, high2a = 0, high2b = 0;
 331              		.loc 1 164 5
 332              	.LVL33:
 165:../Peripheral/src/ch32v30x_rtc.c ****     uint16_t low1 = 0, low2 = 0;
 333              		.loc 1 165 5
 166:../Peripheral/src/ch32v30x_rtc.c **** 
 167:../Peripheral/src/ch32v30x_rtc.c ****     do{
 168:../Peripheral/src/ch32v30x_rtc.c ****         high1a = RTC->DIVH;
 334              		.loc 1 168 16 is_stmt 0
 335 0000 B7370040 		li	a5,1073754112
 336 0004 93870780 		addi	a5,a5,-2048
 337              	.LVL34:
 338              	.L24:
 167:../Peripheral/src/ch32v30x_rtc.c ****         high1a = RTC->DIVH;
 339              		.loc 1 167 5 is_stmt 1 discriminator 1
 340              		.loc 1 168 9 discriminator 1
 341              		.loc 1 168 16 is_stmt 0 discriminator 1
 342 0008 962B     		lhu	a3,16(a5)
 343              	.LVL35:
 169:../Peripheral/src/ch32v30x_rtc.c ****         high1b = RTC->DIVH;
 344              		.loc 1 169 9 is_stmt 1 discriminator 1
 345              		.loc 1 169 16 is_stmt 0 discriminator 1
 346 000a 9A2B     		lhu	a4,16(a5)
 347 000c 13160701 		slli	a2,a4,16
 348 0010 4182     		srli	a2,a2,16
 349              	.LVL36:
 170:../Peripheral/src/ch32v30x_rtc.c ****     }while( high1a != high1b );
 350              		.loc 1 170 20 is_stmt 1 discriminator 1
 351 0012 E39BE6FE 		bne	a3,a4,.L24
 171:../Peripheral/src/ch32v30x_rtc.c **** 
 172:../Peripheral/src/ch32v30x_rtc.c ****     do{
 173:../Peripheral/src/ch32v30x_rtc.c ****         low1 = RTC->DIVL;
 352              		.loc 1 173 14 is_stmt 0
 353 0016 B7370040 		li	a5,1073754112
 354 001a 93870780 		addi	a5,a5,-2048
 355              	.LVL37:
 356              	.L25:
 172:../Peripheral/src/ch32v30x_rtc.c ****         low1 = RTC->DIVL;
 357              		.loc 1 172 5 is_stmt 1 discriminator 1
 358              		.loc 1 173 9 discriminator 1
 359              		.loc 1 173 14 is_stmt 0 discriminator 1
 360 001e D62B     		lhu	a3,20(a5)
 361              	.LVL38:
 174:../Peripheral/src/ch32v30x_rtc.c ****         low2 = RTC->DIVL;
 362              		.loc 1 174 9 is_stmt 1 discriminator 1
 363              		.loc 1 174 14 is_stmt 0 discriminator 1
 364 0020 DA2B     		lhu	a4,20(a5)
 365 0022 13150701 		slli	a0,a4,16
 366 0026 4181     		srli	a0,a0,16
 367              	.LVL39:
 175:../Peripheral/src/ch32v30x_rtc.c ****     }while( low1 != low2 );
 368              		.loc 1 175 18 is_stmt 1 discriminator 1
 369 0028 E39BE6FE 		bne	a3,a4,.L25
 176:../Peripheral/src/ch32v30x_rtc.c **** 
 177:../Peripheral/src/ch32v30x_rtc.c ****     do{
 178:../Peripheral/src/ch32v30x_rtc.c ****         high2a = RTC->DIVH;
 370              		.loc 1 178 16 is_stmt 0
 371 002c 37370040 		li	a4,1073754112
 372 0030 13070780 		addi	a4,a4,-2048
 373              	.LVL40:
 374              	.L26:
 177:../Peripheral/src/ch32v30x_rtc.c ****         high2a = RTC->DIVH;
 375              		.loc 1 177 5 is_stmt 1 discriminator 1
 376              		.loc 1 178 9 discriminator 1
 377              		.loc 1 178 16 is_stmt 0 discriminator 1
 378 0034 0E2B     		lhu	a1,16(a4)
 379              	.LVL41:
 179:../Peripheral/src/ch32v30x_rtc.c ****         high2b = RTC->DIVH;
 380              		.loc 1 179 9 is_stmt 1 discriminator 1
 381              		.loc 1 179 16 is_stmt 0 discriminator 1
 382 0036 162B     		lhu	a3,16(a4)
 383 0038 93970601 		slli	a5,a3,16
 384 003c C183     		srli	a5,a5,16
 385              	.LVL42:
 180:../Peripheral/src/ch32v30x_rtc.c ****     }while( high2a != high2b );
 386              		.loc 1 180 20 is_stmt 1 discriminator 1
 387 003e E39BD5FE 		bne	a1,a3,.L26
 181:../Peripheral/src/ch32v30x_rtc.c **** 
 182:../Peripheral/src/ch32v30x_rtc.c ****     if(high1b != high2b)
 388              		.loc 1 182 5
 389              		.loc 1 182 7 is_stmt 0
 390 0042 630DF600 		beq	a2,a5,.L27
 183:../Peripheral/src/ch32v30x_rtc.c ****     {
 184:../Peripheral/src/ch32v30x_rtc.c ****         do{
 185:../Peripheral/src/ch32v30x_rtc.c ****             low1 = RTC->DIVL;
 391              		.loc 1 185 18
 392 0046 37370040 		li	a4,1073754112
 393 004a 13070780 		addi	a4,a4,-2048
 394              	.LVL43:
 395              	.L28:
 184:../Peripheral/src/ch32v30x_rtc.c ****             low1 = RTC->DIVL;
 396              		.loc 1 184 9 is_stmt 1 discriminator 1
 397              		.loc 1 185 13 discriminator 1
 398              		.loc 1 185 18 is_stmt 0 discriminator 1
 399 004e 522B     		lhu	a2,20(a4)
 400              	.LVL44:
 186:../Peripheral/src/ch32v30x_rtc.c ****             low2 = RTC->DIVL;
 401              		.loc 1 186 13 is_stmt 1 discriminator 1
 402              		.loc 1 186 18 is_stmt 0 discriminator 1
 403 0050 562B     		lhu	a3,20(a4)
 404 0052 13950601 		slli	a0,a3,16
 405              	.LVL45:
 406 0056 4181     		srli	a0,a0,16
 407              	.LVL46:
 187:../Peripheral/src/ch32v30x_rtc.c ****         }while( low1 != low2 );
 408              		.loc 1 187 22 is_stmt 1 discriminator 1
 409 0058 E31BD6FE 		bne	a2,a3,.L28
 410              	.LVL47:
 411              	.L27:
 188:../Peripheral/src/ch32v30x_rtc.c ****     }
 189:../Peripheral/src/ch32v30x_rtc.c **** 
 190:../Peripheral/src/ch32v30x_rtc.c ****     return ((((uint32_t)high2b & (uint32_t)0x000F) << 16) | low2);
 412              		.loc 1 190 5
 413              		.loc 1 190 52 is_stmt 0
 414 005c 37070F00 		li	a4,983040
 415 0060 C207     		slli	a5,a5,16
 416              	.LVL48:
 417 0062 F98F     		and	a5,a5,a4
 191:../Peripheral/src/ch32v30x_rtc.c **** }
 418              		.loc 1 191 1
 419 0064 5D8D     		or	a0,a5,a0
 420              	.LVL49:
 421 0066 8280     		ret
 422              		.cfi_endproc
 423              	.LFE36:
 425              		.section	.text.RTC_WaitForLastTask,"ax",@progbits
 426              		.align	1
 427              		.globl	RTC_WaitForLastTask
 429              	RTC_WaitForLastTask:
 430              	.LFB37:
 192:../Peripheral/src/ch32v30x_rtc.c **** 
 193:../Peripheral/src/ch32v30x_rtc.c **** /*********************************************************************
 194:../Peripheral/src/ch32v30x_rtc.c ****  * @fn      RTC_WaitForLastTask
 195:../Peripheral/src/ch32v30x_rtc.c ****  *
 196:../Peripheral/src/ch32v30x_rtc.c ****  * @brief   Waits until last write operation on RTC registers has finished
 197:../Peripheral/src/ch32v30x_rtc.c ****  *          Note-
 198:../Peripheral/src/ch32v30x_rtc.c ****  *          This function must be called before any write to RTC registers.
 199:../Peripheral/src/ch32v30x_rtc.c ****  * @return  none
 200:../Peripheral/src/ch32v30x_rtc.c ****  */
 201:../Peripheral/src/ch32v30x_rtc.c **** void RTC_WaitForLastTask(void)
 202:../Peripheral/src/ch32v30x_rtc.c **** {
 431              		.loc 1 202 1 is_stmt 1
 432              		.cfi_startproc
 203:../Peripheral/src/ch32v30x_rtc.c ****     while((RTC->CTLRL & RTC_FLAG_RTOFF) == (uint16_t)RESET)
 433              		.loc 1 203 5
 434              		.loc 1 203 15 is_stmt 0
 435 0000 37370040 		li	a4,1073754112
 436 0004 13070780 		addi	a4,a4,-2048
 437              	.L34:
 204:../Peripheral/src/ch32v30x_rtc.c ****     {
 205:../Peripheral/src/ch32v30x_rtc.c ****     }
 438              		.loc 1 205 5 is_stmt 1 discriminator 1
 203:../Peripheral/src/ch32v30x_rtc.c ****     while((RTC->CTLRL & RTC_FLAG_RTOFF) == (uint16_t)RESET)
 439              		.loc 1 203 41 discriminator 1
 203:../Peripheral/src/ch32v30x_rtc.c ****     while((RTC->CTLRL & RTC_FLAG_RTOFF) == (uint16_t)RESET)
 440              		.loc 1 203 15 is_stmt 0 discriminator 1
 441 0008 5E23     		lhu	a5,4(a4)
 203:../Peripheral/src/ch32v30x_rtc.c ****     while((RTC->CTLRL & RTC_FLAG_RTOFF) == (uint16_t)RESET)
 442              		.loc 1 203 41 discriminator 1
 443 000a 93F70702 		andi	a5,a5,32
 444 000e EDDF     		beq	a5,zero,.L34
 206:../Peripheral/src/ch32v30x_rtc.c **** }
 445              		.loc 1 206 1
 446 0010 8280     		ret
 447              		.cfi_endproc
 448              	.LFE37:
 450              		.section	.text.RTC_WaitForSynchro,"ax",@progbits
 451              		.align	1
 452              		.globl	RTC_WaitForSynchro
 454              	RTC_WaitForSynchro:
 455              	.LFB38:
 207:../Peripheral/src/ch32v30x_rtc.c **** 
 208:../Peripheral/src/ch32v30x_rtc.c **** /*********************************************************************
 209:../Peripheral/src/ch32v30x_rtc.c ****  * @fn      RTC_WaitForSynchro
 210:../Peripheral/src/ch32v30x_rtc.c ****  *
 211:../Peripheral/src/ch32v30x_rtc.c ****  * @brief   Waits until the RTC registers are synchronized with RTC APB clock
 212:../Peripheral/src/ch32v30x_rtc.c ****  *          Note-
 213:../Peripheral/src/ch32v30x_rtc.c ****  *          This function must be called before any read operation after an APB reset
 214:../Peripheral/src/ch32v30x_rtc.c ****  *          or an APB clock stop.
 215:../Peripheral/src/ch32v30x_rtc.c ****  *          
 216:../Peripheral/src/ch32v30x_rtc.c ****  * @return  none
 217:../Peripheral/src/ch32v30x_rtc.c ****  */
 218:../Peripheral/src/ch32v30x_rtc.c **** void RTC_WaitForSynchro(void)
 219:../Peripheral/src/ch32v30x_rtc.c **** {
 456              		.loc 1 219 1 is_stmt 1
 457              		.cfi_startproc
 220:../Peripheral/src/ch32v30x_rtc.c ****     RTC->CTLRL &= (uint16_t)~RTC_FLAG_RSF;
 458              		.loc 1 220 5
 459              		.loc 1 220 8 is_stmt 0
 460 0000 37370040 		li	a4,1073754112
 461 0004 83574780 		lhu	a5,-2044(a4)
 462 0008 13070780 		addi	a4,a4,-2048
 463 000c C207     		slli	a5,a5,16
 464 000e C183     		srli	a5,a5,16
 465              		.loc 1 220 16
 466 0010 DD9B     		andi	a5,a5,-9
 467 0012 C207     		slli	a5,a5,16
 468 0014 C183     		srli	a5,a5,16
 469 0016 5EA3     		sh	a5,4(a4)
 221:../Peripheral/src/ch32v30x_rtc.c ****     while((RTC->CTLRL & RTC_FLAG_RSF) == (uint16_t)RESET)
 470              		.loc 1 221 5 is_stmt 1
 471              	.L38:
 222:../Peripheral/src/ch32v30x_rtc.c ****     {
 223:../Peripheral/src/ch32v30x_rtc.c ****     }
 472              		.loc 1 223 5 discriminator 1
 221:../Peripheral/src/ch32v30x_rtc.c ****     while((RTC->CTLRL & RTC_FLAG_RSF) == (uint16_t)RESET)
 473              		.loc 1 221 39 discriminator 1
 221:../Peripheral/src/ch32v30x_rtc.c ****     while((RTC->CTLRL & RTC_FLAG_RSF) == (uint16_t)RESET)
 474              		.loc 1 221 15 is_stmt 0 discriminator 1
 475 0018 5E23     		lhu	a5,4(a4)
 221:../Peripheral/src/ch32v30x_rtc.c ****     while((RTC->CTLRL & RTC_FLAG_RSF) == (uint16_t)RESET)
 476              		.loc 1 221 39 discriminator 1
 477 001a A18B     		andi	a5,a5,8
 478 001c F5DF     		beq	a5,zero,.L38
 224:../Peripheral/src/ch32v30x_rtc.c **** }
 479              		.loc 1 224 1
 480 001e 8280     		ret
 481              		.cfi_endproc
 482              	.LFE38:
 484              		.section	.text.RTC_GetFlagStatus,"ax",@progbits
 485              		.align	1
 486              		.globl	RTC_GetFlagStatus
 488              	RTC_GetFlagStatus:
 489              	.LFB39:
 225:../Peripheral/src/ch32v30x_rtc.c **** 
 226:../Peripheral/src/ch32v30x_rtc.c **** /*********************************************************************
 227:../Peripheral/src/ch32v30x_rtc.c ****  * @fn      RTC_GetFlagStatus
 228:../Peripheral/src/ch32v30x_rtc.c ****  *
 229:../Peripheral/src/ch32v30x_rtc.c ****  * @brief   Checks whether the specified RTC flag is set or not
 230:../Peripheral/src/ch32v30x_rtc.c ****  *
 231:../Peripheral/src/ch32v30x_rtc.c ****  * @param   RTC_FLAG- specifies the flag to check
 232:../Peripheral/src/ch32v30x_rtc.c ****  *            RTC_FLAG_RTOFF - RTC Operation OFF flag
 233:../Peripheral/src/ch32v30x_rtc.c ****  *            RTC_FLAG_RSF - Registers Synchronized flag
 234:../Peripheral/src/ch32v30x_rtc.c ****  *            RTC_FLAG_OW - Overflow flag
 235:../Peripheral/src/ch32v30x_rtc.c ****  *            RTC_FLAG_ALR - Alarm flag
 236:../Peripheral/src/ch32v30x_rtc.c ****  *            RTC_FLAG_SEC - Second flag
 237:../Peripheral/src/ch32v30x_rtc.c ****  *
 238:../Peripheral/src/ch32v30x_rtc.c ****  * @return  The new state of RTC_FLAG (SET or RESET)
 239:../Peripheral/src/ch32v30x_rtc.c ****  */
 240:../Peripheral/src/ch32v30x_rtc.c **** FlagStatus RTC_GetFlagStatus(uint16_t RTC_FLAG)
 241:../Peripheral/src/ch32v30x_rtc.c **** {
 490              		.loc 1 241 1 is_stmt 1
 491              		.cfi_startproc
 492              	.LVL50:
 242:../Peripheral/src/ch32v30x_rtc.c ****     FlagStatus bitstatus = RESET;
 493              		.loc 1 242 5
 243:../Peripheral/src/ch32v30x_rtc.c ****     if((RTC->CTLRL & RTC_FLAG) != (uint16_t)RESET)
 494              		.loc 1 243 5
 495              		.loc 1 243 12 is_stmt 0
 496 0000 B7370040 		li	a5,1073754112
 497 0004 93870780 		addi	a5,a5,-2048
 498 0008 DE23     		lhu	a5,4(a5)
 499              	.LVL51:
 244:../Peripheral/src/ch32v30x_rtc.c ****     {
 245:../Peripheral/src/ch32v30x_rtc.c ****         bitstatus = SET;
 246:../Peripheral/src/ch32v30x_rtc.c ****     }
 247:../Peripheral/src/ch32v30x_rtc.c ****     else
 248:../Peripheral/src/ch32v30x_rtc.c ****     {
 249:../Peripheral/src/ch32v30x_rtc.c ****         bitstatus = RESET;
 250:../Peripheral/src/ch32v30x_rtc.c ****     }
 251:../Peripheral/src/ch32v30x_rtc.c ****     return bitstatus;
 500              		.loc 1 251 5 is_stmt 1
 243:../Peripheral/src/ch32v30x_rtc.c ****     if((RTC->CTLRL & RTC_FLAG) != (uint16_t)RESET)
 501              		.loc 1 243 7 is_stmt 0
 502 000a 7D8D     		and	a0,a5,a0
 503              	.LVL52:
 252:../Peripheral/src/ch32v30x_rtc.c **** }
 504              		.loc 1 252 1
 505 000c 3335A000 		snez	a0,a0
 506 0010 8280     		ret
 507              		.cfi_endproc
 508              	.LFE39:
 510              		.section	.text.RTC_ClearFlag,"ax",@progbits
 511              		.align	1
 512              		.globl	RTC_ClearFlag
 514              	RTC_ClearFlag:
 515              	.LFB40:
 253:../Peripheral/src/ch32v30x_rtc.c **** 
 254:../Peripheral/src/ch32v30x_rtc.c **** /*********************************************************************
 255:../Peripheral/src/ch32v30x_rtc.c ****  * @fn      RTC_ClearFlag
 256:../Peripheral/src/ch32v30x_rtc.c ****  *
 257:../Peripheral/src/ch32v30x_rtc.c ****  * @brief   Clears the RTC's pending flags
 258:../Peripheral/src/ch32v30x_rtc.c ****  *
 259:../Peripheral/src/ch32v30x_rtc.c ****  * @param   RTC_FLAG - specifies the flag to clear
 260:../Peripheral/src/ch32v30x_rtc.c ****  *            RTC_FLAG_RSF - Registers Synchronized flag
 261:../Peripheral/src/ch32v30x_rtc.c ****  *            RTC_FLAG_OW - Overflow flag
 262:../Peripheral/src/ch32v30x_rtc.c ****  *            RTC_FLAG_ALR - Alarm flag
 263:../Peripheral/src/ch32v30x_rtc.c ****  *            RTC_FLAG_SEC - Second flag
 264:../Peripheral/src/ch32v30x_rtc.c ****  *
 265:../Peripheral/src/ch32v30x_rtc.c ****  * @return  none
 266:../Peripheral/src/ch32v30x_rtc.c ****  */
 267:../Peripheral/src/ch32v30x_rtc.c **** void RTC_ClearFlag(uint16_t RTC_FLAG)
 268:../Peripheral/src/ch32v30x_rtc.c **** {
 516              		.loc 1 268 1 is_stmt 1
 517              		.cfi_startproc
 518              	.LVL53:
 269:../Peripheral/src/ch32v30x_rtc.c ****     RTC->CTLRL &= (uint16_t)~RTC_FLAG;
 519              		.loc 1 269 5
 520              		.loc 1 269 8 is_stmt 0
 521 0000 B7370040 		li	a5,1073754112
 522 0004 03D74780 		lhu	a4,-2044(a5)
 523              		.loc 1 269 19
 524 0008 1345F5FF 		not	a0,a0
 525              	.LVL54:
 526              		.loc 1 269 16
 527 000c 698F     		and	a4,a4,a0
 528 000e 2392E780 		sh	a4,-2044(a5)
 270:../Peripheral/src/ch32v30x_rtc.c **** }
 529              		.loc 1 270 1
 530 0012 8280     		ret
 531              		.cfi_endproc
 532              	.LFE40:
 534              		.section	.text.RTC_GetITStatus,"ax",@progbits
 535              		.align	1
 536              		.globl	RTC_GetITStatus
 538              	RTC_GetITStatus:
 539              	.LFB41:
 271:../Peripheral/src/ch32v30x_rtc.c **** 
 272:../Peripheral/src/ch32v30x_rtc.c **** /*********************************************************************
 273:../Peripheral/src/ch32v30x_rtc.c ****  * @fn      RTC_GetITStatus
 274:../Peripheral/src/ch32v30x_rtc.c ****  *
 275:../Peripheral/src/ch32v30x_rtc.c ****  * @brief   Checks whether the specified RTC interrupt has occurred or not
 276:../Peripheral/src/ch32v30x_rtc.c ****  *
 277:../Peripheral/src/ch32v30x_rtc.c ****  * @param   RTC_IT - specifies the RTC interrupts sources to check
 278:../Peripheral/src/ch32v30x_rtc.c ****  *            RTC_FLAG_OW - Overflow interrupt
 279:../Peripheral/src/ch32v30x_rtc.c ****  *            RTC_FLAG_ALR - Alarm interrupt
 280:../Peripheral/src/ch32v30x_rtc.c ****  *            RTC_FLAG_SEC - Second interrupt
 281:../Peripheral/src/ch32v30x_rtc.c ****  *
 282:../Peripheral/src/ch32v30x_rtc.c ****  * @return  The new state of the RTC_IT (SET or RESET)
 283:../Peripheral/src/ch32v30x_rtc.c ****  */
 284:../Peripheral/src/ch32v30x_rtc.c **** ITStatus RTC_GetITStatus(uint16_t RTC_IT)
 285:../Peripheral/src/ch32v30x_rtc.c **** {
 540              		.loc 1 285 1 is_stmt 1
 541              		.cfi_startproc
 542              	.LVL55:
 286:../Peripheral/src/ch32v30x_rtc.c ****     ITStatus bitstatus = RESET;
 543              		.loc 1 286 5
 287:../Peripheral/src/ch32v30x_rtc.c **** 
 288:../Peripheral/src/ch32v30x_rtc.c ****     bitstatus = (ITStatus)(RTC->CTLRL & RTC_IT);
 544              		.loc 1 288 5
 545              		.loc 1 288 31 is_stmt 0
 546 0000 37370040 		li	a4,1073754112
 547 0004 83574780 		lhu	a5,-2044(a4)
 289:../Peripheral/src/ch32v30x_rtc.c ****     if(((RTC->CTLRH & RTC_IT) != (uint16_t)RESET) && (bitstatus != (uint16_t)RESET))
 548              		.loc 1 289 13
 549 0008 03570780 		lhu	a4,-2048(a4)
 288:../Peripheral/src/ch32v30x_rtc.c ****     if(((RTC->CTLRH & RTC_IT) != (uint16_t)RESET) && (bitstatus != (uint16_t)RESET))
 550              		.loc 1 288 31
 551 000c C207     		slli	a5,a5,16
 552              		.loc 1 289 7
 553 000e 698F     		and	a4,a4,a0
 288:../Peripheral/src/ch32v30x_rtc.c ****     if(((RTC->CTLRH & RTC_IT) != (uint16_t)RESET) && (bitstatus != (uint16_t)RESET))
 554              		.loc 1 288 31
 555 0010 C183     		srli	a5,a5,16
 556              	.LVL56:
 557              		.loc 1 289 5 is_stmt 1
 558              		.loc 1 289 7 is_stmt 0
 559 0012 09C7     		beq	a4,zero,.L45
 560              		.loc 1 289 51 discriminator 1
 561 0014 7D8D     		and	a0,a5,a0
 562              	.LVL57:
 563 0016 3335A000 		snez	a0,a0
 564 001a 8280     		ret
 565              	.LVL58:
 566              	.L45:
 290:../Peripheral/src/ch32v30x_rtc.c ****     {
 291:../Peripheral/src/ch32v30x_rtc.c ****         bitstatus = SET;
 292:../Peripheral/src/ch32v30x_rtc.c ****     }
 293:../Peripheral/src/ch32v30x_rtc.c ****     else
 294:../Peripheral/src/ch32v30x_rtc.c ****     {
 295:../Peripheral/src/ch32v30x_rtc.c ****         bitstatus = RESET;
 567              		.loc 1 295 19
 568 001c 0145     		li	a0,0
 569              	.LVL59:
 296:../Peripheral/src/ch32v30x_rtc.c ****     }
 297:../Peripheral/src/ch32v30x_rtc.c ****     return bitstatus;
 570              		.loc 1 297 5 is_stmt 1
 298:../Peripheral/src/ch32v30x_rtc.c **** }
 571              		.loc 1 298 1 is_stmt 0
 572 001e 8280     		ret
 573              		.cfi_endproc
 574              	.LFE41:
 576              		.section	.text.RTC_ClearITPendingBit,"ax",@progbits
 577              		.align	1
 578              		.globl	RTC_ClearITPendingBit
 580              	RTC_ClearITPendingBit:
 581              	.LFB44:
 582              		.cfi_startproc
 299:../Peripheral/src/ch32v30x_rtc.c **** 
 300:../Peripheral/src/ch32v30x_rtc.c **** /*********************************************************************
 301:../Peripheral/src/ch32v30x_rtc.c ****  * @fn      RTC_ClearITPendingBit
 302:../Peripheral/src/ch32v30x_rtc.c ****  *
 303:../Peripheral/src/ch32v30x_rtc.c ****  * @brief   Clears the RTC's interrupt pending bits
 304:../Peripheral/src/ch32v30x_rtc.c ****  *
 305:../Peripheral/src/ch32v30x_rtc.c ****  * @param   RTC_IT - specifies the interrupt pending bit to clear
 306:../Peripheral/src/ch32v30x_rtc.c ****  *            RTC_FLAG_OW - Overflow interrupt
 307:../Peripheral/src/ch32v30x_rtc.c ****  *            RTC_FLAG_ALR - Alarm interrupt
 308:../Peripheral/src/ch32v30x_rtc.c ****  *            RTC_FLAG_SEC - Second interrupt
 309:../Peripheral/src/ch32v30x_rtc.c ****  *
 310:../Peripheral/src/ch32v30x_rtc.c ****  * @return  none
 311:../Peripheral/src/ch32v30x_rtc.c ****  */
 312:../Peripheral/src/ch32v30x_rtc.c **** void RTC_ClearITPendingBit(uint16_t RTC_IT)
 583              		.loc 1 312 6 is_stmt 1
 584 0000 17030000 		tail	RTC_ClearFlag
 584      67000300 
 585              		.cfi_endproc
 586              	.LFE44:
 588              		.text
 589              	.Letext0:
 590              		.file 2 "d:\\software\\mounriver_studio\\toolchain\\risc-v embedded gcc12\\riscv-none-elf\\include
 591              		.file 3 "d:\\software\\mounriver_studio\\toolchain\\risc-v embedded gcc12\\riscv-none-elf\\include
 592              		.file 4 "C:\\Users\\localhost\\Documents\\turbomoskal-repo\\qqexpert\\firmware\\MasterController\\
 593              		.file 5 "C:\\Users\\localhost\\Documents\\turbomoskal-repo\\qqexpert\\firmware\\MasterController\\
DEFINED SYMBOLS
                            *ABS*:0000000000000000 ch32v30x_rtc.c
C:\Users\LOCALH~1\AppData\Local\Temp\ccBEO6nB.s:14     .text.RTC_ITConfig:0000000000000000 RTC_ITConfig
C:\Users\LOCALH~1\AppData\Local\Temp\ccBEO6nB.s:18     .text.RTC_ITConfig:0000000000000000 .L0 
C:\Users\LOCALH~1\AppData\Local\Temp\ccBEO6nB.s:20     .text.RTC_ITConfig:0000000000000000 .L0 
C:\Users\LOCALH~1\AppData\Local\Temp\ccBEO6nB.s:21     .text.RTC_ITConfig:0000000000000000 .L0 
C:\Users\LOCALH~1\AppData\Local\Temp\ccBEO6nB.s:22     .text.RTC_ITConfig:0000000000000000 $x
C:\Users\LOCALH~1\AppData\Local\Temp\ccBEO6nB.s:22     .text.RTC_ITConfig:0000000000000000 .L0 
C:\Users\LOCALH~1\AppData\Local\Temp\ccBEO6nB.s:25     .text.RTC_ITConfig:0000000000000008 .L0 
C:\Users\LOCALH~1\AppData\Local\Temp\ccBEO6nB.s:27     .text.RTC_ITConfig:000000000000000a .L0 
C:\Users\LOCALH~1\AppData\Local\Temp\ccBEO6nB.s:28     .text.RTC_ITConfig:000000000000000a .L0 
C:\Users\LOCALH~1\AppData\Local\Temp\ccBEO6nB.s:32     .text.RTC_ITConfig:000000000000000c .L0 
C:\Users\LOCALH~1\AppData\Local\Temp\ccBEO6nB.s:34     .text.RTC_ITConfig:0000000000000010 .L0 
C:\Users\LOCALH~1\AppData\Local\Temp\ccBEO6nB.s:38     .text.RTC_ITConfig:0000000000000012 .L0 
C:\Users\LOCALH~1\AppData\Local\Temp\ccBEO6nB.s:39     .text.RTC_ITConfig:0000000000000012 .L0 
C:\Users\LOCALH~1\AppData\Local\Temp\ccBEO6nB.s:42     .text.RTC_ITConfig:0000000000000016 .L0 
C:\Users\LOCALH~1\AppData\Local\Temp\ccBEO6nB.s:44     .text.RTC_ITConfig:000000000000001a .L0 
C:\Users\LOCALH~1\AppData\Local\Temp\ccBEO6nB.s:51     .text.RTC_EnterConfigMode:0000000000000000 RTC_EnterConfigMode
C:\Users\LOCALH~1\AppData\Local\Temp\ccBEO6nB.s:54     .text.RTC_EnterConfigMode:0000000000000000 .L0 
C:\Users\LOCALH~1\AppData\Local\Temp\ccBEO6nB.s:55     .text.RTC_EnterConfigMode:0000000000000000 .L0 
C:\Users\LOCALH~1\AppData\Local\Temp\ccBEO6nB.s:56     .text.RTC_EnterConfigMode:0000000000000000 .L0 
C:\Users\LOCALH~1\AppData\Local\Temp\ccBEO6nB.s:57     .text.RTC_EnterConfigMode:0000000000000000 $x
C:\Users\LOCALH~1\AppData\Local\Temp\ccBEO6nB.s:57     .text.RTC_EnterConfigMode:0000000000000000 .L0 
C:\Users\LOCALH~1\AppData\Local\Temp\ccBEO6nB.s:60     .text.RTC_EnterConfigMode:0000000000000008 .L0 
C:\Users\LOCALH~1\AppData\Local\Temp\ccBEO6nB.s:63     .text.RTC_EnterConfigMode:0000000000000010 .L0 
C:\Users\LOCALH~1\AppData\Local\Temp\ccBEO6nB.s:64     .text.RTC_EnterConfigMode:0000000000000012 .L0 
C:\Users\LOCALH~1\AppData\Local\Temp\ccBEO6nB.s:71     .text.RTC_ExitConfigMode:0000000000000000 RTC_ExitConfigMode
C:\Users\LOCALH~1\AppData\Local\Temp\ccBEO6nB.s:74     .text.RTC_ExitConfigMode:0000000000000000 .L0 
C:\Users\LOCALH~1\AppData\Local\Temp\ccBEO6nB.s:75     .text.RTC_ExitConfigMode:0000000000000000 .L0 
C:\Users\LOCALH~1\AppData\Local\Temp\ccBEO6nB.s:76     .text.RTC_ExitConfigMode:0000000000000000 .L0 
C:\Users\LOCALH~1\AppData\Local\Temp\ccBEO6nB.s:77     .text.RTC_ExitConfigMode:0000000000000000 $x
C:\Users\LOCALH~1\AppData\Local\Temp\ccBEO6nB.s:77     .text.RTC_ExitConfigMode:0000000000000000 .L0 
C:\Users\LOCALH~1\AppData\Local\Temp\ccBEO6nB.s:82     .text.RTC_ExitConfigMode:000000000000000c .L0 
C:\Users\LOCALH~1\AppData\Local\Temp\ccBEO6nB.s:87     .text.RTC_ExitConfigMode:0000000000000016 .L0 
C:\Users\LOCALH~1\AppData\Local\Temp\ccBEO6nB.s:88     .text.RTC_ExitConfigMode:0000000000000018 .L0 
C:\Users\LOCALH~1\AppData\Local\Temp\ccBEO6nB.s:95     .text.RTC_GetCounter:0000000000000000 RTC_GetCounter
C:\Users\LOCALH~1\AppData\Local\Temp\ccBEO6nB.s:98     .text.RTC_GetCounter:0000000000000000 .L0 
C:\Users\LOCALH~1\AppData\Local\Temp\ccBEO6nB.s:99     .text.RTC_GetCounter:0000000000000000 .L0 
C:\Users\LOCALH~1\AppData\Local\Temp\ccBEO6nB.s:101    .text.RTC_GetCounter:0000000000000000 .L0 
C:\Users\LOCALH~1\AppData\Local\Temp\ccBEO6nB.s:102    .text.RTC_GetCounter:0000000000000000 .L0 
C:\Users\LOCALH~1\AppData\Local\Temp\ccBEO6nB.s:103    .text.RTC_GetCounter:0000000000000000 $x
C:\Users\LOCALH~1\AppData\Local\Temp\ccBEO6nB.s:103    .text.RTC_GetCounter:0000000000000000 .L0 
C:\Users\LOCALH~1\AppData\Local\Temp\ccBEO6nB.s:108    .text.RTC_GetCounter:0000000000000008 .L0 
C:\Users\LOCALH~1\AppData\Local\Temp\ccBEO6nB.s:109    .text.RTC_GetCounter:0000000000000008 .L0 
C:\Users\LOCALH~1\AppData\Local\Temp\ccBEO6nB.s:110    .text.RTC_GetCounter:0000000000000008 .L0 
C:\Users\LOCALH~1\AppData\Local\Temp\ccBEO6nB.s:113    .text.RTC_GetCounter:000000000000000a .L0 
C:\Users\LOCALH~1\AppData\Local\Temp\ccBEO6nB.s:114    .text.RTC_GetCounter:000000000000000a .L0 
C:\Users\LOCALH~1\AppData\Local\Temp\ccBEO6nB.s:119    .text.RTC_GetCounter:0000000000000012 .L0 
C:\Users\LOCALH~1\AppData\Local\Temp\ccBEO6nB.s:121    .text.RTC_GetCounter:0000000000000016 .L0 
C:\Users\LOCALH~1\AppData\Local\Temp\ccBEO6nB.s:126    .text.RTC_GetCounter:000000000000001e .L0 
C:\Users\LOCALH~1\AppData\Local\Temp\ccBEO6nB.s:127    .text.RTC_GetCounter:000000000000001e .L0 
C:\Users\LOCALH~1\AppData\Local\Temp\ccBEO6nB.s:128    .text.RTC_GetCounter:000000000000001e .L0 
C:\Users\LOCALH~1\AppData\Local\Temp\ccBEO6nB.s:131    .text.RTC_GetCounter:0000000000000020 .L0 
C:\Users\LOCALH~1\AppData\Local\Temp\ccBEO6nB.s:132    .text.RTC_GetCounter:0000000000000020 .L0 
C:\Users\LOCALH~1\AppData\Local\Temp\ccBEO6nB.s:137    .text.RTC_GetCounter:0000000000000028 .L0 
C:\Users\LOCALH~1\AppData\Local\Temp\ccBEO6nB.s:139    .text.RTC_GetCounter:000000000000002c .L0 
C:\Users\LOCALH~1\AppData\Local\Temp\ccBEO6nB.s:144    .text.RTC_GetCounter:0000000000000034 .L0 
C:\Users\LOCALH~1\AppData\Local\Temp\ccBEO6nB.s:145    .text.RTC_GetCounter:0000000000000034 .L0 
C:\Users\LOCALH~1\AppData\Local\Temp\ccBEO6nB.s:146    .text.RTC_GetCounter:0000000000000034 .L0 
C:\Users\LOCALH~1\AppData\Local\Temp\ccBEO6nB.s:149    .text.RTC_GetCounter:0000000000000036 .L0 
C:\Users\LOCALH~1\AppData\Local\Temp\ccBEO6nB.s:150    .text.RTC_GetCounter:0000000000000036 .L0 
C:\Users\LOCALH~1\AppData\Local\Temp\ccBEO6nB.s:155    .text.RTC_GetCounter:000000000000003e .L0 
C:\Users\LOCALH~1\AppData\Local\Temp\ccBEO6nB.s:157    .text.RTC_GetCounter:0000000000000042 .L0 
C:\Users\LOCALH~1\AppData\Local\Temp\ccBEO6nB.s:158    .text.RTC_GetCounter:0000000000000042 .L0 
C:\Users\LOCALH~1\AppData\Local\Temp\ccBEO6nB.s:160    .text.RTC_GetCounter:0000000000000046 .L0 
C:\Users\LOCALH~1\AppData\Local\Temp\ccBEO6nB.s:165    .text.RTC_GetCounter:000000000000004e .L0 
C:\Users\LOCALH~1\AppData\Local\Temp\ccBEO6nB.s:166    .text.RTC_GetCounter:000000000000004e .L0 
C:\Users\LOCALH~1\AppData\Local\Temp\ccBEO6nB.s:167    .text.RTC_GetCounter:000000000000004e .L0 
C:\Users\LOCALH~1\AppData\Local\Temp\ccBEO6nB.s:170    .text.RTC_GetCounter:0000000000000050 .L0 
C:\Users\LOCALH~1\AppData\Local\Temp\ccBEO6nB.s:171    .text.RTC_GetCounter:0000000000000050 .L0 
C:\Users\LOCALH~1\AppData\Local\Temp\ccBEO6nB.s:177    .text.RTC_GetCounter:0000000000000058 .L0 
C:\Users\LOCALH~1\AppData\Local\Temp\ccBEO6nB.s:181    .text.RTC_GetCounter:000000000000005c .L0 
C:\Users\LOCALH~1\AppData\Local\Temp\ccBEO6nB.s:182    .text.RTC_GetCounter:000000000000005c .L0 
C:\Users\LOCALH~1\AppData\Local\Temp\ccBEO6nB.s:185    .text.RTC_GetCounter:000000000000005e .L0 
C:\Users\LOCALH~1\AppData\Local\Temp\ccBEO6nB.s:188    .text.RTC_GetCounter:0000000000000062 .L0 
C:\Users\LOCALH~1\AppData\Local\Temp\ccBEO6nB.s:195    .text.RTC_SetCounter:0000000000000000 RTC_SetCounter
C:\Users\LOCALH~1\AppData\Local\Temp\ccBEO6nB.s:198    .text.RTC_SetCounter:0000000000000000 .L0 
C:\Users\LOCALH~1\AppData\Local\Temp\ccBEO6nB.s:200    .text.RTC_SetCounter:0000000000000000 $x
C:\Users\LOCALH~1\AppData\Local\Temp\ccBEO6nB.s:200    .text.RTC_SetCounter:0000000000000000 .L0 
C:\Users\LOCALH~1\AppData\Local\Temp\ccBEO6nB.s:201    .text.RTC_SetCounter:0000000000000008 .L0 
C:\Users\LOCALH~1\AppData\Local\Temp\ccBEO6nB.s:202    .text.RTC_SetCounter:0000000000000008 .L0 
C:\Users\LOCALH~1\AppData\Local\Temp\ccBEO6nB.s:203    .text.RTC_SetCounter:0000000000000008 .L0 
C:\Users\LOCALH~1\AppData\Local\Temp\ccBEO6nB.s:205    .text.RTC_SetCounter:0000000000000008 .L0 
C:\Users\LOCALH~1\AppData\Local\Temp\ccBEO6nB.s:206    .text.RTC_SetCounter:0000000000000008 .L0 
C:\Users\LOCALH~1\AppData\Local\Temp\ccBEO6nB.s:208    .text.RTC_SetCounter:000000000000000a .L0 
C:\Users\LOCALH~1\AppData\Local\Temp\ccBEO6nB.s:211    .text.RTC_SetCounter:0000000000000012 .L0 
C:\Users\LOCALH~1\AppData\Local\Temp\ccBEO6nB.s:212    .text.RTC_SetCounter:0000000000000012 .L0 
C:\Users\LOCALH~1\AppData\Local\Temp\ccBEO6nB.s:215    .text.RTC_SetCounter:000000000000001a .L0 
C:\Users\LOCALH~1\AppData\Local\Temp\ccBEO6nB.s:218    .text.RTC_SetCounter:000000000000001c .L0 
C:\Users\LOCALH~1\AppData\Local\Temp\ccBEO6nB.s:220    .text.RTC_SetCounter:0000000000000020 .L0 
C:\Users\LOCALH~1\AppData\Local\Temp\ccBEO6nB.s:221    .text.RTC_SetCounter:0000000000000020 .L0 
C:\Users\LOCALH~1\AppData\Local\Temp\ccBEO6nB.s:224    .text.RTC_SetCounter:0000000000000026 .L0 
C:\Users\LOCALH~1\AppData\Local\Temp\ccBEO6nB.s:227    .text.RTC_SetCounter:000000000000002e .L0 
C:\Users\LOCALH~1\AppData\Local\Temp\ccBEO6nB.s:228    .text.RTC_SetCounter:0000000000000036 .L0 
C:\Users\LOCALH~1\AppData\Local\Temp\ccBEO6nB.s:229    .text.RTC_SetCounter:0000000000000036 .L0 
C:\Users\LOCALH~1\AppData\Local\Temp\ccBEO6nB.s:230    .text.RTC_SetCounter:0000000000000036 .L0 
C:\Users\LOCALH~1\AppData\Local\Temp\ccBEO6nB.s:231    .text.RTC_SetCounter:0000000000000036 .L0 
C:\Users\LOCALH~1\AppData\Local\Temp\ccBEO6nB.s:238    .text.RTC_SetPrescaler:0000000000000000 RTC_SetPrescaler
C:\Users\LOCALH~1\AppData\Local\Temp\ccBEO6nB.s:241    .text.RTC_SetPrescaler:0000000000000000 .L0 
C:\Users\LOCALH~1\AppData\Local\Temp\ccBEO6nB.s:243    .text.RTC_SetPrescaler:0000000000000000 $x
C:\Users\LOCALH~1\AppData\Local\Temp\ccBEO6nB.s:243    .text.RTC_SetPrescaler:0000000000000000 .L0 
C:\Users\LOCALH~1\AppData\Local\Temp\ccBEO6nB.s:244    .text.RTC_SetPrescaler:0000000000000008 .L0 
C:\Users\LOCALH~1\AppData\Local\Temp\ccBEO6nB.s:245    .text.RTC_SetPrescaler:0000000000000008 .L0 
C:\Users\LOCALH~1\AppData\Local\Temp\ccBEO6nB.s:246    .text.RTC_SetPrescaler:0000000000000008 .L0 
C:\Users\LOCALH~1\AppData\Local\Temp\ccBEO6nB.s:248    .text.RTC_SetPrescaler:0000000000000008 .L0 
C:\Users\LOCALH~1\AppData\Local\Temp\ccBEO6nB.s:249    .text.RTC_SetPrescaler:0000000000000008 .L0 
C:\Users\LOCALH~1\AppData\Local\Temp\ccBEO6nB.s:251    .text.RTC_SetPrescaler:000000000000000a .L0 
C:\Users\LOCALH~1\AppData\Local\Temp\ccBEO6nB.s:254    .text.RTC_SetPrescaler:0000000000000012 .L0 
C:\Users\LOCALH~1\AppData\Local\Temp\ccBEO6nB.s:255    .text.RTC_SetPrescaler:0000000000000012 .L0 
C:\Users\LOCALH~1\AppData\Local\Temp\ccBEO6nB.s:257    .text.RTC_SetPrescaler:0000000000000016 .L0 
C:\Users\LOCALH~1\AppData\Local\Temp\ccBEO6nB.s:259    .text.RTC_SetPrescaler:000000000000001a .L0 
C:\Users\LOCALH~1\AppData\Local\Temp\ccBEO6nB.s:261    .text.RTC_SetPrescaler:000000000000001c .L0 
C:\Users\LOCALH~1\AppData\Local\Temp\ccBEO6nB.s:264    .text.RTC_SetPrescaler:000000000000001e .L0 
C:\Users\LOCALH~1\AppData\Local\Temp\ccBEO6nB.s:266    .text.RTC_SetPrescaler:0000000000000022 .L0 
C:\Users\LOCALH~1\AppData\Local\Temp\ccBEO6nB.s:267    .text.RTC_SetPrescaler:0000000000000022 .L0 
C:\Users\LOCALH~1\AppData\Local\Temp\ccBEO6nB.s:270    .text.RTC_SetPrescaler:0000000000000028 .L0 
C:\Users\LOCALH~1\AppData\Local\Temp\ccBEO6nB.s:273    .text.RTC_SetPrescaler:0000000000000030 .L0 
C:\Users\LOCALH~1\AppData\Local\Temp\ccBEO6nB.s:274    .text.RTC_SetPrescaler:0000000000000038 .L0 
C:\Users\LOCALH~1\AppData\Local\Temp\ccBEO6nB.s:275    .text.RTC_SetPrescaler:0000000000000038 .L0 
C:\Users\LOCALH~1\AppData\Local\Temp\ccBEO6nB.s:276    .text.RTC_SetPrescaler:0000000000000038 .L0 
C:\Users\LOCALH~1\AppData\Local\Temp\ccBEO6nB.s:277    .text.RTC_SetPrescaler:0000000000000038 .L0 
C:\Users\LOCALH~1\AppData\Local\Temp\ccBEO6nB.s:284    .text.RTC_SetAlarm:0000000000000000 RTC_SetAlarm
C:\Users\LOCALH~1\AppData\Local\Temp\ccBEO6nB.s:287    .text.RTC_SetAlarm:0000000000000000 .L0 
C:\Users\LOCALH~1\AppData\Local\Temp\ccBEO6nB.s:289    .text.RTC_SetAlarm:0000000000000000 $x
C:\Users\LOCALH~1\AppData\Local\Temp\ccBEO6nB.s:289    .text.RTC_SetAlarm:0000000000000000 .L0 
C:\Users\LOCALH~1\AppData\Local\Temp\ccBEO6nB.s:290    .text.RTC_SetAlarm:0000000000000008 .L0 
C:\Users\LOCALH~1\AppData\Local\Temp\ccBEO6nB.s:291    .text.RTC_SetAlarm:0000000000000008 .L0 
C:\Users\LOCALH~1\AppData\Local\Temp\ccBEO6nB.s:292    .text.RTC_SetAlarm:0000000000000008 .L0 
C:\Users\LOCALH~1\AppData\Local\Temp\ccBEO6nB.s:294    .text.RTC_SetAlarm:0000000000000008 .L0 
C:\Users\LOCALH~1\AppData\Local\Temp\ccBEO6nB.s:295    .text.RTC_SetAlarm:0000000000000008 .L0 
C:\Users\LOCALH~1\AppData\Local\Temp\ccBEO6nB.s:297    .text.RTC_SetAlarm:000000000000000a .L0 
C:\Users\LOCALH~1\AppData\Local\Temp\ccBEO6nB.s:300    .text.RTC_SetAlarm:0000000000000012 .L0 
C:\Users\LOCALH~1\AppData\Local\Temp\ccBEO6nB.s:301    .text.RTC_SetAlarm:0000000000000012 .L0 
C:\Users\LOCALH~1\AppData\Local\Temp\ccBEO6nB.s:304    .text.RTC_SetAlarm:000000000000001a .L0 
C:\Users\LOCALH~1\AppData\Local\Temp\ccBEO6nB.s:307    .text.RTC_SetAlarm:000000000000001c .L0 
C:\Users\LOCALH~1\AppData\Local\Temp\ccBEO6nB.s:309    .text.RTC_SetAlarm:0000000000000020 .L0 
C:\Users\LOCALH~1\AppData\Local\Temp\ccBEO6nB.s:310    .text.RTC_SetAlarm:0000000000000020 .L0 
C:\Users\LOCALH~1\AppData\Local\Temp\ccBEO6nB.s:313    .text.RTC_SetAlarm:0000000000000026 .L0 
C:\Users\LOCALH~1\AppData\Local\Temp\ccBEO6nB.s:316    .text.RTC_SetAlarm:000000000000002e .L0 
C:\Users\LOCALH~1\AppData\Local\Temp\ccBEO6nB.s:317    .text.RTC_SetAlarm:0000000000000036 .L0 
C:\Users\LOCALH~1\AppData\Local\Temp\ccBEO6nB.s:318    .text.RTC_SetAlarm:0000000000000036 .L0 
C:\Users\LOCALH~1\AppData\Local\Temp\ccBEO6nB.s:319    .text.RTC_SetAlarm:0000000000000036 .L0 
C:\Users\LOCALH~1\AppData\Local\Temp\ccBEO6nB.s:320    .text.RTC_SetAlarm:0000000000000036 .L0 
C:\Users\LOCALH~1\AppData\Local\Temp\ccBEO6nB.s:327    .text.RTC_GetDivider:0000000000000000 RTC_GetDivider
C:\Users\LOCALH~1\AppData\Local\Temp\ccBEO6nB.s:330    .text.RTC_GetDivider:0000000000000000 .L0 
C:\Users\LOCALH~1\AppData\Local\Temp\ccBEO6nB.s:331    .text.RTC_GetDivider:0000000000000000 .L0 
C:\Users\LOCALH~1\AppData\Local\Temp\ccBEO6nB.s:333    .text.RTC_GetDivider:0000000000000000 .L0 
C:\Users\LOCALH~1\AppData\Local\Temp\ccBEO6nB.s:334    .text.RTC_GetDivider:0000000000000000 .L0 
C:\Users\LOCALH~1\AppData\Local\Temp\ccBEO6nB.s:335    .text.RTC_GetDivider:0000000000000000 $x
C:\Users\LOCALH~1\AppData\Local\Temp\ccBEO6nB.s:335    .text.RTC_GetDivider:0000000000000000 .L0 
C:\Users\LOCALH~1\AppData\Local\Temp\ccBEO6nB.s:340    .text.RTC_GetDivider:0000000000000008 .L0 
C:\Users\LOCALH~1\AppData\Local\Temp\ccBEO6nB.s:341    .text.RTC_GetDivider:0000000000000008 .L0 
C:\Users\LOCALH~1\AppData\Local\Temp\ccBEO6nB.s:342    .text.RTC_GetDivider:0000000000000008 .L0 
C:\Users\LOCALH~1\AppData\Local\Temp\ccBEO6nB.s:345    .text.RTC_GetDivider:000000000000000a .L0 
C:\Users\LOCALH~1\AppData\Local\Temp\ccBEO6nB.s:346    .text.RTC_GetDivider:000000000000000a .L0 
C:\Users\LOCALH~1\AppData\Local\Temp\ccBEO6nB.s:351    .text.RTC_GetDivider:0000000000000012 .L0 
C:\Users\LOCALH~1\AppData\Local\Temp\ccBEO6nB.s:353    .text.RTC_GetDivider:0000000000000016 .L0 
C:\Users\LOCALH~1\AppData\Local\Temp\ccBEO6nB.s:358    .text.RTC_GetDivider:000000000000001e .L0 
C:\Users\LOCALH~1\AppData\Local\Temp\ccBEO6nB.s:359    .text.RTC_GetDivider:000000000000001e .L0 
C:\Users\LOCALH~1\AppData\Local\Temp\ccBEO6nB.s:360    .text.RTC_GetDivider:000000000000001e .L0 
C:\Users\LOCALH~1\AppData\Local\Temp\ccBEO6nB.s:363    .text.RTC_GetDivider:0000000000000020 .L0 
C:\Users\LOCALH~1\AppData\Local\Temp\ccBEO6nB.s:364    .text.RTC_GetDivider:0000000000000020 .L0 
C:\Users\LOCALH~1\AppData\Local\Temp\ccBEO6nB.s:369    .text.RTC_GetDivider:0000000000000028 .L0 
C:\Users\LOCALH~1\AppData\Local\Temp\ccBEO6nB.s:371    .text.RTC_GetDivider:000000000000002c .L0 
C:\Users\LOCALH~1\AppData\Local\Temp\ccBEO6nB.s:376    .text.RTC_GetDivider:0000000000000034 .L0 
C:\Users\LOCALH~1\AppData\Local\Temp\ccBEO6nB.s:377    .text.RTC_GetDivider:0000000000000034 .L0 
C:\Users\LOCALH~1\AppData\Local\Temp\ccBEO6nB.s:378    .text.RTC_GetDivider:0000000000000034 .L0 
C:\Users\LOCALH~1\AppData\Local\Temp\ccBEO6nB.s:381    .text.RTC_GetDivider:0000000000000036 .L0 
C:\Users\LOCALH~1\AppData\Local\Temp\ccBEO6nB.s:382    .text.RTC_GetDivider:0000000000000036 .L0 
C:\Users\LOCALH~1\AppData\Local\Temp\ccBEO6nB.s:387    .text.RTC_GetDivider:000000000000003e .L0 
C:\Users\LOCALH~1\AppData\Local\Temp\ccBEO6nB.s:389    .text.RTC_GetDivider:0000000000000042 .L0 
C:\Users\LOCALH~1\AppData\Local\Temp\ccBEO6nB.s:390    .text.RTC_GetDivider:0000000000000042 .L0 
C:\Users\LOCALH~1\AppData\Local\Temp\ccBEO6nB.s:392    .text.RTC_GetDivider:0000000000000046 .L0 
C:\Users\LOCALH~1\AppData\Local\Temp\ccBEO6nB.s:397    .text.RTC_GetDivider:000000000000004e .L0 
C:\Users\LOCALH~1\AppData\Local\Temp\ccBEO6nB.s:398    .text.RTC_GetDivider:000000000000004e .L0 
C:\Users\LOCALH~1\AppData\Local\Temp\ccBEO6nB.s:399    .text.RTC_GetDivider:000000000000004e .L0 
C:\Users\LOCALH~1\AppData\Local\Temp\ccBEO6nB.s:402    .text.RTC_GetDivider:0000000000000050 .L0 
C:\Users\LOCALH~1\AppData\Local\Temp\ccBEO6nB.s:403    .text.RTC_GetDivider:0000000000000050 .L0 
C:\Users\LOCALH~1\AppData\Local\Temp\ccBEO6nB.s:409    .text.RTC_GetDivider:0000000000000058 .L0 
C:\Users\LOCALH~1\AppData\Local\Temp\ccBEO6nB.s:413    .text.RTC_GetDivider:000000000000005c .L0 
C:\Users\LOCALH~1\AppData\Local\Temp\ccBEO6nB.s:414    .text.RTC_GetDivider:000000000000005c .L0 
C:\Users\LOCALH~1\AppData\Local\Temp\ccBEO6nB.s:419    .text.RTC_GetDivider:0000000000000064 .L0 
C:\Users\LOCALH~1\AppData\Local\Temp\ccBEO6nB.s:422    .text.RTC_GetDivider:0000000000000068 .L0 
C:\Users\LOCALH~1\AppData\Local\Temp\ccBEO6nB.s:429    .text.RTC_WaitForLastTask:0000000000000000 RTC_WaitForLastTask
C:\Users\LOCALH~1\AppData\Local\Temp\ccBEO6nB.s:432    .text.RTC_WaitForLastTask:0000000000000000 .L0 
C:\Users\LOCALH~1\AppData\Local\Temp\ccBEO6nB.s:433    .text.RTC_WaitForLastTask:0000000000000000 .L0 
C:\Users\LOCALH~1\AppData\Local\Temp\ccBEO6nB.s:434    .text.RTC_WaitForLastTask:0000000000000000 .L0 
C:\Users\LOCALH~1\AppData\Local\Temp\ccBEO6nB.s:435    .text.RTC_WaitForLastTask:0000000000000000 $x
C:\Users\LOCALH~1\AppData\Local\Temp\ccBEO6nB.s:435    .text.RTC_WaitForLastTask:0000000000000000 .L0 
C:\Users\LOCALH~1\AppData\Local\Temp\ccBEO6nB.s:439    .text.RTC_WaitForLastTask:0000000000000008 .L0 
C:\Users\LOCALH~1\AppData\Local\Temp\ccBEO6nB.s:440    .text.RTC_WaitForLastTask:0000000000000008 .L0 
C:\Users\LOCALH~1\AppData\Local\Temp\ccBEO6nB.s:441    .text.RTC_WaitForLastTask:0000000000000008 .L0 
C:\Users\LOCALH~1\AppData\Local\Temp\ccBEO6nB.s:443    .text.RTC_WaitForLastTask:000000000000000a .L0 
C:\Users\LOCALH~1\AppData\Local\Temp\ccBEO6nB.s:446    .text.RTC_WaitForLastTask:0000000000000010 .L0 
C:\Users\LOCALH~1\AppData\Local\Temp\ccBEO6nB.s:447    .text.RTC_WaitForLastTask:0000000000000012 .L0 
C:\Users\LOCALH~1\AppData\Local\Temp\ccBEO6nB.s:454    .text.RTC_WaitForSynchro:0000000000000000 RTC_WaitForSynchro
C:\Users\LOCALH~1\AppData\Local\Temp\ccBEO6nB.s:457    .text.RTC_WaitForSynchro:0000000000000000 .L0 
C:\Users\LOCALH~1\AppData\Local\Temp\ccBEO6nB.s:458    .text.RTC_WaitForSynchro:0000000000000000 .L0 
C:\Users\LOCALH~1\AppData\Local\Temp\ccBEO6nB.s:459    .text.RTC_WaitForSynchro:0000000000000000 .L0 
C:\Users\LOCALH~1\AppData\Local\Temp\ccBEO6nB.s:460    .text.RTC_WaitForSynchro:0000000000000000 $x
C:\Users\LOCALH~1\AppData\Local\Temp\ccBEO6nB.s:460    .text.RTC_WaitForSynchro:0000000000000000 .L0 
C:\Users\LOCALH~1\AppData\Local\Temp\ccBEO6nB.s:466    .text.RTC_WaitForSynchro:0000000000000010 .L0 
C:\Users\LOCALH~1\AppData\Local\Temp\ccBEO6nB.s:472    .text.RTC_WaitForSynchro:0000000000000018 .L0 
C:\Users\LOCALH~1\AppData\Local\Temp\ccBEO6nB.s:473    .text.RTC_WaitForSynchro:0000000000000018 .L0 
C:\Users\LOCALH~1\AppData\Local\Temp\ccBEO6nB.s:474    .text.RTC_WaitForSynchro:0000000000000018 .L0 
C:\Users\LOCALH~1\AppData\Local\Temp\ccBEO6nB.s:475    .text.RTC_WaitForSynchro:0000000000000018 .L0 
C:\Users\LOCALH~1\AppData\Local\Temp\ccBEO6nB.s:477    .text.RTC_WaitForSynchro:000000000000001a .L0 
C:\Users\LOCALH~1\AppData\Local\Temp\ccBEO6nB.s:480    .text.RTC_WaitForSynchro:000000000000001e .L0 
C:\Users\LOCALH~1\AppData\Local\Temp\ccBEO6nB.s:481    .text.RTC_WaitForSynchro:0000000000000020 .L0 
C:\Users\LOCALH~1\AppData\Local\Temp\ccBEO6nB.s:488    .text.RTC_GetFlagStatus:0000000000000000 RTC_GetFlagStatus
C:\Users\LOCALH~1\AppData\Local\Temp\ccBEO6nB.s:491    .text.RTC_GetFlagStatus:0000000000000000 .L0 
C:\Users\LOCALH~1\AppData\Local\Temp\ccBEO6nB.s:493    .text.RTC_GetFlagStatus:0000000000000000 .L0 
C:\Users\LOCALH~1\AppData\Local\Temp\ccBEO6nB.s:494    .text.RTC_GetFlagStatus:0000000000000000 .L0 
C:\Users\LOCALH~1\AppData\Local\Temp\ccBEO6nB.s:495    .text.RTC_GetFlagStatus:0000000000000000 .L0 
C:\Users\LOCALH~1\AppData\Local\Temp\ccBEO6nB.s:496    .text.RTC_GetFlagStatus:0000000000000000 $x
C:\Users\LOCALH~1\AppData\Local\Temp\ccBEO6nB.s:496    .text.RTC_GetFlagStatus:0000000000000000 .L0 
C:\Users\LOCALH~1\AppData\Local\Temp\ccBEO6nB.s:501    .text.RTC_GetFlagStatus:000000000000000a .L0 
C:\Users\LOCALH~1\AppData\Local\Temp\ccBEO6nB.s:502    .text.RTC_GetFlagStatus:000000000000000a .L0 
C:\Users\LOCALH~1\AppData\Local\Temp\ccBEO6nB.s:505    .text.RTC_GetFlagStatus:000000000000000c .L0 
C:\Users\LOCALH~1\AppData\Local\Temp\ccBEO6nB.s:507    .text.RTC_GetFlagStatus:0000000000000012 .L0 
C:\Users\LOCALH~1\AppData\Local\Temp\ccBEO6nB.s:514    .text.RTC_ClearFlag:0000000000000000 RTC_ClearFlag
C:\Users\LOCALH~1\AppData\Local\Temp\ccBEO6nB.s:517    .text.RTC_ClearFlag:0000000000000000 .L0 
C:\Users\LOCALH~1\AppData\Local\Temp\ccBEO6nB.s:519    .text.RTC_ClearFlag:0000000000000000 .L0 
C:\Users\LOCALH~1\AppData\Local\Temp\ccBEO6nB.s:520    .text.RTC_ClearFlag:0000000000000000 .L0 
C:\Users\LOCALH~1\AppData\Local\Temp\ccBEO6nB.s:521    .text.RTC_ClearFlag:0000000000000000 $x
C:\Users\LOCALH~1\AppData\Local\Temp\ccBEO6nB.s:521    .text.RTC_ClearFlag:0000000000000000 .L0 
C:\Users\LOCALH~1\AppData\Local\Temp\ccBEO6nB.s:524    .text.RTC_ClearFlag:0000000000000008 .L0 
C:\Users\LOCALH~1\AppData\Local\Temp\ccBEO6nB.s:527    .text.RTC_ClearFlag:000000000000000c .L0 
C:\Users\LOCALH~1\AppData\Local\Temp\ccBEO6nB.s:530    .text.RTC_ClearFlag:0000000000000012 .L0 
C:\Users\LOCALH~1\AppData\Local\Temp\ccBEO6nB.s:531    .text.RTC_ClearFlag:0000000000000014 .L0 
C:\Users\LOCALH~1\AppData\Local\Temp\ccBEO6nB.s:538    .text.RTC_GetITStatus:0000000000000000 RTC_GetITStatus
C:\Users\LOCALH~1\AppData\Local\Temp\ccBEO6nB.s:541    .text.RTC_GetITStatus:0000000000000000 .L0 
C:\Users\LOCALH~1\AppData\Local\Temp\ccBEO6nB.s:543    .text.RTC_GetITStatus:0000000000000000 .L0 
C:\Users\LOCALH~1\AppData\Local\Temp\ccBEO6nB.s:544    .text.RTC_GetITStatus:0000000000000000 .L0 
C:\Users\LOCALH~1\AppData\Local\Temp\ccBEO6nB.s:545    .text.RTC_GetITStatus:0000000000000000 .L0 
C:\Users\LOCALH~1\AppData\Local\Temp\ccBEO6nB.s:546    .text.RTC_GetITStatus:0000000000000000 $x
C:\Users\LOCALH~1\AppData\Local\Temp\ccBEO6nB.s:546    .text.RTC_GetITStatus:0000000000000000 .L0 
C:\Users\LOCALH~1\AppData\Local\Temp\ccBEO6nB.s:549    .text.RTC_GetITStatus:0000000000000008 .L0 
C:\Users\LOCALH~1\AppData\Local\Temp\ccBEO6nB.s:551    .text.RTC_GetITStatus:000000000000000c .L0 
C:\Users\LOCALH~1\AppData\Local\Temp\ccBEO6nB.s:553    .text.RTC_GetITStatus:000000000000000e .L0 
C:\Users\LOCALH~1\AppData\Local\Temp\ccBEO6nB.s:555    .text.RTC_GetITStatus:0000000000000010 .L0 
C:\Users\LOCALH~1\AppData\Local\Temp\ccBEO6nB.s:558    .text.RTC_GetITStatus:0000000000000012 .L0 
C:\Users\LOCALH~1\AppData\Local\Temp\ccBEO6nB.s:559    .text.RTC_GetITStatus:0000000000000012 .L0 
C:\Users\LOCALH~1\AppData\Local\Temp\ccBEO6nB.s:561    .text.RTC_GetITStatus:0000000000000014 .L0 
C:\Users\LOCALH~1\AppData\Local\Temp\ccBEO6nB.s:568    .text.RTC_GetITStatus:000000000000001c .L0 
C:\Users\LOCALH~1\AppData\Local\Temp\ccBEO6nB.s:571    .text.RTC_GetITStatus:000000000000001e .L0 
C:\Users\LOCALH~1\AppData\Local\Temp\ccBEO6nB.s:572    .text.RTC_GetITStatus:000000000000001e .L0 
C:\Users\LOCALH~1\AppData\Local\Temp\ccBEO6nB.s:573    .text.RTC_GetITStatus:0000000000000020 .L0 
C:\Users\LOCALH~1\AppData\Local\Temp\ccBEO6nB.s:580    .text.RTC_ClearITPendingBit:0000000000000000 RTC_ClearITPendingBit
C:\Users\LOCALH~1\AppData\Local\Temp\ccBEO6nB.s:582    .text.RTC_ClearITPendingBit:0000000000000000 .L0 
C:\Users\LOCALH~1\AppData\Local\Temp\ccBEO6nB.s:584    .text.RTC_ClearITPendingBit:0000000000000000 $x
C:\Users\LOCALH~1\AppData\Local\Temp\ccBEO6nB.s:584    .text.RTC_ClearITPendingBit:0000000000000000 .L0 
C:\Users\LOCALH~1\AppData\Local\Temp\ccBEO6nB.s:585    .text.RTC_ClearITPendingBit:0000000000000008 .L0 
C:\Users\LOCALH~1\AppData\Local\Temp\ccBEO6nB.s:2280   .debug_line_str:0000000000000076 .L0 
C:\Users\LOCALH~1\AppData\Local\Temp\ccBEO6nB.s:2280   .debug_line_str:00000000000000cb .L0 
C:\Users\LOCALH~1\AppData\Local\Temp\ccBEO6nB.s:2280   .debug_line_str:00000000000000dd .L0 
C:\Users\LOCALH~1\AppData\Local\Temp\ccBEO6nB.s:2280   .debug_line_str:0000000000000139 .L0 
C:\Users\LOCALH~1\AppData\Local\Temp\ccBEO6nB.s:2280   .debug_line_str:0000000000000191 .L0 
C:\Users\LOCALH~1\AppData\Local\Temp\ccBEO6nB.s:2280   .debug_line_str:00000000000001e7 .L0 
C:\Users\LOCALH~1\AppData\Local\Temp\ccBEO6nB.s:2280   .debug_line_str:0000000000000247 .L0 
C:\Users\LOCALH~1\AppData\Local\Temp\ccBEO6nB.s:2280   .debug_line_str:0000000000000256 .L0 
C:\Users\LOCALH~1\AppData\Local\Temp\ccBEO6nB.s:2280   .debug_line_str:0000000000000265 .L0 
C:\Users\LOCALH~1\AppData\Local\Temp\ccBEO6nB.s:2280   .debug_line_str:0000000000000276 .L0 
C:\Users\LOCALH~1\AppData\Local\Temp\ccBEO6nB.s:2280   .debug_line_str:0000000000000280 .L0 
C:\Users\LOCALH~1\AppData\Local\Temp\ccBEO6nB.s:2280   .debug_line_str:000000000000028d .L0 
C:\Users\LOCALH~1\AppData\Local\Temp\ccBEO6nB.s:47     .text.RTC_ITConfig:000000000000001a .L0 
C:\Users\LOCALH~1\AppData\Local\Temp\ccBEO6nB.s:67     .text.RTC_EnterConfigMode:0000000000000012 .L0 
C:\Users\LOCALH~1\AppData\Local\Temp\ccBEO6nB.s:91     .text.RTC_ExitConfigMode:0000000000000018 .L0 
C:\Users\LOCALH~1\AppData\Local\Temp\ccBEO6nB.s:191    .text.RTC_GetCounter:0000000000000062 .L0 
C:\Users\LOCALH~1\AppData\Local\Temp\ccBEO6nB.s:234    .text.RTC_SetCounter:0000000000000036 .L0 
C:\Users\LOCALH~1\AppData\Local\Temp\ccBEO6nB.s:280    .text.RTC_SetPrescaler:0000000000000038 .L0 
C:\Users\LOCALH~1\AppData\Local\Temp\ccBEO6nB.s:323    .text.RTC_SetAlarm:0000000000000036 .L0 
C:\Users\LOCALH~1\AppData\Local\Temp\ccBEO6nB.s:425    .text.RTC_GetDivider:0000000000000068 .L0 
C:\Users\LOCALH~1\AppData\Local\Temp\ccBEO6nB.s:450    .text.RTC_WaitForLastTask:0000000000000012 .L0 
C:\Users\LOCALH~1\AppData\Local\Temp\ccBEO6nB.s:484    .text.RTC_WaitForSynchro:0000000000000020 .L0 
C:\Users\LOCALH~1\AppData\Local\Temp\ccBEO6nB.s:510    .text.RTC_GetFlagStatus:0000000000000012 .L0 
C:\Users\LOCALH~1\AppData\Local\Temp\ccBEO6nB.s:534    .text.RTC_ClearFlag:0000000000000014 .L0 
C:\Users\LOCALH~1\AppData\Local\Temp\ccBEO6nB.s:576    .text.RTC_GetITStatus:0000000000000020 .L0 
C:\Users\LOCALH~1\AppData\Local\Temp\ccBEO6nB.s:588    .text.RTC_ClearITPendingBit:0000000000000008 .L0 
                     .debug_frame:0000000000000000 .L0 
C:\Users\LOCALH~1\AppData\Local\Temp\ccBEO6nB.s:36     .text.RTC_ITConfig:0000000000000012 .L2
C:\Users\LOCALH~1\AppData\Local\Temp\ccBEO6nB.s:30     .text.RTC_ITConfig:000000000000000c .L4
C:\Users\LOCALH~1\AppData\Local\Temp\ccBEO6nB.s:106    .text.RTC_GetCounter:0000000000000008 .L8
C:\Users\LOCALH~1\AppData\Local\Temp\ccBEO6nB.s:124    .text.RTC_GetCounter:000000000000001e .L9
C:\Users\LOCALH~1\AppData\Local\Temp\ccBEO6nB.s:142    .text.RTC_GetCounter:0000000000000034 .L10
C:\Users\LOCALH~1\AppData\Local\Temp\ccBEO6nB.s:179    .text.RTC_GetCounter:000000000000005c .L11
C:\Users\LOCALH~1\AppData\Local\Temp\ccBEO6nB.s:163    .text.RTC_GetCounter:000000000000004e .L12
C:\Users\LOCALH~1\AppData\Local\Temp\ccBEO6nB.s:338    .text.RTC_GetDivider:0000000000000008 .L24
C:\Users\LOCALH~1\AppData\Local\Temp\ccBEO6nB.s:356    .text.RTC_GetDivider:000000000000001e .L25
C:\Users\LOCALH~1\AppData\Local\Temp\ccBEO6nB.s:374    .text.RTC_GetDivider:0000000000000034 .L26
C:\Users\LOCALH~1\AppData\Local\Temp\ccBEO6nB.s:411    .text.RTC_GetDivider:000000000000005c .L27
C:\Users\LOCALH~1\AppData\Local\Temp\ccBEO6nB.s:395    .text.RTC_GetDivider:000000000000004e .L28
C:\Users\LOCALH~1\AppData\Local\Temp\ccBEO6nB.s:437    .text.RTC_WaitForLastTask:0000000000000008 .L34
C:\Users\LOCALH~1\AppData\Local\Temp\ccBEO6nB.s:471    .text.RTC_WaitForSynchro:0000000000000018 .L38
C:\Users\LOCALH~1\AppData\Local\Temp\ccBEO6nB.s:566    .text.RTC_GetITStatus:000000000000001c .L45
C:\Users\LOCALH~1\AppData\Local\Temp\ccBEO6nB.s:1157   .debug_abbrev:0000000000000000 .Ldebug_abbrev0
C:\Users\LOCALH~1\AppData\Local\Temp\ccBEO6nB.s:2251   .debug_str:00000000000002b8 .LASF71
C:\Users\LOCALH~1\AppData\Local\Temp\ccBEO6nB.s:2278   .debug_line_str:0000000000000055 .LASF0
C:\Users\LOCALH~1\AppData\Local\Temp\ccBEO6nB.s:2276   .debug_line_str:0000000000000000 .LASF1
C:\Users\LOCALH~1\AppData\Local\Temp\ccBEO6nB.s:2083   .debug_rnglists:000000000000000c .LLRL21
C:\Users\LOCALH~1\AppData\Local\Temp\ccBEO6nB.s:2129   .debug_line:0000000000000000 .Ldebug_line0
C:\Users\LOCALH~1\AppData\Local\Temp\ccBEO6nB.s:2197   .debug_str:0000000000000195 .LASF2
C:\Users\LOCALH~1\AppData\Local\Temp\ccBEO6nB.s:2191   .debug_str:0000000000000169 .LASF3
C:\Users\LOCALH~1\AppData\Local\Temp\ccBEO6nB.s:2177   .debug_str:0000000000000108 .LASF6
C:\Users\LOCALH~1\AppData\Local\Temp\ccBEO6nB.s:2189   .debug_str:000000000000015b .LASF4
C:\Users\LOCALH~1\AppData\Local\Temp\ccBEO6nB.s:2155   .debug_str:0000000000000084 .LASF5
C:\Users\LOCALH~1\AppData\Local\Temp\ccBEO6nB.s:2153   .debug_str:0000000000000079 .LASF7
C:\Users\LOCALH~1\AppData\Local\Temp\ccBEO6nB.s:2207   .debug_str:00000000000001cf .LASF8
C:\Users\LOCALH~1\AppData\Local\Temp\ccBEO6nB.s:2175   .debug_str:00000000000000ff .LASF9
C:\Users\LOCALH~1\AppData\Local\Temp\ccBEO6nB.s:2149   .debug_str:0000000000000060 .LASF10
C:\Users\LOCALH~1\AppData\Local\Temp\ccBEO6nB.s:2203   .debug_str:00000000000001b2 .LASF11
C:\Users\LOCALH~1\AppData\Local\Temp\ccBEO6nB.s:2171   .debug_str:00000000000000e8 .LASF12
C:\Users\LOCALH~1\AppData\Local\Temp\ccBEO6nB.s:2193   .debug_str:0000000000000175 .LASF13
C:\Users\LOCALH~1\AppData\Local\Temp\ccBEO6nB.s:2157   .debug_str:000000000000008e .LASF14
C:\Users\LOCALH~1\AppData\Local\Temp\ccBEO6nB.s:2199   .debug_str:00000000000001a2 .LASF15
C:\Users\LOCALH~1\AppData\Local\Temp\ccBEO6nB.s:2195   .debug_str:000000000000018c .LASF16
C:\Users\LOCALH~1\AppData\Local\Temp\ccBEO6nB.s:2163   .debug_str:00000000000000a8 .LASF17
C:\Users\LOCALH~1\AppData\Local\Temp\ccBEO6nB.s:2273   .debug_str:0000000000000406 .LASF18
C:\Users\LOCALH~1\AppData\Local\Temp\ccBEO6nB.s:2245   .debug_str:000000000000028f .LASF19
C:\Users\LOCALH~1\AppData\Local\Temp\ccBEO6nB.s:2257   .debug_str:00000000000003c7 .LASF20
C:\Users\LOCALH~1\AppData\Local\Temp\ccBEO6nB.s:2271   .debug_str:00000000000003fb .LASF21
C:\Users\LOCALH~1\AppData\Local\Temp\ccBEO6nB.s:2173   .debug_str:00000000000000f6 .LASF22
C:\Users\LOCALH~1\AppData\Local\Temp\ccBEO6nB.s:2215   .debug_str:0000000000000209 .LASF23
C:\Users\LOCALH~1\AppData\Local\Temp\ccBEO6nB.s:2223   .debug_str:0000000000000226 .LASF24
C:\Users\LOCALH~1\AppData\Local\Temp\ccBEO6nB.s:2217   .debug_str:000000000000020f .LASF25
C:\Users\LOCALH~1\AppData\Local\Temp\ccBEO6nB.s:2225   .debug_str:0000000000000230 .LASF26
C:\Users\LOCALH~1\AppData\Local\Temp\ccBEO6nB.s:2133   .debug_str:0000000000000011 .LASF27
C:\Users\LOCALH~1\AppData\Local\Temp\ccBEO6nB.s:2227   .debug_str:000000000000023a .LASF28
C:\Users\LOCALH~1\AppData\Local\Temp\ccBEO6nB.s:2135   .debug_str:0000000000000017 .LASF29
C:\Users\LOCALH~1\AppData\Local\Temp\ccBEO6nB.s:2229   .debug_str:0000000000000244 .LASF30
C:\Users\LOCALH~1\AppData\Local\Temp\ccBEO6nB.s:2139   .debug_str:000000000000002a .LASF31
C:\Users\LOCALH~1\AppData\Local\Temp\ccBEO6nB.s:2231   .debug_str:000000000000024e .LASF32
C:\Users\LOCALH~1\AppData\Local\Temp\ccBEO6nB.s:2141   .debug_str:000000000000002f .LASF33
C:\Users\LOCALH~1\AppData\Local\Temp\ccBEO6nB.s:2233   .debug_str:0000000000000258 .LASF34
C:\Users\LOCALH~1\AppData\Local\Temp\ccBEO6nB.s:2221   .debug_str:0000000000000221 .LASF35
C:\Users\LOCALH~1\AppData\Local\Temp\ccBEO6nB.s:2235   .debug_str:0000000000000262 .LASF36
C:\Users\LOCALH~1\AppData\Local\Temp\ccBEO6nB.s:2249   .debug_str:00000000000002b3 .LASF37
C:\Users\LOCALH~1\AppData\Local\Temp\ccBEO6nB.s:2237   .debug_str:000000000000026c .LASF38
C:\Users\LOCALH~1\AppData\Local\Temp\ccBEO6nB.s:2263   .debug_str:00000000000003e3 .LASF39
C:\Users\LOCALH~1\AppData\Local\Temp\ccBEO6nB.s:2239   .debug_str:0000000000000276 .LASF40
C:\Users\LOCALH~1\AppData\Local\Temp\ccBEO6nB.s:2267   .debug_str:00000000000003ee .LASF41
C:\Users\LOCALH~1\AppData\Local\Temp\ccBEO6nB.s:2241   .debug_str:0000000000000280 .LASF42
C:\Users\LOCALH~1\AppData\Local\Temp\ccBEO6nB.s:2219   .debug_str:0000000000000215 .LASF43
C:\Users\LOCALH~1\AppData\Local\Temp\ccBEO6nB.s:2185   .debug_str:000000000000013d .LASF44
C:\Users\LOCALH~1\AppData\Local\Temp\ccBEO6nB.s:2209   .debug_str:00000000000001e2 .LASF45
C:\Users\LOCALH~1\AppData\Local\Temp\ccBEO6nB.s:2165   .debug_str:00000000000000b0 .LASF72
C:\Users\LOCALH~1\AppData\Local\Temp\ccBEO6nB.s:2269   .debug_str:00000000000003f4 .LASF46
C:\Users\LOCALH~1\AppData\Local\Temp\ccBEO6nB.s:2145   .debug_str:0000000000000041 .LASF48
C:\Users\LOCALH~1\AppData\Local\Temp\ccBEO6nB.s:539    .text.RTC_GetITStatus:0000000000000000 .LFB41
C:\Users\LOCALH~1\AppData\Local\Temp\ccBEO6nB.s:574    .text.RTC_GetITStatus:0000000000000020 .LFE41
C:\Users\LOCALH~1\AppData\Local\Temp\ccBEO6nB.s:1617   .debug_loclists:000000000000000c .LLST19
C:\Users\LOCALH~1\AppData\Local\Temp\ccBEO6nB.s:2183   .debug_str:0000000000000133 .LASF50
C:\Users\LOCALH~1\AppData\Local\Temp\ccBEO6nB.s:1645   .debug_loclists:000000000000003f .LLST20
C:\Users\LOCALH~1\AppData\Local\Temp\ccBEO6nB.s:2151   .debug_str:000000000000006b .LASF60
C:\Users\LOCALH~1\AppData\Local\Temp\ccBEO6nB.s:515    .text.RTC_ClearFlag:0000000000000000 .LFB40
C:\Users\LOCALH~1\AppData\Local\Temp\ccBEO6nB.s:532    .text.RTC_ClearFlag:0000000000000014 .LFE40
C:\Users\LOCALH~1\AppData\Local\Temp\ccBEO6nB.s:2159   .debug_str:0000000000000096 .LASF47
C:\Users\LOCALH~1\AppData\Local\Temp\ccBEO6nB.s:1699   .debug_loclists:0000000000000095 .LLST18
C:\Users\LOCALH~1\AppData\Local\Temp\ccBEO6nB.s:2187   .debug_str:0000000000000149 .LASF49
C:\Users\LOCALH~1\AppData\Local\Temp\ccBEO6nB.s:489    .text.RTC_GetFlagStatus:0000000000000000 .LFB39
C:\Users\LOCALH~1\AppData\Local\Temp\ccBEO6nB.s:508    .text.RTC_GetFlagStatus:0000000000000012 .LFE39
C:\Users\LOCALH~1\AppData\Local\Temp\ccBEO6nB.s:1714   .debug_loclists:00000000000000af .LLST16
C:\Users\LOCALH~1\AppData\Local\Temp\ccBEO6nB.s:1729   .debug_loclists:00000000000000c9 .LLST17
C:\Users\LOCALH~1\AppData\Local\Temp\ccBEO6nB.s:2167   .debug_str:00000000000000c6 .LASF51
C:\Users\LOCALH~1\AppData\Local\Temp\ccBEO6nB.s:455    .text.RTC_WaitForSynchro:0000000000000000 .LFB38
C:\Users\LOCALH~1\AppData\Local\Temp\ccBEO6nB.s:482    .text.RTC_WaitForSynchro:0000000000000020 .LFE38
C:\Users\LOCALH~1\AppData\Local\Temp\ccBEO6nB.s:2179   .debug_str:0000000000000112 .LASF52
C:\Users\LOCALH~1\AppData\Local\Temp\ccBEO6nB.s:430    .text.RTC_WaitForLastTask:0000000000000000 .LFB37
C:\Users\LOCALH~1\AppData\Local\Temp\ccBEO6nB.s:448    .text.RTC_WaitForLastTask:0000000000000012 .LFE37
C:\Users\LOCALH~1\AppData\Local\Temp\ccBEO6nB.s:2169   .debug_str:00000000000000d9 .LASF53
C:\Users\LOCALH~1\AppData\Local\Temp\ccBEO6nB.s:328    .text.RTC_GetDivider:0000000000000000 .LFB36
C:\Users\LOCALH~1\AppData\Local\Temp\ccBEO6nB.s:423    .text.RTC_GetDivider:0000000000000068 .LFE36
C:\Users\LOCALH~1\AppData\Local\Temp\ccBEO6nB.s:2261   .debug_str:00000000000003dc .LASF54
C:\Users\LOCALH~1\AppData\Local\Temp\ccBEO6nB.s:1772   .debug_loclists:0000000000000105 .LLST10
C:\Users\LOCALH~1\AppData\Local\Temp\ccBEO6nB.s:2201   .debug_str:00000000000001ab .LASF55
C:\Users\LOCALH~1\AppData\Local\Temp\ccBEO6nB.s:1785   .debug_loclists:000000000000011d .LLST11
C:\Users\LOCALH~1\AppData\Local\Temp\ccBEO6nB.s:2253   .debug_str:00000000000003b9 .LASF56
C:\Users\LOCALH~1\AppData\Local\Temp\ccBEO6nB.s:1798   .debug_loclists:0000000000000135 .LLST12
C:\Users\LOCALH~1\AppData\Local\Temp\ccBEO6nB.s:2255   .debug_str:00000000000003c0 .LASF57
C:\Users\LOCALH~1\AppData\Local\Temp\ccBEO6nB.s:1811   .debug_loclists:000000000000014d .LLST13
C:\Users\LOCALH~1\AppData\Local\Temp\ccBEO6nB.s:2243   .debug_str:000000000000028a .LASF58
C:\Users\LOCALH~1\AppData\Local\Temp\ccBEO6nB.s:1824   .debug_loclists:0000000000000165 .LLST14
C:\Users\LOCALH~1\AppData\Local\Temp\ccBEO6nB.s:2265   .debug_str:00000000000003e9 .LASF59
C:\Users\LOCALH~1\AppData\Local\Temp\ccBEO6nB.s:1842   .debug_loclists:0000000000000188 .LLST15
C:\Users\LOCALH~1\AppData\Local\Temp\ccBEO6nB.s:2181   .debug_str:0000000000000126 .LASF61
C:\Users\LOCALH~1\AppData\Local\Temp\ccBEO6nB.s:285    .text.RTC_SetAlarm:0000000000000000 .LFB35
C:\Users\LOCALH~1\AppData\Local\Temp\ccBEO6nB.s:321    .text.RTC_SetAlarm:0000000000000036 .LFE35
C:\Users\LOCALH~1\AppData\Local\Temp\ccBEO6nB.s:2205   .debug_str:00000000000001c4 .LASF62
C:\Users\LOCALH~1\AppData\Local\Temp\ccBEO6nB.s:1860   .debug_loclists:00000000000001ab .LLST9
C:\Users\LOCALH~1\AppData\Local\Temp\ccBEO6nB.s:298    .text.RTC_SetAlarm:0000000000000012 .LVL30
C:\Users\LOCALH~1\AppData\Local\Temp\ccBEO6nB.s:314    .text.RTC_SetAlarm:000000000000002e .LVL32
C:\Users\LOCALH~1\AppData\Local\Temp\ccBEO6nB.s:2131   .debug_str:0000000000000000 .LASF63
C:\Users\LOCALH~1\AppData\Local\Temp\ccBEO6nB.s:239    .text.RTC_SetPrescaler:0000000000000000 .LFB34
C:\Users\LOCALH~1\AppData\Local\Temp\ccBEO6nB.s:278    .text.RTC_SetPrescaler:0000000000000038 .LFE34
C:\Users\LOCALH~1\AppData\Local\Temp\ccBEO6nB.s:2213   .debug_str:00000000000001fa .LASF64
C:\Users\LOCALH~1\AppData\Local\Temp\ccBEO6nB.s:1880   .debug_loclists:00000000000001d0 .LLST8
C:\Users\LOCALH~1\AppData\Local\Temp\ccBEO6nB.s:252    .text.RTC_SetPrescaler:0000000000000012 .LVL26
C:\Users\LOCALH~1\AppData\Local\Temp\ccBEO6nB.s:271    .text.RTC_SetPrescaler:0000000000000030 .LVL28
C:\Users\LOCALH~1\AppData\Local\Temp\ccBEO6nB.s:2147   .debug_str:0000000000000051 .LASF65
C:\Users\LOCALH~1\AppData\Local\Temp\ccBEO6nB.s:196    .text.RTC_SetCounter:0000000000000000 .LFB33
C:\Users\LOCALH~1\AppData\Local\Temp\ccBEO6nB.s:232    .text.RTC_SetCounter:0000000000000036 .LFE33
C:\Users\LOCALH~1\AppData\Local\Temp\ccBEO6nB.s:2143   .debug_str:0000000000000034 .LASF66
C:\Users\LOCALH~1\AppData\Local\Temp\ccBEO6nB.s:1900   .debug_loclists:00000000000001f5 .LLST7
C:\Users\LOCALH~1\AppData\Local\Temp\ccBEO6nB.s:209    .text.RTC_SetCounter:0000000000000012 .LVL22
C:\Users\LOCALH~1\AppData\Local\Temp\ccBEO6nB.s:225    .text.RTC_SetCounter:000000000000002e .LVL24
C:\Users\LOCALH~1\AppData\Local\Temp\ccBEO6nB.s:2259   .debug_str:00000000000003cd .LASF67
C:\Users\LOCALH~1\AppData\Local\Temp\ccBEO6nB.s:96     .text.RTC_GetCounter:0000000000000000 .LFB32
C:\Users\LOCALH~1\AppData\Local\Temp\ccBEO6nB.s:189    .text.RTC_GetCounter:0000000000000062 .LFE32
C:\Users\LOCALH~1\AppData\Local\Temp\ccBEO6nB.s:1920   .debug_loclists:000000000000021a .LLST1
C:\Users\LOCALH~1\AppData\Local\Temp\ccBEO6nB.s:1933   .debug_loclists:0000000000000232 .LLST2
C:\Users\LOCALH~1\AppData\Local\Temp\ccBEO6nB.s:1946   .debug_loclists:000000000000024a .LLST3
C:\Users\LOCALH~1\AppData\Local\Temp\ccBEO6nB.s:1959   .debug_loclists:0000000000000262 .LLST4
C:\Users\LOCALH~1\AppData\Local\Temp\ccBEO6nB.s:1972   .debug_loclists:000000000000027a .LLST5
C:\Users\LOCALH~1\AppData\Local\Temp\ccBEO6nB.s:1990   .debug_loclists:000000000000029d .LLST6
C:\Users\LOCALH~1\AppData\Local\Temp\ccBEO6nB.s:2211   .debug_str:00000000000001e7 .LASF68
C:\Users\LOCALH~1\AppData\Local\Temp\ccBEO6nB.s:72     .text.RTC_ExitConfigMode:0000000000000000 .LFB31
C:\Users\LOCALH~1\AppData\Local\Temp\ccBEO6nB.s:89     .text.RTC_ExitConfigMode:0000000000000018 .LFE31
C:\Users\LOCALH~1\AppData\Local\Temp\ccBEO6nB.s:2247   .debug_str:000000000000029f .LASF69
C:\Users\LOCALH~1\AppData\Local\Temp\ccBEO6nB.s:52     .text.RTC_EnterConfigMode:0000000000000000 .LFB30
C:\Users\LOCALH~1\AppData\Local\Temp\ccBEO6nB.s:65     .text.RTC_EnterConfigMode:0000000000000012 .LFE30
C:\Users\LOCALH~1\AppData\Local\Temp\ccBEO6nB.s:2137   .debug_str:000000000000001d .LASF73
C:\Users\LOCALH~1\AppData\Local\Temp\ccBEO6nB.s:15     .text.RTC_ITConfig:0000000000000000 .LFB29
C:\Users\LOCALH~1\AppData\Local\Temp\ccBEO6nB.s:45     .text.RTC_ITConfig:000000000000001a .LFE29
C:\Users\LOCALH~1\AppData\Local\Temp\ccBEO6nB.s:2008   .debug_loclists:00000000000002c0 .LLST0
C:\Users\LOCALH~1\AppData\Local\Temp\ccBEO6nB.s:2161   .debug_str:000000000000009f .LASF70
C:\Users\LOCALH~1\AppData\Local\Temp\ccBEO6nB.s:542    .text.RTC_GetITStatus:0000000000000000 .LVL55
C:\Users\LOCALH~1\AppData\Local\Temp\ccBEO6nB.s:562    .text.RTC_GetITStatus:0000000000000016 .LVL57
C:\Users\LOCALH~1\AppData\Local\Temp\ccBEO6nB.s:565    .text.RTC_GetITStatus:000000000000001c .LVL58
C:\Users\LOCALH~1\AppData\Local\Temp\ccBEO6nB.s:569    .text.RTC_GetITStatus:000000000000001e .LVL59
C:\Users\LOCALH~1\AppData\Local\Temp\ccBEO6nB.s:556    .text.RTC_GetITStatus:0000000000000012 .LVL56
C:\Users\LOCALH~1\AppData\Local\Temp\ccBEO6nB.s:518    .text.RTC_ClearFlag:0000000000000000 .LVL53
C:\Users\LOCALH~1\AppData\Local\Temp\ccBEO6nB.s:525    .text.RTC_ClearFlag:000000000000000c .LVL54
C:\Users\LOCALH~1\AppData\Local\Temp\ccBEO6nB.s:492    .text.RTC_GetFlagStatus:0000000000000000 .LVL50
C:\Users\LOCALH~1\AppData\Local\Temp\ccBEO6nB.s:503    .text.RTC_GetFlagStatus:000000000000000c .LVL52
C:\Users\LOCALH~1\AppData\Local\Temp\ccBEO6nB.s:499    .text.RTC_GetFlagStatus:000000000000000a .LVL51
C:\Users\LOCALH~1\AppData\Local\Temp\ccBEO6nB.s:332    .text.RTC_GetDivider:0000000000000000 .LVL33
C:\Users\LOCALH~1\AppData\Local\Temp\ccBEO6nB.s:337    .text.RTC_GetDivider:0000000000000008 .LVL34
C:\Users\LOCALH~1\AppData\Local\Temp\ccBEO6nB.s:343    .text.RTC_GetDivider:000000000000000a .LVL35
C:\Users\LOCALH~1\AppData\Local\Temp\ccBEO6nB.s:355    .text.RTC_GetDivider:000000000000001e .LVL37
C:\Users\LOCALH~1\AppData\Local\Temp\ccBEO6nB.s:349    .text.RTC_GetDivider:0000000000000012 .LVL36
C:\Users\LOCALH~1\AppData\Local\Temp\ccBEO6nB.s:394    .text.RTC_GetDivider:000000000000004e .LVL43
C:\Users\LOCALH~1\AppData\Local\Temp\ccBEO6nB.s:373    .text.RTC_GetDivider:0000000000000034 .LVL40
C:\Users\LOCALH~1\AppData\Local\Temp\ccBEO6nB.s:379    .text.RTC_GetDivider:0000000000000036 .LVL41
C:\Users\LOCALH~1\AppData\Local\Temp\ccBEO6nB.s:385    .text.RTC_GetDivider:000000000000003e .LVL42
C:\Users\LOCALH~1\AppData\Local\Temp\ccBEO6nB.s:416    .text.RTC_GetDivider:0000000000000062 .LVL48
C:\Users\LOCALH~1\AppData\Local\Temp\ccBEO6nB.s:361    .text.RTC_GetDivider:0000000000000020 .LVL38
C:\Users\LOCALH~1\AppData\Local\Temp\ccBEO6nB.s:400    .text.RTC_GetDivider:0000000000000050 .LVL44
C:\Users\LOCALH~1\AppData\Local\Temp\ccBEO6nB.s:410    .text.RTC_GetDivider:000000000000005c .LVL47
C:\Users\LOCALH~1\AppData\Local\Temp\ccBEO6nB.s:367    .text.RTC_GetDivider:0000000000000028 .LVL39
C:\Users\LOCALH~1\AppData\Local\Temp\ccBEO6nB.s:405    .text.RTC_GetDivider:0000000000000056 .LVL45
C:\Users\LOCALH~1\AppData\Local\Temp\ccBEO6nB.s:407    .text.RTC_GetDivider:0000000000000058 .LVL46
C:\Users\LOCALH~1\AppData\Local\Temp\ccBEO6nB.s:420    .text.RTC_GetDivider:0000000000000066 .LVL49
C:\Users\LOCALH~1\AppData\Local\Temp\ccBEO6nB.s:288    .text.RTC_SetAlarm:0000000000000000 .LVL29
C:\Users\LOCALH~1\AppData\Local\Temp\ccBEO6nB.s:305    .text.RTC_SetAlarm:000000000000001c .LVL31
C:\Users\LOCALH~1\AppData\Local\Temp\ccBEO6nB.s:242    .text.RTC_SetPrescaler:0000000000000000 .LVL25
C:\Users\LOCALH~1\AppData\Local\Temp\ccBEO6nB.s:262    .text.RTC_SetPrescaler:000000000000001e .LVL27
C:\Users\LOCALH~1\AppData\Local\Temp\ccBEO6nB.s:199    .text.RTC_SetCounter:0000000000000000 .LVL21
C:\Users\LOCALH~1\AppData\Local\Temp\ccBEO6nB.s:216    .text.RTC_SetCounter:000000000000001c .LVL23
C:\Users\LOCALH~1\AppData\Local\Temp\ccBEO6nB.s:100    .text.RTC_GetCounter:0000000000000000 .LVL4
C:\Users\LOCALH~1\AppData\Local\Temp\ccBEO6nB.s:105    .text.RTC_GetCounter:0000000000000008 .LVL5
C:\Users\LOCALH~1\AppData\Local\Temp\ccBEO6nB.s:111    .text.RTC_GetCounter:000000000000000a .LVL6
C:\Users\LOCALH~1\AppData\Local\Temp\ccBEO6nB.s:123    .text.RTC_GetCounter:000000000000001e .LVL8
C:\Users\LOCALH~1\AppData\Local\Temp\ccBEO6nB.s:117    .text.RTC_GetCounter:0000000000000012 .LVL7
C:\Users\LOCALH~1\AppData\Local\Temp\ccBEO6nB.s:162    .text.RTC_GetCounter:000000000000004e .LVL14
C:\Users\LOCALH~1\AppData\Local\Temp\ccBEO6nB.s:141    .text.RTC_GetCounter:0000000000000034 .LVL11
C:\Users\LOCALH~1\AppData\Local\Temp\ccBEO6nB.s:147    .text.RTC_GetCounter:0000000000000036 .LVL12
C:\Users\LOCALH~1\AppData\Local\Temp\ccBEO6nB.s:153    .text.RTC_GetCounter:000000000000003e .LVL13
C:\Users\LOCALH~1\AppData\Local\Temp\ccBEO6nB.s:183    .text.RTC_GetCounter:000000000000005e .LVL19
C:\Users\LOCALH~1\AppData\Local\Temp\ccBEO6nB.s:129    .text.RTC_GetCounter:0000000000000020 .LVL9
C:\Users\LOCALH~1\AppData\Local\Temp\ccBEO6nB.s:168    .text.RTC_GetCounter:0000000000000050 .LVL15
C:\Users\LOCALH~1\AppData\Local\Temp\ccBEO6nB.s:178    .text.RTC_GetCounter:000000000000005c .LVL18
C:\Users\LOCALH~1\AppData\Local\Temp\ccBEO6nB.s:135    .text.RTC_GetCounter:0000000000000028 .LVL10
C:\Users\LOCALH~1\AppData\Local\Temp\ccBEO6nB.s:173    .text.RTC_GetCounter:0000000000000056 .LVL16
C:\Users\LOCALH~1\AppData\Local\Temp\ccBEO6nB.s:175    .text.RTC_GetCounter:0000000000000058 .LVL17
C:\Users\LOCALH~1\AppData\Local\Temp\ccBEO6nB.s:186    .text.RTC_GetCounter:0000000000000060 .LVL20
C:\Users\LOCALH~1\AppData\Local\Temp\ccBEO6nB.s:19     .text.RTC_ITConfig:0000000000000000 .LVL0
C:\Users\LOCALH~1\AppData\Local\Temp\ccBEO6nB.s:29     .text.RTC_ITConfig:000000000000000c .LVL1
C:\Users\LOCALH~1\AppData\Local\Temp\ccBEO6nB.s:35     .text.RTC_ITConfig:0000000000000012 .LVL2
C:\Users\LOCALH~1\AppData\Local\Temp\ccBEO6nB.s:40     .text.RTC_ITConfig:0000000000000016 .LVL3
C:\Users\LOCALH~1\AppData\Local\Temp\ccBEO6nB.s:595    .debug_info:0000000000000000 .Ldebug_info0
C:\Users\LOCALH~1\AppData\Local\Temp\ccBEO6nB.s:581    .text.RTC_ClearITPendingBit:0000000000000000 .LFB44
C:\Users\LOCALH~1\AppData\Local\Temp\ccBEO6nB.s:586    .text.RTC_ClearITPendingBit:0000000000000008 .LFE44

UNDEFINED SYMBOLS
__riscv_save_1
__riscv_restore_1
