   1              		.file	"ch32v30x_rng.c"
   2              		.option nopic
   3              		.attribute arch, "rv32i2p0_m2p0_a2p0_f2p0_c2p0_xw"
   4              		.attribute unaligned_access, 0
   5              		.attribute stack_align, 16
   6              		.text
   7              	.Ltext0:
   8              		.cfi_sections	.debug_frame
   9              		.file 0 "C:\\Users\\localhost\\Documents\\turbomoskal-repo\\qqexpert\\firmware\\MasterController\\
  10              		.section	.text.RNG_Cmd,"ax",@progbits
  11              		.align	1
  12              		.globl	RNG_Cmd
  14              	RNG_Cmd:
  15              	.LFB29:
  16              		.file 1 "../Peripheral/src/ch32v30x_rng.c"
   1:../Peripheral/src/ch32v30x_rng.c **** /********************************** (C) COPYRIGHT *******************************
   2:../Peripheral/src/ch32v30x_rng.c **** * File Name          : ch32v30x_rng.c
   3:../Peripheral/src/ch32v30x_rng.c **** * Author             : WCH
   4:../Peripheral/src/ch32v30x_rng.c **** * Version            : V1.0.0
   5:../Peripheral/src/ch32v30x_rng.c **** * Date               : 2021/06/06
   6:../Peripheral/src/ch32v30x_rng.c **** * Description        : This file provides all the RNG firmware functions.
   7:../Peripheral/src/ch32v30x_rng.c **** *********************************************************************************
   8:../Peripheral/src/ch32v30x_rng.c **** * Copyright (c) 2021 Nanjing Qinheng Microelectronics Co., Ltd.
   9:../Peripheral/src/ch32v30x_rng.c **** * Attention: This software (modified or not) and binary are used for 
  10:../Peripheral/src/ch32v30x_rng.c **** * microcontroller manufactured by Nanjing Qinheng Microelectronics.
  11:../Peripheral/src/ch32v30x_rng.c **** *******************************************************************************/
  12:../Peripheral/src/ch32v30x_rng.c **** #include "ch32v30x_rng.h"
  13:../Peripheral/src/ch32v30x_rng.c **** #include "ch32v30x_rcc.h"
  14:../Peripheral/src/ch32v30x_rng.c **** 
  15:../Peripheral/src/ch32v30x_rng.c **** /*********************************************************************
  16:../Peripheral/src/ch32v30x_rng.c ****  * @fn      RNG_Cmd
  17:../Peripheral/src/ch32v30x_rng.c ****  *
  18:../Peripheral/src/ch32v30x_rng.c ****  * @brief   Enables or disables the RNG peripheral.
  19:../Peripheral/src/ch32v30x_rng.c ****  *
  20:../Peripheral/src/ch32v30x_rng.c ****  * @param   NewState - ENABLE or DISABLE.
  21:../Peripheral/src/ch32v30x_rng.c ****  *
  22:../Peripheral/src/ch32v30x_rng.c ****  * @return  none
  23:../Peripheral/src/ch32v30x_rng.c ****  */
  24:../Peripheral/src/ch32v30x_rng.c **** void RNG_Cmd(FunctionalState NewState)
  25:../Peripheral/src/ch32v30x_rng.c **** {
  17              		.loc 1 25 1
  18              		.cfi_startproc
  19              	.LVL0:
  26:../Peripheral/src/ch32v30x_rng.c ****     if(NewState != DISABLE)
  20              		.loc 1 26 5
  21 0000 B7470240 		li	a5,1073889280
  22 0004 938707C0 		addi	a5,a5,-1024
  27:../Peripheral/src/ch32v30x_rng.c ****     {
  28:../Peripheral/src/ch32v30x_rng.c ****         RNG->CR |= RNG_CR_RNGEN;
  23              		.loc 1 28 12 is_stmt 0
  24 0008 9843     		lw	a4,0(a5)
  26:../Peripheral/src/ch32v30x_rng.c ****     if(NewState != DISABLE)
  25              		.loc 1 26 7
  26 000a 09C5     		beq	a0,zero,.L2
  27              		.loc 1 28 9 is_stmt 1
  28              		.loc 1 28 17 is_stmt 0
  29 000c 13674700 		ori	a4,a4,4
  30              	.L4:
  29:../Peripheral/src/ch32v30x_rng.c ****     }
  30:../Peripheral/src/ch32v30x_rng.c ****     else
  31:../Peripheral/src/ch32v30x_rng.c ****     {
  32:../Peripheral/src/ch32v30x_rng.c ****         RNG->CR &= ~RNG_CR_RNGEN;
  31              		.loc 1 32 17
  32 0010 98C3     		sw	a4,0(a5)
  33:../Peripheral/src/ch32v30x_rng.c ****     }
  34:../Peripheral/src/ch32v30x_rng.c **** }
  33              		.loc 1 34 1
  34 0012 8280     		ret
  35              	.L2:
  32:../Peripheral/src/ch32v30x_rng.c ****     }
  36              		.loc 1 32 9 is_stmt 1
  32:../Peripheral/src/ch32v30x_rng.c ****     }
  37              		.loc 1 32 17 is_stmt 0
  38 0014 6D9B     		andi	a4,a4,-5
  39 0016 EDBF     		j	.L4
  40              		.cfi_endproc
  41              	.LFE29:
  43              		.section	.text.RNG_GetRandomNumber,"ax",@progbits
  44              		.align	1
  45              		.globl	RNG_GetRandomNumber
  47              	RNG_GetRandomNumber:
  48              	.LFB30:
  35:../Peripheral/src/ch32v30x_rng.c **** 
  36:../Peripheral/src/ch32v30x_rng.c **** /*********************************************************************
  37:../Peripheral/src/ch32v30x_rng.c ****  * @fn      RNG_GetRandomNumber
  38:../Peripheral/src/ch32v30x_rng.c ****  *
  39:../Peripheral/src/ch32v30x_rng.c ****  * @brief   Returns a 32-bit random number.
  40:../Peripheral/src/ch32v30x_rng.c ****  *
  41:../Peripheral/src/ch32v30x_rng.c ****  * @return  32-bit random number.
  42:../Peripheral/src/ch32v30x_rng.c ****  */
  43:../Peripheral/src/ch32v30x_rng.c **** uint32_t RNG_GetRandomNumber(void)
  44:../Peripheral/src/ch32v30x_rng.c **** {
  49              		.loc 1 44 1 is_stmt 1
  50              		.cfi_startproc
  45:../Peripheral/src/ch32v30x_rng.c ****     return RNG->DR;
  51              		.loc 1 45 5
  52              		.loc 1 45 15 is_stmt 0
  53 0000 B7470240 		li	a5,1073889280
  54 0004 938707C0 		addi	a5,a5,-1024
  55 0008 8847     		lw	a0,8(a5)
  46:../Peripheral/src/ch32v30x_rng.c **** }
  56              		.loc 1 46 1
  57 000a 8280     		ret
  58              		.cfi_endproc
  59              	.LFE30:
  61              		.section	.text.RNG_ITConfig,"ax",@progbits
  62              		.align	1
  63              		.globl	RNG_ITConfig
  65              	RNG_ITConfig:
  66              	.LFB31:
  47:../Peripheral/src/ch32v30x_rng.c **** 
  48:../Peripheral/src/ch32v30x_rng.c **** /*********************************************************************
  49:../Peripheral/src/ch32v30x_rng.c ****  * @fn      RNG_ITConfig
  50:../Peripheral/src/ch32v30x_rng.c ****  *
  51:../Peripheral/src/ch32v30x_rng.c ****  * @brief   Enables or disables the RNG interrupt.
  52:../Peripheral/src/ch32v30x_rng.c ****  *
  53:../Peripheral/src/ch32v30x_rng.c ****  * @param   NewState - ENABLE or DISABLE.
  54:../Peripheral/src/ch32v30x_rng.c ****  *
  55:../Peripheral/src/ch32v30x_rng.c ****  * @return  32-bit random number.
  56:../Peripheral/src/ch32v30x_rng.c ****  */
  57:../Peripheral/src/ch32v30x_rng.c **** void RNG_ITConfig(FunctionalState NewState)
  58:../Peripheral/src/ch32v30x_rng.c **** {
  67              		.loc 1 58 1 is_stmt 1
  68              		.cfi_startproc
  69              	.LVL1:
  59:../Peripheral/src/ch32v30x_rng.c ****     if(NewState != DISABLE)
  70              		.loc 1 59 5
  71 0000 B7470240 		li	a5,1073889280
  72 0004 938707C0 		addi	a5,a5,-1024
  60:../Peripheral/src/ch32v30x_rng.c ****     {
  61:../Peripheral/src/ch32v30x_rng.c ****         RNG->CR |= RNG_CR_IE;
  73              		.loc 1 61 12 is_stmt 0
  74 0008 9843     		lw	a4,0(a5)
  59:../Peripheral/src/ch32v30x_rng.c ****     if(NewState != DISABLE)
  75              		.loc 1 59 7
  76 000a 09C5     		beq	a0,zero,.L7
  77              		.loc 1 61 9 is_stmt 1
  78              		.loc 1 61 17 is_stmt 0
  79 000c 13678700 		ori	a4,a4,8
  80              	.L9:
  62:../Peripheral/src/ch32v30x_rng.c ****     }
  63:../Peripheral/src/ch32v30x_rng.c ****     else
  64:../Peripheral/src/ch32v30x_rng.c ****     {
  65:../Peripheral/src/ch32v30x_rng.c ****         RNG->CR &= ~RNG_CR_IE;
  81              		.loc 1 65 17
  82 0010 98C3     		sw	a4,0(a5)
  66:../Peripheral/src/ch32v30x_rng.c ****     }
  67:../Peripheral/src/ch32v30x_rng.c **** }
  83              		.loc 1 67 1
  84 0012 8280     		ret
  85              	.L7:
  65:../Peripheral/src/ch32v30x_rng.c ****     }
  86              		.loc 1 65 9 is_stmt 1
  65:../Peripheral/src/ch32v30x_rng.c ****     }
  87              		.loc 1 65 17 is_stmt 0
  88 0014 5D9B     		andi	a4,a4,-9
  89 0016 EDBF     		j	.L9
  90              		.cfi_endproc
  91              	.LFE31:
  93              		.section	.text.RNG_GetFlagStatus,"ax",@progbits
  94              		.align	1
  95              		.globl	RNG_GetFlagStatus
  97              	RNG_GetFlagStatus:
  98              	.LFB32:
  68:../Peripheral/src/ch32v30x_rng.c **** 
  69:../Peripheral/src/ch32v30x_rng.c **** /*********************************************************************
  70:../Peripheral/src/ch32v30x_rng.c ****  * @fn      RNG_GetFlagStatus
  71:../Peripheral/src/ch32v30x_rng.c ****  *
  72:../Peripheral/src/ch32v30x_rng.c ****  * @brief   Checks whether the specified RNG flag is set or not.
  73:../Peripheral/src/ch32v30x_rng.c ****  *
  74:../Peripheral/src/ch32v30x_rng.c ****  * @param   RNG_FLAG - specifies the RNG flag to check.
  75:../Peripheral/src/ch32v30x_rng.c ****  *            RNG_FLAG_DRDY - Data Ready flag.
  76:../Peripheral/src/ch32v30x_rng.c ****  *            RNG_FLAG_CECS - Clock Error Current flag.
  77:../Peripheral/src/ch32v30x_rng.c ****  *            RNG_FLAG_SECS - Seed Error Current flag.
  78:../Peripheral/src/ch32v30x_rng.c ****  *
  79:../Peripheral/src/ch32v30x_rng.c ****  * @return  32-bit random number.
  80:../Peripheral/src/ch32v30x_rng.c ****  */
  81:../Peripheral/src/ch32v30x_rng.c **** FlagStatus RNG_GetFlagStatus(uint8_t RNG_FLAG)
  82:../Peripheral/src/ch32v30x_rng.c **** {
  99              		.loc 1 82 1 is_stmt 1
 100              		.cfi_startproc
 101              	.LVL2:
  83:../Peripheral/src/ch32v30x_rng.c ****     FlagStatus bitstatus = RESET;
 102              		.loc 1 83 5
  84:../Peripheral/src/ch32v30x_rng.c **** 
  85:../Peripheral/src/ch32v30x_rng.c ****     if((RNG->SR & RNG_FLAG) != (uint8_t)RESET)
 103              		.loc 1 85 5
 104              		.loc 1 85 12 is_stmt 0
 105 0000 B7470240 		li	a5,1073889280
 106 0004 938707C0 		addi	a5,a5,-1024
 107 0008 DC43     		lw	a5,4(a5)
 108              	.LVL3:
  86:../Peripheral/src/ch32v30x_rng.c ****     {
  87:../Peripheral/src/ch32v30x_rng.c ****         bitstatus = SET;
  88:../Peripheral/src/ch32v30x_rng.c ****     }
  89:../Peripheral/src/ch32v30x_rng.c ****     else
  90:../Peripheral/src/ch32v30x_rng.c ****     {
  91:../Peripheral/src/ch32v30x_rng.c ****         bitstatus = RESET;
  92:../Peripheral/src/ch32v30x_rng.c ****     }
  93:../Peripheral/src/ch32v30x_rng.c **** 
  94:../Peripheral/src/ch32v30x_rng.c ****     return bitstatus;
 109              		.loc 1 94 5 is_stmt 1
  85:../Peripheral/src/ch32v30x_rng.c ****     {
 110              		.loc 1 85 17 is_stmt 0
 111 000a 7D8D     		and	a0,a0,a5
 112              	.LVL4:
  95:../Peripheral/src/ch32v30x_rng.c **** }
 113              		.loc 1 95 1
 114 000c 3335A000 		snez	a0,a0
 115 0010 8280     		ret
 116              		.cfi_endproc
 117              	.LFE32:
 119              		.section	.text.RNG_ClearFlag,"ax",@progbits
 120              		.align	1
 121              		.globl	RNG_ClearFlag
 123              	RNG_ClearFlag:
 124              	.LFB33:
  96:../Peripheral/src/ch32v30x_rng.c **** 
  97:../Peripheral/src/ch32v30x_rng.c **** /*********************************************************************
  98:../Peripheral/src/ch32v30x_rng.c ****  * @fn      RNG_ClearFlag
  99:../Peripheral/src/ch32v30x_rng.c ****  *
 100:../Peripheral/src/ch32v30x_rng.c ****  * @brief   Clears the RNG flags.
 101:../Peripheral/src/ch32v30x_rng.c ****  *
 102:../Peripheral/src/ch32v30x_rng.c ****  * @param   RNG_FLAG - specifies the flag to clear.
 103:../Peripheral/src/ch32v30x_rng.c ****  *            RNG_FLAG_CECS - Clock Error Current flag.
 104:../Peripheral/src/ch32v30x_rng.c ****  *            RNG_FLAG_SECS - Seed Error Current flag.
 105:../Peripheral/src/ch32v30x_rng.c ****  *
 106:../Peripheral/src/ch32v30x_rng.c ****  * @return  32-bit random number.
 107:../Peripheral/src/ch32v30x_rng.c ****  */
 108:../Peripheral/src/ch32v30x_rng.c **** void RNG_ClearFlag(uint8_t RNG_FLAG)
 109:../Peripheral/src/ch32v30x_rng.c **** {
 125              		.loc 1 109 1 is_stmt 1
 126              		.cfi_startproc
 127              	.LVL5:
 110:../Peripheral/src/ch32v30x_rng.c ****     RNG->SR = ~(uint32_t)(((uint32_t)RNG_FLAG) << 4);
 128              		.loc 1 110 5
 129              		.loc 1 110 16 is_stmt 0
 130 0000 1205     		slli	a0,a0,4
 131              	.LVL6:
 132              		.loc 1 110 13
 133 0002 B7470240 		li	a5,1073889280
 134              		.loc 1 110 15
 135 0006 1345F5FF 		not	a0,a0
 136              		.loc 1 110 13
 137 000a 938707C0 		addi	a5,a5,-1024
 138 000e C8C3     		sw	a0,4(a5)
 111:../Peripheral/src/ch32v30x_rng.c **** }
 139              		.loc 1 111 1
 140 0010 8280     		ret
 141              		.cfi_endproc
 142              	.LFE33:
 144              		.section	.text.RNG_GetITStatus,"ax",@progbits
 145              		.align	1
 146              		.globl	RNG_GetITStatus
 148              	RNG_GetITStatus:
 149              	.LFB37:
 150              		.cfi_startproc
 112:../Peripheral/src/ch32v30x_rng.c **** 
 113:../Peripheral/src/ch32v30x_rng.c **** /*********************************************************************
 114:../Peripheral/src/ch32v30x_rng.c ****  * @fn      RNG_GetFlagStatus
 115:../Peripheral/src/ch32v30x_rng.c ****  *
 116:../Peripheral/src/ch32v30x_rng.c ****  * @brief   Checks whether the specified RNG interrupt has occurred or not.
 117:../Peripheral/src/ch32v30x_rng.c ****  *
 118:../Peripheral/src/ch32v30x_rng.c ****  * @param   RNG_IT - specifies the RNG interrupt source to check.
 119:../Peripheral/src/ch32v30x_rng.c ****  *            RNG_IT_CEI - Clock Error Interrupt.
 120:../Peripheral/src/ch32v30x_rng.c ****  *            RNG_IT_SEI - Seed Error Interrupt.
 121:../Peripheral/src/ch32v30x_rng.c ****  *
 122:../Peripheral/src/ch32v30x_rng.c ****  * @return  bitstatus:SET or RESET.
 123:../Peripheral/src/ch32v30x_rng.c ****  */
 124:../Peripheral/src/ch32v30x_rng.c **** ITStatus RNG_GetITStatus(uint8_t RNG_IT)
 151              		.loc 1 124 10 is_stmt 1
 152 0000 17030000 		tail	RNG_GetFlagStatus
 152      67000300 
 153              		.cfi_endproc
 154              	.LFE37:
 156              		.section	.text.RNG_ClearITPendingBit,"ax",@progbits
 157              		.align	1
 158              		.globl	RNG_ClearITPendingBit
 160              	RNG_ClearITPendingBit:
 161              	.LFB35:
 125:../Peripheral/src/ch32v30x_rng.c **** {
 126:../Peripheral/src/ch32v30x_rng.c ****     ITStatus bitstatus = RESET;
 127:../Peripheral/src/ch32v30x_rng.c **** 
 128:../Peripheral/src/ch32v30x_rng.c ****     if((RNG->SR & RNG_IT) != (uint8_t)RESET)
 129:../Peripheral/src/ch32v30x_rng.c ****     {
 130:../Peripheral/src/ch32v30x_rng.c ****         bitstatus = SET;
 131:../Peripheral/src/ch32v30x_rng.c ****     }
 132:../Peripheral/src/ch32v30x_rng.c ****     else
 133:../Peripheral/src/ch32v30x_rng.c ****     {
 134:../Peripheral/src/ch32v30x_rng.c ****         bitstatus = RESET;
 135:../Peripheral/src/ch32v30x_rng.c ****     }
 136:../Peripheral/src/ch32v30x_rng.c **** 
 137:../Peripheral/src/ch32v30x_rng.c ****     return bitstatus;
 138:../Peripheral/src/ch32v30x_rng.c **** }
 139:../Peripheral/src/ch32v30x_rng.c **** 
 140:../Peripheral/src/ch32v30x_rng.c **** /*********************************************************************
 141:../Peripheral/src/ch32v30x_rng.c ****  * @fn      RNG_ClearITPendingBit
 142:../Peripheral/src/ch32v30x_rng.c ****  *
 143:../Peripheral/src/ch32v30x_rng.c ****  * @brief   Clears the RNG interrupt pending bit(s).
 144:../Peripheral/src/ch32v30x_rng.c ****  *
 145:../Peripheral/src/ch32v30x_rng.c ****  * @param   RNG_IT - specifies the RNG interrupt pending bit(s) to clear.
 146:../Peripheral/src/ch32v30x_rng.c ****  *            RNG_IT_CEI - Clock Error Interrupt.
 147:../Peripheral/src/ch32v30x_rng.c ****  *            RNG_IT_SEI - Seed Error Interrupt.
 148:../Peripheral/src/ch32v30x_rng.c ****  *
 149:../Peripheral/src/ch32v30x_rng.c ****  * @return  None
 150:../Peripheral/src/ch32v30x_rng.c ****  */
 151:../Peripheral/src/ch32v30x_rng.c **** void RNG_ClearITPendingBit(uint8_t RNG_IT)
 152:../Peripheral/src/ch32v30x_rng.c **** {
 162              		.loc 1 152 1
 163              		.cfi_startproc
 164              	.LVL7:
 153:../Peripheral/src/ch32v30x_rng.c ****     RNG->SR = (uint8_t)~RNG_IT;
 165              		.loc 1 153 5
 166              		.loc 1 153 15 is_stmt 0
 167 0000 1345F5FF 		not	a0,a0
 168              	.LVL8:
 169              		.loc 1 153 13
 170 0004 B7470240 		li	a5,1073889280
 171              		.loc 1 153 15
 172 0008 1375F50F 		andi	a0,a0,0xff
 173              		.loc 1 153 13
 174 000c 938707C0 		addi	a5,a5,-1024
 175 0010 C8C3     		sw	a0,4(a5)
 154:../Peripheral/src/ch32v30x_rng.c **** }
 176              		.loc 1 154 1
 177 0012 8280     		ret
 178              		.cfi_endproc
 179              	.LFE35:
 181              		.text
 182              	.Letext0:
 183              		.file 2 "d:\\software\\mounriver_studio\\toolchain\\risc-v embedded gcc12\\riscv-none-elf\\include
 184              		.file 3 "d:\\software\\mounriver_studio\\toolchain\\risc-v embedded gcc12\\riscv-none-elf\\include
 185              		.file 4 "C:\\Users\\localhost\\Documents\\turbomoskal-repo\\qqexpert\\firmware\\MasterController\\
 186              		.file 5 "C:\\Users\\localhost\\Documents\\turbomoskal-repo\\qqexpert\\firmware\\MasterController\\
DEFINED SYMBOLS
                            *ABS*:0000000000000000 ch32v30x_rng.c
C:\Users\LOCALH~1\AppData\Local\Temp\ccLlviXB.s:14     .text.RNG_Cmd:0000000000000000 RNG_Cmd
C:\Users\LOCALH~1\AppData\Local\Temp\ccLlviXB.s:18     .text.RNG_Cmd:0000000000000000 .L0 
C:\Users\LOCALH~1\AppData\Local\Temp\ccLlviXB.s:20     .text.RNG_Cmd:0000000000000000 .L0 
C:\Users\LOCALH~1\AppData\Local\Temp\ccLlviXB.s:21     .text.RNG_Cmd:0000000000000000 $x
C:\Users\LOCALH~1\AppData\Local\Temp\ccLlviXB.s:21     .text.RNG_Cmd:0000000000000000 .L0 
C:\Users\LOCALH~1\AppData\Local\Temp\ccLlviXB.s:24     .text.RNG_Cmd:0000000000000008 .L0 
C:\Users\LOCALH~1\AppData\Local\Temp\ccLlviXB.s:26     .text.RNG_Cmd:000000000000000a .L0 
C:\Users\LOCALH~1\AppData\Local\Temp\ccLlviXB.s:28     .text.RNG_Cmd:000000000000000c .L0 
C:\Users\LOCALH~1\AppData\Local\Temp\ccLlviXB.s:29     .text.RNG_Cmd:000000000000000c .L0 
C:\Users\LOCALH~1\AppData\Local\Temp\ccLlviXB.s:32     .text.RNG_Cmd:0000000000000010 .L0 
C:\Users\LOCALH~1\AppData\Local\Temp\ccLlviXB.s:34     .text.RNG_Cmd:0000000000000012 .L0 
C:\Users\LOCALH~1\AppData\Local\Temp\ccLlviXB.s:37     .text.RNG_Cmd:0000000000000014 .L0 
C:\Users\LOCALH~1\AppData\Local\Temp\ccLlviXB.s:38     .text.RNG_Cmd:0000000000000014 .L0 
C:\Users\LOCALH~1\AppData\Local\Temp\ccLlviXB.s:40     .text.RNG_Cmd:0000000000000018 .L0 
C:\Users\LOCALH~1\AppData\Local\Temp\ccLlviXB.s:47     .text.RNG_GetRandomNumber:0000000000000000 RNG_GetRandomNumber
C:\Users\LOCALH~1\AppData\Local\Temp\ccLlviXB.s:50     .text.RNG_GetRandomNumber:0000000000000000 .L0 
C:\Users\LOCALH~1\AppData\Local\Temp\ccLlviXB.s:51     .text.RNG_GetRandomNumber:0000000000000000 .L0 
C:\Users\LOCALH~1\AppData\Local\Temp\ccLlviXB.s:52     .text.RNG_GetRandomNumber:0000000000000000 .L0 
C:\Users\LOCALH~1\AppData\Local\Temp\ccLlviXB.s:53     .text.RNG_GetRandomNumber:0000000000000000 $x
C:\Users\LOCALH~1\AppData\Local\Temp\ccLlviXB.s:53     .text.RNG_GetRandomNumber:0000000000000000 .L0 
C:\Users\LOCALH~1\AppData\Local\Temp\ccLlviXB.s:57     .text.RNG_GetRandomNumber:000000000000000a .L0 
C:\Users\LOCALH~1\AppData\Local\Temp\ccLlviXB.s:58     .text.RNG_GetRandomNumber:000000000000000c .L0 
C:\Users\LOCALH~1\AppData\Local\Temp\ccLlviXB.s:65     .text.RNG_ITConfig:0000000000000000 RNG_ITConfig
C:\Users\LOCALH~1\AppData\Local\Temp\ccLlviXB.s:68     .text.RNG_ITConfig:0000000000000000 .L0 
C:\Users\LOCALH~1\AppData\Local\Temp\ccLlviXB.s:70     .text.RNG_ITConfig:0000000000000000 .L0 
C:\Users\LOCALH~1\AppData\Local\Temp\ccLlviXB.s:71     .text.RNG_ITConfig:0000000000000000 $x
C:\Users\LOCALH~1\AppData\Local\Temp\ccLlviXB.s:71     .text.RNG_ITConfig:0000000000000000 .L0 
C:\Users\LOCALH~1\AppData\Local\Temp\ccLlviXB.s:74     .text.RNG_ITConfig:0000000000000008 .L0 
C:\Users\LOCALH~1\AppData\Local\Temp\ccLlviXB.s:76     .text.RNG_ITConfig:000000000000000a .L0 
C:\Users\LOCALH~1\AppData\Local\Temp\ccLlviXB.s:78     .text.RNG_ITConfig:000000000000000c .L0 
C:\Users\LOCALH~1\AppData\Local\Temp\ccLlviXB.s:79     .text.RNG_ITConfig:000000000000000c .L0 
C:\Users\LOCALH~1\AppData\Local\Temp\ccLlviXB.s:82     .text.RNG_ITConfig:0000000000000010 .L0 
C:\Users\LOCALH~1\AppData\Local\Temp\ccLlviXB.s:84     .text.RNG_ITConfig:0000000000000012 .L0 
C:\Users\LOCALH~1\AppData\Local\Temp\ccLlviXB.s:87     .text.RNG_ITConfig:0000000000000014 .L0 
C:\Users\LOCALH~1\AppData\Local\Temp\ccLlviXB.s:88     .text.RNG_ITConfig:0000000000000014 .L0 
C:\Users\LOCALH~1\AppData\Local\Temp\ccLlviXB.s:90     .text.RNG_ITConfig:0000000000000018 .L0 
C:\Users\LOCALH~1\AppData\Local\Temp\ccLlviXB.s:97     .text.RNG_GetFlagStatus:0000000000000000 RNG_GetFlagStatus
C:\Users\LOCALH~1\AppData\Local\Temp\ccLlviXB.s:100    .text.RNG_GetFlagStatus:0000000000000000 .L0 
C:\Users\LOCALH~1\AppData\Local\Temp\ccLlviXB.s:102    .text.RNG_GetFlagStatus:0000000000000000 .L0 
C:\Users\LOCALH~1\AppData\Local\Temp\ccLlviXB.s:103    .text.RNG_GetFlagStatus:0000000000000000 .L0 
C:\Users\LOCALH~1\AppData\Local\Temp\ccLlviXB.s:104    .text.RNG_GetFlagStatus:0000000000000000 .L0 
C:\Users\LOCALH~1\AppData\Local\Temp\ccLlviXB.s:105    .text.RNG_GetFlagStatus:0000000000000000 $x
C:\Users\LOCALH~1\AppData\Local\Temp\ccLlviXB.s:105    .text.RNG_GetFlagStatus:0000000000000000 .L0 
C:\Users\LOCALH~1\AppData\Local\Temp\ccLlviXB.s:110    .text.RNG_GetFlagStatus:000000000000000a .L0 
C:\Users\LOCALH~1\AppData\Local\Temp\ccLlviXB.s:111    .text.RNG_GetFlagStatus:000000000000000a .L0 
C:\Users\LOCALH~1\AppData\Local\Temp\ccLlviXB.s:114    .text.RNG_GetFlagStatus:000000000000000c .L0 
C:\Users\LOCALH~1\AppData\Local\Temp\ccLlviXB.s:116    .text.RNG_GetFlagStatus:0000000000000012 .L0 
C:\Users\LOCALH~1\AppData\Local\Temp\ccLlviXB.s:123    .text.RNG_ClearFlag:0000000000000000 RNG_ClearFlag
C:\Users\LOCALH~1\AppData\Local\Temp\ccLlviXB.s:126    .text.RNG_ClearFlag:0000000000000000 .L0 
C:\Users\LOCALH~1\AppData\Local\Temp\ccLlviXB.s:128    .text.RNG_ClearFlag:0000000000000000 .L0 
C:\Users\LOCALH~1\AppData\Local\Temp\ccLlviXB.s:129    .text.RNG_ClearFlag:0000000000000000 .L0 
C:\Users\LOCALH~1\AppData\Local\Temp\ccLlviXB.s:130    .text.RNG_ClearFlag:0000000000000000 $x
C:\Users\LOCALH~1\AppData\Local\Temp\ccLlviXB.s:130    .text.RNG_ClearFlag:0000000000000000 .L0 
C:\Users\LOCALH~1\AppData\Local\Temp\ccLlviXB.s:133    .text.RNG_ClearFlag:0000000000000002 .L0 
C:\Users\LOCALH~1\AppData\Local\Temp\ccLlviXB.s:135    .text.RNG_ClearFlag:0000000000000006 .L0 
C:\Users\LOCALH~1\AppData\Local\Temp\ccLlviXB.s:137    .text.RNG_ClearFlag:000000000000000a .L0 
C:\Users\LOCALH~1\AppData\Local\Temp\ccLlviXB.s:140    .text.RNG_ClearFlag:0000000000000010 .L0 
C:\Users\LOCALH~1\AppData\Local\Temp\ccLlviXB.s:141    .text.RNG_ClearFlag:0000000000000012 .L0 
C:\Users\LOCALH~1\AppData\Local\Temp\ccLlviXB.s:148    .text.RNG_GetITStatus:0000000000000000 RNG_GetITStatus
C:\Users\LOCALH~1\AppData\Local\Temp\ccLlviXB.s:150    .text.RNG_GetITStatus:0000000000000000 .L0 
C:\Users\LOCALH~1\AppData\Local\Temp\ccLlviXB.s:152    .text.RNG_GetITStatus:0000000000000000 $x
C:\Users\LOCALH~1\AppData\Local\Temp\ccLlviXB.s:152    .text.RNG_GetITStatus:0000000000000000 .L0 
C:\Users\LOCALH~1\AppData\Local\Temp\ccLlviXB.s:153    .text.RNG_GetITStatus:0000000000000008 .L0 
C:\Users\LOCALH~1\AppData\Local\Temp\ccLlviXB.s:160    .text.RNG_ClearITPendingBit:0000000000000000 RNG_ClearITPendingBit
C:\Users\LOCALH~1\AppData\Local\Temp\ccLlviXB.s:163    .text.RNG_ClearITPendingBit:0000000000000000 .L0 
C:\Users\LOCALH~1\AppData\Local\Temp\ccLlviXB.s:165    .text.RNG_ClearITPendingBit:0000000000000000 .L0 
C:\Users\LOCALH~1\AppData\Local\Temp\ccLlviXB.s:166    .text.RNG_ClearITPendingBit:0000000000000000 .L0 
C:\Users\LOCALH~1\AppData\Local\Temp\ccLlviXB.s:167    .text.RNG_ClearITPendingBit:0000000000000000 $x
C:\Users\LOCALH~1\AppData\Local\Temp\ccLlviXB.s:167    .text.RNG_ClearITPendingBit:0000000000000000 .L0 
C:\Users\LOCALH~1\AppData\Local\Temp\ccLlviXB.s:170    .text.RNG_ClearITPendingBit:0000000000000004 .L0 
C:\Users\LOCALH~1\AppData\Local\Temp\ccLlviXB.s:172    .text.RNG_ClearITPendingBit:0000000000000008 .L0 
C:\Users\LOCALH~1\AppData\Local\Temp\ccLlviXB.s:174    .text.RNG_ClearITPendingBit:000000000000000c .L0 
C:\Users\LOCALH~1\AppData\Local\Temp\ccLlviXB.s:177    .text.RNG_ClearITPendingBit:0000000000000012 .L0 
C:\Users\LOCALH~1\AppData\Local\Temp\ccLlviXB.s:178    .text.RNG_ClearITPendingBit:0000000000000014 .L0 
C:\Users\LOCALH~1\AppData\Local\Temp\ccLlviXB.s:1064   .debug_line_str:0000000000000076 .L0 
C:\Users\LOCALH~1\AppData\Local\Temp\ccLlviXB.s:1064   .debug_line_str:00000000000000cb .L0 
C:\Users\LOCALH~1\AppData\Local\Temp\ccLlviXB.s:1064   .debug_line_str:00000000000000dd .L0 
C:\Users\LOCALH~1\AppData\Local\Temp\ccLlviXB.s:1064   .debug_line_str:0000000000000139 .L0 
C:\Users\LOCALH~1\AppData\Local\Temp\ccLlviXB.s:1064   .debug_line_str:0000000000000191 .L0 
C:\Users\LOCALH~1\AppData\Local\Temp\ccLlviXB.s:1064   .debug_line_str:00000000000001e7 .L0 
C:\Users\LOCALH~1\AppData\Local\Temp\ccLlviXB.s:1064   .debug_line_str:0000000000000247 .L0 
C:\Users\LOCALH~1\AppData\Local\Temp\ccLlviXB.s:1064   .debug_line_str:0000000000000256 .L0 
C:\Users\LOCALH~1\AppData\Local\Temp\ccLlviXB.s:1064   .debug_line_str:0000000000000265 .L0 
C:\Users\LOCALH~1\AppData\Local\Temp\ccLlviXB.s:1064   .debug_line_str:0000000000000276 .L0 
C:\Users\LOCALH~1\AppData\Local\Temp\ccLlviXB.s:1064   .debug_line_str:0000000000000280 .L0 
C:\Users\LOCALH~1\AppData\Local\Temp\ccLlviXB.s:1064   .debug_line_str:000000000000028d .L0 
C:\Users\LOCALH~1\AppData\Local\Temp\ccLlviXB.s:43     .text.RNG_Cmd:0000000000000018 .L0 
C:\Users\LOCALH~1\AppData\Local\Temp\ccLlviXB.s:61     .text.RNG_GetRandomNumber:000000000000000c .L0 
C:\Users\LOCALH~1\AppData\Local\Temp\ccLlviXB.s:93     .text.RNG_ITConfig:0000000000000018 .L0 
C:\Users\LOCALH~1\AppData\Local\Temp\ccLlviXB.s:119    .text.RNG_GetFlagStatus:0000000000000012 .L0 
C:\Users\LOCALH~1\AppData\Local\Temp\ccLlviXB.s:144    .text.RNG_ClearFlag:0000000000000012 .L0 
C:\Users\LOCALH~1\AppData\Local\Temp\ccLlviXB.s:156    .text.RNG_GetITStatus:0000000000000008 .L0 
C:\Users\LOCALH~1\AppData\Local\Temp\ccLlviXB.s:181    .text.RNG_ClearITPendingBit:0000000000000014 .L0 
                     .debug_frame:0000000000000000 .L0 
C:\Users\LOCALH~1\AppData\Local\Temp\ccLlviXB.s:35     .text.RNG_Cmd:0000000000000014 .L2
C:\Users\LOCALH~1\AppData\Local\Temp\ccLlviXB.s:30     .text.RNG_Cmd:0000000000000010 .L4
C:\Users\LOCALH~1\AppData\Local\Temp\ccLlviXB.s:85     .text.RNG_ITConfig:0000000000000014 .L7
C:\Users\LOCALH~1\AppData\Local\Temp\ccLlviXB.s:80     .text.RNG_ITConfig:0000000000000010 .L9
C:\Users\LOCALH~1\AppData\Local\Temp\ccLlviXB.s:464    .debug_abbrev:0000000000000000 .Ldebug_abbrev0
C:\Users\LOCALH~1\AppData\Local\Temp\ccLlviXB.s:1047   .debug_str:0000000000000149 .LASF30
C:\Users\LOCALH~1\AppData\Local\Temp\ccLlviXB.s:1062   .debug_line_str:0000000000000055 .LASF0
C:\Users\LOCALH~1\AppData\Local\Temp\ccLlviXB.s:1060   .debug_line_str:0000000000000000 .LASF1
C:\Users\LOCALH~1\AppData\Local\Temp\ccLlviXB.s:964    .debug_rnglists:000000000000000c .LLRL4
C:\Users\LOCALH~1\AppData\Local\Temp\ccLlviXB.s:989    .debug_line:0000000000000000 .Ldebug_line0
C:\Users\LOCALH~1\AppData\Local\Temp\ccLlviXB.s:1031   .debug_str:00000000000000f7 .LASF2
C:\Users\LOCALH~1\AppData\Local\Temp\ccLlviXB.s:1053   .debug_str:000000000000025f .LASF3
C:\Users\LOCALH~1\AppData\Local\Temp\ccLlviXB.s:991    .debug_str:0000000000000000 .LASF8
C:\Users\LOCALH~1\AppData\Local\Temp\ccLlviXB.s:1011   .debug_str:000000000000007a .LASF4
C:\Users\LOCALH~1\AppData\Local\Temp\ccLlviXB.s:1041   .debug_str:0000000000000128 .LASF5
C:\Users\LOCALH~1\AppData\Local\Temp\ccLlviXB.s:995    .debug_str:0000000000000013 .LASF6
C:\Users\LOCALH~1\AppData\Local\Temp\ccLlviXB.s:1049   .debug_str:000000000000024a .LASF7
C:\Users\LOCALH~1\AppData\Local\Temp\ccLlviXB.s:1027   .debug_str:00000000000000e0 .LASF9
C:\Users\LOCALH~1\AppData\Local\Temp\ccLlviXB.s:1017   .debug_str:00000000000000a7 .LASF10
C:\Users\LOCALH~1\AppData\Local\Temp\ccLlviXB.s:1039   .debug_str:000000000000011a .LASF11
C:\Users\LOCALH~1\AppData\Local\Temp\ccLlviXB.s:1009   .debug_str:0000000000000063 .LASF12
C:\Users\LOCALH~1\AppData\Local\Temp\ccLlviXB.s:1035   .debug_str:0000000000000109 .LASF13
C:\Users\LOCALH~1\AppData\Local\Temp\ccLlviXB.s:1023   .debug_str:00000000000000cf .LASF14
C:\Users\LOCALH~1\AppData\Local\Temp\ccLlviXB.s:1025   .debug_str:00000000000000d8 .LASF15
C:\Users\LOCALH~1\AppData\Local\Temp\ccLlviXB.s:1007   .debug_str:000000000000005c .LASF16
C:\Users\LOCALH~1\AppData\Local\Temp\ccLlviXB.s:997    .debug_str:0000000000000026 .LASF17
C:\Users\LOCALH~1\AppData\Local\Temp\ccLlviXB.s:1021   .debug_str:00000000000000c9 .LASF18
C:\Users\LOCALH~1\AppData\Local\Temp\ccLlviXB.s:1013   .debug_str:0000000000000088 .LASF19
C:\Users\LOCALH~1\AppData\Local\Temp\ccLlviXB.s:993    .debug_str:000000000000000a .LASF20
C:\Users\LOCALH~1\AppData\Local\Temp\ccLlviXB.s:1029   .debug_str:00000000000000eb .LASF21
C:\Users\LOCALH~1\AppData\Local\Temp\ccLlviXB.s:1051   .debug_str:0000000000000253 .LASF22
C:\Users\LOCALH~1\AppData\Local\Temp\ccLlviXB.s:1033   .debug_str:0000000000000104 .LASF23
C:\Users\LOCALH~1\AppData\Local\Temp\ccLlviXB.s:1055   .debug_str:000000000000026b .LASF24
C:\Users\LOCALH~1\AppData\Local\Temp\ccLlviXB.s:161    .text.RNG_ClearITPendingBit:0000000000000000 .LFB35
C:\Users\LOCALH~1\AppData\Local\Temp\ccLlviXB.s:179    .text.RNG_ClearITPendingBit:0000000000000014 .LFE35
C:\Users\LOCALH~1\AppData\Local\Temp\ccLlviXB.s:1005   .debug_str:0000000000000055 .LASF26
C:\Users\LOCALH~1\AppData\Local\Temp\ccLlviXB.s:841    .debug_loclists:000000000000000c .LLST3
C:\Users\LOCALH~1\AppData\Local\Temp\ccLlviXB.s:1019   .debug_str:00000000000000b9 .LASF31
C:\Users\LOCALH~1\AppData\Local\Temp\ccLlviXB.s:1003   .debug_str:000000000000004b .LASF32
C:\Users\LOCALH~1\AppData\Local\Temp\ccLlviXB.s:1043   .debug_str:0000000000000132 .LASF25
C:\Users\LOCALH~1\AppData\Local\Temp\ccLlviXB.s:124    .text.RNG_ClearFlag:0000000000000000 .LFB33
C:\Users\LOCALH~1\AppData\Local\Temp\ccLlviXB.s:142    .text.RNG_ClearFlag:0000000000000012 .LFE33
C:\Users\LOCALH~1\AppData\Local\Temp\ccLlviXB.s:1037   .debug_str:0000000000000111 .LASF27
C:\Users\LOCALH~1\AppData\Local\Temp\ccLlviXB.s:856    .debug_loclists:0000000000000026 .LLST2
C:\Users\LOCALH~1\AppData\Local\Temp\ccLlviXB.s:1057   .debug_str:0000000000000281 .LASF33
C:\Users\LOCALH~1\AppData\Local\Temp\ccLlviXB.s:98     .text.RNG_GetFlagStatus:0000000000000000 .LFB32
C:\Users\LOCALH~1\AppData\Local\Temp\ccLlviXB.s:117    .text.RNG_GetFlagStatus:0000000000000012 .LFE32
C:\Users\LOCALH~1\AppData\Local\Temp\ccLlviXB.s:871    .debug_loclists:0000000000000040 .LLST0
C:\Users\LOCALH~1\AppData\Local\Temp\ccLlviXB.s:886    .debug_loclists:000000000000005a .LLST1
C:\Users\LOCALH~1\AppData\Local\Temp\ccLlviXB.s:999    .debug_str:0000000000000036 .LASF28
C:\Users\LOCALH~1\AppData\Local\Temp\ccLlviXB.s:66     .text.RNG_ITConfig:0000000000000000 .LFB31
C:\Users\LOCALH~1\AppData\Local\Temp\ccLlviXB.s:91     .text.RNG_ITConfig:0000000000000018 .LFE31
C:\Users\LOCALH~1\AppData\Local\Temp\ccLlviXB.s:1045   .debug_str:0000000000000140 .LASF29
C:\Users\LOCALH~1\AppData\Local\Temp\ccLlviXB.s:1015   .debug_str:0000000000000093 .LASF34
C:\Users\LOCALH~1\AppData\Local\Temp\ccLlviXB.s:48     .text.RNG_GetRandomNumber:0000000000000000 .LFB30
C:\Users\LOCALH~1\AppData\Local\Temp\ccLlviXB.s:59     .text.RNG_GetRandomNumber:000000000000000c .LFE30
C:\Users\LOCALH~1\AppData\Local\Temp\ccLlviXB.s:1001   .debug_str:0000000000000043 .LASF35
C:\Users\LOCALH~1\AppData\Local\Temp\ccLlviXB.s:15     .text.RNG_Cmd:0000000000000000 .LFB29
C:\Users\LOCALH~1\AppData\Local\Temp\ccLlviXB.s:41     .text.RNG_Cmd:0000000000000018 .LFE29
C:\Users\LOCALH~1\AppData\Local\Temp\ccLlviXB.s:164    .text.RNG_ClearITPendingBit:0000000000000000 .LVL7
C:\Users\LOCALH~1\AppData\Local\Temp\ccLlviXB.s:168    .text.RNG_ClearITPendingBit:0000000000000004 .LVL8
C:\Users\LOCALH~1\AppData\Local\Temp\ccLlviXB.s:127    .text.RNG_ClearFlag:0000000000000000 .LVL5
C:\Users\LOCALH~1\AppData\Local\Temp\ccLlviXB.s:131    .text.RNG_ClearFlag:0000000000000002 .LVL6
C:\Users\LOCALH~1\AppData\Local\Temp\ccLlviXB.s:101    .text.RNG_GetFlagStatus:0000000000000000 .LVL2
C:\Users\LOCALH~1\AppData\Local\Temp\ccLlviXB.s:112    .text.RNG_GetFlagStatus:000000000000000c .LVL4
C:\Users\LOCALH~1\AppData\Local\Temp\ccLlviXB.s:108    .text.RNG_GetFlagStatus:000000000000000a .LVL3
C:\Users\LOCALH~1\AppData\Local\Temp\ccLlviXB.s:188    .debug_info:0000000000000000 .Ldebug_info0
C:\Users\LOCALH~1\AppData\Local\Temp\ccLlviXB.s:149    .text.RNG_GetITStatus:0000000000000000 .LFB37
C:\Users\LOCALH~1\AppData\Local\Temp\ccLlviXB.s:154    .text.RNG_GetITStatus:0000000000000008 .LFE37

NO UNDEFINED SYMBOLS
