   1              		.file	"debug.c"
   2              		.option nopic
   3              		.attribute arch, "rv32i2p0_m2p0_a2p0_f2p0_c2p0_xw"
   4              		.attribute unaligned_access, 0
   5              		.attribute stack_align, 16
   6              		.text
   7              	.Ltext0:
   8              		.cfi_sections	.debug_frame
   9              		.file 0 "C:\\Users\\localhost\\Documents\\turbomoskal-repo\\qqexpert\\firmware\\MasterController\\
  10              		.section	.text.Delay_Init,"ax",@progbits
  11              		.align	1
  12              		.globl	Delay_Init
  14              	Delay_Init:
  15              	.LFB29:
  16              		.file 1 "../Debug/debug.c"
   1:../Debug/debug.c **** /********************************** (C) COPYRIGHT  *******************************
   2:../Debug/debug.c **** * File Name          : debug.c
   3:../Debug/debug.c **** * Author             : WCH
   4:../Debug/debug.c **** * Version            : V1.0.0
   5:../Debug/debug.c **** * Date               : 2021/06/06
   6:../Debug/debug.c **** * Description        : This file contains all the functions prototypes for UART
   7:../Debug/debug.c **** *                      Printf , Delay functions.
   8:../Debug/debug.c **** *********************************************************************************
   9:../Debug/debug.c **** * Copyright (c) 2021 Nanjing Qinheng Microelectronics Co., Ltd.
  10:../Debug/debug.c **** * Attention: This software (modified or not) and binary are used for 
  11:../Debug/debug.c **** * microcontroller manufactured by Nanjing Qinheng Microelectronics.
  12:../Debug/debug.c **** *******************************************************************************/
  13:../Debug/debug.c **** #include "debug.h"
  14:../Debug/debug.c **** 
  15:../Debug/debug.c **** static uint8_t  p_us = 0;
  16:../Debug/debug.c **** static uint16_t p_ms = 0;
  17:../Debug/debug.c **** 
  18:../Debug/debug.c **** #define DEBUG_DATA0_ADDRESS  ((volatile uint32_t*)0xE0000380)
  19:../Debug/debug.c **** #define DEBUG_DATA1_ADDRESS  ((volatile uint32_t*)0xE0000384)
  20:../Debug/debug.c **** 
  21:../Debug/debug.c **** /*********************************************************************
  22:../Debug/debug.c ****  * @fn      Delay_Init
  23:../Debug/debug.c ****  *
  24:../Debug/debug.c ****  * @brief   Initializes Delay Funcation.
  25:../Debug/debug.c ****  *
  26:../Debug/debug.c ****  * @return  none
  27:../Debug/debug.c ****  */
  28:../Debug/debug.c **** void Delay_Init(void)
  29:../Debug/debug.c **** {
  17              		.loc 1 29 1
  18              		.cfi_startproc
  30:../Debug/debug.c ****     p_us = SystemCoreClock / 8000000;
  19              		.loc 1 30 5
  20              		.loc 1 30 28 is_stmt 0
  21 0000 37177A00 		li	a4,7999488
  22 0004 13070720 		addi	a4,a4,512
  23 0008 97070000 		lw	a5,SystemCoreClock
  23      83A70700 
  24 0010 B3D7E702 		divu	a5,a5,a4
  25              		.loc 1 30 10
  26 0014 93F7F70F 		andi	a5,a5,0xff
  27 0018 17070000 		sb	a5,p_us,a4
  27      2300F700 
  31:../Debug/debug.c ****     p_ms = (uint16_t)p_us * 1000;
  28              		.loc 1 31 5 is_stmt 1
  29              		.loc 1 31 10 is_stmt 0
  30 0020 1307803E 		li	a4,1000
  31 0024 B387E702 		mul	a5,a5,a4
  32 0028 17070000 		sh	a5,p_ms,a4
  32      2310F700 
  32:../Debug/debug.c **** }
  33              		.loc 1 32 1
  34 0030 8280     		ret
  35              		.cfi_endproc
  36              	.LFE29:
  38              		.section	.text.Delay_Us,"ax",@progbits
  39              		.align	1
  40              		.globl	Delay_Us
  42              	Delay_Us:
  43              	.LFB30:
  33:../Debug/debug.c **** 
  34:../Debug/debug.c **** /*********************************************************************
  35:../Debug/debug.c ****  * @fn      Delay_Us
  36:../Debug/debug.c ****  *
  37:../Debug/debug.c ****  * @brief   Microsecond Delay Time.
  38:../Debug/debug.c ****  *
  39:../Debug/debug.c ****  * @param   n - Microsecond number.
  40:../Debug/debug.c ****  *
  41:../Debug/debug.c ****  * @return  None
  42:../Debug/debug.c ****  */
  43:../Debug/debug.c **** void Delay_Us(uint32_t n)
  44:../Debug/debug.c **** {
  44              		.loc 1 44 1 is_stmt 1
  45              		.cfi_startproc
  46              	.LVL0:
  45:../Debug/debug.c ****     uint32_t i;
  47              		.loc 1 45 5
  46:../Debug/debug.c **** 
  47:../Debug/debug.c ****     SysTick->SR &= ~(1 << 0);
  48              		.loc 1 47 5
  49              		.loc 1 47 12 is_stmt 0
  50 0000 B7F700E0 		li	a5,-536809472
  51 0004 D843     		lw	a4,4(a5)
  48:../Debug/debug.c ****     i = (uint32_t)n * p_us;
  49:../Debug/debug.c **** 
  50:../Debug/debug.c ****     SysTick->CMP = i;
  52              		.loc 1 50 18
  53 0006 8146     		li	a3,0
  47:../Debug/debug.c ****     i = (uint32_t)n * p_us;
  54              		.loc 1 47 17
  55 0008 799B     		andi	a4,a4,-2
  56 000a D8C3     		sw	a4,4(a5)
  48:../Debug/debug.c ****     i = (uint32_t)n * p_us;
  57              		.loc 1 48 5 is_stmt 1
  58              	.LVL1:
  59              		.loc 1 50 5
  48:../Debug/debug.c ****     i = (uint32_t)n * p_us;
  60              		.loc 1 48 21 is_stmt 0
  61 000c 17070000 		lbu	a4,p_us
  61      03470700 
  62              		.loc 1 50 18
  63 0014 3306A702 		mul	a2,a4,a0
  64              	.LVL2:
  65 0018 90CB     		sw	a2,16(a5)
  66 001a D4CB     		sw	a3,20(a5)
  51:../Debug/debug.c ****     SysTick->CTLR |= (1 << 4);
  67              		.loc 1 51 5 is_stmt 1
  68              		.loc 1 51 12 is_stmt 0
  69 001c 9843     		lw	a4,0(a5)
  70              		.loc 1 51 19
  71 001e 13670701 		ori	a4,a4,16
  72 0022 98C3     		sw	a4,0(a5)
  52:../Debug/debug.c ****     SysTick->CTLR |= (1 << 5) | (1 << 0);
  73              		.loc 1 52 5 is_stmt 1
  74              		.loc 1 52 12 is_stmt 0
  75 0024 9843     		lw	a4,0(a5)
  76              		.loc 1 52 19
  77 0026 13671702 		ori	a4,a4,33
  78 002a 98C3     		sw	a4,0(a5)
  53:../Debug/debug.c **** 
  54:../Debug/debug.c ****     while((SysTick->SR & (1 << 0)) != (1 << 0))
  79              		.loc 1 54 5 is_stmt 1
  80              	.L3:
  81              		.loc 1 54 36 discriminator 1
  82              		.loc 1 54 19 is_stmt 0 discriminator 1
  83 002c D843     		lw	a4,4(a5)
  84              		.loc 1 54 24 discriminator 1
  85 002e 058B     		andi	a4,a4,1
  86              		.loc 1 54 36 discriminator 1
  87 0030 75DF     		beq	a4,zero,.L3
  55:../Debug/debug.c ****         ;
  56:../Debug/debug.c ****     SysTick->CTLR &= ~(1 << 0);
  88              		.loc 1 56 5 is_stmt 1
  89              		.loc 1 56 12 is_stmt 0
  90 0032 9843     		lw	a4,0(a5)
  91              		.loc 1 56 19
  92 0034 799B     		andi	a4,a4,-2
  93 0036 98C3     		sw	a4,0(a5)
  57:../Debug/debug.c **** }
  94              		.loc 1 57 1
  95 0038 8280     		ret
  96              		.cfi_endproc
  97              	.LFE30:
  99              		.section	.text.Delay_Ms,"ax",@progbits
 100              		.align	1
 101              		.globl	Delay_Ms
 103              	Delay_Ms:
 104              	.LFB31:
  58:../Debug/debug.c **** 
  59:../Debug/debug.c **** /*********************************************************************
  60:../Debug/debug.c ****  * @fn      Delay_Ms
  61:../Debug/debug.c ****  *
  62:../Debug/debug.c ****  * @brief   Millisecond Delay Time.
  63:../Debug/debug.c ****  *
  64:../Debug/debug.c ****  * @param   n - Millisecond number.
  65:../Debug/debug.c ****  *
  66:../Debug/debug.c ****  * @return  None
  67:../Debug/debug.c ****  */
  68:../Debug/debug.c **** void Delay_Ms(uint32_t n)
  69:../Debug/debug.c **** {
 105              		.loc 1 69 1 is_stmt 1
 106              		.cfi_startproc
 107              	.LVL3:
  70:../Debug/debug.c ****     uint32_t i;
 108              		.loc 1 70 5
  71:../Debug/debug.c **** 
  72:../Debug/debug.c ****     SysTick->SR &= ~(1 << 0);
 109              		.loc 1 72 5
 110              		.loc 1 72 12 is_stmt 0
 111 0000 B7F700E0 		li	a5,-536809472
 112 0004 D843     		lw	a4,4(a5)
  73:../Debug/debug.c ****     i = (uint32_t)n * p_ms;
  74:../Debug/debug.c **** 
  75:../Debug/debug.c ****     SysTick->CMP = i;
 113              		.loc 1 75 18
 114 0006 8146     		li	a3,0
  72:../Debug/debug.c ****     i = (uint32_t)n * p_ms;
 115              		.loc 1 72 17
 116 0008 799B     		andi	a4,a4,-2
 117 000a D8C3     		sw	a4,4(a5)
  73:../Debug/debug.c ****     i = (uint32_t)n * p_ms;
 118              		.loc 1 73 5 is_stmt 1
 119              	.LVL4:
 120              		.loc 1 75 5
  73:../Debug/debug.c ****     i = (uint32_t)n * p_ms;
 121              		.loc 1 73 21 is_stmt 0
 122 000c 17070000 		lhu	a4,p_ms
 122      03570700 
 123              		.loc 1 75 18
 124 0014 3306A702 		mul	a2,a4,a0
 125              	.LVL5:
 126 0018 90CB     		sw	a2,16(a5)
 127 001a D4CB     		sw	a3,20(a5)
  76:../Debug/debug.c ****     SysTick->CTLR |= (1 << 4);
 128              		.loc 1 76 5 is_stmt 1
 129              		.loc 1 76 12 is_stmt 0
 130 001c 9843     		lw	a4,0(a5)
 131              		.loc 1 76 19
 132 001e 13670701 		ori	a4,a4,16
 133 0022 98C3     		sw	a4,0(a5)
  77:../Debug/debug.c ****     SysTick->CTLR |= (1 << 5) | (1 << 0);
 134              		.loc 1 77 5 is_stmt 1
 135              		.loc 1 77 12 is_stmt 0
 136 0024 9843     		lw	a4,0(a5)
 137              		.loc 1 77 19
 138 0026 13671702 		ori	a4,a4,33
 139 002a 98C3     		sw	a4,0(a5)
  78:../Debug/debug.c **** 
  79:../Debug/debug.c ****     while((SysTick->SR & (1 << 0)) != (1 << 0))
 140              		.loc 1 79 5 is_stmt 1
 141              	.L7:
 142              		.loc 1 79 36 discriminator 1
 143              		.loc 1 79 19 is_stmt 0 discriminator 1
 144 002c D843     		lw	a4,4(a5)
 145              		.loc 1 79 24 discriminator 1
 146 002e 058B     		andi	a4,a4,1
 147              		.loc 1 79 36 discriminator 1
 148 0030 75DF     		beq	a4,zero,.L7
  80:../Debug/debug.c ****         ;
  81:../Debug/debug.c ****     SysTick->CTLR &= ~(1 << 0);
 149              		.loc 1 81 5 is_stmt 1
 150              		.loc 1 81 12 is_stmt 0
 151 0032 9843     		lw	a4,0(a5)
 152              		.loc 1 81 19
 153 0034 799B     		andi	a4,a4,-2
 154 0036 98C3     		sw	a4,0(a5)
  82:../Debug/debug.c **** }
 155              		.loc 1 82 1
 156 0038 8280     		ret
 157              		.cfi_endproc
 158              	.LFE31:
 160              		.section	.text.USART_Printf_Init,"ax",@progbits
 161              		.align	1
 162              		.globl	USART_Printf_Init
 164              	USART_Printf_Init:
 165              	.LFB32:
  83:../Debug/debug.c **** 
  84:../Debug/debug.c **** /*********************************************************************
  85:../Debug/debug.c ****  * @fn      USART_Printf_Init
  86:../Debug/debug.c ****  *
  87:../Debug/debug.c ****  * @brief   Initializes the USARTx peripheral.
  88:../Debug/debug.c ****  *
  89:../Debug/debug.c ****  * @param   baudrate - USART communication baud rate.
  90:../Debug/debug.c ****  *
  91:../Debug/debug.c ****  * @return  None
  92:../Debug/debug.c ****  */
  93:../Debug/debug.c **** void USART_Printf_Init(uint32_t baudrate)
  94:../Debug/debug.c **** {
 166              		.loc 1 94 1 is_stmt 1
 167              		.cfi_startproc
 168              	.LVL6:
 169 0000 17030000 		call	t0,__riscv_save_1
 169      E7020300 
 170              		.cfi_offset 8, -8
 171              		.cfi_offset 1, -4
 172              		.cfi_def_cfa_offset 16
  95:../Debug/debug.c ****     GPIO_InitTypeDef  GPIO_InitStructure;
 173              		.loc 1 95 5
  96:../Debug/debug.c ****     USART_InitTypeDef USART_InitStructure;
 174              		.loc 1 96 5
  97:../Debug/debug.c **** 
  98:../Debug/debug.c **** #if(DEBUG == DEBUG_UART1)
  99:../Debug/debug.c ****     RCC_APB2PeriphClockCmd(RCC_APB2Periph_USART1 | RCC_APB2Periph_GPIOA, ENABLE);
 175              		.loc 1 99 5
  94:../Debug/debug.c ****     GPIO_InitTypeDef  GPIO_InitStructure;
 176              		.loc 1 94 1 is_stmt 0
 177 0008 2A84     		mv	s0,a0
 178              		.loc 1 99 5
 179 000a 1165     		li	a0,16384
 180              	.LVL7:
  94:../Debug/debug.c ****     GPIO_InitTypeDef  GPIO_InitStructure;
 181              		.loc 1 94 1
 182 000c 0111     		addi	sp,sp,-32
 183              		.cfi_def_cfa_offset 48
 184              		.loc 1 99 5
 185 000e 8545     		li	a1,1
 186 0010 1105     		addi	a0,a0,4
 187 0012 97000000 		call	RCC_APB2PeriphClockCmd
 187      E7800000 
 188              	.LVL8:
 100:../Debug/debug.c **** 
 101:../Debug/debug.c ****     GPIO_InitStructure.GPIO_Pin = GPIO_Pin_9;
 189              		.loc 1 101 5 is_stmt 1
 190              		.loc 1 101 33 is_stmt 0
 191 001a 93070020 		li	a5,512
 192 001e 7C82     		sh	a5,4(sp)
 102:../Debug/debug.c ****     GPIO_InitStructure.GPIO_Speed = GPIO_Speed_50MHz;
 193              		.loc 1 102 5 is_stmt 1
 103:../Debug/debug.c ****     GPIO_InitStructure.GPIO_Mode = GPIO_Mode_AF_PP;
 104:../Debug/debug.c ****     GPIO_Init(GPIOA, &GPIO_InitStructure);
 194              		.loc 1 104 5 is_stmt 0
 195 0020 37150140 		li	a0,1073811456
 102:../Debug/debug.c ****     GPIO_InitStructure.GPIO_Speed = GPIO_Speed_50MHz;
 196              		.loc 1 102 35
 197 0024 8D47     		li	a5,3
 198 0026 3EC4     		sw	a5,8(sp)
 103:../Debug/debug.c ****     GPIO_InitStructure.GPIO_Mode = GPIO_Mode_AF_PP;
 199              		.loc 1 103 5 is_stmt 1
 200              		.loc 1 104 5 is_stmt 0
 201 0028 4C00     		addi	a1,sp,4
 103:../Debug/debug.c ****     GPIO_InitStructure.GPIO_Mode = GPIO_Mode_AF_PP;
 202              		.loc 1 103 34
 203 002a E147     		li	a5,24
 204              		.loc 1 104 5
 205 002c 13050580 		addi	a0,a0,-2048
 103:../Debug/debug.c ****     GPIO_InitStructure.GPIO_Mode = GPIO_Mode_AF_PP;
 206              		.loc 1 103 34
 207 0030 3EC6     		sw	a5,12(sp)
 208              		.loc 1 104 5 is_stmt 1
 209 0032 97000000 		call	GPIO_Init
 209      E7800000 
 210              	.LVL9:
 105:../Debug/debug.c **** 
 106:../Debug/debug.c **** #elif(DEBUG == DEBUG_UART2)
 107:../Debug/debug.c ****     RCC_APB1PeriphClockCmd(RCC_APB1Periph_USART2, ENABLE);
 108:../Debug/debug.c ****     RCC_APB2PeriphClockCmd(RCC_APB2Periph_GPIOA, ENABLE);
 109:../Debug/debug.c **** 
 110:../Debug/debug.c ****     GPIO_InitStructure.GPIO_Pin = GPIO_Pin_2;
 111:../Debug/debug.c ****     GPIO_InitStructure.GPIO_Speed = GPIO_Speed_50MHz;
 112:../Debug/debug.c ****     GPIO_InitStructure.GPIO_Mode = GPIO_Mode_AF_PP;
 113:../Debug/debug.c ****     GPIO_Init(GPIOA, &GPIO_InitStructure);
 114:../Debug/debug.c **** 
 115:../Debug/debug.c **** #elif(DEBUG == DEBUG_UART3)
 116:../Debug/debug.c ****     RCC_APB1PeriphClockCmd(RCC_APB1Periph_USART3, ENABLE);
 117:../Debug/debug.c ****     RCC_APB2PeriphClockCmd(RCC_APB2Periph_GPIOB, ENABLE);
 118:../Debug/debug.c **** 
 119:../Debug/debug.c ****     GPIO_InitStructure.GPIO_Pin = GPIO_Pin_10;
 120:../Debug/debug.c ****     GPIO_InitStructure.GPIO_Speed = GPIO_Speed_50MHz;
 121:../Debug/debug.c ****     GPIO_InitStructure.GPIO_Mode = GPIO_Mode_AF_PP;
 122:../Debug/debug.c ****     GPIO_Init(GPIOB, &GPIO_InitStructure);
 123:../Debug/debug.c **** 
 124:../Debug/debug.c **** #endif
 125:../Debug/debug.c **** 
 126:../Debug/debug.c ****     USART_InitStructure.USART_BaudRate = baudrate;
 211              		.loc 1 126 5
 212              		.loc 1 126 40 is_stmt 0
 213 003a 22C8     		sw	s0,16(sp)
 127:../Debug/debug.c ****     USART_InitStructure.USART_WordLength = USART_WordLength_8b;
 214              		.loc 1 127 5 is_stmt 1
 128:../Debug/debug.c ****     USART_InitStructure.USART_StopBits = USART_StopBits_1;
 215              		.loc 1 128 5
 129:../Debug/debug.c ****     USART_InitStructure.USART_Parity = USART_Parity_No;
 216              		.loc 1 129 5
 130:../Debug/debug.c ****     USART_InitStructure.USART_HardwareFlowControl = USART_HardwareFlowControl_None;
 217              		.loc 1 130 5
 131:../Debug/debug.c ****     USART_InitStructure.USART_Mode = USART_Mode_Tx;
 218              		.loc 1 131 5
 132:../Debug/debug.c **** 
 133:../Debug/debug.c **** #if(DEBUG == DEBUG_UART1)
 134:../Debug/debug.c ****     USART_Init(USART1, &USART_InitStructure);
 219              		.loc 1 134 5 is_stmt 0
 220 003c 37440140 		li	s0,1073823744
 221              	.LVL10:
 129:../Debug/debug.c ****     USART_InitStructure.USART_HardwareFlowControl = USART_HardwareFlowControl_None;
 222              		.loc 1 129 38
 223 0040 B7070800 		li	a5,524288
 224              		.loc 1 134 5
 225 0044 0C08     		addi	a1,sp,16
 226              	.LVL11:
 227 0046 13050480 		addi	a0,s0,-2048
 129:../Debug/debug.c ****     USART_InitStructure.USART_HardwareFlowControl = USART_HardwareFlowControl_None;
 228              		.loc 1 129 38
 229 004a 3ECC     		sw	a5,24(sp)
 127:../Debug/debug.c ****     USART_InitStructure.USART_StopBits = USART_StopBits_1;
 230              		.loc 1 127 42
 231 004c 02CA     		sw	zero,20(sp)
 130:../Debug/debug.c ****     USART_InitStructure.USART_Mode = USART_Mode_Tx;
 232              		.loc 1 130 51
 233 004e 231E0100 		sh	zero,28(sp)
 234              		.loc 1 134 5 is_stmt 1
 235 0052 97000000 		call	USART_Init
 235      E7800000 
 236              	.LVL12:
 135:../Debug/debug.c ****     USART_Cmd(USART1, ENABLE);
 237              		.loc 1 135 5
 238 005a 8545     		li	a1,1
 239 005c 13050480 		addi	a0,s0,-2048
 240 0060 97000000 		call	USART_Cmd
 240      E7800000 
 241              	.LVL13:
 136:../Debug/debug.c **** 
 137:../Debug/debug.c **** #elif(DEBUG == DEBUG_UART2)
 138:../Debug/debug.c ****     USART_Init(USART2, &USART_InitStructure);
 139:../Debug/debug.c ****     USART_Cmd(USART2, ENABLE);
 140:../Debug/debug.c **** 
 141:../Debug/debug.c **** #elif(DEBUG == DEBUG_UART3)
 142:../Debug/debug.c ****     USART_Init(USART3, &USART_InitStructure);
 143:../Debug/debug.c ****     USART_Cmd(USART3, ENABLE);
 144:../Debug/debug.c **** 
 145:../Debug/debug.c **** #endif
 146:../Debug/debug.c **** }
 242              		.loc 1 146 1 is_stmt 0
 243 0068 0561     		addi	sp,sp,32
 244              		.cfi_def_cfa_offset 0
 245 006a 17030000 		tail	__riscv_restore_1
 245      67000300 
 246              		.cfi_restore 8
 247              		.cfi_restore 1
 248              		.cfi_def_cfa_offset -16
 249              		.cfi_endproc
 250              	.LFE32:
 252              		.section	.text.SDI_Printf_Enable,"ax",@progbits
 253              		.align	1
 254              		.globl	SDI_Printf_Enable
 256              	SDI_Printf_Enable:
 257              	.LFB33:
 147:../Debug/debug.c **** 
 148:../Debug/debug.c **** /*********************************************************************
 149:../Debug/debug.c ****  * @fn      SDI_Printf_Enable
 150:../Debug/debug.c ****  *
 151:../Debug/debug.c ****  * @brief   Initializes the SDI printf Function.
 152:../Debug/debug.c ****  *
 153:../Debug/debug.c ****  * @param   None
 154:../Debug/debug.c ****  *
 155:../Debug/debug.c ****  * @return  None
 156:../Debug/debug.c ****  */
 157:../Debug/debug.c **** void SDI_Printf_Enable(void)
 158:../Debug/debug.c **** {
 258              		.loc 1 158 1 is_stmt 1
 259              		.cfi_startproc
 260 0000 17030000 		call	t0,__riscv_save_0
 260      E7020300 
 261              		.cfi_offset 1, -4
 262              		.cfi_def_cfa_offset 16
 159:../Debug/debug.c ****     *(DEBUG_DATA0_ADDRESS) = 0;
 263              		.loc 1 159 5
 264              		.loc 1 159 28 is_stmt 0
 265 0008 B70700E0 		li	a5,-536870912
 266 000c 23A00738 		sw	zero,896(a5)
 160:../Debug/debug.c ****     Delay_Init();
 267              		.loc 1 160 5 is_stmt 1
 268 0010 97000000 		call	Delay_Init
 268      E7800000 
 269              	.LVL14:
 161:../Debug/debug.c ****     Delay_Ms(1);
 270              		.loc 1 161 5
 271 0018 0545     		li	a0,1
 272 001a 97000000 		call	Delay_Ms
 272      E7800000 
 273              	.LVL15:
 162:../Debug/debug.c **** }
 274              		.loc 1 162 1 is_stmt 0
 275 0022 17030000 		tail	__riscv_restore_0
 275      67000300 
 276              		.cfi_restore 1
 277              		.cfi_def_cfa_offset 0
 278              		.cfi_endproc
 279              	.LFE33:
 281              		.section	.text._write,"ax",@progbits
 282              		.align	1
 283              		.globl	_write
 285              	_write:
 286              	.LFB34:
 163:../Debug/debug.c **** 
 164:../Debug/debug.c **** /*********************************************************************
 165:../Debug/debug.c ****  * @fn      _write
 166:../Debug/debug.c ****  *
 167:../Debug/debug.c ****  * @brief   Support Printf Function
 168:../Debug/debug.c ****  *
 169:../Debug/debug.c ****  * @param   *buf - UART send Data.
 170:../Debug/debug.c ****  *          size - Data length
 171:../Debug/debug.c ****  *
 172:../Debug/debug.c ****  * @return  size: Data length
 173:../Debug/debug.c ****  */
 174:../Debug/debug.c **** __attribute__((used)) int _write(int fd, char *buf, int size)
 175:../Debug/debug.c **** {
 287              		.loc 1 175 1 is_stmt 1
 288              		.cfi_startproc
 289              	.LVL16:
 290 0000 17030000 		call	t0,__riscv_save_4
 290      E7020300 
 291              		.cfi_offset 19, -20
 292              		.cfi_offset 18, -16
 293              		.cfi_offset 9, -12
 294              		.cfi_offset 8, -8
 295              		.cfi_offset 1, -4
 296              		.cfi_def_cfa_offset 32
 176:../Debug/debug.c ****     int i = 0;
 297              		.loc 1 176 5
 298              	.LVL17:
 177:../Debug/debug.c **** 
 178:../Debug/debug.c **** #if (SDI_PRINT == SDI_PR_OPEN)
 179:../Debug/debug.c ****     int writeSize = size;
 180:../Debug/debug.c **** 
 181:../Debug/debug.c ****     do
 182:../Debug/debug.c ****     {
 183:../Debug/debug.c **** 
 184:../Debug/debug.c ****         /**
 185:../Debug/debug.c ****          * data0  data1 8 bytes
 186:../Debug/debug.c ****          * data0 The lowest byte storage length, the maximum is 7
 187:../Debug/debug.c ****          *
 188:../Debug/debug.c ****          */
 189:../Debug/debug.c **** 
 190:../Debug/debug.c ****         while( (*(DEBUG_DATA0_ADDRESS) != 0u))
 191:../Debug/debug.c ****         {
 192:../Debug/debug.c **** 
 193:../Debug/debug.c ****         }
 194:../Debug/debug.c **** 
 195:../Debug/debug.c ****         if(writeSize>7)
 196:../Debug/debug.c ****         {
 197:../Debug/debug.c ****             *(DEBUG_DATA1_ADDRESS) = (*(buf+i+3)) | (*(buf+i+4)<<8) | (*(buf+i+5)<<16) | (*(buf+i+6
 198:../Debug/debug.c ****             *(DEBUG_DATA0_ADDRESS) = (7u) | (*(buf+i)<<8) | (*(buf+i+1)<<16) | (*(buf+i+2)<<24);
 199:../Debug/debug.c **** 
 200:../Debug/debug.c ****             i += 7;
 201:../Debug/debug.c ****             writeSize -= 7;
 202:../Debug/debug.c ****         }
 203:../Debug/debug.c ****         else
 204:../Debug/debug.c ****         {
 205:../Debug/debug.c ****             *(DEBUG_DATA1_ADDRESS) = (*(buf+i+3)) | (*(buf+i+4)<<8) | (*(buf+i+5)<<16) | (*(buf+i+6
 206:../Debug/debug.c ****             *(DEBUG_DATA0_ADDRESS) = (writeSize) | (*(buf+i)<<8) | (*(buf+i+1)<<16) | (*(buf+i+2)<<
 207:../Debug/debug.c **** 
 208:../Debug/debug.c ****             writeSize = 0;
 209:../Debug/debug.c ****         }
 210:../Debug/debug.c **** 
 211:../Debug/debug.c ****     } while (writeSize);
 212:../Debug/debug.c **** 
 213:../Debug/debug.c **** 
 214:../Debug/debug.c **** #else
 215:../Debug/debug.c ****     for(i = 0; i < size; i++)
 299              		.loc 1 215 5
 216:../Debug/debug.c ****     {
 217:../Debug/debug.c **** #if(DEBUG == DEBUG_UART1)
 218:../Debug/debug.c ****         while(USART_GetFlagStatus(USART1, USART_FLAG_TC) == RESET);
 300              		.loc 1 218 15 is_stmt 0
 301 0008 37490140 		li	s2,1073823744
 175:../Debug/debug.c ****     int i = 0;
 302              		.loc 1 175 1
 303 000c AE89     		mv	s3,a1
 304 000e 3284     		mv	s0,a2
 215:../Debug/debug.c ****     {
 305              		.loc 1 215 11
 306 0010 8144     		li	s1,0
 307              		.loc 1 218 15
 308 0012 13090980 		addi	s2,s2,-2048
 309              	.LVL18:
 310              	.L15:
 215:../Debug/debug.c ****     {
 311              		.loc 1 215 18 is_stmt 1 discriminator 1
 312 0016 63C78400 		blt	s1,s0,.L16
 219:../Debug/debug.c ****         USART_SendData(USART1, *buf++);
 220:../Debug/debug.c **** #elif(DEBUG == DEBUG_UART2)
 221:../Debug/debug.c ****         while(USART_GetFlagStatus(USART2, USART_FLAG_TC) == RESET);
 222:../Debug/debug.c ****         USART_SendData(USART2, *buf++);
 223:../Debug/debug.c **** #elif(DEBUG == DEBUG_UART3)
 224:../Debug/debug.c ****         while(USART_GetFlagStatus(USART3, USART_FLAG_TC) == RESET);
 225:../Debug/debug.c ****         USART_SendData(USART3, *buf++);
 226:../Debug/debug.c **** #endif
 227:../Debug/debug.c ****     }
 228:../Debug/debug.c **** #endif
 229:../Debug/debug.c ****     return size;
 313              		.loc 1 229 5
 230:../Debug/debug.c **** }
 314              		.loc 1 230 1 is_stmt 0
 315 001a 2285     		mv	a0,s0
 316 001c 17030000 		tail	__riscv_restore_4
 316      67000300 
 317              		.cfi_remember_state
 318              		.cfi_restore 19
 319              		.cfi_restore 18
 320              		.cfi_restore 9
 321              		.cfi_restore 8
 322              		.cfi_restore 1
 323              		.cfi_def_cfa_offset 0
 324              	.L16:
 325              		.cfi_restore_state
 218:../Debug/debug.c ****         USART_SendData(USART1, *buf++);
 326              		.loc 1 218 58 is_stmt 1 discriminator 1
 218:../Debug/debug.c ****         USART_SendData(USART1, *buf++);
 327              		.loc 1 218 15 is_stmt 0 discriminator 1
 328 0024 93050004 		li	a1,64
 329 0028 4A85     		mv	a0,s2
 330 002a 97000000 		call	USART_GetFlagStatus
 330      E7800000 
 331              	.LVL19:
 218:../Debug/debug.c ****         USART_SendData(USART1, *buf++);
 332              		.loc 1 218 58 discriminator 1
 333 0032 6DD9     		beq	a0,zero,.L16
 219:../Debug/debug.c ****         USART_SendData(USART1, *buf++);
 334              		.loc 1 219 9 is_stmt 1 discriminator 2
 335              	.LVL20:
 219:../Debug/debug.c ****         USART_SendData(USART1, *buf++);
 336              		.loc 1 219 32 is_stmt 0 discriminator 2
 337 0034 B3879900 		add	a5,s3,s1
 219:../Debug/debug.c ****         USART_SendData(USART1, *buf++);
 338              		.loc 1 219 9 discriminator 2
 339 0038 83850700 		lb	a1,0(a5)
 340 003c 4A85     		mv	a0,s2
 215:../Debug/debug.c ****     {
 341              		.loc 1 215 27 discriminator 2
 342 003e 8504     		addi	s1,s1,1
 343              	.LVL21:
 219:../Debug/debug.c **** #elif(DEBUG == DEBUG_UART2)
 344              		.loc 1 219 9 discriminator 2
 345 0040 C205     		slli	a1,a1,16
 346 0042 C181     		srli	a1,a1,16
 347 0044 97000000 		call	USART_SendData
 347      E7800000 
 348              	.LVL22:
 215:../Debug/debug.c ****     {
 349              		.loc 1 215 27 is_stmt 1 discriminator 2
 350 004c E9B7     		j	.L15
 351              		.cfi_endproc
 352              	.LFE34:
 354              		.section	.text._sbrk,"ax",@progbits
 355              		.align	1
 356              		.globl	_sbrk
 358              	_sbrk:
 359              	.LFB35:
 231:../Debug/debug.c **** 
 232:../Debug/debug.c **** /*********************************************************************
 233:../Debug/debug.c ****  * @fn      _sbrk
 234:../Debug/debug.c ****  *
 235:../Debug/debug.c ****  * @brief   Change the spatial position of data segment.
 236:../Debug/debug.c ****  *
 237:../Debug/debug.c ****  * @return  size: Data length
 238:../Debug/debug.c ****  */
 239:../Debug/debug.c **** __attribute__((used)) void *_sbrk(ptrdiff_t incr)
 240:../Debug/debug.c **** {
 360              		.loc 1 240 1
 361              		.cfi_startproc
 362              	.LVL23:
 241:../Debug/debug.c ****     extern char _end[];
 363              		.loc 1 241 5
 242:../Debug/debug.c ****     extern char _heap_end[];
 364              		.loc 1 242 5
 243:../Debug/debug.c ****     static char *curbrk = _end;
 365              		.loc 1 243 5
 244:../Debug/debug.c **** 
 245:../Debug/debug.c ****     if ((curbrk + incr < _end) || (curbrk + incr > _heap_end))
 366              		.loc 1 245 5
 367              		.loc 1 245 17 is_stmt 0
 368 0000 17070000 		lla	a4,curbrk.0
 368      13070700 
 240:../Debug/debug.c ****     extern char _end[];
 369              		.loc 1 240 1
 370 0008 AA87     		mv	a5,a0
 371              		.loc 1 245 17
 372 000a 0843     		lw	a0,0(a4)
 373              	.LVL24:
 374              		.loc 1 245 8
 375 000c 97060000 		lla	a3,_end
 375      93860600 
 376              		.loc 1 245 17
 377 0014 AA97     		add	a5,a0,a5
 378              	.LVL25:
 379              		.loc 1 245 8
 380 0016 63EAD700 		bltu	a5,a3,.L24
 381              		.loc 1 245 32 discriminator 1
 382 001a 97060000 		lla	a3,_heap_end
 382      93860600 
 383 0022 63E4F600 		bgtu	a5,a3,.L24
 246:../Debug/debug.c ****     return NULL - 1;
 247:../Debug/debug.c **** 
 248:../Debug/debug.c ****     curbrk += incr;
 384              		.loc 1 248 5 is_stmt 1
 385              		.loc 1 248 12 is_stmt 0
 386 0026 1CC3     		sw	a5,0(a4)
 249:../Debug/debug.c ****     return curbrk - incr;
 387              		.loc 1 249 5 is_stmt 1
 388              		.loc 1 249 19 is_stmt 0
 389 0028 8280     		ret
 390              	.L24:
 246:../Debug/debug.c ****     return NULL - 1;
 391              		.loc 1 246 17
 392 002a 7D55     		li	a0,-1
 250:../Debug/debug.c **** }
 393              		.loc 1 250 1
 394 002c 8280     		ret
 395              		.cfi_endproc
 396              	.LFE35:
 398              		.section	.text._fini,"ax",@progbits
 399              		.align	1
 400              		.globl	_fini
 402              	_fini:
 403              	.LFB36:
 251:../Debug/debug.c **** 
 252:../Debug/debug.c **** void _fini() {}
 404              		.loc 1 252 14 is_stmt 1
 405              		.cfi_startproc
 406              		.loc 1 252 15
 407 0000 8280     		ret
 408              		.cfi_endproc
 409              	.LFE36:
 411              		.section	.text._init,"ax",@progbits
 412              		.align	1
 413              		.globl	_init
 415              	_init:
 416              	.LFB39:
 417              		.cfi_startproc
 253:../Debug/debug.c **** void _init() {}
 418              		.loc 1 253 6
 419 0000 8280     		ret
 420              		.cfi_endproc
 421              	.LFE39:
 423              		.section	.sdata.curbrk.0,"aw"
 424              		.align	2
 427              	curbrk.0:
 428 0000 00000000 		.word	_end
 429              		.section	.sbss.p_ms,"aw",@nobits
 430              		.align	1
 433              	p_ms:
 434 0000 0000     		.zero	2
 435              		.section	.sbss.p_us,"aw",@nobits
 438              	p_us:
 439 0000 00       		.zero	1
 440              		.text
 441              	.Letext0:
 442              		.file 2 "d:\\software\\mounriver_studio\\toolchain\\risc-v embedded gcc12\\riscv-none-elf\\include
 443              		.file 3 "d:\\software\\mounriver_studio\\toolchain\\risc-v embedded gcc12\\lib\\gcc\\riscv-none-el
 444              		.file 4 "d:\\software\\mounriver_studio\\toolchain\\risc-v embedded gcc12\\riscv-none-elf\\include
 445              		.file 5 "C:\\Users\\localhost\\Documents\\turbomoskal-repo\\qqexpert\\firmware\\MasterController\\
 446              		.file 6 "C:\\Users\\localhost\\Documents\\turbomoskal-repo\\qqexpert\\firmware\\MasterController\\
 447              		.file 7 "C:\\Users\\localhost\\Documents\\turbomoskal-repo\\qqexpert\\firmware\\MasterController\\
 448              		.file 8 "C:\\Users\\localhost\\Documents\\turbomoskal-repo\\qqexpert\\firmware\\MasterController\\
 449              		.file 9 "C:\\Users\\localhost\\Documents\\turbomoskal-repo\\qqexpert\\firmware\\MasterController\\
 450              		.file 10 "C:\\Users\\localhost\\Documents\\turbomoskal-repo\\qqexpert\\firmware\\MasterController\
DEFINED SYMBOLS
                            *ABS*:0000000000000000 debug.c
C:\Users\LOCALH~1\AppData\Local\Temp\ccMRJP7h.s:14     .text.Delay_Init:0000000000000000 Delay_Init
C:\Users\LOCALH~1\AppData\Local\Temp\ccMRJP7h.s:18     .text.Delay_Init:0000000000000000 .L0 
C:\Users\LOCALH~1\AppData\Local\Temp\ccMRJP7h.s:19     .text.Delay_Init:0000000000000000 .L0 
C:\Users\LOCALH~1\AppData\Local\Temp\ccMRJP7h.s:20     .text.Delay_Init:0000000000000000 .L0 
C:\Users\LOCALH~1\AppData\Local\Temp\ccMRJP7h.s:21     .text.Delay_Init:0000000000000000 $x
C:\Users\LOCALH~1\AppData\Local\Temp\ccMRJP7h.s:21     .text.Delay_Init:0000000000000000 .L0 
C:\Users\LOCALH~1\AppData\Local\Temp\ccMRJP7h.s:26     .text.Delay_Init:0000000000000014 .L0 
C:\Users\LOCALH~1\AppData\Local\Temp\ccMRJP7h.s:438    .sbss.p_us:0000000000000000 p_us
C:\Users\LOCALH~1\AppData\Local\Temp\ccMRJP7h.s:29     .text.Delay_Init:0000000000000020 .L0 
C:\Users\LOCALH~1\AppData\Local\Temp\ccMRJP7h.s:30     .text.Delay_Init:0000000000000020 .L0 
C:\Users\LOCALH~1\AppData\Local\Temp\ccMRJP7h.s:433    .sbss.p_ms:0000000000000000 p_ms
C:\Users\LOCALH~1\AppData\Local\Temp\ccMRJP7h.s:34     .text.Delay_Init:0000000000000030 .L0 
C:\Users\LOCALH~1\AppData\Local\Temp\ccMRJP7h.s:35     .text.Delay_Init:0000000000000032 .L0 
C:\Users\LOCALH~1\AppData\Local\Temp\ccMRJP7h.s:42     .text.Delay_Us:0000000000000000 Delay_Us
C:\Users\LOCALH~1\AppData\Local\Temp\ccMRJP7h.s:45     .text.Delay_Us:0000000000000000 .L0 
C:\Users\LOCALH~1\AppData\Local\Temp\ccMRJP7h.s:47     .text.Delay_Us:0000000000000000 .L0 
C:\Users\LOCALH~1\AppData\Local\Temp\ccMRJP7h.s:48     .text.Delay_Us:0000000000000000 .L0 
C:\Users\LOCALH~1\AppData\Local\Temp\ccMRJP7h.s:49     .text.Delay_Us:0000000000000000 .L0 
C:\Users\LOCALH~1\AppData\Local\Temp\ccMRJP7h.s:50     .text.Delay_Us:0000000000000000 $x
C:\Users\LOCALH~1\AppData\Local\Temp\ccMRJP7h.s:50     .text.Delay_Us:0000000000000000 .L0 
C:\Users\LOCALH~1\AppData\Local\Temp\ccMRJP7h.s:53     .text.Delay_Us:0000000000000006 .L0 
C:\Users\LOCALH~1\AppData\Local\Temp\ccMRJP7h.s:55     .text.Delay_Us:0000000000000008 .L0 
C:\Users\LOCALH~1\AppData\Local\Temp\ccMRJP7h.s:59     .text.Delay_Us:000000000000000c .L0 
C:\Users\LOCALH~1\AppData\Local\Temp\ccMRJP7h.s:60     .text.Delay_Us:000000000000000c .L0 
C:\Users\LOCALH~1\AppData\Local\Temp\ccMRJP7h.s:61     .text.Delay_Us:000000000000000c .L0 
C:\Users\LOCALH~1\AppData\Local\Temp\ccMRJP7h.s:63     .text.Delay_Us:0000000000000014 .L0 
C:\Users\LOCALH~1\AppData\Local\Temp\ccMRJP7h.s:68     .text.Delay_Us:000000000000001c .L0 
C:\Users\LOCALH~1\AppData\Local\Temp\ccMRJP7h.s:69     .text.Delay_Us:000000000000001c .L0 
C:\Users\LOCALH~1\AppData\Local\Temp\ccMRJP7h.s:71     .text.Delay_Us:000000000000001e .L0 
C:\Users\LOCALH~1\AppData\Local\Temp\ccMRJP7h.s:74     .text.Delay_Us:0000000000000024 .L0 
C:\Users\LOCALH~1\AppData\Local\Temp\ccMRJP7h.s:75     .text.Delay_Us:0000000000000024 .L0 
C:\Users\LOCALH~1\AppData\Local\Temp\ccMRJP7h.s:77     .text.Delay_Us:0000000000000026 .L0 
C:\Users\LOCALH~1\AppData\Local\Temp\ccMRJP7h.s:81     .text.Delay_Us:000000000000002c .L0 
C:\Users\LOCALH~1\AppData\Local\Temp\ccMRJP7h.s:82     .text.Delay_Us:000000000000002c .L0 
C:\Users\LOCALH~1\AppData\Local\Temp\ccMRJP7h.s:83     .text.Delay_Us:000000000000002c .L0 
C:\Users\LOCALH~1\AppData\Local\Temp\ccMRJP7h.s:85     .text.Delay_Us:000000000000002e .L0 
C:\Users\LOCALH~1\AppData\Local\Temp\ccMRJP7h.s:87     .text.Delay_Us:0000000000000030 .L0 
C:\Users\LOCALH~1\AppData\Local\Temp\ccMRJP7h.s:89     .text.Delay_Us:0000000000000032 .L0 
C:\Users\LOCALH~1\AppData\Local\Temp\ccMRJP7h.s:90     .text.Delay_Us:0000000000000032 .L0 
C:\Users\LOCALH~1\AppData\Local\Temp\ccMRJP7h.s:92     .text.Delay_Us:0000000000000034 .L0 
C:\Users\LOCALH~1\AppData\Local\Temp\ccMRJP7h.s:95     .text.Delay_Us:0000000000000038 .L0 
C:\Users\LOCALH~1\AppData\Local\Temp\ccMRJP7h.s:96     .text.Delay_Us:000000000000003a .L0 
C:\Users\LOCALH~1\AppData\Local\Temp\ccMRJP7h.s:103    .text.Delay_Ms:0000000000000000 Delay_Ms
C:\Users\LOCALH~1\AppData\Local\Temp\ccMRJP7h.s:106    .text.Delay_Ms:0000000000000000 .L0 
C:\Users\LOCALH~1\AppData\Local\Temp\ccMRJP7h.s:108    .text.Delay_Ms:0000000000000000 .L0 
C:\Users\LOCALH~1\AppData\Local\Temp\ccMRJP7h.s:109    .text.Delay_Ms:0000000000000000 .L0 
C:\Users\LOCALH~1\AppData\Local\Temp\ccMRJP7h.s:110    .text.Delay_Ms:0000000000000000 .L0 
C:\Users\LOCALH~1\AppData\Local\Temp\ccMRJP7h.s:111    .text.Delay_Ms:0000000000000000 $x
C:\Users\LOCALH~1\AppData\Local\Temp\ccMRJP7h.s:111    .text.Delay_Ms:0000000000000000 .L0 
C:\Users\LOCALH~1\AppData\Local\Temp\ccMRJP7h.s:114    .text.Delay_Ms:0000000000000006 .L0 
C:\Users\LOCALH~1\AppData\Local\Temp\ccMRJP7h.s:116    .text.Delay_Ms:0000000000000008 .L0 
C:\Users\LOCALH~1\AppData\Local\Temp\ccMRJP7h.s:120    .text.Delay_Ms:000000000000000c .L0 
C:\Users\LOCALH~1\AppData\Local\Temp\ccMRJP7h.s:121    .text.Delay_Ms:000000000000000c .L0 
C:\Users\LOCALH~1\AppData\Local\Temp\ccMRJP7h.s:122    .text.Delay_Ms:000000000000000c .L0 
C:\Users\LOCALH~1\AppData\Local\Temp\ccMRJP7h.s:124    .text.Delay_Ms:0000000000000014 .L0 
C:\Users\LOCALH~1\AppData\Local\Temp\ccMRJP7h.s:129    .text.Delay_Ms:000000000000001c .L0 
C:\Users\LOCALH~1\AppData\Local\Temp\ccMRJP7h.s:130    .text.Delay_Ms:000000000000001c .L0 
C:\Users\LOCALH~1\AppData\Local\Temp\ccMRJP7h.s:132    .text.Delay_Ms:000000000000001e .L0 
C:\Users\LOCALH~1\AppData\Local\Temp\ccMRJP7h.s:135    .text.Delay_Ms:0000000000000024 .L0 
C:\Users\LOCALH~1\AppData\Local\Temp\ccMRJP7h.s:136    .text.Delay_Ms:0000000000000024 .L0 
C:\Users\LOCALH~1\AppData\Local\Temp\ccMRJP7h.s:138    .text.Delay_Ms:0000000000000026 .L0 
C:\Users\LOCALH~1\AppData\Local\Temp\ccMRJP7h.s:142    .text.Delay_Ms:000000000000002c .L0 
C:\Users\LOCALH~1\AppData\Local\Temp\ccMRJP7h.s:143    .text.Delay_Ms:000000000000002c .L0 
C:\Users\LOCALH~1\AppData\Local\Temp\ccMRJP7h.s:144    .text.Delay_Ms:000000000000002c .L0 
C:\Users\LOCALH~1\AppData\Local\Temp\ccMRJP7h.s:146    .text.Delay_Ms:000000000000002e .L0 
C:\Users\LOCALH~1\AppData\Local\Temp\ccMRJP7h.s:148    .text.Delay_Ms:0000000000000030 .L0 
C:\Users\LOCALH~1\AppData\Local\Temp\ccMRJP7h.s:150    .text.Delay_Ms:0000000000000032 .L0 
C:\Users\LOCALH~1\AppData\Local\Temp\ccMRJP7h.s:151    .text.Delay_Ms:0000000000000032 .L0 
C:\Users\LOCALH~1\AppData\Local\Temp\ccMRJP7h.s:153    .text.Delay_Ms:0000000000000034 .L0 
C:\Users\LOCALH~1\AppData\Local\Temp\ccMRJP7h.s:156    .text.Delay_Ms:0000000000000038 .L0 
C:\Users\LOCALH~1\AppData\Local\Temp\ccMRJP7h.s:157    .text.Delay_Ms:000000000000003a .L0 
C:\Users\LOCALH~1\AppData\Local\Temp\ccMRJP7h.s:164    .text.USART_Printf_Init:0000000000000000 USART_Printf_Init
C:\Users\LOCALH~1\AppData\Local\Temp\ccMRJP7h.s:167    .text.USART_Printf_Init:0000000000000000 .L0 
C:\Users\LOCALH~1\AppData\Local\Temp\ccMRJP7h.s:169    .text.USART_Printf_Init:0000000000000000 $x
C:\Users\LOCALH~1\AppData\Local\Temp\ccMRJP7h.s:169    .text.USART_Printf_Init:0000000000000000 .L0 
C:\Users\LOCALH~1\AppData\Local\Temp\ccMRJP7h.s:170    .text.USART_Printf_Init:0000000000000008 .L0 
C:\Users\LOCALH~1\AppData\Local\Temp\ccMRJP7h.s:171    .text.USART_Printf_Init:0000000000000008 .L0 
C:\Users\LOCALH~1\AppData\Local\Temp\ccMRJP7h.s:172    .text.USART_Printf_Init:0000000000000008 .L0 
C:\Users\LOCALH~1\AppData\Local\Temp\ccMRJP7h.s:174    .text.USART_Printf_Init:0000000000000008 .L0 
C:\Users\LOCALH~1\AppData\Local\Temp\ccMRJP7h.s:175    .text.USART_Printf_Init:0000000000000008 .L0 
C:\Users\LOCALH~1\AppData\Local\Temp\ccMRJP7h.s:176    .text.USART_Printf_Init:0000000000000008 .L0 
C:\Users\LOCALH~1\AppData\Local\Temp\ccMRJP7h.s:177    .text.USART_Printf_Init:0000000000000008 .L0 
C:\Users\LOCALH~1\AppData\Local\Temp\ccMRJP7h.s:179    .text.USART_Printf_Init:000000000000000a .L0 
C:\Users\LOCALH~1\AppData\Local\Temp\ccMRJP7h.s:182    .text.USART_Printf_Init:000000000000000c .L0 
C:\Users\LOCALH~1\AppData\Local\Temp\ccMRJP7h.s:183    .text.USART_Printf_Init:000000000000000e .L0 
C:\Users\LOCALH~1\AppData\Local\Temp\ccMRJP7h.s:185    .text.USART_Printf_Init:000000000000000e .L0 
C:\Users\LOCALH~1\AppData\Local\Temp\ccMRJP7h.s:190    .text.USART_Printf_Init:000000000000001a .L0 
C:\Users\LOCALH~1\AppData\Local\Temp\ccMRJP7h.s:191    .text.USART_Printf_Init:000000000000001a .L0 
C:\Users\LOCALH~1\AppData\Local\Temp\ccMRJP7h.s:194    .text.USART_Printf_Init:0000000000000020 .L0 
C:\Users\LOCALH~1\AppData\Local\Temp\ccMRJP7h.s:195    .text.USART_Printf_Init:0000000000000020 .L0 
C:\Users\LOCALH~1\AppData\Local\Temp\ccMRJP7h.s:197    .text.USART_Printf_Init:0000000000000024 .L0 
C:\Users\LOCALH~1\AppData\Local\Temp\ccMRJP7h.s:200    .text.USART_Printf_Init:0000000000000028 .L0 
C:\Users\LOCALH~1\AppData\Local\Temp\ccMRJP7h.s:201    .text.USART_Printf_Init:0000000000000028 .L0 
C:\Users\LOCALH~1\AppData\Local\Temp\ccMRJP7h.s:203    .text.USART_Printf_Init:000000000000002a .L0 
C:\Users\LOCALH~1\AppData\Local\Temp\ccMRJP7h.s:205    .text.USART_Printf_Init:000000000000002c .L0 
C:\Users\LOCALH~1\AppData\Local\Temp\ccMRJP7h.s:207    .text.USART_Printf_Init:0000000000000030 .L0 
C:\Users\LOCALH~1\AppData\Local\Temp\ccMRJP7h.s:209    .text.USART_Printf_Init:0000000000000032 .L0 
C:\Users\LOCALH~1\AppData\Local\Temp\ccMRJP7h.s:212    .text.USART_Printf_Init:000000000000003a .L0 
C:\Users\LOCALH~1\AppData\Local\Temp\ccMRJP7h.s:213    .text.USART_Printf_Init:000000000000003a .L0 
C:\Users\LOCALH~1\AppData\Local\Temp\ccMRJP7h.s:215    .text.USART_Printf_Init:000000000000003c .L0 
C:\Users\LOCALH~1\AppData\Local\Temp\ccMRJP7h.s:216    .text.USART_Printf_Init:000000000000003c .L0 
C:\Users\LOCALH~1\AppData\Local\Temp\ccMRJP7h.s:217    .text.USART_Printf_Init:000000000000003c .L0 
C:\Users\LOCALH~1\AppData\Local\Temp\ccMRJP7h.s:218    .text.USART_Printf_Init:000000000000003c .L0 
C:\Users\LOCALH~1\AppData\Local\Temp\ccMRJP7h.s:219    .text.USART_Printf_Init:000000000000003c .L0 
C:\Users\LOCALH~1\AppData\Local\Temp\ccMRJP7h.s:220    .text.USART_Printf_Init:000000000000003c .L0 
C:\Users\LOCALH~1\AppData\Local\Temp\ccMRJP7h.s:223    .text.USART_Printf_Init:0000000000000040 .L0 
C:\Users\LOCALH~1\AppData\Local\Temp\ccMRJP7h.s:225    .text.USART_Printf_Init:0000000000000044 .L0 
C:\Users\LOCALH~1\AppData\Local\Temp\ccMRJP7h.s:229    .text.USART_Printf_Init:000000000000004a .L0 
C:\Users\LOCALH~1\AppData\Local\Temp\ccMRJP7h.s:231    .text.USART_Printf_Init:000000000000004c .L0 
C:\Users\LOCALH~1\AppData\Local\Temp\ccMRJP7h.s:233    .text.USART_Printf_Init:000000000000004e .L0 
C:\Users\LOCALH~1\AppData\Local\Temp\ccMRJP7h.s:235    .text.USART_Printf_Init:0000000000000052 .L0 
C:\Users\LOCALH~1\AppData\Local\Temp\ccMRJP7h.s:238    .text.USART_Printf_Init:000000000000005a .L0 
C:\Users\LOCALH~1\AppData\Local\Temp\ccMRJP7h.s:243    .text.USART_Printf_Init:0000000000000068 .L0 
C:\Users\LOCALH~1\AppData\Local\Temp\ccMRJP7h.s:244    .text.USART_Printf_Init:000000000000006a .L0 
C:\Users\LOCALH~1\AppData\Local\Temp\ccMRJP7h.s:246    .text.USART_Printf_Init:0000000000000072 .L0 
C:\Users\LOCALH~1\AppData\Local\Temp\ccMRJP7h.s:247    .text.USART_Printf_Init:0000000000000072 .L0 
C:\Users\LOCALH~1\AppData\Local\Temp\ccMRJP7h.s:248    .text.USART_Printf_Init:0000000000000072 .L0 
C:\Users\LOCALH~1\AppData\Local\Temp\ccMRJP7h.s:249    .text.USART_Printf_Init:0000000000000072 .L0 
C:\Users\LOCALH~1\AppData\Local\Temp\ccMRJP7h.s:256    .text.SDI_Printf_Enable:0000000000000000 SDI_Printf_Enable
C:\Users\LOCALH~1\AppData\Local\Temp\ccMRJP7h.s:259    .text.SDI_Printf_Enable:0000000000000000 .L0 
C:\Users\LOCALH~1\AppData\Local\Temp\ccMRJP7h.s:260    .text.SDI_Printf_Enable:0000000000000000 $x
C:\Users\LOCALH~1\AppData\Local\Temp\ccMRJP7h.s:260    .text.SDI_Printf_Enable:0000000000000000 .L0 
C:\Users\LOCALH~1\AppData\Local\Temp\ccMRJP7h.s:261    .text.SDI_Printf_Enable:0000000000000008 .L0 
C:\Users\LOCALH~1\AppData\Local\Temp\ccMRJP7h.s:262    .text.SDI_Printf_Enable:0000000000000008 .L0 
C:\Users\LOCALH~1\AppData\Local\Temp\ccMRJP7h.s:264    .text.SDI_Printf_Enable:0000000000000008 .L0 
C:\Users\LOCALH~1\AppData\Local\Temp\ccMRJP7h.s:265    .text.SDI_Printf_Enable:0000000000000008 .L0 
C:\Users\LOCALH~1\AppData\Local\Temp\ccMRJP7h.s:268    .text.SDI_Printf_Enable:0000000000000010 .L0 
C:\Users\LOCALH~1\AppData\Local\Temp\ccMRJP7h.s:271    .text.SDI_Printf_Enable:0000000000000018 .L0 
C:\Users\LOCALH~1\AppData\Local\Temp\ccMRJP7h.s:275    .text.SDI_Printf_Enable:0000000000000022 .L0 
C:\Users\LOCALH~1\AppData\Local\Temp\ccMRJP7h.s:276    .text.SDI_Printf_Enable:000000000000002a .L0 
C:\Users\LOCALH~1\AppData\Local\Temp\ccMRJP7h.s:277    .text.SDI_Printf_Enable:000000000000002a .L0 
C:\Users\LOCALH~1\AppData\Local\Temp\ccMRJP7h.s:278    .text.SDI_Printf_Enable:000000000000002a .L0 
C:\Users\LOCALH~1\AppData\Local\Temp\ccMRJP7h.s:285    .text._write:0000000000000000 _write
C:\Users\LOCALH~1\AppData\Local\Temp\ccMRJP7h.s:288    .text._write:0000000000000000 .L0 
C:\Users\LOCALH~1\AppData\Local\Temp\ccMRJP7h.s:290    .text._write:0000000000000000 $x
C:\Users\LOCALH~1\AppData\Local\Temp\ccMRJP7h.s:290    .text._write:0000000000000000 .L0 
C:\Users\LOCALH~1\AppData\Local\Temp\ccMRJP7h.s:291    .text._write:0000000000000008 .L0 
C:\Users\LOCALH~1\AppData\Local\Temp\ccMRJP7h.s:292    .text._write:0000000000000008 .L0 
C:\Users\LOCALH~1\AppData\Local\Temp\ccMRJP7h.s:293    .text._write:0000000000000008 .L0 
C:\Users\LOCALH~1\AppData\Local\Temp\ccMRJP7h.s:294    .text._write:0000000000000008 .L0 
C:\Users\LOCALH~1\AppData\Local\Temp\ccMRJP7h.s:295    .text._write:0000000000000008 .L0 
C:\Users\LOCALH~1\AppData\Local\Temp\ccMRJP7h.s:296    .text._write:0000000000000008 .L0 
C:\Users\LOCALH~1\AppData\Local\Temp\ccMRJP7h.s:299    .text._write:0000000000000008 .L0 
C:\Users\LOCALH~1\AppData\Local\Temp\ccMRJP7h.s:300    .text._write:0000000000000008 .L0 
C:\Users\LOCALH~1\AppData\Local\Temp\ccMRJP7h.s:301    .text._write:0000000000000008 .L0 
C:\Users\LOCALH~1\AppData\Local\Temp\ccMRJP7h.s:303    .text._write:000000000000000c .L0 
C:\Users\LOCALH~1\AppData\Local\Temp\ccMRJP7h.s:306    .text._write:0000000000000010 .L0 
C:\Users\LOCALH~1\AppData\Local\Temp\ccMRJP7h.s:308    .text._write:0000000000000012 .L0 
C:\Users\LOCALH~1\AppData\Local\Temp\ccMRJP7h.s:312    .text._write:0000000000000016 .L0 
C:\Users\LOCALH~1\AppData\Local\Temp\ccMRJP7h.s:314    .text._write:000000000000001a .L0 
C:\Users\LOCALH~1\AppData\Local\Temp\ccMRJP7h.s:315    .text._write:000000000000001a .L0 
C:\Users\LOCALH~1\AppData\Local\Temp\ccMRJP7h.s:317    .text._write:0000000000000024 .L0 
C:\Users\LOCALH~1\AppData\Local\Temp\ccMRJP7h.s:318    .text._write:0000000000000024 .L0 
C:\Users\LOCALH~1\AppData\Local\Temp\ccMRJP7h.s:319    .text._write:0000000000000024 .L0 
C:\Users\LOCALH~1\AppData\Local\Temp\ccMRJP7h.s:320    .text._write:0000000000000024 .L0 
C:\Users\LOCALH~1\AppData\Local\Temp\ccMRJP7h.s:321    .text._write:0000000000000024 .L0 
C:\Users\LOCALH~1\AppData\Local\Temp\ccMRJP7h.s:322    .text._write:0000000000000024 .L0 
C:\Users\LOCALH~1\AppData\Local\Temp\ccMRJP7h.s:323    .text._write:0000000000000024 .L0 
C:\Users\LOCALH~1\AppData\Local\Temp\ccMRJP7h.s:325    .text._write:0000000000000024 .L0 
C:\Users\LOCALH~1\AppData\Local\Temp\ccMRJP7h.s:327    .text._write:0000000000000024 .L0 
C:\Users\LOCALH~1\AppData\Local\Temp\ccMRJP7h.s:328    .text._write:0000000000000024 .L0 
C:\Users\LOCALH~1\AppData\Local\Temp\ccMRJP7h.s:333    .text._write:0000000000000032 .L0 
C:\Users\LOCALH~1\AppData\Local\Temp\ccMRJP7h.s:336    .text._write:0000000000000034 .L0 
C:\Users\LOCALH~1\AppData\Local\Temp\ccMRJP7h.s:337    .text._write:0000000000000034 .L0 
C:\Users\LOCALH~1\AppData\Local\Temp\ccMRJP7h.s:339    .text._write:0000000000000038 .L0 
C:\Users\LOCALH~1\AppData\Local\Temp\ccMRJP7h.s:342    .text._write:000000000000003e .L0 
C:\Users\LOCALH~1\AppData\Local\Temp\ccMRJP7h.s:345    .text._write:0000000000000040 .L0 
C:\Users\LOCALH~1\AppData\Local\Temp\ccMRJP7h.s:350    .text._write:000000000000004c .L0 
C:\Users\LOCALH~1\AppData\Local\Temp\ccMRJP7h.s:351    .text._write:000000000000004e .L0 
C:\Users\LOCALH~1\AppData\Local\Temp\ccMRJP7h.s:358    .text._sbrk:0000000000000000 _sbrk
C:\Users\LOCALH~1\AppData\Local\Temp\ccMRJP7h.s:361    .text._sbrk:0000000000000000 .L0 
C:\Users\LOCALH~1\AppData\Local\Temp\ccMRJP7h.s:363    .text._sbrk:0000000000000000 .L0 
C:\Users\LOCALH~1\AppData\Local\Temp\ccMRJP7h.s:364    .text._sbrk:0000000000000000 .L0 
C:\Users\LOCALH~1\AppData\Local\Temp\ccMRJP7h.s:365    .text._sbrk:0000000000000000 .L0 
C:\Users\LOCALH~1\AppData\Local\Temp\ccMRJP7h.s:366    .text._sbrk:0000000000000000 .L0 
C:\Users\LOCALH~1\AppData\Local\Temp\ccMRJP7h.s:367    .text._sbrk:0000000000000000 .L0 
C:\Users\LOCALH~1\AppData\Local\Temp\ccMRJP7h.s:368    .text._sbrk:0000000000000000 $x
C:\Users\LOCALH~1\AppData\Local\Temp\ccMRJP7h.s:427    .sdata.curbrk.0:0000000000000000 curbrk.0
C:\Users\LOCALH~1\AppData\Local\Temp\ccMRJP7h.s:368    .text._sbrk:0000000000000000 .L0 
C:\Users\LOCALH~1\AppData\Local\Temp\ccMRJP7h.s:370    .text._sbrk:0000000000000008 .L0 
C:\Users\LOCALH~1\AppData\Local\Temp\ccMRJP7h.s:372    .text._sbrk:000000000000000a .L0 
C:\Users\LOCALH~1\AppData\Local\Temp\ccMRJP7h.s:375    .text._sbrk:000000000000000c .L0 
C:\Users\LOCALH~1\AppData\Local\Temp\ccMRJP7h.s:377    .text._sbrk:0000000000000014 .L0 
C:\Users\LOCALH~1\AppData\Local\Temp\ccMRJP7h.s:380    .text._sbrk:0000000000000016 .L0 
C:\Users\LOCALH~1\AppData\Local\Temp\ccMRJP7h.s:382    .text._sbrk:000000000000001a .L0 
C:\Users\LOCALH~1\AppData\Local\Temp\ccMRJP7h.s:385    .text._sbrk:0000000000000026 .L0 
C:\Users\LOCALH~1\AppData\Local\Temp\ccMRJP7h.s:386    .text._sbrk:0000000000000026 .L0 
C:\Users\LOCALH~1\AppData\Local\Temp\ccMRJP7h.s:388    .text._sbrk:0000000000000028 .L0 
C:\Users\LOCALH~1\AppData\Local\Temp\ccMRJP7h.s:389    .text._sbrk:0000000000000028 .L0 
C:\Users\LOCALH~1\AppData\Local\Temp\ccMRJP7h.s:392    .text._sbrk:000000000000002a .L0 
C:\Users\LOCALH~1\AppData\Local\Temp\ccMRJP7h.s:394    .text._sbrk:000000000000002c .L0 
C:\Users\LOCALH~1\AppData\Local\Temp\ccMRJP7h.s:395    .text._sbrk:000000000000002e .L0 
C:\Users\LOCALH~1\AppData\Local\Temp\ccMRJP7h.s:402    .text._fini:0000000000000000 _fini
C:\Users\LOCALH~1\AppData\Local\Temp\ccMRJP7h.s:405    .text._fini:0000000000000000 .L0 
C:\Users\LOCALH~1\AppData\Local\Temp\ccMRJP7h.s:406    .text._fini:0000000000000000 .L0 
C:\Users\LOCALH~1\AppData\Local\Temp\ccMRJP7h.s:407    .text._fini:0000000000000000 $x
C:\Users\LOCALH~1\AppData\Local\Temp\ccMRJP7h.s:407    .text._fini:0000000000000000 .L0 
C:\Users\LOCALH~1\AppData\Local\Temp\ccMRJP7h.s:408    .text._fini:0000000000000002 .L0 
C:\Users\LOCALH~1\AppData\Local\Temp\ccMRJP7h.s:415    .text._init:0000000000000000 _init
C:\Users\LOCALH~1\AppData\Local\Temp\ccMRJP7h.s:417    .text._init:0000000000000000 .L0 
C:\Users\LOCALH~1\AppData\Local\Temp\ccMRJP7h.s:419    .text._init:0000000000000000 $x
C:\Users\LOCALH~1\AppData\Local\Temp\ccMRJP7h.s:419    .text._init:0000000000000000 .L0 
C:\Users\LOCALH~1\AppData\Local\Temp\ccMRJP7h.s:420    .text._init:0000000000000002 .L0 
C:\Users\LOCALH~1\AppData\Local\Temp\ccMRJP7h.s:2411   .debug_line_str:0000000000000066 .L0 
C:\Users\LOCALH~1\AppData\Local\Temp\ccMRJP7h.s:2411   .debug_line_str:00000000000000bb .L0 
C:\Users\LOCALH~1\AppData\Local\Temp\ccMRJP7h.s:2411   .debug_line_str:00000000000000c4 .L0 
C:\Users\LOCALH~1\AppData\Local\Temp\ccMRJP7h.s:2411   .debug_line_str:0000000000000120 .L0 
C:\Users\LOCALH~1\AppData\Local\Temp\ccMRJP7h.s:2411   .debug_line_str:0000000000000183 .L0 
C:\Users\LOCALH~1\AppData\Local\Temp\ccMRJP7h.s:2411   .debug_line_str:00000000000001db .L0 
C:\Users\LOCALH~1\AppData\Local\Temp\ccMRJP7h.s:2411   .debug_line_str:0000000000000231 .L0 
C:\Users\LOCALH~1\AppData\Local\Temp\ccMRJP7h.s:2411   .debug_line_str:0000000000000291 .L0 
C:\Users\LOCALH~1\AppData\Local\Temp\ccMRJP7h.s:2411   .debug_line_str:00000000000002e7 .L0 
C:\Users\LOCALH~1\AppData\Local\Temp\ccMRJP7h.s:2411   .debug_line_str:00000000000002ef .L0 
C:\Users\LOCALH~1\AppData\Local\Temp\ccMRJP7h.s:2411   .debug_line_str:00000000000002f7 .L0 
C:\Users\LOCALH~1\AppData\Local\Temp\ccMRJP7h.s:2411   .debug_line_str:0000000000000308 .L0 
C:\Users\LOCALH~1\AppData\Local\Temp\ccMRJP7h.s:2411   .debug_line_str:0000000000000311 .L0 
C:\Users\LOCALH~1\AppData\Local\Temp\ccMRJP7h.s:2411   .debug_line_str:000000000000031b .L0 
C:\Users\LOCALH~1\AppData\Local\Temp\ccMRJP7h.s:2411   .debug_line_str:0000000000000328 .L0 
C:\Users\LOCALH~1\AppData\Local\Temp\ccMRJP7h.s:2411   .debug_line_str:0000000000000333 .L0 
C:\Users\LOCALH~1\AppData\Local\Temp\ccMRJP7h.s:2411   .debug_line_str:0000000000000343 .L0 
C:\Users\LOCALH~1\AppData\Local\Temp\ccMRJP7h.s:2411   .debug_line_str:0000000000000354 .L0 
C:\Users\LOCALH~1\AppData\Local\Temp\ccMRJP7h.s:2411   .debug_line_str:0000000000000363 .L0 
C:\Users\LOCALH~1\AppData\Local\Temp\ccMRJP7h.s:38     .text.Delay_Init:0000000000000032 .L0 
C:\Users\LOCALH~1\AppData\Local\Temp\ccMRJP7h.s:99     .text.Delay_Us:000000000000003a .L0 
C:\Users\LOCALH~1\AppData\Local\Temp\ccMRJP7h.s:160    .text.Delay_Ms:000000000000003a .L0 
C:\Users\LOCALH~1\AppData\Local\Temp\ccMRJP7h.s:252    .text.USART_Printf_Init:0000000000000072 .L0 
C:\Users\LOCALH~1\AppData\Local\Temp\ccMRJP7h.s:281    .text.SDI_Printf_Enable:000000000000002a .L0 
C:\Users\LOCALH~1\AppData\Local\Temp\ccMRJP7h.s:354    .text._write:000000000000004e .L0 
C:\Users\LOCALH~1\AppData\Local\Temp\ccMRJP7h.s:398    .text._sbrk:000000000000002e .L0 
C:\Users\LOCALH~1\AppData\Local\Temp\ccMRJP7h.s:411    .text._fini:0000000000000002 .L0 
C:\Users\LOCALH~1\AppData\Local\Temp\ccMRJP7h.s:423    .text._init:0000000000000002 .L0 
                     .debug_frame:0000000000000000 .L0 
C:\Users\LOCALH~1\AppData\Local\Temp\ccMRJP7h.s:23     .text.Delay_Init:0000000000000008 .L0 
C:\Users\LOCALH~1\AppData\Local\Temp\ccMRJP7h.s:27     .text.Delay_Init:0000000000000018 .L0 
C:\Users\LOCALH~1\AppData\Local\Temp\ccMRJP7h.s:32     .text.Delay_Init:0000000000000028 .L0 
C:\Users\LOCALH~1\AppData\Local\Temp\ccMRJP7h.s:61     .text.Delay_Us:000000000000000c .L0 
C:\Users\LOCALH~1\AppData\Local\Temp\ccMRJP7h.s:80     .text.Delay_Us:000000000000002c .L3
C:\Users\LOCALH~1\AppData\Local\Temp\ccMRJP7h.s:122    .text.Delay_Ms:000000000000000c .L0 
C:\Users\LOCALH~1\AppData\Local\Temp\ccMRJP7h.s:141    .text.Delay_Ms:000000000000002c .L7
C:\Users\LOCALH~1\AppData\Local\Temp\ccMRJP7h.s:324    .text._write:0000000000000024 .L16
C:\Users\LOCALH~1\AppData\Local\Temp\ccMRJP7h.s:310    .text._write:0000000000000016 .L15
C:\Users\LOCALH~1\AppData\Local\Temp\ccMRJP7h.s:368    .text._sbrk:0000000000000000 .L0 
C:\Users\LOCALH~1\AppData\Local\Temp\ccMRJP7h.s:375    .text._sbrk:000000000000000c .L0 
C:\Users\LOCALH~1\AppData\Local\Temp\ccMRJP7h.s:382    .text._sbrk:000000000000001a .L0 
C:\Users\LOCALH~1\AppData\Local\Temp\ccMRJP7h.s:390    .text._sbrk:000000000000002a .L24
C:\Users\LOCALH~1\AppData\Local\Temp\ccMRJP7h.s:1330   .debug_abbrev:0000000000000000 .Ldebug_abbrev0
C:\Users\LOCALH~1\AppData\Local\Temp\ccMRJP7h.s:2370   .debug_str:00000000000003ae .LASF97
C:\Users\LOCALH~1\AppData\Local\Temp\ccMRJP7h.s:2409   .debug_line_str:0000000000000055 .LASF0
C:\Users\LOCALH~1\AppData\Local\Temp\ccMRJP7h.s:2407   .debug_line_str:0000000000000000 .LASF1
C:\Users\LOCALH~1\AppData\Local\Temp\ccMRJP7h.s:2173   .debug_rnglists:000000000000000c .LLRL8
C:\Users\LOCALH~1\AppData\Local\Temp\ccMRJP7h.s:2204   .debug_line:0000000000000000 .Ldebug_line0
C:\Users\LOCALH~1\AppData\Local\Temp\ccMRJP7h.s:2256   .debug_str:0000000000000105 .LASF2
C:\Users\LOCALH~1\AppData\Local\Temp\ccMRJP7h.s:2274   .debug_str:0000000000000164 .LASF5
C:\Users\LOCALH~1\AppData\Local\Temp\ccMRJP7h.s:2288   .debug_str:00000000000001ac .LASF3
C:\Users\LOCALH~1\AppData\Local\Temp\ccMRJP7h.s:2236   .debug_str:000000000000009e .LASF4
C:\Users\LOCALH~1\AppData\Local\Temp\ccMRJP7h.s:2230   .debug_str:0000000000000076 .LASF6
C:\Users\LOCALH~1\AppData\Local\Temp\ccMRJP7h.s:2326   .debug_str:0000000000000296 .LASF7
C:\Users\LOCALH~1\AppData\Local\Temp\ccMRJP7h.s:2270   .debug_str:0000000000000156 .LASF8
C:\Users\LOCALH~1\AppData\Local\Temp\ccMRJP7h.s:2362   .debug_str:0000000000000379 .LASF9
C:\Users\LOCALH~1\AppData\Local\Temp\ccMRJP7h.s:2304   .debug_str:0000000000000210 .LASF10
C:\Users\LOCALH~1\AppData\Local\Temp\ccMRJP7h.s:2266   .debug_str:0000000000000143 .LASF11
C:\Users\LOCALH~1\AppData\Local\Temp\ccMRJP7h.s:2216   .debug_str:000000000000003e .LASF12
C:\Users\LOCALH~1\AppData\Local\Temp\ccMRJP7h.s:2292   .debug_str:00000000000001c3 .LASF13
C:\Users\LOCALH~1\AppData\Local\Temp\ccMRJP7h.s:2300   .debug_str:00000000000001fa .LASF14
C:\Users\LOCALH~1\AppData\Local\Temp\ccMRJP7h.s:2394   .debug_str:000000000000053b .LASF15
C:\Users\LOCALH~1\AppData\Local\Temp\ccMRJP7h.s:2282   .debug_str:000000000000018a .LASF16
C:\Users\LOCALH~1\AppData\Local\Temp\ccMRJP7h.s:2324   .debug_str:0000000000000291 .LASF17
C:\Users\LOCALH~1\AppData\Local\Temp\ccMRJP7h.s:2246   .debug_str:00000000000000ce .LASF18
C:\Users\LOCALH~1\AppData\Local\Temp\ccMRJP7h.s:2302   .debug_str:0000000000000207 .LASF19
C:\Users\LOCALH~1\AppData\Local\Temp\ccMRJP7h.s:2296   .debug_str:00000000000001e0 .LASF20
C:\Users\LOCALH~1\AppData\Local\Temp\ccMRJP7h.s:2220   .debug_str:000000000000004f .LASF21
C:\Users\LOCALH~1\AppData\Local\Temp\ccMRJP7h.s:2254   .debug_str:00000000000000fd .LASF22
C:\Users\LOCALH~1\AppData\Local\Temp\ccMRJP7h.s:2400   .debug_str:0000000000000555 .LASF23
C:\Users\LOCALH~1\AppData\Local\Temp\ccMRJP7h.s:2358   .debug_str:000000000000035f .LASF24
C:\Users\LOCALH~1\AppData\Local\Temp\ccMRJP7h.s:2376   .debug_str:00000000000004d3 .LASF25
C:\Users\LOCALH~1\AppData\Local\Temp\ccMRJP7h.s:2398   .debug_str:000000000000054a .LASF26
C:\Users\LOCALH~1\AppData\Local\Temp\ccMRJP7h.s:2388   .debug_str:000000000000052a .LASF27
C:\Users\LOCALH~1\AppData\Local\Temp\ccMRJP7h.s:2314   .debug_str:0000000000000250 .LASF28
C:\Users\LOCALH~1\AppData\Local\Temp\ccMRJP7h.s:2332   .debug_str:00000000000002bf .LASF82
C:\Users\LOCALH~1\AppData\Local\Temp\ccMRJP7h.s:2218   .debug_str:0000000000000049 .LASF29
C:\Users\LOCALH~1\AppData\Local\Temp\ccMRJP7h.s:2210   .debug_str:000000000000001f .LASF30
C:\Users\LOCALH~1\AppData\Local\Temp\ccMRJP7h.s:2214   .debug_str:0000000000000039 .LASF31
C:\Users\LOCALH~1\AppData\Local\Temp\ccMRJP7h.s:2294   .debug_str:00000000000001da .LASF32
C:\Users\LOCALH~1\AppData\Local\Temp\ccMRJP7h.s:2336   .debug_str:00000000000002dd .LASF33
C:\Users\LOCALH~1\AppData\Local\Temp\ccMRJP7h.s:2396   .debug_str:0000000000000545 .LASF34
C:\Users\LOCALH~1\AppData\Local\Temp\ccMRJP7h.s:2206   .debug_str:0000000000000000 .LASF35
C:\Users\LOCALH~1\AppData\Local\Temp\ccMRJP7h.s:2226   .debug_str:0000000000000069 .LASF36
C:\Users\LOCALH~1\AppData\Local\Temp\ccMRJP7h.s:2340   .debug_str:00000000000002f9 .LASF37
C:\Users\LOCALH~1\AppData\Local\Temp\ccMRJP7h.s:2240   .debug_str:00000000000000b2 .LASF38
C:\Users\LOCALH~1\AppData\Local\Temp\ccMRJP7h.s:2238   .debug_str:00000000000000a8 .LASF39
C:\Users\LOCALH~1\AppData\Local\Temp\ccMRJP7h.s:2344   .debug_str:0000000000000311 .LASF40
C:\Users\LOCALH~1\AppData\Local\Temp\ccMRJP7h.s:2310   .debug_str:000000000000023f .LASF41
C:\Users\LOCALH~1\AppData\Local\Temp\ccMRJP7h.s:2346   .debug_str:000000000000031b .LASF42
C:\Users\LOCALH~1\AppData\Local\Temp\ccMRJP7h.s:2390   .debug_str:000000000000052f .LASF43
C:\Users\LOCALH~1\AppData\Local\Temp\ccMRJP7h.s:2348   .debug_str:0000000000000325 .LASF44
C:\Users\LOCALH~1\AppData\Local\Temp\ccMRJP7h.s:2392   .debug_str:0000000000000535 .LASF45
C:\Users\LOCALH~1\AppData\Local\Temp\ccMRJP7h.s:2350   .debug_str:000000000000032f .LASF46
C:\Users\LOCALH~1\AppData\Local\Temp\ccMRJP7h.s:2352   .debug_str:0000000000000339 .LASF47
C:\Users\LOCALH~1\AppData\Local\Temp\ccMRJP7h.s:2316   .debug_str:000000000000025d .LASF48
C:\Users\LOCALH~1\AppData\Local\Temp\ccMRJP7h.s:2354   .debug_str:0000000000000343 .LASF49
C:\Users\LOCALH~1\AppData\Local\Temp\ccMRJP7h.s:2232   .debug_str:0000000000000081 .LASF50
C:\Users\LOCALH~1\AppData\Local\Temp\ccMRJP7h.s:2284   .debug_str:0000000000000196 .LASF51
C:\Users\LOCALH~1\AppData\Local\Temp\ccMRJP7h.s:2330   .debug_str:00000000000002af .LASF52
C:\Users\LOCALH~1\AppData\Local\Temp\ccMRJP7h.s:2374   .debug_str:00000000000004c2 .LASF53
C:\Users\LOCALH~1\AppData\Local\Temp\ccMRJP7h.s:2356   .debug_str:000000000000034d .LASF54
C:\Users\LOCALH~1\AppData\Local\Temp\ccMRJP7h.s:2342   .debug_str:0000000000000303 .LASF55
C:\Users\LOCALH~1\AppData\Local\Temp\ccMRJP7h.s:2386   .debug_str:0000000000000514 .LASF56
C:\Users\LOCALH~1\AppData\Local\Temp\ccMRJP7h.s:2378   .debug_str:00000000000004d9 .LASF57
C:\Users\LOCALH~1\AppData\Local\Temp\ccMRJP7h.s:2334   .debug_str:00000000000002cf .LASF58
C:\Users\LOCALH~1\AppData\Local\Temp\ccMRJP7h.s:2252   .debug_str:00000000000000ec .LASF59
C:\Users\LOCALH~1\AppData\Local\Temp\ccMRJP7h.s:2366   .debug_str:0000000000000389 .LASF60
C:\Users\LOCALH~1\AppData\Local\Temp\ccMRJP7h.s:2402   .debug_str:000000000000055c .LASF61
C:\Users\LOCALH~1\AppData\Local\Temp\ccMRJP7h.s:2258   .debug_str:0000000000000111 .LASF62
C:\Users\LOCALH~1\AppData\Local\Temp\ccMRJP7h.s:2384   .debug_str:0000000000000503 .LASF63
C:\Users\LOCALH~1\AppData\Local\Temp\ccMRJP7h.s:2264   .debug_str:000000000000013a .LASF64
C:\Users\LOCALH~1\AppData\Local\Temp\ccMRJP7h.s:2312   .debug_str:0000000000000245 .LASF65
C:\Users\LOCALH~1\AppData\Local\Temp\ccMRJP7h.s:2404   .debug_str:000000000000056c .LASF66
C:\Users\LOCALH~1\AppData\Local\Temp\ccMRJP7h.s:2298   .debug_str:00000000000001e9 .LASF67
C:\Users\LOCALH~1\AppData\Local\Temp\ccMRJP7h.s:2260   .debug_str:0000000000000121 .LASF68
C:\Users\LOCALH~1\AppData\Local\Temp\ccMRJP7h.s:2250   .debug_str:00000000000000db .LASF69
C:\Users\LOCALH~1\AppData\Local\Temp\ccMRJP7h.s:2234   .debug_str:000000000000008f .LASF70
C:\Users\LOCALH~1\AppData\Local\Temp\ccMRJP7h.s:2280   .debug_str:000000000000017d .LASF71
C:\Users\LOCALH~1\AppData\Local\Temp\ccMRJP7h.s:2322   .debug_str:0000000000000286 .LASF72
C:\Users\LOCALH~1\AppData\Local\Temp\ccMRJP7h.s:2318   .debug_str:0000000000000263 .LASF73
C:\Users\LOCALH~1\AppData\Local\Temp\ccMRJP7h.s:2306   .debug_str:0000000000000222 .LASF74
C:\Users\LOCALH~1\AppData\Local\Temp\ccMRJP7h.s:2272   .debug_str:000000000000015f .LASF75
C:\Users\LOCALH~1\AppData\Local\Temp\ccMRJP7h.s:2248   .debug_str:00000000000000d6 .LASF76
C:\Users\LOCALH~1\AppData\Local\Temp\ccMRJP7h.s:2242   .debug_str:00000000000000b8 .LASF77
C:\Users\LOCALH~1\AppData\Local\Temp\ccMRJP7h.s:2368   .debug_str:000000000000039a .LASF98
C:\Users\LOCALH~1\AppData\Local\Temp\ccMRJP7h.s:2360   .debug_str:000000000000036f .LASF78
C:\Users\LOCALH~1\AppData\Local\Temp\ccMRJP7h.s:2222   .debug_str:0000000000000058 .LASF79
C:\Users\LOCALH~1\AppData\Local\Temp\ccMRJP7h.s:2262   .debug_str:0000000000000130 .LASF80
C:\Users\LOCALH~1\AppData\Local\Temp\ccMRJP7h.s:2338   .debug_str:00000000000002e2 .LASF81
C:\Users\LOCALH~1\AppData\Local\Temp\ccMRJP7h.s:2224   .debug_str:0000000000000063 .LASF99
C:\Users\LOCALH~1\AppData\Local\Temp\ccMRJP7h.s:2276   .debug_str:000000000000016e .LASF100
C:\Users\LOCALH~1\AppData\Local\Temp\ccMRJP7h.s:2328   .debug_str:00000000000002a9 .LASF86
C:\Users\LOCALH~1\AppData\Local\Temp\ccMRJP7h.s:359    .text._sbrk:0000000000000000 .LFB35
C:\Users\LOCALH~1\AppData\Local\Temp\ccMRJP7h.s:396    .text._sbrk:000000000000002e .LFE35
C:\Users\LOCALH~1\AppData\Local\Temp\ccMRJP7h.s:2286   .debug_str:00000000000001a7 .LASF88
C:\Users\LOCALH~1\AppData\Local\Temp\ccMRJP7h.s:1949   .debug_loclists:000000000000000c .LLST7
C:\Users\LOCALH~1\AppData\Local\Temp\ccMRJP7h.s:2268   .debug_str:0000000000000151 .LASF83
C:\Users\LOCALH~1\AppData\Local\Temp\ccMRJP7h.s:2382   .debug_str:00000000000004f9 .LASF84
C:\Users\LOCALH~1\AppData\Local\Temp\ccMRJP7h.s:2244   .debug_str:00000000000000c7 .LASF85
C:\Users\LOCALH~1\AppData\Local\Temp\ccMRJP7h.s:2228   .debug_str:000000000000006f .LASF87
C:\Users\LOCALH~1\AppData\Local\Temp\ccMRJP7h.s:286    .text._write:0000000000000000 .LFB34
C:\Users\LOCALH~1\AppData\Local\Temp\ccMRJP7h.s:352    .text._write:000000000000004e .LFE34
C:\Users\LOCALH~1\AppData\Local\Temp\ccMRJP7h.s:1969   .debug_loclists:0000000000000031 .LLST3
C:\Users\LOCALH~1\AppData\Local\Temp\ccMRJP7h.s:1984   .debug_loclists:000000000000004b .LLST4
C:\Users\LOCALH~1\AppData\Local\Temp\ccMRJP7h.s:2364   .debug_str:0000000000000384 .LASF89
C:\Users\LOCALH~1\AppData\Local\Temp\ccMRJP7h.s:2023   .debug_loclists:0000000000000089 .LLST5
C:\Users\LOCALH~1\AppData\Local\Temp\ccMRJP7h.s:2035   .debug_loclists:00000000000000a0 .LLST6
C:\Users\LOCALH~1\AppData\Local\Temp\ccMRJP7h.s:331    .text._write:0000000000000032 .LVL19
C:\Users\LOCALH~1\AppData\Local\Temp\ccMRJP7h.s:348    .text._write:000000000000004c .LVL22
C:\Users\LOCALH~1\AppData\Local\Temp\ccMRJP7h.s:2380   .debug_str:00000000000004e7 .LASF90
C:\Users\LOCALH~1\AppData\Local\Temp\ccMRJP7h.s:257    .text.SDI_Printf_Enable:0000000000000000 .LFB33
C:\Users\LOCALH~1\AppData\Local\Temp\ccMRJP7h.s:279    .text.SDI_Printf_Enable:000000000000002a .LFE33
C:\Users\LOCALH~1\AppData\Local\Temp\ccMRJP7h.s:269    .text.SDI_Printf_Enable:0000000000000018 .LVL14
C:\Users\LOCALH~1\AppData\Local\Temp\ccMRJP7h.s:273    .text.SDI_Printf_Enable:0000000000000022 .LVL15
C:\Users\LOCALH~1\AppData\Local\Temp\ccMRJP7h.s:2208   .debug_str:000000000000000d .LASF91
C:\Users\LOCALH~1\AppData\Local\Temp\ccMRJP7h.s:165    .text.USART_Printf_Init:0000000000000000 .LFB32
C:\Users\LOCALH~1\AppData\Local\Temp\ccMRJP7h.s:250    .text.USART_Printf_Init:0000000000000072 .LFE32
C:\Users\LOCALH~1\AppData\Local\Temp\ccMRJP7h.s:2278   .debug_str:0000000000000174 .LASF92
C:\Users\LOCALH~1\AppData\Local\Temp\ccMRJP7h.s:2060   .debug_loclists:00000000000000d0 .LLST2
C:\Users\LOCALH~1\AppData\Local\Temp\ccMRJP7h.s:2372   .debug_str:00000000000004af .LASF93
C:\Users\LOCALH~1\AppData\Local\Temp\ccMRJP7h.s:2212   .debug_str:0000000000000025 .LASF94
C:\Users\LOCALH~1\AppData\Local\Temp\ccMRJP7h.s:188    .text.USART_Printf_Init:000000000000001a .LVL8
C:\Users\LOCALH~1\AppData\Local\Temp\ccMRJP7h.s:210    .text.USART_Printf_Init:000000000000003a .LVL9
C:\Users\LOCALH~1\AppData\Local\Temp\ccMRJP7h.s:236    .text.USART_Printf_Init:000000000000005a .LVL12
C:\Users\LOCALH~1\AppData\Local\Temp\ccMRJP7h.s:241    .text.USART_Printf_Init:0000000000000068 .LVL13
C:\Users\LOCALH~1\AppData\Local\Temp\ccMRJP7h.s:2290   .debug_str:00000000000001ba .LASF95
C:\Users\LOCALH~1\AppData\Local\Temp\ccMRJP7h.s:104    .text.Delay_Ms:0000000000000000 .LFB31
C:\Users\LOCALH~1\AppData\Local\Temp\ccMRJP7h.s:158    .text.Delay_Ms:000000000000003a .LFE31
C:\Users\LOCALH~1\AppData\Local\Temp\ccMRJP7h.s:2092   .debug_loclists:000000000000010d .LLST1
C:\Users\LOCALH~1\AppData\Local\Temp\ccMRJP7h.s:2320   .debug_str:000000000000027d .LASF96
C:\Users\LOCALH~1\AppData\Local\Temp\ccMRJP7h.s:43     .text.Delay_Us:0000000000000000 .LFB30
C:\Users\LOCALH~1\AppData\Local\Temp\ccMRJP7h.s:97     .text.Delay_Us:000000000000003a .LFE30
C:\Users\LOCALH~1\AppData\Local\Temp\ccMRJP7h.s:2114   .debug_loclists:0000000000000132 .LLST0
C:\Users\LOCALH~1\AppData\Local\Temp\ccMRJP7h.s:2308   .debug_str:0000000000000234 .LASF101
C:\Users\LOCALH~1\AppData\Local\Temp\ccMRJP7h.s:15     .text.Delay_Init:0000000000000000 .LFB29
C:\Users\LOCALH~1\AppData\Local\Temp\ccMRJP7h.s:36     .text.Delay_Init:0000000000000032 .LFE29
C:\Users\LOCALH~1\AppData\Local\Temp\ccMRJP7h.s:403    .text._fini:0000000000000000 .LFB36
C:\Users\LOCALH~1\AppData\Local\Temp\ccMRJP7h.s:409    .text._fini:0000000000000002 .LFE36
C:\Users\LOCALH~1\AppData\Local\Temp\ccMRJP7h.s:362    .text._sbrk:0000000000000000 .LVL23
C:\Users\LOCALH~1\AppData\Local\Temp\ccMRJP7h.s:373    .text._sbrk:000000000000000c .LVL24
C:\Users\LOCALH~1\AppData\Local\Temp\ccMRJP7h.s:378    .text._sbrk:0000000000000016 .LVL25
C:\Users\LOCALH~1\AppData\Local\Temp\ccMRJP7h.s:289    .text._write:0000000000000000 .LVL16
C:\Users\LOCALH~1\AppData\Local\Temp\ccMRJP7h.s:309    .text._write:0000000000000016 .LVL18
C:\Users\LOCALH~1\AppData\Local\Temp\ccMRJP7h.s:335    .text._write:0000000000000034 .LVL20
C:\Users\LOCALH~1\AppData\Local\Temp\ccMRJP7h.s:343    .text._write:0000000000000040 .LVL21
C:\Users\LOCALH~1\AppData\Local\Temp\ccMRJP7h.s:298    .text._write:0000000000000008 .LVL17
C:\Users\LOCALH~1\AppData\Local\Temp\ccMRJP7h.s:168    .text.USART_Printf_Init:0000000000000000 .LVL6
C:\Users\LOCALH~1\AppData\Local\Temp\ccMRJP7h.s:180    .text.USART_Printf_Init:000000000000000c .LVL7
C:\Users\LOCALH~1\AppData\Local\Temp\ccMRJP7h.s:221    .text.USART_Printf_Init:0000000000000040 .LVL10
C:\Users\LOCALH~1\AppData\Local\Temp\ccMRJP7h.s:226    .text.USART_Printf_Init:0000000000000046 .LVL11
C:\Users\LOCALH~1\AppData\Local\Temp\ccMRJP7h.s:119    .text.Delay_Ms:000000000000000c .LVL4
C:\Users\LOCALH~1\AppData\Local\Temp\ccMRJP7h.s:125    .text.Delay_Ms:0000000000000018 .LVL5
C:\Users\LOCALH~1\AppData\Local\Temp\ccMRJP7h.s:58     .text.Delay_Us:000000000000000c .LVL1
C:\Users\LOCALH~1\AppData\Local\Temp\ccMRJP7h.s:64     .text.Delay_Us:0000000000000018 .LVL2
C:\Users\LOCALH~1\AppData\Local\Temp\ccMRJP7h.s:452    .debug_info:0000000000000000 .Ldebug_info0
C:\Users\LOCALH~1\AppData\Local\Temp\ccMRJP7h.s:416    .text._init:0000000000000000 .LFB39
C:\Users\LOCALH~1\AppData\Local\Temp\ccMRJP7h.s:421    .text._init:0000000000000002 .LFE39

UNDEFINED SYMBOLS
SystemCoreClock
__riscv_save_1
RCC_APB2PeriphClockCmd
GPIO_Init
USART_Init
USART_Cmd
__riscv_restore_1
__riscv_save_0
__riscv_restore_0
__riscv_save_4
__riscv_restore_4
USART_GetFlagStatus
USART_SendData
_end
_heap_end
